	.file	"calculadorBalisiticaGraficoApp.cpp"
	.text
.Ltext0:
	.cfi_sections	.debug_frame
	.section .rdata,"dr"
_ZStL19piecewise_construct:
	.space 1
	.section	.text$_ZNKSt9type_info4nameEv,"x"
	.linkonce discard
	.align 2
	.globl	_ZNKSt9type_info4nameEv
	.def	_ZNKSt9type_info4nameEv;	.scl	2;	.type	32;	.endef
	.seh_proc	_ZNKSt9type_info4nameEv
_ZNKSt9type_info4nameEv:
.LFB711:
	.file 1 "C:/Program Files/CodeBlocks/MinGW/lib/gcc/x86_64-w64-mingw32/8.1.0/include/c++/typeinfo"
	.loc 1 99 17
	.cfi_startproc
	pushq	%rbp
	.seh_pushreg	%rbp
	.cfi_def_cfa_offset 16
	.cfi_offset 6, -16
	movq	%rsp, %rbp
	.seh_setframe	%rbp, 0
	.cfi_def_cfa_register 6
	.seh_endprologue
	movq	%rcx, 16(%rbp)
	.loc 1 100 14
	movq	16(%rbp), %rax
	movq	8(%rax), %rax
	.loc 1 100 22
	movzbl	(%rax), %eax
	.loc 1 100 31
	cmpb	$42, %al
	jne	.L2
	.loc 1 100 33 discriminator 1
	movq	16(%rbp), %rax
	movq	8(%rax), %rax
	.loc 1 100 31 discriminator 1
	addq	$1, %rax
	.loc 1 100 46 discriminator 1
	jmp	.L4
.L2:
	.loc 1 100 31 discriminator 2
	movq	16(%rbp), %rax
	movq	8(%rax), %rax
.L4:
	.loc 1 100 54 discriminator 5
	popq	%rbp
	.cfi_restore 6
	.cfi_def_cfa 7, 8
	ret
	.cfi_endproc
.LFE711:
	.seh_endproc
	.section .rdata,"dr"
	.align 4
_ZL15wxInvalidOffset:
	.long	-1
	.section	.text$_ZN23wxCriticalSectionLockerC1ER17wxCriticalSection,"x"
	.linkonce discard
	.align 2
	.globl	_ZN23wxCriticalSectionLockerC1ER17wxCriticalSection
	.def	_ZN23wxCriticalSectionLockerC1ER17wxCriticalSection;	.scl	2;	.type	32;	.endef
	.seh_proc	_ZN23wxCriticalSectionLockerC1ER17wxCriticalSection
_ZN23wxCriticalSectionLockerC1ER17wxCriticalSection:
.LFB7449:
	.file 2 "../wxMSW-3.0.5_gcc810_x64_Dev/include/wx/thread.h"
	.loc 2 304 5
	.cfi_startproc
	pushq	%rbp
	.seh_pushreg	%rbp
	.cfi_def_cfa_offset 16
	.cfi_offset 6, -16
	movq	%rsp, %rbp
	.seh_setframe	%rbp, 0
	.cfi_def_cfa_register 6
	subq	$32, %rsp
	.seh_stackalloc	32
	.seh_endprologue
	movq	%rcx, 16(%rbp)
	movq	%rdx, 24(%rbp)
.LBB2:
	.loc 2 305 24
	movq	16(%rbp), %rax
	movq	24(%rbp), %rdx
	movq	%rdx, (%rax)
	.loc 2 307 9
	movq	16(%rbp), %rax
	movq	(%rax), %rax
	.loc 2 307 25
	movq	%rax, %rcx
	call	_ZN17wxCriticalSection5EnterEv
.LBE2:
	.loc 2 308 5
	nop
	addq	$32, %rsp
	popq	%rbp
	.cfi_restore 6
	.cfi_def_cfa 7, 8
	ret
	.cfi_endproc
.LFE7449:
	.seh_endproc
	.section	.text$_ZN23wxCriticalSectionLockerD1Ev,"x"
	.linkonce discard
	.align 2
	.globl	_ZN23wxCriticalSectionLockerD1Ev
	.def	_ZN23wxCriticalSectionLockerD1Ev;	.scl	2;	.type	32;	.endef
	.seh_proc	_ZN23wxCriticalSectionLockerD1Ev
_ZN23wxCriticalSectionLockerD1Ev:
.LFB7452:
	.loc 2 310 5
	.cfi_startproc
	pushq	%rbp
	.seh_pushreg	%rbp
	.cfi_def_cfa_offset 16
	.cfi_offset 6, -16
	movq	%rsp, %rbp
	.seh_setframe	%rbp, 0
	.cfi_def_cfa_register 6
	subq	$32, %rsp
	.seh_stackalloc	32
	.seh_endprologue
	movq	%rcx, 16(%rbp)
.LBB3:
	.loc 2 312 9
	movq	16(%rbp), %rax
	movq	(%rax), %rax
	.loc 2 312 25
	movq	%rax, %rcx
	call	_ZN17wxCriticalSection5LeaveEv
.LBE3:
	.loc 2 313 5
	nop
	addq	$32, %rsp
	popq	%rbp
	.cfi_restore 6
	.cfi_def_cfa 7, 8
	ret
	.cfi_endproc
.LFE7452:
	.def	__gxx_personality_seh0;	.scl	2;	.type	32;	.endef
	.seh_handler	__gxx_personality_seh0, @unwind, @except
	.seh_handlerdata
.LLSDA7452:
	.byte	0xff
	.byte	0xff
	.byte	0x1
	.uleb128 .LLSDACSE7452-.LLSDACSB7452
.LLSDACSB7452:
.LLSDACSE7452:
	.section	.text$_ZN23wxCriticalSectionLockerD1Ev,"x"
	.linkonce discard
	.seh_endproc
	.section	.text$_ZN8wxThread8OnDeleteEv,"x"
	.linkonce discard
	.align 2
	.globl	_ZN8wxThread8OnDeleteEv
	.def	_ZN8wxThread8OnDeleteEv;	.scl	2;	.type	32;	.endef
	.seh_proc	_ZN8wxThread8OnDeleteEv
_ZN8wxThread8OnDeleteEv:
.LFB7458:
	.loc 2 627 18
	.cfi_startproc
	pushq	%rbp
	.seh_pushreg	%rbp
	.cfi_def_cfa_offset 16
	.cfi_offset 6, -16
	movq	%rsp, %rbp
	.seh_setframe	%rbp, 0
	.cfi_def_cfa_register 6
	.seh_endprologue
	movq	%rcx, 16(%rbp)
	.loc 2 627 30
	nop
	popq	%rbp
	.cfi_restore 6
	.cfi_def_cfa 7, 8
	ret
	.cfi_endproc
.LFE7458:
	.seh_endproc
	.section	.text$_ZN8wxThread6OnKillEv,"x"
	.linkonce discard
	.align 2
	.globl	_ZN8wxThread6OnKillEv
	.def	_ZN8wxThread6OnKillEv;	.scl	2;	.type	32;	.endef
	.seh_proc	_ZN8wxThread6OnKillEv
_ZN8wxThread6OnKillEv:
.LFB7459:
	.loc 2 631 18
	.cfi_startproc
	pushq	%rbp
	.seh_pushreg	%rbp
	.cfi_def_cfa_offset 16
	.cfi_offset 6, -16
	movq	%rsp, %rbp
	.seh_setframe	%rbp, 0
	.cfi_def_cfa_register 6
	.seh_endprologue
	movq	%rcx, 16(%rbp)
	.loc 2 631 28
	nop
	popq	%rbp
	.cfi_restore 6
	.cfi_def_cfa 7, 8
	ret
	.cfi_endproc
.LFE7459:
	.seh_endproc
	.section	.text$_ZN8wxThread6OnExitEv,"x"
	.linkonce discard
	.align 2
	.globl	_ZN8wxThread6OnExitEv
	.def	_ZN8wxThread6OnExitEv;	.scl	2;	.type	32;	.endef
	.seh_proc	_ZN8wxThread6OnExitEv
_ZN8wxThread6OnExitEv:
.LFB7460:
	.loc 2 641 18
	.cfi_startproc
	pushq	%rbp
	.seh_pushreg	%rbp
	.cfi_def_cfa_offset 16
	.cfi_offset 6, -16
	movq	%rsp, %rbp
	.seh_setframe	%rbp, 0
	.cfi_def_cfa_register 6
	.seh_endprologue
	movq	%rcx, 16(%rbp)
	.loc 2 641 29
	nop
	popq	%rbp
	.cfi_restore 6
	.cfi_def_cfa 7, 8
	ret
	.cfi_endproc
.LFE7460:
	.seh_endproc
	.section	.text$_ZN20wxThreadHelperThread5EntryEv,"x"
	.linkonce discard
	.align 2
	.globl	_ZN20wxThreadHelperThread5EntryEv
	.def	_ZN20wxThreadHelperThread5EntryEv;	.scl	2;	.type	32;	.endef
	.seh_proc	_ZN20wxThreadHelperThread5EntryEv
_ZN20wxThreadHelperThread5EntryEv:
.LFB7475:
	.loc 2 767 1
	.cfi_startproc
	pushq	%rbp
	.seh_pushreg	%rbp
	.cfi_def_cfa_offset 16
	.cfi_offset 6, -16
	pushq	%rbx
	.seh_pushreg	%rbx
	.cfi_def_cfa_offset 24
	.cfi_offset 3, -24
	subq	$56, %rsp
	.seh_stackalloc	56
	.cfi_def_cfa_offset 80
	leaq	128(%rsp), %rbp
	.seh_setframe	%rbp, 128
	.cfi_def_cfa 6, -48
	.seh_endprologue
	movq	%rcx, -48(%rbp)
	.loc 2 768 27
	movq	-48(%rbp), %rax
	movq	64(%rax), %rdx
	movq	-48(%rbp), %rax
	movq	64(%rax), %rax
	.loc 2 768 41
	movq	(%rax), %rax
	addq	$16, %rax
	movq	(%rax), %rax
	.loc 2 768 40
	movq	%rdx, %rcx
	call	*%rax
.LVL0:
	movq	%rax, -88(%rbp)
	.loc 2 770 36
	movq	-48(%rbp), %rax
	movq	64(%rax), %rax
	.loc 2 770 44
	leaq	24(%rax), %rdx
	.loc 2 770 57
	leaq	-96(%rbp), %rax
	movq	%rax, %rcx
	call	_ZN23wxCriticalSectionLockerC1ER17wxCriticalSection
	.loc 2 776 10
	movq	-48(%rbp), %rax
	movq	64(%rax), %rax
	.loc 2 776 18
	movl	16(%rax), %eax
	.loc 2 776 5
	testl	%eax, %eax
	jne	.L11
	.loc 2 777 9
	movq	-48(%rbp), %rax
	movq	64(%rax), %rax
	.loc 2 777 26
	movq	$0, 8(%rax)
.L11:
	.loc 2 779 12
	movq	-88(%rbp), %rbx
	.loc 2 770 57
	leaq	-96(%rbp), %rax
	movq	%rax, %rcx
	call	_ZN23wxCriticalSectionLockerD1Ev
	.loc 2 779 12
	movq	%rbx, %rax
	.loc 2 780 1
	addq	$56, %rsp
	popq	%rbx
	.cfi_restore 3
	popq	%rbp
	.cfi_restore 6
	.cfi_def_cfa 7, -40
	ret
	.cfi_endproc
.LFE7475:
	.seh_endproc
	.section	.text$_ZN16wxTypeIdentifierC1EPKc,"x"
	.linkonce discard
	.align 2
	.globl	_ZN16wxTypeIdentifierC1EPKc
	.def	_ZN16wxTypeIdentifierC1EPKc;	.scl	2;	.type	32;	.endef
	.seh_proc	_ZN16wxTypeIdentifierC1EPKc
_ZN16wxTypeIdentifierC1EPKc:
.LFB7506:
	.file 3 "../wxMSW-3.0.5_gcc810_x64_Dev/include/wx/typeinfo.h"
	.loc 3 66 5
	.cfi_startproc
	pushq	%rbp
	.seh_pushreg	%rbp
	.cfi_def_cfa_offset 16
	.cfi_offset 6, -16
	movq	%rsp, %rbp
	.seh_setframe	%rbp, 0
	.cfi_def_cfa_register 6
	.seh_endprologue
	movq	%rcx, 16(%rbp)
	movq	%rdx, 24(%rbp)
.LBB4:
	.loc 3 68 21
	movq	16(%rbp), %rax
	movq	24(%rbp), %rdx
	movq	%rdx, (%rax)
.LBE4:
	.loc 3 69 5
	nop
	popq	%rbp
	.cfi_restore 6
	.cfi_def_cfa 7, 8
	ret
	.cfi_endproc
.LFE7506:
	.seh_endproc
	.section	.text$_ZN16wxTypeIdentifiereqERKS_,"x"
	.linkonce discard
	.align 2
	.globl	_ZN16wxTypeIdentifiereqERKS_
	.def	_ZN16wxTypeIdentifiereqERKS_;	.scl	2;	.type	32;	.endef
	.seh_proc	_ZN16wxTypeIdentifiereqERKS_
_ZN16wxTypeIdentifiereqERKS_:
.LFB7507:
	.loc 3 71 10
	.cfi_startproc
	pushq	%rbp
	.seh_pushreg	%rbp
	.cfi_def_cfa_offset 16
	.cfi_offset 6, -16
	movq	%rsp, %rbp
	.seh_setframe	%rbp, 0
	.cfi_def_cfa_register 6
	subq	$32, %rsp
	.seh_stackalloc	32
	.seh_endprologue
	movq	%rcx, 16(%rbp)
	movq	%rdx, 24(%rbp)
	.loc 3 73 42
	movq	24(%rbp), %rax
	movq	(%rax), %rdx
	.loc 3 73 22
	movq	16(%rbp), %rax
	movq	(%rax), %rax
	movq	%rax, %rcx
	call	strcmp
	.loc 3 73 58
	testl	%eax, %eax
	sete	%al
	.loc 3 74 5
	addq	$32, %rsp
	popq	%rbp
	.cfi_restore 6
	.cfi_def_cfa 7, 8
	ret
	.cfi_endproc
.LFE7507:
	.seh_endproc
	.section	.text$_ZNK20wxObjectEventFunctor10IsMatchingERK14wxEventFunctor,"x"
	.linkonce discard
	.align 2
	.globl	_ZNK20wxObjectEventFunctor10IsMatchingERK14wxEventFunctor
	.def	_ZNK20wxObjectEventFunctor10IsMatchingERK14wxEventFunctor;	.scl	2;	.type	32;	.endef
	.seh_proc	_ZNK20wxObjectEventFunctor10IsMatchingERK14wxEventFunctor
_ZNK20wxObjectEventFunctor10IsMatchingERK14wxEventFunctor:
.LFB8538:
	.file 4 "../wxMSW-3.0.5_gcc810_x64_Dev/include/wx/event.h"
	.loc 4 249 18
	.cfi_startproc
	pushq	%rbp
	.seh_pushreg	%rbp
	.cfi_def_cfa_offset 16
	.cfi_offset 6, -16
	movq	%rsp, %rbp
	.seh_setframe	%rbp, 0
	.cfi_def_cfa_register 6
	subq	$64, %rsp
	.seh_stackalloc	64
	.seh_endprologue
	movq	%rcx, 16(%rbp)
	movq	%rdx, 24(%rbp)
.LBB5:
	.loc 4 251 83
	movq	16(%rbp), %rax
	movq	(%rax), %rax
	subq	$8, %rax
	.loc 4 251 58
	movq	(%rax), %rax
	movq	%rax, %rcx
	call	_ZNKSt9type_info4nameEv
	movq	%rax, %rdx
	leaq	-24(%rbp), %rax
	movq	%rax, %rcx
	call	_ZN16wxTypeIdentifierC1EPKc
	.loc 4 251 38
	movq	24(%rbp), %rax
	movq	(%rax), %rax
	subq	$8, %rax
	.loc 4 251 14
	movq	(%rax), %rax
	movq	%rax, %rcx
	call	_ZNKSt9type_info4nameEv
	movq	%rax, %rdx
	leaq	-16(%rbp), %rax
	movq	%rax, %rcx
	call	_ZN16wxTypeIdentifierC1EPKc
	.loc 4 251 55
	leaq	-24(%rbp), %rdx
	leaq	-16(%rbp), %rax
	movq	%rax, %rcx
	call	_ZN16wxTypeIdentifiereqERKS_
	.loc 4 251 9
	testb	%al, %al
	je	.L17
.LBB6:
	.loc 4 253 41
	movq	24(%rbp), %rax
	movq	%rax, -8(%rbp)
	.loc 4 262 40
	movq	16(%rbp), %rax
	movq	16(%rax), %rdx
	movq	-8(%rbp), %rax
	movq	16(%rax), %rax
	.loc 4 262 74
	cmpq	%rax, %rdx
	jne	.L18
	.loc 4 262 40 discriminator 1
	movq	16(%rbp), %rax
	movq	24(%rax), %rdx
	movq	-8(%rbp), %rax
	movq	24(%rax), %rax
	.loc 4 262 31 discriminator 1
	cmpq	%rax, %rdx
	je	.L19
	.loc 4 262 40 discriminator 4
	movq	16(%rbp), %rax
	movq	16(%rax), %rax
	.loc 4 262 31 discriminator 4
	testq	%rax, %rax
	je	.L19
.L18:
	.loc 4 262 70 discriminator 6
	movq	-8(%rbp), %rax
	movq	16(%rax), %rax
	.loc 4 262 49 discriminator 6
	testq	%rax, %rax
	jne	.L20
.L19:
	.loc 4 263 22 discriminator 7
	movq	16(%rbp), %rax
	movq	8(%rax), %rdx
	.loc 4 263 41 discriminator 7
	movq	-8(%rbp), %rax
	movq	8(%rax), %rax
	.loc 4 262 74 discriminator 7
	cmpq	%rax, %rdx
	je	.L21
	.loc 4 263 60
	movq	-8(%rbp), %rax
	movq	8(%rax), %rax
	.loc 4 263 51
	testq	%rax, %rax
	jne	.L20
.L21:
	.loc 4 262 74 discriminator 9
	movl	$1, %eax
	.loc 4 263 77 discriminator 9
	jmp	.L23
.L20:
	.loc 4 262 74 discriminator 8
	movl	$0, %eax
	.loc 4 263 77 discriminator 8
	jmp	.L23
.L17:
.LBE6:
	.loc 4 266 20
	movl	$0, %eax
.L23:
.LBE5:
	.loc 4 267 5
	addq	$64, %rsp
	popq	%rbp
	.cfi_restore 6
	.cfi_def_cfa 7, 8
	ret
	.cfi_endproc
.LFE8538:
	.seh_endproc
	.section	.text$_ZNK20wxObjectEventFunctor13GetEvtHandlerEv,"x"
	.linkonce discard
	.align 2
	.globl	_ZNK20wxObjectEventFunctor13GetEvtHandlerEv
	.def	_ZNK20wxObjectEventFunctor13GetEvtHandlerEv;	.scl	2;	.type	32;	.endef
	.seh_proc	_ZNK20wxObjectEventFunctor13GetEvtHandlerEv
_ZNK20wxObjectEventFunctor13GetEvtHandlerEv:
.LFB8539:
	.loc 4 269 27
	.cfi_startproc
	pushq	%rbp
	.seh_pushreg	%rbp
	.cfi_def_cfa_offset 16
	.cfi_offset 6, -16
	movq	%rsp, %rbp
	.seh_setframe	%rbp, 0
	.cfi_def_cfa_register 6
	.seh_endprologue
	movq	%rcx, 16(%rbp)
	.loc 4 270 18
	movq	16(%rbp), %rax
	movq	8(%rax), %rax
	.loc 4 270 29
	popq	%rbp
	.cfi_restore 6
	.cfi_def_cfa 7, 8
	ret
	.cfi_endproc
.LFE8539:
	.seh_endproc
	.section	.text$_ZNK20wxObjectEventFunctor12GetEvtMethodEv,"x"
	.linkonce discard
	.align 2
	.globl	_ZNK20wxObjectEventFunctor12GetEvtMethodEv
	.def	_ZNK20wxObjectEventFunctor12GetEvtMethodEv;	.scl	2;	.type	32;	.endef
	.seh_proc	_ZNK20wxObjectEventFunctor12GetEvtMethodEv
_ZNK20wxObjectEventFunctor12GetEvtMethodEv:
.LFB8540:
	.loc 4 272 29
	.cfi_startproc
	pushq	%rbp
	.seh_pushreg	%rbp
	.cfi_def_cfa_offset 16
	.cfi_offset 6, -16
	movq	%rsp, %rbp
	.seh_setframe	%rbp, 0
	.cfi_def_cfa_register 6
	.seh_endprologue
	movq	%rcx, 16(%rbp)
	movq	%rdx, 24(%rbp)
	.loc 4 273 18
	movq	16(%rbp), %rcx
	movq	24(%rbp), %rax
	movq	24(%rax), %rdx
	movq	16(%rax), %rax
	movq	%rax, (%rcx)
	movq	%rdx, 8(%rcx)
	.loc 4 273 28
	movq	16(%rbp), %rax
	popq	%rbp
	.cfi_restore 6
	.cfi_def_cfa 7, 8
	ret
	.cfi_endproc
.LFE8540:
	.seh_endproc
	.section	.text$_ZN12wxEvtHandler14SetNextHandlerEPS_,"x"
	.linkonce discard
	.align 2
	.globl	_ZN12wxEvtHandler14SetNextHandlerEPS_
	.def	_ZN12wxEvtHandler14SetNextHandlerEPS_;	.scl	2;	.type	32;	.endef
	.seh_proc	_ZN12wxEvtHandler14SetNextHandlerEPS_
_ZN12wxEvtHandler14SetNextHandlerEPS_:
.LFB9218:
	.loc 4 3346 18
	.cfi_startproc
	pushq	%rbp
	.seh_pushreg	%rbp
	.cfi_def_cfa_offset 16
	.cfi_offset 6, -16
	movq	%rsp, %rbp
	.seh_setframe	%rbp, 0
	.cfi_def_cfa_register 6
	.seh_endprologue
	movq	%rcx, 16(%rbp)
	movq	%rdx, 24(%rbp)
	.loc 4 3346 72
	movq	16(%rbp), %rax
	movq	24(%rbp), %rdx
	movq	%rdx, 24(%rax)
	.loc 4 3346 83
	nop
	popq	%rbp
	.cfi_restore 6
	.cfi_def_cfa 7, 8
	ret
	.cfi_endproc
.LFE9218:
	.seh_endproc
	.section	.text$_ZN12wxEvtHandler18SetPreviousHandlerEPS_,"x"
	.linkonce discard
	.align 2
	.globl	_ZN12wxEvtHandler18SetPreviousHandlerEPS_
	.def	_ZN12wxEvtHandler18SetPreviousHandlerEPS_;	.scl	2;	.type	32;	.endef
	.seh_proc	_ZN12wxEvtHandler18SetPreviousHandlerEPS_
_ZN12wxEvtHandler18SetPreviousHandlerEPS_:
.LFB9219:
	.loc 4 3347 18
	.cfi_startproc
	pushq	%rbp
	.seh_pushreg	%rbp
	.cfi_def_cfa_offset 16
	.cfi_offset 6, -16
	movq	%rsp, %rbp
	.seh_setframe	%rbp, 0
	.cfi_def_cfa_register 6
	.seh_endprologue
	movq	%rcx, 16(%rbp)
	movq	%rdx, 24(%rbp)
	.loc 4 3347 80
	movq	16(%rbp), %rax
	movq	24(%rbp), %rdx
	movq	%rdx, 32(%rax)
	.loc 4 3347 91
	nop
	popq	%rbp
	.cfi_restore 6
	.cfi_def_cfa 7, 8
	ret
	.cfi_endproc
.LFE9219:
	.seh_endproc
	.section	.text$_ZN12wxEvtHandler15AddPendingEventERK7wxEvent,"x"
	.linkonce discard
	.align 2
	.globl	_ZN12wxEvtHandler15AddPendingEventERK7wxEvent
	.def	_ZN12wxEvtHandler15AddPendingEventERK7wxEvent;	.scl	2;	.type	32;	.endef
	.seh_proc	_ZN12wxEvtHandler15AddPendingEventERK7wxEvent
_ZN12wxEvtHandler15AddPendingEventERK7wxEvent:
.LFB9222:
	.loc 4 3408 18
	.cfi_startproc
	pushq	%rbp
	.seh_pushreg	%rbp
	.cfi_def_cfa_offset 16
	.cfi_offset 6, -16
	pushq	%rbx
	.seh_pushreg	%rbx
	.cfi_def_cfa_offset 24
	.cfi_offset 3, -24
	subq	$40, %rsp
	.seh_stackalloc	40
	.cfi_def_cfa_offset 64
	leaq	128(%rsp), %rbp
	.seh_setframe	%rbp, 128
	.cfi_def_cfa 6, -64
	.seh_endprologue
	movq	%rcx, -64(%rbp)
	movq	%rdx, -56(%rbp)
	.loc 4 3416 33
	movq	-64(%rbp), %rax
	movq	(%rax), %rax
	addq	$64, %rax
	movq	(%rax), %rbx
	.loc 4 3416 32
	movq	-56(%rbp), %rax
	movq	(%rax), %rax
	addq	$40, %rax
	movq	(%rax), %rax
	.loc 4 3416 19
	movq	-56(%rbp), %rdx
	movq	%rdx, %rcx
	call	*%rax
.LVL1:
	movq	%rax, %rdx
	movq	-64(%rbp), %rcx
	call	*%rbx
.LVL2:
	.loc 4 3417 5
	nop
	addq	$40, %rsp
	popq	%rbx
	.cfi_restore 3
	popq	%rbp
	.cfi_restore 6
	.cfi_def_cfa 7, -24
	ret
	.cfi_endproc
.LFE9222:
	.seh_endproc
	.section	.text$_ZN12wxEvtHandler12TryValidatorER7wxEvent,"x"
	.linkonce discard
	.align 2
	.globl	_ZN12wxEvtHandler12TryValidatorER7wxEvent
	.def	_ZN12wxEvtHandler12TryValidatorER7wxEvent;	.scl	2;	.type	32;	.endef
	.seh_proc	_ZN12wxEvtHandler12TryValidatorER7wxEvent
_ZN12wxEvtHandler12TryValidatorER7wxEvent:
.LFB9246:
	.loc 4 3703 46
	.cfi_startproc
	pushq	%rbp
	.seh_pushreg	%rbp
	.cfi_def_cfa_offset 16
	.cfi_offset 6, -16
	movq	%rsp, %rbp
	.seh_setframe	%rbp, 0
	.cfi_def_cfa_register 6
	.seh_endprologue
	movq	%rcx, 16(%rbp)
	movq	%rdx, 24(%rbp)
	.loc 4 3703 79
	movl	$0, %eax
	.loc 4 3703 86
	popq	%rbp
	.cfi_restore 6
	.cfi_def_cfa 7, 8
	ret
	.cfi_endproc
.LFE9246:
	.seh_endproc
	.section	.text$_ZN12wxEvtHandler9TryParentER7wxEvent,"x"
	.linkonce discard
	.align 2
	.globl	_ZN12wxEvtHandler9TryParentER7wxEvent
	.def	_ZN12wxEvtHandler9TryParentER7wxEvent;	.scl	2;	.type	32;	.endef
	.seh_proc	_ZN12wxEvtHandler9TryParentER7wxEvent
_ZN12wxEvtHandler9TryParentER7wxEvent:
.LFB9247:
	.loc 4 3706 46
	.cfi_startproc
	pushq	%rbp
	.seh_pushreg	%rbp
	.cfi_def_cfa_offset 16
	.cfi_offset 6, -16
	movq	%rsp, %rbp
	.seh_setframe	%rbp, 0
	.cfi_def_cfa_register 6
	subq	$32, %rsp
	.seh_stackalloc	32
	.seh_endprologue
	movq	%rcx, 16(%rbp)
	movq	%rdx, 24(%rbp)
	.loc 4 3706 89
	movq	24(%rbp), %rax
	movq	%rax, %rdx
	movq	16(%rbp), %rcx
	call	_ZN12wxEvtHandler8DoTryAppER7wxEvent
	.loc 4 3706 98
	addq	$32, %rsp
	popq	%rbp
	.cfi_restore 6
	.cfi_def_cfa 7, 8
	ret
	.cfi_endproc
.LFE9247:
	.seh_endproc
	.section	.text$_ZN20wxObjectEventFunctorclEP12wxEvtHandlerR7wxEvent,"x"
	.linkonce discard
	.align 2
	.globl	_ZN20wxObjectEventFunctorclEP12wxEvtHandlerR7wxEvent
	.def	_ZN20wxObjectEventFunctorclEP12wxEvtHandlerR7wxEvent;	.scl	2;	.type	32;	.endef
	.seh_proc	_ZN20wxObjectEventFunctorclEP12wxEvtHandlerR7wxEvent
_ZN20wxObjectEventFunctorclEP12wxEvtHandlerR7wxEvent:
.LFB9338:
	.loc 4 3775 1
	.cfi_startproc
	pushq	%rbp
	.seh_pushreg	%rbp
	.cfi_def_cfa_offset 16
	.cfi_offset 6, -16
	movq	%rsp, %rbp
	.seh_setframe	%rbp, 0
	.cfi_def_cfa_register 6
	subq	$48, %rsp
	.seh_stackalloc	48
	.seh_endprologue
	movq	%rcx, 16(%rbp)
	movq	%rdx, 24(%rbp)
	movq	%r8, 32(%rbp)
	.loc 4 3776 40
	movq	16(%rbp), %rax
	movq	8(%rax), %rax
	.loc 4 3776 50
	testq	%rax, %rax
	je	.L36
	.loc 4 3776 50 is_stmt 0 discriminator 1
	movq	16(%rbp), %rax
	movq	8(%rax), %rax
	jmp	.L37
.L36:
	.loc 4 3776 50 discriminator 2
	movq	24(%rbp), %rax
.L37:
	.loc 4 3776 26 is_stmt 1 discriminator 4
	movq	%rax, -8(%rbp)
	.loc 4 3778 35 discriminator 4
	movq	16(%rbp), %rax
	movq	24(%rax), %rax
	.loc 4 3778 29 discriminator 4
	movq	%rax, %rdx
	movq	-8(%rbp), %rax
	leaq	(%rdx,%rax), %rcx
	.loc 4 3778 35 discriminator 4
	movq	16(%rbp), %rax
	movq	16(%rax), %rax
	andl	$1, %eax
	testq	%rax, %rax
	je	.L38
	.loc 4 3778 35 is_stmt 0 discriminator 1
	movq	16(%rbp), %rax
	movq	24(%rax), %rax
	movq	%rax, %rdx
	movq	-8(%rbp), %rax
	addq	%rdx, %rax
	movq	(%rax), %rdx
	movq	16(%rbp), %rax
	movq	16(%rax), %rax
	subq	$1, %rax
	addq	%rdx, %rax
	movq	(%rax), %rax
	jmp	.L39
.L38:
	.loc 4 3778 35 discriminator 2
	movq	16(%rbp), %rax
	movq	16(%rax), %rax
.L39:
	.loc 4 3778 29 is_stmt 1 discriminator 4
	movq	32(%rbp), %rdx
	call	*%rax
.LVL3:
	.loc 4 3779 1 discriminator 4
	nop
	addq	$48, %rsp
	popq	%rbp
	.cfi_restore 6
	.cfi_def_cfa 7, 8
	ret
	.cfi_endproc
.LFE9338:
	.seh_endproc
	.section	.text$_ZN16wxAppConsoleBase10CallOnInitEv,"x"
	.linkonce discard
	.align 2
	.globl	_ZN16wxAppConsoleBase10CallOnInitEv
	.def	_ZN16wxAppConsoleBase10CallOnInitEv;	.scl	2;	.type	32;	.endef
	.seh_proc	_ZN16wxAppConsoleBase10CallOnInitEv
_ZN16wxAppConsoleBase10CallOnInitEv:
.LFB14436:
	.file 5 "../wxMSW-3.0.5_gcc810_x64_Dev/include/wx/app.h"
	.loc 5 93 18
	.cfi_startproc
	pushq	%rbp
	.seh_pushreg	%rbp
	.cfi_def_cfa_offset 16
	.cfi_offset 6, -16
	movq	%rsp, %rbp
	.seh_setframe	%rbp, 0
	.cfi_def_cfa_register 6
	subq	$32, %rsp
	.seh_stackalloc	32
	.seh_endprologue
	movq	%rcx, 16(%rbp)
	.loc 5 93 47
	movq	16(%rbp), %rax
	movq	(%rax), %rax
	addq	$184, %rax
	movq	(%rax), %rax
	.loc 5 93 46
	movq	16(%rbp), %rcx
	call	*%rax
.LVL4:
	.loc 5 93 50
	addq	$32, %rsp
	popq	%rbp
	.cfi_restore 6
	.cfi_def_cfa 7, 8
	ret
	.cfi_endproc
.LFE14436:
	.seh_endproc
	.section	.text$_ZN16wxAppConsoleBase16OnEventLoopEnterEP15wxEventLoopBase,"x"
	.linkonce discard
	.align 2
	.globl	_ZN16wxAppConsoleBase16OnEventLoopEnterEP15wxEventLoopBase
	.def	_ZN16wxAppConsoleBase16OnEventLoopEnterEP15wxEventLoopBase;	.scl	2;	.type	32;	.endef
	.seh_proc	_ZN16wxAppConsoleBase16OnEventLoopEnterEP15wxEventLoopBase
_ZN16wxAppConsoleBase16OnEventLoopEnterEP15wxEventLoopBase:
.LFB14437:
	.loc 5 113 18
	.cfi_startproc
	pushq	%rbp
	.seh_pushreg	%rbp
	.cfi_def_cfa_offset 16
	.cfi_offset 6, -16
	movq	%rsp, %rbp
	.seh_setframe	%rbp, 0
	.cfi_def_cfa_register 6
	.seh_endprologue
	movq	%rcx, 16(%rbp)
	movq	%rdx, 24(%rbp)
	.loc 5 113 55
	nop
	popq	%rbp
	.cfi_restore 6
	.cfi_def_cfa 7, 8
	ret
	.cfi_endproc
.LFE14437:
	.seh_endproc
	.section	.text$_ZN16wxAppConsoleBase15OnEventLoopExitEP15wxEventLoopBase,"x"
	.linkonce discard
	.align 2
	.globl	_ZN16wxAppConsoleBase15OnEventLoopExitEP15wxEventLoopBase
	.def	_ZN16wxAppConsoleBase15OnEventLoopExitEP15wxEventLoopBase;	.scl	2;	.type	32;	.endef
	.seh_proc	_ZN16wxAppConsoleBase15OnEventLoopExitEP15wxEventLoopBase
_ZN16wxAppConsoleBase15OnEventLoopExitEP15wxEventLoopBase:
.LFB14438:
	.loc 5 121 18
	.cfi_startproc
	pushq	%rbp
	.seh_pushreg	%rbp
	.cfi_def_cfa_offset 16
	.cfi_offset 6, -16
	movq	%rsp, %rbp
	.seh_setframe	%rbp, 0
	.cfi_def_cfa_register 6
	.seh_endprologue
	movq	%rcx, 16(%rbp)
	movq	%rdx, 24(%rbp)
	.loc 5 121 54
	nop
	popq	%rbp
	.cfi_restore 6
	.cfi_def_cfa 7, 8
	ret
	.cfi_endproc
.LFE14438:
	.seh_endproc
	.section	.text$_ZN16wxAppConsoleBase16OnFatalExceptionEv,"x"
	.linkonce discard
	.align 2
	.globl	_ZN16wxAppConsoleBase16OnFatalExceptionEv
	.def	_ZN16wxAppConsoleBase16OnFatalExceptionEv;	.scl	2;	.type	32;	.endef
	.seh_proc	_ZN16wxAppConsoleBase16OnFatalExceptionEv
_ZN16wxAppConsoleBase16OnFatalExceptionEv:
.LFB14439:
	.loc 5 134 18
	.cfi_startproc
	pushq	%rbp
	.seh_pushreg	%rbp
	.cfi_def_cfa_offset 16
	.cfi_offset 6, -16
	movq	%rsp, %rbp
	.seh_setframe	%rbp, 0
	.cfi_def_cfa_register 6
	.seh_endprologue
	movq	%rcx, 16(%rbp)
	.loc 5 134 39
	nop
	popq	%rbp
	.cfi_restore 6
	.cfi_def_cfa 7, 8
	ret
	.cfi_endproc
.LFE14439:
	.seh_endproc
	.section	.text$_ZN16wxAppConsoleBase22SetInitializerFunctionEPFP12wxAppConsolevE,"x"
	.linkonce discard
	.globl	_ZN16wxAppConsoleBase22SetInitializerFunctionEPFP12wxAppConsolevE
	.def	_ZN16wxAppConsoleBase22SetInitializerFunctionEPFP12wxAppConsolevE;	.scl	2;	.type	32;	.endef
	.seh_proc	_ZN16wxAppConsoleBase22SetInitializerFunctionEPFP12wxAppConsolevE
_ZN16wxAppConsoleBase22SetInitializerFunctionEPFP12wxAppConsolevE:
.LFB14449:
	.loc 5 430 17
	.cfi_startproc
	pushq	%rbp
	.seh_pushreg	%rbp
	.cfi_def_cfa_offset 16
	.cfi_offset 6, -16
	movq	%rsp, %rbp
	.seh_setframe	%rbp, 0
	.cfi_def_cfa_register 6
	.seh_endprologue
	movq	%rcx, 16(%rbp)
	.loc 5 431 24
	movq	.refptr._ZN16wxAppConsoleBase12ms_appInitFnE(%rip), %rax
	movq	16(%rbp), %rdx
	movq	%rdx, (%rax)
	.loc 5 431 30
	nop
	popq	%rbp
	.cfi_restore 6
	.cfi_def_cfa 7, 8
	ret
	.cfi_endproc
.LFE14449:
	.seh_endproc
	.section	.text$_ZN16wxAppConsoleBase11GetInstanceEv,"x"
	.linkonce discard
	.globl	_ZN16wxAppConsoleBase11GetInstanceEv
	.def	_ZN16wxAppConsoleBase11GetInstanceEv;	.scl	2;	.type	32;	.endef
	.seh_proc	_ZN16wxAppConsoleBase11GetInstanceEv
_ZN16wxAppConsoleBase11GetInstanceEv:
.LFB14451:
	.loc 5 439 26
	.cfi_startproc
	.seh_endprologue
	.loc 5 439 49
	movq	.refptr._ZN16wxAppConsoleBase14ms_appInstanceE(%rip), %rax
	movq	(%rax), %rax
	.loc 5 439 65
	ret
	.cfi_endproc
.LFE14451:
	.seh_endproc
	.section	.text$_ZNK9wxAppBase13UsesEventLoopEv,"x"
	.linkonce discard
	.align 2
	.globl	_ZNK9wxAppBase13UsesEventLoopEv
	.def	_ZNK9wxAppBase13UsesEventLoopEv;	.scl	2;	.type	32;	.endef
	.seh_proc	_ZNK9wxAppBase13UsesEventLoopEv
_ZNK9wxAppBase13UsesEventLoopEv:
.LFB14453:
	.loc 5 585 18
	.cfi_startproc
	pushq	%rbp
	.seh_pushreg	%rbp
	.cfi_def_cfa_offset 16
	.cfi_offset 6, -16
	movq	%rsp, %rbp
	.seh_setframe	%rbp, 0
	.cfi_def_cfa_register 6
	.seh_endprologue
	movq	%rcx, 16(%rbp)
	.loc 5 585 49
	movl	$1, %eax
	.loc 5 585 55
	popq	%rbp
	.cfi_restore 6
	.cfi_def_cfa 7, 8
	ret
	.cfi_endproc
.LFE14453:
	.seh_endproc
	.section	.text$_ZNK9wxAppBase8IsActiveEv,"x"
	.linkonce discard
	.align 2
	.globl	_ZNK9wxAppBase8IsActiveEv
	.def	_ZNK9wxAppBase8IsActiveEv;	.scl	2;	.type	32;	.endef
	.seh_proc	_ZNK9wxAppBase8IsActiveEv
_ZNK9wxAppBase8IsActiveEv:
.LFB14454:
	.loc 5 592 18
	.cfi_startproc
	pushq	%rbp
	.seh_pushreg	%rbp
	.cfi_def_cfa_offset 16
	.cfi_offset 6, -16
	movq	%rsp, %rbp
	.seh_setframe	%rbp, 0
	.cfi_def_cfa_register 6
	.seh_endprologue
	movq	%rcx, 16(%rbp)
	.loc 5 592 44
	movq	16(%rbp), %rax
	movzbl	558(%rax), %eax
	.loc 5 592 56
	popq	%rbp
	.cfi_restore 6
	.cfi_def_cfa 7, 8
	ret
	.cfi_endproc
.LFE14454:
	.seh_endproc
	.section	.text$_ZN9wxAppBase12SetTopWindowEP8wxWindow,"x"
	.linkonce discard
	.align 2
	.globl	_ZN9wxAppBase12SetTopWindowEP8wxWindow
	.def	_ZN9wxAppBase12SetTopWindowEP8wxWindow;	.scl	2;	.type	32;	.endef
	.seh_proc	_ZN9wxAppBase12SetTopWindowEP8wxWindow
_ZN9wxAppBase12SetTopWindowEP8wxWindow:
.LFB14455:
	.loc 5 595 10
	.cfi_startproc
	pushq	%rbp
	.seh_pushreg	%rbp
	.cfi_def_cfa_offset 16
	.cfi_offset 6, -16
	movq	%rsp, %rbp
	.seh_setframe	%rbp, 0
	.cfi_def_cfa_register 6
	.seh_endprologue
	movq	%rcx, 16(%rbp)
	movq	%rdx, 24(%rbp)
	.loc 5 595 52
	movq	16(%rbp), %rax
	movq	24(%rbp), %rdx
	movq	%rdx, 544(%rax)
	.loc 5 595 59
	nop
	popq	%rbp
	.cfi_restore 6
	.cfi_def_cfa 7, 8
	ret
	.cfi_endproc
.LFE14455:
	.seh_endproc
	.section	.text$_ZN9wxAppBase14SetDisplayModeERK11wxVideoMode,"x"
	.linkonce discard
	.align 2
	.globl	_ZN9wxAppBase14SetDisplayModeERK11wxVideoMode
	.def	_ZN9wxAppBase14SetDisplayModeERK11wxVideoMode;	.scl	2;	.type	32;	.endef
	.seh_proc	_ZN9wxAppBase14SetDisplayModeERK11wxVideoMode
_ZN9wxAppBase14SetDisplayModeERK11wxVideoMode:
.LFB14458:
	.loc 5 622 18
	.cfi_startproc
	pushq	%rbp
	.seh_pushreg	%rbp
	.cfi_def_cfa_offset 16
	.cfi_offset 6, -16
	movq	%rsp, %rbp
	.seh_setframe	%rbp, 0
	.cfi_def_cfa_register 6
	.seh_endprologue
	movq	%rcx, 16(%rbp)
	movq	%rdx, 24(%rbp)
	.loc 5 622 63
	movl	$1, %eax
	.loc 5 622 69
	popq	%rbp
	.cfi_restore 6
	.cfi_def_cfa 7, 8
	ret
	.cfi_endproc
.LFE14458:
	.seh_endproc
	.section	.text$_ZN9wxAppBase14SetNativeThemeERK8wxString,"x"
	.linkonce discard
	.align 2
	.globl	_ZN9wxAppBase14SetNativeThemeERK8wxString
	.def	_ZN9wxAppBase14SetNativeThemeERK8wxString;	.scl	2;	.type	32;	.endef
	.seh_proc	_ZN9wxAppBase14SetNativeThemeERK8wxString
_ZN9wxAppBase14SetNativeThemeERK8wxString:
.LFB14463:
	.loc 5 641 18
	.cfi_startproc
	pushq	%rbp
	.seh_pushreg	%rbp
	.cfi_def_cfa_offset 16
	.cfi_offset 6, -16
	movq	%rsp, %rbp
	.seh_setframe	%rbp, 0
	.cfi_def_cfa_register 6
	.seh_endprologue
	movq	%rcx, 16(%rbp)
	movq	%rdx, 24(%rbp)
	.loc 5 641 60
	movl	$0, %eax
	.loc 5 641 67
	popq	%rbp
	.cfi_restore 6
	.cfi_def_cfa 7, 8
	ret
	.cfi_endproc
.LFE14463:
	.seh_endproc
	.section	.text$_ZN5wxApp12SetPrintModeEi,"x"
	.linkonce discard
	.align 2
	.globl	_ZN5wxApp12SetPrintModeEi
	.def	_ZN5wxApp12SetPrintModeEi;	.scl	2;	.type	32;	.endef
	.seh_proc	_ZN5wxApp12SetPrintModeEi
_ZN5wxApp12SetPrintModeEi:
.LFB14499:
	.file 6 "../wxMSW-3.0.5_gcc810_x64_Dev/include/wx/msw/app.h"
	.loc 6 37 18
	.cfi_startproc
	pushq	%rbp
	.seh_pushreg	%rbp
	.cfi_def_cfa_offset 16
	.cfi_offset 6, -16
	movq	%rsp, %rbp
	.seh_setframe	%rbp, 0
	.cfi_def_cfa_register 6
	.seh_endprologue
	movq	%rcx, 16(%rbp)
	movl	%edx, 24(%rbp)
	.loc 6 37 55
	movq	16(%rbp), %rax
	movl	24(%rbp), %edx
	movl	%edx, 560(%rax)
	.loc 6 37 63
	nop
	popq	%rbp
	.cfi_restore 6
	.cfi_def_cfa 7, 8
	ret
	.cfi_endproc
.LFE14499:
	.seh_endproc
	.section	.text$_ZNK5wxApp12GetPrintModeEv,"x"
	.linkonce discard
	.align 2
	.globl	_ZNK5wxApp12GetPrintModeEv
	.def	_ZNK5wxApp12GetPrintModeEv;	.scl	2;	.type	32;	.endef
	.seh_proc	_ZNK5wxApp12GetPrintModeEv
_ZNK5wxApp12GetPrintModeEv:
.LFB14500:
	.loc 6 38 17
	.cfi_startproc
	pushq	%rbp
	.seh_pushreg	%rbp
	.cfi_def_cfa_offset 16
	.cfi_offset 6, -16
	movq	%rsp, %rbp
	.seh_setframe	%rbp, 0
	.cfi_def_cfa_register 6
	.seh_endprologue
	movq	%rcx, 16(%rbp)
	.loc 6 38 47
	movq	16(%rbp), %rax
	movl	560(%rax), %eax
	.loc 6 38 60
	popq	%rbp
	.cfi_restore 6
	.cfi_def_cfa 7, 8
	ret
	.cfi_endproc
.LFE14500:
	.seh_endproc
	.section	.text$_ZN16wxAppInitializerC1EPFP12wxAppConsolevE,"x"
	.linkonce discard
	.align 2
	.globl	_ZN16wxAppInitializerC1EPFP12wxAppConsolevE
	.def	_ZN16wxAppInitializerC1EPFP12wxAppConsolevE;	.scl	2;	.type	32;	.endef
	.seh_proc	_ZN16wxAppInitializerC1EPFP12wxAppConsolevE
_ZN16wxAppInitializerC1EPFP12wxAppConsolevE:
.LFB14504:
	.loc 5 782 5
	.cfi_startproc
	pushq	%rbp
	.seh_pushreg	%rbp
	.cfi_def_cfa_offset 16
	.cfi_offset 6, -16
	movq	%rsp, %rbp
	.seh_setframe	%rbp, 0
	.cfi_def_cfa_register 6
	subq	$32, %rsp
	.seh_stackalloc	32
	.seh_endprologue
	movq	%rcx, 16(%rbp)
	movq	%rdx, 24(%rbp)
.LBB7:
	.loc 5 783 40
	movq	24(%rbp), %rax
	movq	%rax, %rcx
	call	_ZN16wxAppConsoleBase22SetInitializerFunctionEPFP12wxAppConsolevE
.LBE7:
	.loc 5 783 46
	nop
	addq	$32, %rsp
	popq	%rbp
	.cfi_restore 6
	.cfi_def_cfa 7, 8
	ret
	.cfi_endproc
.LFE14504:
	.seh_endproc
.lcomm _ZStL8__ioinit,1,1
	.section .rdata,"dr"
_ZStL13allocator_arg:
	.space 1
_ZStL6ignore:
	.space 1
_ZL19wxALPHA_TRANSPARENT:
	.space 1
_ZL14wxALPHA_OPAQUE:
	.byte	-1
	.align 4
_ZL5wxEOF:
	.long	-1
_ZL25wxIMAGE_ALPHA_TRANSPARENT:
	.space 1
_ZL23wxIMAGE_ALPHA_THRESHOLD:
	.byte	-128
_ZL20wxIMAGE_ALPHA_OPAQUE:
	.byte	-1
	.align 4
_ZL20wxPRINTMEDIA_DEFAULT:
	.space 4
	.align 4
_ZL21wxOutOfRangeTextCoord:
	.long	-1
	.align 4
_ZL18wxInvalidTextCoord:
	.long	-2
	.text
	.globl	WinMain
	.def	WinMain;	.scl	2;	.type	32;	.endef
	.seh_proc	WinMain
WinMain:
.LFB18982:
	.file 7 "C:/temp/ballisticKernelCpp/interfaceGrafica/calculadorBalisiticaGraficoWindows/calculadorBalisiticaGraficoApp.cpp"
	.loc 7 17 104
	.cfi_startproc
	pushq	%rbp
	.seh_pushreg	%rbp
	.cfi_def_cfa_offset 16
	.cfi_offset 6, -16
	movq	%rsp, %rbp
	.seh_setframe	%rbp, 0
	.cfi_def_cfa_register 6
	subq	$32, %rsp
	.seh_stackalloc	32
	.seh_endprologue
	movq	%rcx, 16(%rbp)
	movq	%rdx, 24(%rbp)
	movq	%r8, 32(%rbp)
	movl	%r9d, 40(%rbp)
	.loc 7 17 124
	movl	40(%rbp), %edx
	movq	24(%rbp), %rax
	movl	%edx, %r9d
	movl	$0, %r8d
	movq	%rax, %rdx
	movq	16(%rbp), %rcx
	call	_Z7wxEntryP11HINSTANCE__S0_Pci
	.loc 7 17 14
	addq	$32, %rsp
	popq	%rbp
	.cfi_restore 6
	.cfi_def_cfa 7, 8
	ret
	.cfi_endproc
.LFE18982:
	.seh_endproc
	.globl	_Z8wxGetAppv
	.def	_Z8wxGetAppv;	.scl	2;	.type	32;	.endef
	.seh_proc	_Z8wxGetAppv
_Z8wxGetAppv:
.LFB18983:
	.loc 7 17 59
	.cfi_startproc
	pushq	%rbp
	.seh_pushreg	%rbp
	.cfi_def_cfa_offset 16
	.cfi_offset 6, -16
	movq	%rsp, %rbp
	.seh_setframe	%rbp, 0
	.cfi_def_cfa_register 6
	subq	$32, %rsp
	.seh_stackalloc	32
	.seh_endprologue
	.loc 7 17 132
	call	_ZN16wxAppConsoleBase11GetInstanceEv
	.loc 7 17 137
	addq	$32, %rsp
	popq	%rbp
	.cfi_restore 6
	.cfi_def_cfa 7, 8
	ret
	.cfi_endproc
.LFE18983:
	.seh_endproc
	.section	.text$_ZN30calculadorBalisiticaGraficoAppC1Ev,"x"
	.linkonce discard
	.align 2
	.globl	_ZN30calculadorBalisiticaGraficoAppC1Ev
	.def	_ZN30calculadorBalisiticaGraficoAppC1Ev;	.scl	2;	.type	32;	.endef
	.seh_proc	_ZN30calculadorBalisiticaGraficoAppC1Ev
_ZN30calculadorBalisiticaGraficoAppC1Ev:
.LFB18987:
	.file 8 "C:/temp/ballisticKernelCpp/interfaceGrafica/calculadorBalisiticaGraficoWindows/calculadorBalisiticaGraficoApp.h"
	.loc 8 15 7
	.cfi_startproc
	pushq	%rbp
	.seh_pushreg	%rbp
	.cfi_def_cfa_offset 16
	.cfi_offset 6, -16
	movq	%rsp, %rbp
	.seh_setframe	%rbp, 0
	.cfi_def_cfa_register 6
	subq	$32, %rsp
	.seh_stackalloc	32
	.seh_endprologue
	movq	%rcx, 16(%rbp)
.LBB8:
	.loc 8 15 7
	movq	16(%rbp), %rax
	movq	%rax, %rcx
	call	_ZN5wxAppC2Ev
	leaq	16+_ZTV30calculadorBalisiticaGraficoApp(%rip), %rdx
	movq	16(%rbp), %rax
	movq	%rdx, (%rax)
	leaq	552+_ZTV30calculadorBalisiticaGraficoApp(%rip), %rdx
	movq	16(%rbp), %rax
	movq	%rdx, 120(%rax)
.LBE8:
	nop
	addq	$32, %rsp
	popq	%rbp
	.cfi_restore 6
	.cfi_def_cfa 7, 8
	ret
	.cfi_endproc
.LFE18987:
	.seh_endproc
	.section .rdata,"dr"
.LC0:
	.ascii "your program\0"
	.align 8
.LC1:
	.ascii "3.0 (wchar_t,compiler with C++ ABI 1012,wx containers,compatible with 2.8)\0"
	.text
	.globl	_Z11wxCreateAppv
	.def	_Z11wxCreateAppv;	.scl	2;	.type	32;	.endef
	.seh_proc	_Z11wxCreateAppv
_Z11wxCreateAppv:
.LFB18984:
	.loc 7 17 167
	.cfi_startproc
	pushq	%rbp
	.seh_pushreg	%rbp
	.cfi_def_cfa_offset 16
	.cfi_offset 6, -16
	pushq	%rsi
	.seh_pushreg	%rsi
	.cfi_def_cfa_offset 24
	.cfi_offset 4, -24
	pushq	%rbx
	.seh_pushreg	%rbx
	.cfi_def_cfa_offset 32
	.cfi_offset 3, -32
	movq	%rsp, %rbp
	.seh_setframe	%rbp, 0
	.cfi_def_cfa_register 6
	subq	$32, %rsp
	.seh_stackalloc	32
	.seh_endprologue
	.loc 7 17 200
	leaq	.LC0(%rip), %rdx
	leaq	.LC1(%rip), %rcx
.LEHB0:
	call	_ZN16wxAppConsoleBase17CheckBuildOptionsEPKcS1_
	.loc 7 17 334
	movl	$568, %ecx
	call	_Znwy
.LEHE0:
	movq	%rax, %rbx
	movq	%rbx, %rcx
.LEHB1:
	call	_ZN30calculadorBalisiticaGraficoAppC1Ev
.LEHE1:
	.loc 7 17 334 is_stmt 0 discriminator 2
	movq	%rbx, %rax
	jmp	.L70
.L69:
	movq	%rax, %rsi
	.loc 7 17 334
	movq	%rbx, %rcx
	call	_ZdlPv
	movq	%rsi, %rax
	movq	%rax, %rcx
.LEHB2:
	call	_Unwind_Resume
.LEHE2:
.L70:
	.loc 7 17 366 is_stmt 1
	addq	$32, %rsp
	popq	%rbx
	.cfi_restore 3
	popq	%rsi
	.cfi_restore 4
	popq	%rbp
	.cfi_restore 6
	.cfi_def_cfa 7, 24
	ret
	.cfi_endproc
.LFE18984:
	.seh_handler	__gxx_personality_seh0, @unwind, @except
	.seh_handlerdata
.LLSDA18984:
	.byte	0xff
	.byte	0xff
	.byte	0x1
	.uleb128 .LLSDACSE18984-.LLSDACSB18984
.LLSDACSB18984:
	.uleb128 .LEHB0-.LFB18984
	.uleb128 .LEHE0-.LEHB0
	.uleb128 0
	.uleb128 0
	.uleb128 .LEHB1-.LFB18984
	.uleb128 .LEHE1-.LEHB1
	.uleb128 .L69-.LFB18984
	.uleb128 0
	.uleb128 .LEHB2-.LFB18984
	.uleb128 .LEHE2-.LEHB2
	.uleb128 0
	.uleb128 0
.LLSDACSE18984:
	.text
	.seh_endproc
	.globl	wxTheAppInitializer
	.bss
wxTheAppInitializer:
	.space 1
	.text
	.align 2
	.globl	_ZN30calculadorBalisiticaGraficoApp6OnInitEv
	.def	_ZN30calculadorBalisiticaGraficoApp6OnInitEv;	.scl	2;	.type	32;	.endef
	.seh_proc	_ZN30calculadorBalisiticaGraficoApp6OnInitEv
_ZN30calculadorBalisiticaGraficoApp6OnInitEv:
.LFB18988:
	.loc 7 20 1
	.cfi_startproc
	pushq	%rbp
	.seh_pushreg	%rbp
	.cfi_def_cfa_offset 16
	.cfi_offset 6, -16
	pushq	%rsi
	.seh_pushreg	%rsi
	.cfi_def_cfa_offset 24
	.cfi_offset 4, -24
	pushq	%rbx
	.seh_pushreg	%rbx
	.cfi_def_cfa_offset 32
	.cfi_offset 3, -32
	movq	%rsp, %rbp
	.seh_setframe	%rbp, 0
	.cfi_def_cfa_register 6
	subq	$48, %rsp
	.seh_stackalloc	48
	.seh_endprologue
	movq	%rcx, 32(%rbp)
.LEHB3:
	.loc 7 21 16
	call	_Z11initGlobaisv
	.loc 7 23 10
	movb	$1, -1(%rbp)
	.loc 7 24 27
	call	_Z22wxInitAllImageHandlersv
.LBB9:
	.loc 7 25 5
	cmpb	$0, -1(%rbp)
	je	.L72
.LBB10:
	.loc 7 27 86
	movl	$1576, %ecx
	call	_Znwy
.LEHE3:
	movq	%rax, %rbx
	movl	$-1, %r8d
	movl	$0, %edx
	movq	%rbx, %rcx
.LEHB4:
	call	_ZN32calculadorBalisiticaGraficoFrameC1EP8wxWindowi
.LEHE4:
	.loc 7 27 86 is_stmt 0 discriminator 2
	movq	%rbx, -16(%rbp)
	.loc 7 28 17 is_stmt 1 discriminator 2
	movq	-16(%rbp), %rcx
	.loc 7 28 18 discriminator 2
	movq	-16(%rbp), %rax
	movq	(%rax), %rax
	addq	$448, %rax
	movq	(%rax), %rax
	.loc 7 28 17 discriminator 2
	movl	$1, %edx
.LEHB5:
	call	*%rax
.LVL5:
	.loc 7 29 18 discriminator 2
	movq	32(%rbp), %rax
	movq	-16(%rbp), %rdx
	movq	%rax, %rcx
	call	_ZN9wxAppBase12SetTopWindowEP8wxWindow
.L72:
.LBE10:
.LBE9:
	.loc 7 34 12
	movzbl	-1(%rbp), %eax
	jmp	.L76
.L75:
	movq	%rax, %rsi
.LBB12:
.LBB11:
	.loc 7 27 86
	movq	%rbx, %rcx
	call	_ZdlPv
	movq	%rsi, %rax
	movq	%rax, %rcx
	call	_Unwind_Resume
.LEHE5:
.L76:
.LBE11:
.LBE12:
	.loc 7 36 1
	addq	$48, %rsp
	popq	%rbx
	.cfi_restore 3
	popq	%rsi
	.cfi_restore 4
	popq	%rbp
	.cfi_restore 6
	.cfi_def_cfa 7, 24
	ret
	.cfi_endproc
.LFE18988:
	.seh_handler	__gxx_personality_seh0, @unwind, @except
	.seh_handlerdata
.LLSDA18988:
	.byte	0xff
	.byte	0xff
	.byte	0x1
	.uleb128 .LLSDACSE18988-.LLSDACSB18988
.LLSDACSB18988:
	.uleb128 .LEHB3-.LFB18988
	.uleb128 .LEHE3-.LEHB3
	.uleb128 0
	.uleb128 0
	.uleb128 .LEHB4-.LFB18988
	.uleb128 .LEHE4-.LEHB4
	.uleb128 .L75-.LFB18988
	.uleb128 0
	.uleb128 .LEHB5-.LFB18988
	.uleb128 .LEHE5-.LEHB5
	.uleb128 0
	.uleb128 0
.LLSDACSE18988:
	.text
	.seh_endproc
	.globl	_ZTV30calculadorBalisiticaGraficoApp
	.section	.rdata$_ZTV30calculadorBalisiticaGraficoApp,"dr"
	.linkonce same_size
	.align 8
_ZTV30calculadorBalisiticaGraficoApp:
	.quad	0
	.quad	_ZTI30calculadorBalisiticaGraficoApp
	.quad	_ZNK5wxApp12GetClassInfoEv
	.quad	_ZN30calculadorBalisiticaGraficoAppD1Ev
	.quad	_ZN30calculadorBalisiticaGraficoAppD0Ev
	.quad	_ZNK8wxObject13CreateRefDataEv
	.quad	_ZNK8wxObject12CloneRefDataEPK12wxRefCounter
	.quad	_ZN12wxEvtHandler14SetNextHandlerEPS_
	.quad	_ZN12wxEvtHandler18SetPreviousHandlerEPS_
	.quad	_ZN12wxEvtHandler12ProcessEventER7wxEvent
	.quad	_ZN12wxEvtHandler10QueueEventEP7wxEvent
	.quad	_ZN12wxEvtHandler15AddPendingEventERK7wxEvent
	.quad	_ZN12wxEvtHandler16SearchEventTableER12wxEventTableR7wxEvent
	.quad	_ZN12wxEvtHandler9TryBeforeER7wxEvent
	.quad	_ZN12wxEvtHandler8TryAfterER7wxEvent
	.quad	_ZN12wxEvtHandler12TryValidatorER7wxEvent
	.quad	_ZN12wxEvtHandler9TryParentER7wxEvent
	.quad	_ZNK5wxApp13GetEventTableEv
	.quad	_ZNK5wxApp17GetEventHashTableEv
	.quad	_ZN12wxEvtHandler17DoSetClientObjectEP12wxClientData
	.quad	_ZNK12wxEvtHandler17DoGetClientObjectEv
	.quad	_ZN12wxEvtHandler15DoSetClientDataEPv
	.quad	_ZNK12wxEvtHandler15DoGetClientDataEv
	.quad	_ZN5wxApp10InitializeERiPPw
	.quad	_ZN16wxAppConsoleBase10CallOnInitEv
	.quad	_ZN30calculadorBalisiticaGraficoApp6OnInitEv
	.quad	_ZN9wxAppBase5OnRunEv
	.quad	_ZN16wxAppConsoleBase10OnLaunchedEv
	.quad	_ZN16wxAppConsoleBase16OnEventLoopEnterEP15wxEventLoopBase
	.quad	_ZN9wxAppBase6OnExitEv
	.quad	_ZN16wxAppConsoleBase15OnEventLoopExitEP15wxEventLoopBase
	.quad	_ZN5wxApp7CleanUpEv
	.quad	_ZN16wxAppConsoleBase16OnFatalExceptionEv
	.quad	_ZN16wxAppConsoleBase4ExitEv
	.quad	_ZN9wxAppBase13OnInitCmdLineER15wxCmdLineParser
	.quad	_ZN9wxAppBase15OnCmdLineParsedER15wxCmdLineParser
	.quad	_ZN16wxAppConsoleBase13OnCmdLineHelpER15wxCmdLineParser
	.quad	_ZN16wxAppConsoleBase14OnCmdLineErrorER15wxCmdLineParser
	.quad	_ZN16wxAppConsoleBase10SetCLocaleEv
	.quad	_ZN16wxAppConsoleBase11FilterEventER7wxEvent
	.quad	_ZNK16wxAppConsoleBase16CallEventHandlerEP12wxEvtHandlerR14wxEventFunctorR7wxEvent
	.quad	_ZNK16wxAppConsoleBase11HandleEventEP12wxEvtHandlerMS0_FvR7wxEventES3_
	.quad	_ZN16wxAppConsoleBase20OnUnhandledExceptionEv
	.quad	_ZN5wxApp21OnExceptionInMainLoopEv
	.quad	_ZN16wxAppConsoleBase20ProcessPendingEventsEv
	.quad	_ZN16wxAppConsoleBase7PendingEv
	.quad	_ZN16wxAppConsoleBase8DispatchEv
	.quad	_ZN16wxAppConsoleBase8MainLoopEv
	.quad	_ZN16wxAppConsoleBase12ExitMainLoopEv
	.quad	_ZN5wxApp10WakeUpIdleEv
	.quad	_ZN9wxAppBase11ProcessIdleEv
	.quad	_ZNK9wxAppBase13UsesEventLoopEv
	.quad	_ZN16wxAppConsoleBase15OnAssertFailureEPKwiS1_S1_S1_
	.quad	_ZN16wxAppConsoleBase8OnAssertEPKwiS1_S1_
	.quad	_ZN9wxAppBase12CreateTraitsEv
	.quad	_ZN9wxAppBase9OnInitGuiEv
	.quad	_ZN9wxAppBase9SafeYieldEP8wxWindowb
	.quad	_ZN9wxAppBase12SafeYieldForEP8wxWindowl
	.quad	_ZNK9wxAppBase8IsActiveEv
	.quad	_ZNK9wxAppBase12GetTopWindowEv
	.quad	_ZNK9wxAppBase14GetDisplayModeEv
	.quad	_ZN9wxAppBase14SetDisplayModeERK11wxVideoMode
	.quad	_ZN5wxApp12SetPrintModeEi
	.quad	_ZNK9wxAppBase18GetLayoutDirectionEv
	.quad	_ZN9wxAppBase14SetNativeThemeERK8wxString
	.quad	_ZN9wxAppBase9SetActiveEbP8wxWindow
	.quad	_ZNK5wxApp12GetPrintModeEv
	.quad	-120
	.quad	_ZTI30calculadorBalisiticaGraficoApp
	.quad	_ZThn120_N30calculadorBalisiticaGraficoAppD1Ev
	.quad	_ZThn120_N30calculadorBalisiticaGraficoAppD0Ev
	.quad	_ZThn120_N16wxAppConsoleBase11FilterEventER7wxEvent
	.section	.text$_ZN30calculadorBalisiticaGraficoAppD1Ev,"x"
	.linkonce discard
	.align 2
	.globl	_ZN30calculadorBalisiticaGraficoAppD1Ev
	.def	_ZN30calculadorBalisiticaGraficoAppD1Ev;	.scl	2;	.type	32;	.endef
	.seh_proc	_ZN30calculadorBalisiticaGraficoAppD1Ev
_ZN30calculadorBalisiticaGraficoAppD1Ev:
.LFB20250:
	.loc 8 15 7
	.cfi_startproc
	pushq	%rbp
	.seh_pushreg	%rbp
	.cfi_def_cfa_offset 16
	.cfi_offset 6, -16
	movq	%rsp, %rbp
	.seh_setframe	%rbp, 0
	.cfi_def_cfa_register 6
	subq	$32, %rsp
	.seh_stackalloc	32
	.seh_endprologue
	movq	%rcx, 16(%rbp)
.LBB13:
	.loc 8 15 7
	leaq	16+_ZTV30calculadorBalisiticaGraficoApp(%rip), %rdx
	movq	16(%rbp), %rax
	movq	%rdx, (%rax)
	leaq	552+_ZTV30calculadorBalisiticaGraficoApp(%rip), %rdx
	movq	16(%rbp), %rax
	movq	%rdx, 120(%rax)
	movq	16(%rbp), %rax
	movq	%rax, %rcx
	call	_ZN5wxAppD2Ev
.LBE13:
	nop
	addq	$32, %rsp
	popq	%rbp
	.cfi_restore 6
	.cfi_def_cfa 7, 8
	ret
	.cfi_endproc
.LFE20250:
	.seh_endproc
	.section	.text$_ZThn120_N30calculadorBalisiticaGraficoAppD1Ev,"x"
	.linkonce discard
	.globl	_ZThn120_N30calculadorBalisiticaGraficoAppD1Ev
	.def	_ZThn120_N30calculadorBalisiticaGraficoAppD1Ev;	.scl	2;	.type	32;	.endef
_ZThn120_N30calculadorBalisiticaGraficoAppD1Ev:
.LFB20454:
	.loc 8 15 7
	.cfi_startproc
	subq	$120, %rcx
	jmp	_ZN30calculadorBalisiticaGraficoAppD1Ev
	.cfi_endproc
.LFE20454:
	.section	.text$_ZN30calculadorBalisiticaGraficoAppD0Ev,"x"
	.linkonce discard
	.align 2
	.globl	_ZN30calculadorBalisiticaGraficoAppD0Ev
	.def	_ZN30calculadorBalisiticaGraficoAppD0Ev;	.scl	2;	.type	32;	.endef
	.seh_proc	_ZN30calculadorBalisiticaGraficoAppD0Ev
_ZN30calculadorBalisiticaGraficoAppD0Ev:
.LFB20251:
	.loc 8 15 7
	.cfi_startproc
	pushq	%rbp
	.seh_pushreg	%rbp
	.cfi_def_cfa_offset 16
	.cfi_offset 6, -16
	movq	%rsp, %rbp
	.seh_setframe	%rbp, 0
	.cfi_def_cfa_register 6
	subq	$32, %rsp
	.seh_stackalloc	32
	.seh_endprologue
	movq	%rcx, 16(%rbp)
	.loc 8 15 7
	movq	16(%rbp), %rcx
	call	_ZN30calculadorBalisiticaGraficoAppD1Ev
	movq	16(%rbp), %rcx
	call	_ZdlPv
	nop
	addq	$32, %rsp
	popq	%rbp
	.cfi_restore 6
	.cfi_def_cfa 7, 8
	ret
	.cfi_endproc
.LFE20251:
	.seh_endproc
	.section	.text$_ZThn120_N30calculadorBalisiticaGraficoAppD0Ev,"x"
	.linkonce discard
	.globl	_ZThn120_N30calculadorBalisiticaGraficoAppD0Ev
	.def	_ZThn120_N30calculadorBalisiticaGraficoAppD0Ev;	.scl	2;	.type	32;	.endef
_ZThn120_N30calculadorBalisiticaGraficoAppD0Ev:
.LFB20455:
	.loc 8 15 7
	.cfi_startproc
	subq	$120, %rcx
	jmp	_ZN30calculadorBalisiticaGraficoAppD0Ev
	.cfi_endproc
.LFE20455:
	.globl	_ZTV20wxObjectEventFunctor
	.section	.rdata$_ZTV20wxObjectEventFunctor,"dr"
	.linkonce same_size
	.align 8
_ZTV20wxObjectEventFunctor:
	.quad	0
	.quad	_ZTI20wxObjectEventFunctor
	.quad	_ZN20wxObjectEventFunctorD1Ev
	.quad	_ZN20wxObjectEventFunctorD0Ev
	.quad	_ZN20wxObjectEventFunctorclEP12wxEvtHandlerR7wxEvent
	.quad	_ZNK20wxObjectEventFunctor10IsMatchingERK14wxEventFunctor
	.quad	_ZNK20wxObjectEventFunctor13GetEvtHandlerEv
	.quad	_ZNK20wxObjectEventFunctor12GetEvtMethodEv
	.section	.text$_ZN20wxObjectEventFunctorD1Ev,"x"
	.linkonce discard
	.align 2
	.globl	_ZN20wxObjectEventFunctorD1Ev
	.def	_ZN20wxObjectEventFunctorD1Ev;	.scl	2;	.type	32;	.endef
	.seh_proc	_ZN20wxObjectEventFunctorD1Ev
_ZN20wxObjectEventFunctorD1Ev:
.LFB20278:
	.loc 4 240 7
	.cfi_startproc
	pushq	%rbp
	.seh_pushreg	%rbp
	.cfi_def_cfa_offset 16
	.cfi_offset 6, -16
	movq	%rsp, %rbp
	.seh_setframe	%rbp, 0
	.cfi_def_cfa_register 6
	subq	$32, %rsp
	.seh_stackalloc	32
	.seh_endprologue
	movq	%rcx, 16(%rbp)
.LBB14:
	.loc 4 240 7
	leaq	16+_ZTV20wxObjectEventFunctor(%rip), %rdx
	movq	16(%rbp), %rax
	movq	%rdx, (%rax)
	movq	16(%rbp), %rax
	movq	%rax, %rcx
	call	_ZN14wxEventFunctorD2Ev
.LBE14:
	nop
	addq	$32, %rsp
	popq	%rbp
	.cfi_restore 6
	.cfi_def_cfa 7, 8
	ret
	.cfi_endproc
.LFE20278:
	.seh_endproc
	.section	.text$_ZN20wxObjectEventFunctorD0Ev,"x"
	.linkonce discard
	.align 2
	.globl	_ZN20wxObjectEventFunctorD0Ev
	.def	_ZN20wxObjectEventFunctorD0Ev;	.scl	2;	.type	32;	.endef
	.seh_proc	_ZN20wxObjectEventFunctorD0Ev
_ZN20wxObjectEventFunctorD0Ev:
.LFB20279:
	.loc 4 240 7
	.cfi_startproc
	pushq	%rbp
	.seh_pushreg	%rbp
	.cfi_def_cfa_offset 16
	.cfi_offset 6, -16
	movq	%rsp, %rbp
	.seh_setframe	%rbp, 0
	.cfi_def_cfa_register 6
	subq	$32, %rsp
	.seh_stackalloc	32
	.seh_endprologue
	movq	%rcx, 16(%rbp)
	.loc 4 240 7
	movq	16(%rbp), %rcx
	call	_ZN20wxObjectEventFunctorD1Ev
	movq	16(%rbp), %rcx
	call	_ZdlPv
	nop
	addq	$32, %rsp
	popq	%rbp
	.cfi_restore 6
	.cfi_def_cfa 7, 8
	ret
	.cfi_endproc
.LFE20279:
	.seh_endproc
	.globl	_ZTV20wxThreadHelperThread
	.section	.rdata$_ZTV20wxThreadHelperThread,"dr"
	.linkonce same_size
	.align 8
_ZTV20wxThreadHelperThread:
	.quad	0
	.quad	_ZTI20wxThreadHelperThread
	.quad	_ZN8wxThread11TestDestroyEv
	.quad	_ZN20wxThreadHelperThreadD1Ev
	.quad	_ZN20wxThreadHelperThreadD0Ev
	.quad	_ZN20wxThreadHelperThread5EntryEv
	.quad	_ZN8wxThread8OnDeleteEv
	.quad	_ZN8wxThread6OnKillEv
	.quad	_ZN8wxThread6OnExitEv
	.section	.text$_ZN20wxThreadHelperThreadD1Ev,"x"
	.linkonce discard
	.align 2
	.globl	_ZN20wxThreadHelperThreadD1Ev
	.def	_ZN20wxThreadHelperThreadD1Ev;	.scl	2;	.type	32;	.endef
	.seh_proc	_ZN20wxThreadHelperThreadD1Ev
_ZN20wxThreadHelperThreadD1Ev:
.LFB20290:
	.loc 2 663 7
	.cfi_startproc
	pushq	%rbp
	.seh_pushreg	%rbp
	.cfi_def_cfa_offset 16
	.cfi_offset 6, -16
	movq	%rsp, %rbp
	.seh_setframe	%rbp, 0
	.cfi_def_cfa_register 6
	subq	$32, %rsp
	.seh_stackalloc	32
	.seh_endprologue
	movq	%rcx, 16(%rbp)
.LBB15:
	.loc 2 663 7
	leaq	16+_ZTV20wxThreadHelperThread(%rip), %rdx
	movq	16(%rbp), %rax
	movq	%rdx, (%rax)
	movq	16(%rbp), %rax
	movq	%rax, %rcx
	call	_ZN8wxThreadD2Ev
.LBE15:
	nop
	addq	$32, %rsp
	popq	%rbp
	.cfi_restore 6
	.cfi_def_cfa 7, 8
	ret
	.cfi_endproc
.LFE20290:
	.seh_endproc
	.section	.text$_ZN20wxThreadHelperThreadD0Ev,"x"
	.linkonce discard
	.align 2
	.globl	_ZN20wxThreadHelperThreadD0Ev
	.def	_ZN20wxThreadHelperThreadD0Ev;	.scl	2;	.type	32;	.endef
	.seh_proc	_ZN20wxThreadHelperThreadD0Ev
_ZN20wxThreadHelperThreadD0Ev:
.LFB20291:
	.loc 2 663 7
	.cfi_startproc
	pushq	%rbp
	.seh_pushreg	%rbp
	.cfi_def_cfa_offset 16
	.cfi_offset 6, -16
	movq	%rsp, %rbp
	.seh_setframe	%rbp, 0
	.cfi_def_cfa_register 6
	subq	$32, %rsp
	.seh_stackalloc	32
	.seh_endprologue
	movq	%rcx, 16(%rbp)
	.loc 2 663 7
	movq	16(%rbp), %rcx
	call	_ZN20wxThreadHelperThreadD1Ev
	movq	16(%rbp), %rcx
	call	_ZdlPv
	nop
	addq	$32, %rsp
	popq	%rbp
	.cfi_restore 6
	.cfi_def_cfa 7, 8
	ret
	.cfi_endproc
.LFE20291:
	.seh_endproc
	.globl	_ZTI30calculadorBalisiticaGraficoApp
	.section	.rdata$_ZTI30calculadorBalisiticaGraficoApp,"dr"
	.linkonce same_size
	.align 8
_ZTI30calculadorBalisiticaGraficoApp:
	.quad	_ZTVN10__cxxabiv120__si_class_type_infoE+16
	.quad	_ZTS30calculadorBalisiticaGraficoApp
	.quad	_ZTI5wxApp
	.globl	_ZTS30calculadorBalisiticaGraficoApp
	.section	.rdata$_ZTS30calculadorBalisiticaGraficoApp,"dr"
	.linkonce same_size
	.align 32
_ZTS30calculadorBalisiticaGraficoApp:
	.ascii "30calculadorBalisiticaGraficoApp\0"
	.globl	_ZTI5wxApp
	.section	.rdata$_ZTI5wxApp,"dr"
	.linkonce same_size
	.align 8
_ZTI5wxApp:
	.quad	_ZTVN10__cxxabiv120__si_class_type_infoE+16
	.quad	_ZTS5wxApp
	.quad	_ZTI9wxAppBase
	.globl	_ZTS5wxApp
	.section	.rdata$_ZTS5wxApp,"dr"
	.linkonce same_size
_ZTS5wxApp:
	.ascii "5wxApp\0"
	.globl	_ZTI9wxAppBase
	.section	.rdata$_ZTI9wxAppBase,"dr"
	.linkonce same_size
	.align 8
_ZTI9wxAppBase:
	.quad	_ZTVN10__cxxabiv120__si_class_type_infoE+16
	.quad	_ZTS9wxAppBase
	.quad	_ZTI12wxAppConsole
	.globl	_ZTS9wxAppBase
	.section	.rdata$_ZTS9wxAppBase,"dr"
	.linkonce same_size
	.align 8
_ZTS9wxAppBase:
	.ascii "9wxAppBase\0"
	.globl	_ZTI12wxAppConsole
	.section	.rdata$_ZTI12wxAppConsole,"dr"
	.linkonce same_size
	.align 8
_ZTI12wxAppConsole:
	.quad	_ZTVN10__cxxabiv120__si_class_type_infoE+16
	.quad	_ZTS12wxAppConsole
	.quad	_ZTI16wxAppConsoleBase
	.globl	_ZTS12wxAppConsole
	.section	.rdata$_ZTS12wxAppConsole,"dr"
	.linkonce same_size
	.align 8
_ZTS12wxAppConsole:
	.ascii "12wxAppConsole\0"
	.globl	_ZTI16wxAppConsoleBase
	.section	.rdata$_ZTI16wxAppConsoleBase,"dr"
	.linkonce same_size
	.align 8
_ZTI16wxAppConsoleBase:
	.quad	_ZTVN10__cxxabiv121__vmi_class_type_infoE+16
	.quad	_ZTS16wxAppConsoleBase
	.long	0
	.long	2
	.quad	_ZTI12wxEvtHandler
	.quad	2
	.quad	_ZTI13wxEventFilter
	.quad	30722
	.globl	_ZTS16wxAppConsoleBase
	.section	.rdata$_ZTS16wxAppConsoleBase,"dr"
	.linkonce same_size
	.align 16
_ZTS16wxAppConsoleBase:
	.ascii "16wxAppConsoleBase\0"
	.globl	_ZTI13wxEventFilter
	.section	.rdata$_ZTI13wxEventFilter,"dr"
	.linkonce same_size
	.align 8
_ZTI13wxEventFilter:
	.quad	_ZTVN10__cxxabiv117__class_type_infoE+16
	.quad	_ZTS13wxEventFilter
	.globl	_ZTS13wxEventFilter
	.section	.rdata$_ZTS13wxEventFilter,"dr"
	.linkonce same_size
	.align 16
_ZTS13wxEventFilter:
	.ascii "13wxEventFilter\0"
	.globl	_ZTI12wxEvtHandler
	.section	.rdata$_ZTI12wxEvtHandler,"dr"
	.linkonce same_size
	.align 8
_ZTI12wxEvtHandler:
	.quad	_ZTVN10__cxxabiv121__vmi_class_type_infoE+16
	.quad	_ZTS12wxEvtHandler
	.long	0
	.long	2
	.quad	_ZTI8wxObject
	.quad	2
	.quad	_ZTI11wxTrackable
	.quad	4098
	.globl	_ZTS12wxEvtHandler
	.section	.rdata$_ZTS12wxEvtHandler,"dr"
	.linkonce same_size
	.align 8
_ZTS12wxEvtHandler:
	.ascii "12wxEvtHandler\0"
	.globl	_ZTI20wxObjectEventFunctor
	.section	.rdata$_ZTI20wxObjectEventFunctor,"dr"
	.linkonce same_size
	.align 8
_ZTI20wxObjectEventFunctor:
	.quad	_ZTVN10__cxxabiv120__si_class_type_infoE+16
	.quad	_ZTS20wxObjectEventFunctor
	.quad	_ZTI14wxEventFunctor
	.globl	_ZTS20wxObjectEventFunctor
	.section	.rdata$_ZTS20wxObjectEventFunctor,"dr"
	.linkonce same_size
	.align 16
_ZTS20wxObjectEventFunctor:
	.ascii "20wxObjectEventFunctor\0"
	.globl	_ZTI14wxEventFunctor
	.section	.rdata$_ZTI14wxEventFunctor,"dr"
	.linkonce same_size
	.align 8
_ZTI14wxEventFunctor:
	.quad	_ZTVN10__cxxabiv117__class_type_infoE+16
	.quad	_ZTS14wxEventFunctor
	.globl	_ZTS14wxEventFunctor
	.section	.rdata$_ZTS14wxEventFunctor,"dr"
	.linkonce same_size
	.align 16
_ZTS14wxEventFunctor:
	.ascii "14wxEventFunctor\0"
	.globl	_ZTI20wxThreadHelperThread
	.section	.rdata$_ZTI20wxThreadHelperThread,"dr"
	.linkonce same_size
	.align 8
_ZTI20wxThreadHelperThread:
	.quad	_ZTVN10__cxxabiv120__si_class_type_infoE+16
	.quad	_ZTS20wxThreadHelperThread
	.quad	_ZTI8wxThread
	.globl	_ZTS20wxThreadHelperThread
	.section	.rdata$_ZTS20wxThreadHelperThread,"dr"
	.linkonce same_size
	.align 16
_ZTS20wxThreadHelperThread:
	.ascii "20wxThreadHelperThread\0"
	.globl	_ZTI8wxThread
	.section	.rdata$_ZTI8wxThread,"dr"
	.linkonce same_size
	.align 8
_ZTI8wxThread:
	.quad	_ZTVN10__cxxabiv117__class_type_infoE+16
	.quad	_ZTS8wxThread
	.globl	_ZTS8wxThread
	.section	.rdata$_ZTS8wxThread,"dr"
	.linkonce same_size
	.align 8
_ZTS8wxThread:
	.ascii "8wxThread\0"
	.globl	_ZTI8wxObject
	.section	.rdata$_ZTI8wxObject,"dr"
	.linkonce same_size
	.align 8
_ZTI8wxObject:
	.quad	_ZTVN10__cxxabiv117__class_type_infoE+16
	.quad	_ZTS8wxObject
	.globl	_ZTS8wxObject
	.section	.rdata$_ZTS8wxObject,"dr"
	.linkonce same_size
	.align 8
_ZTS8wxObject:
	.ascii "8wxObject\0"
	.text
	.def	__tcf_0;	.scl	3;	.type	32;	.endef
	.seh_proc	__tcf_0
__tcf_0:
.LFB20309:
	.file 9 "C:/Program Files/CodeBlocks/MinGW/lib/gcc/x86_64-w64-mingw32/8.1.0/include/c++/iostream"
	.loc 9 74 25
	.cfi_startproc
	pushq	%rbp
	.seh_pushreg	%rbp
	.cfi_def_cfa_offset 16
	.cfi_offset 6, -16
	movq	%rsp, %rbp
	.seh_setframe	%rbp, 0
	.cfi_def_cfa_register 6
	subq	$32, %rsp
	.seh_stackalloc	32
	.seh_endprologue
	.loc 9 74 25
	leaq	_ZStL8__ioinit(%rip), %rcx
	call	_ZNSt8ios_base4InitD1Ev
	nop
	addq	$32, %rsp
	popq	%rbp
	.cfi_restore 6
	.cfi_def_cfa 7, 8
	ret
	.cfi_endproc
.LFE20309:
	.seh_endproc
	.def	_Z41__static_initialization_and_destruction_0ii;	.scl	3;	.type	32;	.endef
	.seh_proc	_Z41__static_initialization_and_destruction_0ii
_Z41__static_initialization_and_destruction_0ii:
.LFB20308:
	.loc 7 36 1
	.cfi_startproc
	pushq	%rbp
	.seh_pushreg	%rbp
	.cfi_def_cfa_offset 16
	.cfi_offset 6, -16
	movq	%rsp, %rbp
	.seh_setframe	%rbp, 0
	.cfi_def_cfa_register 6
	subq	$32, %rsp
	.seh_stackalloc	32
	.seh_endprologue
	movl	%ecx, 16(%rbp)
	movl	%edx, 24(%rbp)
	.loc 7 36 1
	cmpl	$1, 16(%rbp)
	jne	.L86
	.loc 7 36 1 is_stmt 0 discriminator 1
	cmpl	$65535, 24(%rbp)
	jne	.L86
	.loc 9 74 25 is_stmt 1
	leaq	_ZStL8__ioinit(%rip), %rcx
	call	_ZNSt8ios_base4InitC1Ev
	leaq	__tcf_0(%rip), %rcx
	call	atexit
	.loc 7 17 443
	leaq	_Z11wxCreateAppv(%rip), %rdx
	leaq	wxTheAppInitializer(%rip), %rcx
	call	_ZN16wxAppInitializerC1EPFP12wxAppConsolevE
.L86:
	.loc 7 36 1
	nop
	addq	$32, %rsp
	popq	%rbp
	.cfi_restore 6
	.cfi_def_cfa 7, 8
	ret
	.cfi_endproc
.LFE20308:
	.seh_endproc
	.globl	_ZTI11wxTrackable
	.section	.rdata$_ZTI11wxTrackable,"dr"
	.linkonce same_size
	.align 8
_ZTI11wxTrackable:
	.quad	_ZTVN10__cxxabiv117__class_type_infoE+16
	.quad	_ZTS11wxTrackable
	.globl	_ZTS11wxTrackable
	.section	.rdata$_ZTS11wxTrackable,"dr"
	.linkonce same_size
	.align 8
_ZTS11wxTrackable:
	.ascii "11wxTrackable\0"
	.text
	.def	_GLOBAL__sub_I_WinMain;	.scl	3;	.type	32;	.endef
	.seh_proc	_GLOBAL__sub_I_WinMain
_GLOBAL__sub_I_WinMain:
.LFB20453:
	.loc 7 36 1
	.cfi_startproc
	pushq	%rbp
	.seh_pushreg	%rbp
	.cfi_def_cfa_offset 16
	.cfi_offset 6, -16
	movq	%rsp, %rbp
	.seh_setframe	%rbp, 0
	.cfi_def_cfa_register 6
	subq	$32, %rsp
	.seh_stackalloc	32
	.seh_endprologue
	.loc 7 36 1
	movl	$65535, %edx
	movl	$1, %ecx
	call	_Z41__static_initialization_and_destruction_0ii
	nop
	addq	$32, %rsp
	popq	%rbp
	.cfi_restore 6
	.cfi_def_cfa 7, 8
	ret
	.cfi_endproc
.LFE20453:
	.seh_endproc
	.section	.ctors,"w"
	.align 8
	.quad	_GLOBAL__sub_I_WinMain
	.text
.Letext0:
	.file 10 "C:/Program Files/CodeBlocks/MinGW/x86_64-w64-mingw32/include/vadefs.h"
	.file 11 "C:/Program Files/CodeBlocks/MinGW/x86_64-w64-mingw32/include/crtdefs.h"
	.file 12 "C:/Program Files/CodeBlocks/MinGW/x86_64-w64-mingw32/include/locale.h"
	.file 13 "C:/Program Files/CodeBlocks/MinGW/lib/gcc/x86_64-w64-mingw32/8.1.0/include/c++/bits/basic_string.h"
	.file 14 "C:/Program Files/CodeBlocks/MinGW/lib/gcc/x86_64-w64-mingw32/8.1.0/include/c++/bits/stringfwd.h"
	.file 15 "C:/Program Files/CodeBlocks/MinGW/lib/gcc/x86_64-w64-mingw32/8.1.0/include/c++/cstdlib"
	.file 16 "C:/Program Files/CodeBlocks/MinGW/lib/gcc/x86_64-w64-mingw32/8.1.0/include/c++/bits/std_abs.h"
	.file 17 "C:/Program Files/CodeBlocks/MinGW/lib/gcc/x86_64-w64-mingw32/8.1.0/include/c++/type_traits"
	.file 18 "C:/Program Files/CodeBlocks/MinGW/lib/gcc/x86_64-w64-mingw32/8.1.0/include/c++/bits/stl_pair.h"
	.file 19 "C:/Program Files/CodeBlocks/MinGW/lib/gcc/x86_64-w64-mingw32/8.1.0/include/c++/debug/debug.h"
	.file 20 "C:/Program Files/CodeBlocks/MinGW/lib/gcc/x86_64-w64-mingw32/8.1.0/include/c++/cwchar"
	.file 21 "C:/Program Files/CodeBlocks/MinGW/lib/gcc/x86_64-w64-mingw32/8.1.0/include/c++/bits/char_traits.h"
	.file 22 "C:/Program Files/CodeBlocks/MinGW/lib/gcc/x86_64-w64-mingw32/8.1.0/include/c++/x86_64-w64-mingw32/bits/c++config.h"
	.file 23 "C:/Program Files/CodeBlocks/MinGW/lib/gcc/x86_64-w64-mingw32/8.1.0/include/c++/cstdint"
	.file 24 "C:/Program Files/CodeBlocks/MinGW/lib/gcc/x86_64-w64-mingw32/8.1.0/include/c++/bits/exception_ptr.h"
	.file 25 "C:/Program Files/CodeBlocks/MinGW/lib/gcc/x86_64-w64-mingw32/8.1.0/include/c++/new"
	.file 26 "C:/Program Files/CodeBlocks/MinGW/lib/gcc/x86_64-w64-mingw32/8.1.0/include/c++/bits/allocator.h"
	.file 27 "C:/Program Files/CodeBlocks/MinGW/lib/gcc/x86_64-w64-mingw32/8.1.0/include/c++/clocale"
	.file 28 "C:/Program Files/CodeBlocks/MinGW/lib/gcc/x86_64-w64-mingw32/8.1.0/include/c++/cstdio"
	.file 29 "C:/Program Files/CodeBlocks/MinGW/lib/gcc/x86_64-w64-mingw32/8.1.0/include/c++/bits/alloc_traits.h"
	.file 30 "C:/Program Files/CodeBlocks/MinGW/lib/gcc/x86_64-w64-mingw32/8.1.0/include/c++/initializer_list"
	.file 31 "C:/Program Files/CodeBlocks/MinGW/lib/gcc/x86_64-w64-mingw32/8.1.0/include/c++/bits/stl_iterator_base_types.h"
	.file 32 "C:/Program Files/CodeBlocks/MinGW/lib/gcc/x86_64-w64-mingw32/8.1.0/include/c++/cmath"
	.file 33 "C:/Program Files/CodeBlocks/MinGW/lib/gcc/x86_64-w64-mingw32/8.1.0/include/c++/system_error"
	.file 34 "C:/Program Files/CodeBlocks/MinGW/lib/gcc/x86_64-w64-mingw32/8.1.0/include/c++/bits/ios_base.h"
	.file 35 "C:/Program Files/CodeBlocks/MinGW/lib/gcc/x86_64-w64-mingw32/8.1.0/include/c++/cwctype"
	.file 36 "C:/Program Files/CodeBlocks/MinGW/lib/gcc/x86_64-w64-mingw32/8.1.0/include/c++/bits/stl_vector.h"
	.file 37 "C:/Program Files/CodeBlocks/MinGW/lib/gcc/x86_64-w64-mingw32/8.1.0/include/c++/bits/vector.tcc"
	.file 38 "C:/Program Files/CodeBlocks/MinGW/lib/gcc/x86_64-w64-mingw32/8.1.0/include/c++/bits/stl_list.h"
	.file 39 "C:/Program Files/CodeBlocks/MinGW/lib/gcc/x86_64-w64-mingw32/8.1.0/include/c++/iosfwd"
	.file 40 "C:/Program Files/CodeBlocks/MinGW/lib/gcc/x86_64-w64-mingw32/8.1.0/include/c++/bits/uses_allocator.h"
	.file 41 "C:/Program Files/CodeBlocks/MinGW/lib/gcc/x86_64-w64-mingw32/8.1.0/include/c++/tuple"
	.file 42 "C:/Program Files/CodeBlocks/MinGW/lib/gcc/x86_64-w64-mingw32/8.1.0/include/c++/bits/predefined_ops.h"
	.file 43 "C:/Program Files/CodeBlocks/MinGW/lib/gcc/x86_64-w64-mingw32/8.1.0/include/c++/ext/new_allocator.h"
	.file 44 "C:/Program Files/CodeBlocks/MinGW/lib/gcc/x86_64-w64-mingw32/8.1.0/include/c++/ext/numeric_traits.h"
	.file 45 "C:/Program Files/CodeBlocks/MinGW/lib/gcc/x86_64-w64-mingw32/8.1.0/include/c++/ext/alloc_traits.h"
	.file 46 "C:/Program Files/CodeBlocks/MinGW/lib/gcc/x86_64-w64-mingw32/8.1.0/include/c++/bits/stl_iterator.h"
	.file 47 "C:/Program Files/CodeBlocks/MinGW/x86_64-w64-mingw32/include/stdlib.h"
	.file 48 "C:/Program Files/CodeBlocks/MinGW/x86_64-w64-mingw32/include/malloc.h"
	.file 49 "C:/Program Files/CodeBlocks/MinGW/lib/gcc/x86_64-w64-mingw32/8.1.0/include/c++/stdlib.h"
	.file 50 "C:/Program Files/CodeBlocks/MinGW/x86_64-w64-mingw32/include/wchar.h"
	.file 51 "C:/Program Files/CodeBlocks/MinGW/x86_64-w64-mingw32/include/ctype.h"
	.file 52 "../wxMSW-3.0.5_gcc810_x64_Dev/include/wx/chartype.h"
	.file 53 "../wxMSW-3.0.5_gcc810_x64_Dev/include/wx/debug.h"
	.file 54 "../wxMSW-3.0.5_gcc810_x64_Dev/include/wx/string.h"
	.file 55 "../wxMSW-3.0.5_gcc810_x64_Dev/include/wx/defs.h"
	.file 56 "C:/Program Files/CodeBlocks/MinGW/x86_64-w64-mingw32/include/minwindef.h"
	.file 57 "C:/Program Files/CodeBlocks/MinGW/x86_64-w64-mingw32/include/stdio.h"
	.file 58 "C:/Program Files/CodeBlocks/MinGW/x86_64-w64-mingw32/include/wctype.h"
	.file 59 "C:/Program Files/CodeBlocks/MinGW/x86_64-w64-mingw32/include/time.h"
	.file 60 "../wxMSW-3.0.5_gcc810_x64_Dev/include/wx/buffer.h"
	.file 61 "../wxMSW-3.0.5_gcc810_x64_Dev/include/wx/fontenc.h"
	.file 62 "../wxMSW-3.0.5_gcc810_x64_Dev/include/wx/strconv.h"
	.file 63 "../wxMSW-3.0.5_gcc810_x64_Dev/include/wx/stringimpl.h"
	.file 64 "C:/Program Files/CodeBlocks/MinGW/x86_64-w64-mingw32/include/swprintf.inl"
	.file 65 "C:/Program Files/CodeBlocks/MinGW/x86_64-w64-mingw32/include/stdint.h"
	.file 66 "C:/Program Files/CodeBlocks/MinGW/x86_64-w64-mingw32/include/process.h"
	.file 67 "C:/Program Files/CodeBlocks/MinGW/x86_64-w64-mingw32/include/pthread.h"
	.file 68 "C:/Program Files/CodeBlocks/MinGW/lib/gcc/x86_64-w64-mingw32/8.1.0/include/c++/x86_64-w64-mingw32/bits/atomic_word.h"
	.file 69 "../wxMSW-3.0.5_gcc810_x64_Dev/include/wx/unichar.h"
	.file 70 "../wxMSW-3.0.5_gcc810_x64_Dev/include/wx/strvararg.h"
	.file 71 "../wxMSW-3.0.5_gcc810_x64_Dev/include/wx/rtti.h"
	.file 72 "../wxMSW-3.0.5_gcc810_x64_Dev/include/wx/object.h"
	.file 73 "../wxMSW-3.0.5_gcc810_x64_Dev/include/wx/hashmap.h"
	.file 74 "../wxMSW-3.0.5_gcc810_x64_Dev/include/wx/list.h"
	.file 75 "C:/Program Files/CodeBlocks/MinGW/x86_64-w64-mingw32/include/math.h"
	.file 76 "C:/Program Files/CodeBlocks/MinGW/lib/gcc/x86_64-w64-mingw32/8.1.0/include/c++/math.h"
	.file 77 "../wxMSW-3.0.5_gcc810_x64_Dev/include/wx/gdicmn.h"
	.file 78 "../wxMSW-3.0.5_gcc810_x64_Dev/include/wx/msw/gdiimage.h"
	.file 79 "../wxMSW-3.0.5_gcc810_x64_Dev/include/wx/filefn.h"
	.file 80 "../wxMSW-3.0.5_gcc810_x64_Dev/include/wx/longlong.h"
	.file 81 "../wxMSW-3.0.5_gcc810_x64_Dev/include/wx/window.h"
	.file 82 "../wxMSW-3.0.5_gcc810_x64_Dev/include/wx/utils.h"
	.file 83 "../wxMSW-3.0.5_gcc810_x64_Dev/include/wx/tracker.h"
	.file 84 "../wxMSW-3.0.5_gcc810_x64_Dev/include/wx/any.h"
	.file 85 "../wxMSW-3.0.5_gcc810_x64_Dev/include/wx/anystr.h"
	.file 86 "../wxMSW-3.0.5_gcc810_x64_Dev/include/wx/datetime.h"
	.file 87 "C:/Program Files/CodeBlocks/MinGW/x86_64-w64-mingw32/include/minwinbase.h"
	.file 88 "../wxMSW-3.0.5_gcc810_x64_Dev/include/wx/variant.h"
	.file 89 "C:/Program Files/CodeBlocks/MinGW/x86_64-w64-mingw32/include/excpt.h"
	.file 90 "C:/Program Files/CodeBlocks/MinGW/x86_64-w64-mingw32/include/guiddef.h"
	.file 91 "C:/Program Files/CodeBlocks/MinGW/x86_64-w64-mingw32/include/winnt.h"
	.file 92 "C:/Program Files/CodeBlocks/MinGW/x86_64-w64-mingw32/include/rpcdce.h"
	.file 93 "C:/Program Files/CodeBlocks/MinGW/x86_64-w64-mingw32/include/wtypesbase.h"
	.file 94 "C:/Program Files/CodeBlocks/MinGW/x86_64-w64-mingw32/include/unknwnbase.h"
	.file 95 "C:/Program Files/CodeBlocks/MinGW/x86_64-w64-mingw32/include/objidlbase.h"
	.file 96 "C:/Program Files/CodeBlocks/MinGW/x86_64-w64-mingw32/include/cguid.h"
	.file 97 "C:/Program Files/CodeBlocks/MinGW/x86_64-w64-mingw32/include/wtypes.h"
	.file 98 "C:/Program Files/CodeBlocks/MinGW/x86_64-w64-mingw32/include/objidl.h"
	.file 99 "C:/Program Files/CodeBlocks/MinGW/x86_64-w64-mingw32/include/oleidl.h"
	.file 100 "C:/Program Files/CodeBlocks/MinGW/x86_64-w64-mingw32/include/servprov.h"
	.file 101 "C:/Program Files/CodeBlocks/MinGW/x86_64-w64-mingw32/include/oaidl.h"
	.file 102 "C:/Program Files/CodeBlocks/MinGW/x86_64-w64-mingw32/include/msxml.h"
	.file 103 "C:/Program Files/CodeBlocks/MinGW/x86_64-w64-mingw32/include/urlmon.h"
	.file 104 "C:/Program Files/CodeBlocks/MinGW/x86_64-w64-mingw32/include/propidl.h"
	.file 105 "C:/Program Files/CodeBlocks/MinGW/x86_64-w64-mingw32/include/oleauto.h"
	.file 106 "C:/Program Files/CodeBlocks/MinGW/x86_64-w64-mingw32/include/winioctl.h"
	.file 107 "C:/Program Files/CodeBlocks/MinGW/x86_64-w64-mingw32/include/winsmcrd.h"
	.file 108 "C:/Program Files/CodeBlocks/MinGW/x86_64-w64-mingw32/include/winscard.h"
	.file 109 "C:/Program Files/CodeBlocks/MinGW/x86_64-w64-mingw32/include/commdlg.h"
	.file 110 "../wxMSW-3.0.5_gcc810_x64_Dev/include/wx/msw/init.h"
	.file 111 "../wxMSW-3.0.5_gcc810_x64_Dev/include/wx/log.h"
	.file 112 "../../CalculadorNumerico/projetil/projetil.h"
	.file 113 "../../CalculadorNumerico/projetil/../sql/sqlite3.h"
	.file 114 "../../CalculadorNumerico/projetil/ProjetilDAO.h"
	.file 115 "../../CalculadorNumerico/coeficientes/coeficienteAerodinamico.h"
	.file 116 "../../CalculadorNumerico/coeficientes/coeficientesdao.h"
	.file 117 "../../CalculadorNumerico/calculador/../padroes/observable.h"
	.file 118 "../../CalculadorNumerico/calculador/calculador.h"
	.file 119 "../../CalculadorNumerico/fatoresdeajuste/calculadorFator.h"
	.file 120 "C:/temp/ballisticKernelCpp/interfaceGrafica/calculadorBalisiticaGraficoWindows/configuracao.h"
	.file 121 "C:/temp/ballisticKernelCpp/interfaceGrafica/calculadorBalisiticaGraficoWindows/globais.h"
	.file 122 "../../CalculadorNumerico/coeficientes/CoeficienteDrag.h"
	.file 123 "../wxMSW-3.0.5_gcc810_x64_Dev/include/wx/font.h"
	.file 124 "../wxMSW-3.0.5_gcc810_x64_Dev/include/wx/colour.h"
	.file 125 "../wxMSW-3.0.5_gcc810_x64_Dev/include/wx/validate.h"
	.file 126 "../wxMSW-3.0.5_gcc810_x64_Dev/include/wx/accel.h"
	.file 127 "../wxMSW-3.0.5_gcc810_x64_Dev/include/wx/stream.h"
	.file 128 "../wxMSW-3.0.5_gcc810_x64_Dev/include/wx/image.h"
	.file 129 "../wxMSW-3.0.5_gcc810_x64_Dev/include/wx/scrolwin.h"
	.file 130 "../wxMSW-3.0.5_gcc810_x64_Dev/include/wx/pen.h"
	.file 131 "../wxMSW-3.0.5_gcc810_x64_Dev/include/wx/brush.h"
	.file 132 "../wxMSW-3.0.5_gcc810_x64_Dev/include/wx/cmndata.h"
	.file 133 "../wxMSW-3.0.5_gcc810_x64_Dev/include/wx/toplevel.h"
	.file 134 "../wxMSW-3.0.5_gcc810_x64_Dev/include/wx/dialog.h"
	.file 135 "../wxMSW-3.0.5_gcc810_x64_Dev/include/wx/control.h"
	.file 136 "../wxMSW-3.0.5_gcc810_x64_Dev/include/wx/statusbr.h"
	.file 137 "../wxMSW-3.0.5_gcc810_x64_Dev/include/wx/frame.h"
	.file 138 "../wxMathPlotWin/mathplot.h"
	.file 139 "../wxMSW-3.0.5_gcc810_x64_Dev/include/wx/button.h"
	.file 140 "../wxMSW-3.0.5_gcc810_x64_Dev/include/wx/choice.h"
	.file 141 "../wxMSW-3.0.5_gcc810_x64_Dev/include/wx/notebook.h"
	.file 142 "../wxMSW-3.0.5_gcc810_x64_Dev/include/wx/statbmp.h"
	.file 143 "../wxMSW-3.0.5_gcc810_x64_Dev/include/wx/stattext.h"
	.file 144 "../wxMSW-3.0.5_gcc810_x64_Dev/include/wx/textctrl.h"
	.file 145 "../../CalculadorNumerico/projetil/../padroes/baseobject.h"
	.file 146 "<built-in>"
	.file 147 "../wxMSW-3.0.5_gcc810_x64_Dev/include/wx/msw/textentry.h"