	.file	"ConfiguracoesGeraisDialog.cpp"
	.text
.Ltext0:
	.cfi_sections	.debug_frame
	.section	.text$strtod,"x"
	.linkonce discard
	.globl	strtod
	.def	strtod;	.scl	2;	.type	32;	.endef
	.seh_proc	strtod
strtod:
.LFB2:
	.file 1 "C:/Program Files/CodeBlocks/MinGW/x86_64-w64-mingw32/include/stdlib.h"
	.loc 1 451 1
	.cfi_startproc
	pushq	%rbp
	.seh_pushreg	%rbp
	.cfi_def_cfa_offset 16
	.cfi_offset 6, -16
	movq	%rsp, %rbp
	.seh_setframe	%rbp, 0
	.cfi_def_cfa_register 6
	subq	$32, %rsp
	.seh_stackalloc	32
	.seh_endprologue
	movq	%rcx, 16(%rbp)
	movq	%rdx, 24(%rbp)
	.loc 1 453 24
	movq	24(%rbp), %rax
	movq	%rax, %rdx
	movq	16(%rbp), %rcx
	call	__mingw_strtod
	movq	%xmm0, %rax
	.loc 1 454 1
	movq	%rax, %xmm0
	addq	$32, %rsp
	popq	%rbp
	.cfi_restore 6
	.cfi_def_cfa 7, 8
	ret
	.cfi_endproc
.LFE2:
	.seh_endproc
	.section	.text$_ZN13wxWindowIDRefC1Ev,"x"
	.linkonce discard
	.align 2
	.globl	_ZN13wxWindowIDRefC1Ev
	.def	_ZN13wxWindowIDRefC1Ev;	.scl	2;	.type	32;	.endef
	.seh_proc	_ZN13wxWindowIDRefC1Ev
_ZN13wxWindowIDRefC1Ev:
.LFB60:
	.file 2 "../wxMSW-3.0.5_gcc810_x64_Dev/include/wx/windowid.h"
	.loc 2 32 5
	.cfi_startproc
	pushq	%rbp
	.seh_pushreg	%rbp
	.cfi_def_cfa_offset 16
	.cfi_offset 6, -16
	movq	%rsp, %rbp
	.seh_setframe	%rbp, 0
	.cfi_def_cfa_register 6
	.seh_endprologue
	movq	%rcx, 16(%rbp)
.LBB2:
	.loc 2 34 14
	movq	16(%rbp), %rax
	movl	$-3, (%rax)
.LBE2:
	.loc 2 35 5
	nop
	popq	%rbp
	.cfi_restore 6
	.cfi_def_cfa 7, 8
	ret
	.cfi_endproc
.LFE60:
	.seh_endproc
	.section	.text$_ZN13wxWindowIDRefD1Ev,"x"
	.linkonce discard
	.align 2
	.globl	_ZN13wxWindowIDRefD1Ev
	.def	_ZN13wxWindowIDRefD1Ev;	.scl	2;	.type	32;	.endef
	.seh_proc	_ZN13wxWindowIDRefD1Ev
_ZN13wxWindowIDRefD1Ev:
.LFB72:
	.loc 2 54 5
	.cfi_startproc
	pushq	%rbp
	.seh_pushreg	%rbp
	.cfi_def_cfa_offset 16
	.cfi_offset 6, -16
	movq	%rsp, %rbp
	.seh_setframe	%rbp, 0
	.cfi_def_cfa_register 6
	subq	$32, %rsp
	.seh_stackalloc	32
	.seh_endprologue
	movq	%rcx, 16(%rbp)
.LBB3:
	.loc 2 56 15
	movl	$-3, %edx
	movq	16(%rbp), %rcx
	call	_ZN13wxWindowIDRef6AssignEi
.LBE3:
	.loc 2 57 5
	nop
	addq	$32, %rsp
	popq	%rbp
	.cfi_restore 6
	.cfi_def_cfa 7, 8
	ret
	.cfi_endproc
.LFE72:
	.def	__gxx_personality_seh0;	.scl	2;	.type	32;	.endef
	.seh_handler	__gxx_personality_seh0, @unwind, @except
	.seh_handlerdata
.LLSDA72:
	.byte	0xff
	.byte	0xff
	.byte	0x1
	.uleb128 .LLSDACSE72-.LLSDACSB72
.LLSDACSB72:
.LLSDACSE72:
	.section	.text$_ZN13wxWindowIDRefD1Ev,"x"
	.linkonce discard
	.seh_endproc
	.text
	.def	_ZL9vsnprintfPcyPKcS_;	.scl	3;	.type	32;	.endef
	.seh_proc	_ZL9vsnprintfPcyPKcS_
_ZL9vsnprintfPcyPKcS_:
.LFB102:
	.file 3 "C:/Program Files/CodeBlocks/MinGW/x86_64-w64-mingw32/include/stdio.h"
	.loc 3 400 1
	.cfi_startproc
	pushq	%rbp
	.seh_pushreg	%rbp
	.cfi_def_cfa_offset 16
	.cfi_offset 6, -16
	movq	%rsp, %rbp
	.seh_setframe	%rbp, 0
	.cfi_def_cfa_register 6
	subq	$32, %rsp
	.seh_stackalloc	32
	.seh_endprologue
	movq	%rcx, 16(%rbp)
	movq	%rdx, 24(%rbp)
	movq	%r8, 32(%rbp)
	movq	%r9, 40(%rbp)
	.loc 3 401 27
	movq	40(%rbp), %rcx
	movq	32(%rbp), %rdx
	movq	24(%rbp), %rax
	movq	%rcx, %r9
	movq	%rdx, %r8
	movq	%rax, %rdx
	movq	16(%rbp), %rcx
	call	__mingw_vsnprintf
	.loc 3 402 1
	addq	$32, %rsp
	popq	%rbp
	.cfi_restore 6
	.cfi_def_cfa 7, 8
	ret
	.cfi_endproc
.LFE102:
	.seh_endproc
	.section	.text$_Z8wxStrlenPKc,"x"
	.linkonce discard
	.globl	_Z8wxStrlenPKc
	.def	_Z8wxStrlenPKc;	.scl	2;	.type	32;	.endef
	.seh_proc	_Z8wxStrlenPKc
_Z8wxStrlenPKc:
.LFB114:
	.file 4 "../wxMSW-3.0.5_gcc810_x64_Dev/include/wx/wxcrtbase.h"
	.loc 4 675 39
	.cfi_startproc
	pushq	%rbp
	.seh_pushreg	%rbp
	.cfi_def_cfa_offset 16
	.cfi_offset 6, -16
	movq	%rsp, %rbp
	.seh_setframe	%rbp, 0
	.cfi_def_cfa_register 6
	subq	$32, %rsp
	.seh_stackalloc	32
	.seh_endprologue
	movq	%rcx, 16(%rbp)
	.loc 4 675 50
	cmpq	$0, 16(%rbp)
	je	.L8
	.loc 4 675 58 discriminator 1
	movq	16(%rbp), %rcx
	call	strlen
	.loc 4 675 64 discriminator 1
	jmp	.L10
.L8:
	.loc 4 675 50 discriminator 2
	movl	$0, %eax
.L10:
	.loc 4 675 67 discriminator 5
	addq	$32, %rsp
	popq	%rbp
	.cfi_restore 6
	.cfi_def_cfa 7, 8
	ret
	.cfi_endproc
.LFE114:
	.seh_endproc
	.section	.text$_ZN9wxPrivate17UntypedBufferDataC2EPvyNS0_4KindE,"x"
	.linkonce discard
	.align 2
	.globl	_ZN9wxPrivate17UntypedBufferDataC2EPvyNS0_4KindE
	.def	_ZN9wxPrivate17UntypedBufferDataC2EPvyNS0_4KindE;	.scl	2;	.type	32;	.endef
	.seh_proc	_ZN9wxPrivate17UntypedBufferDataC2EPvyNS0_4KindE
_ZN9wxPrivate17UntypedBufferDataC2EPvyNS0_4KindE:
.LFB119:
	.file 5 "../wxMSW-3.0.5_gcc810_x64_Dev/include/wx/buffer.h"
	.loc 5 38 5
	.cfi_startproc
	pushq	%rbp
	.seh_pushreg	%rbp
	.cfi_def_cfa_offset 16
	.cfi_offset 6, -16
	movq	%rsp, %rbp
	.seh_setframe	%rbp, 0
	.cfi_def_cfa_register 6
	.seh_endprologue
	movq	%rcx, 16(%rbp)
	movq	%rdx, 24(%rbp)
	movq	%r8, 32(%rbp)
	movl	%r9d, 40(%rbp)
.LBB4:
	.loc 5 39 69
	movq	16(%rbp), %rax
	movq	24(%rbp), %rdx
	movq	%rdx, (%rax)
	movq	16(%rbp), %rax
	movq	32(%rbp), %rdx
	movq	%rdx, 8(%rax)
	movq	16(%rbp), %rax
	movw	$1, 16(%rax)
	.loc 5 39 61
	cmpl	$0, 40(%rbp)
	sete	%al
	.loc 5 39 69
	movq	16(%rbp), %rdx
	movb	%al, 18(%rdx)
.LBE4:
	.loc 5 39 72
	nop
	popq	%rbp
	.cfi_restore 6
	.cfi_def_cfa 7, 8
	ret
	.cfi_endproc
.LFE119:
	.seh_endproc
	.section	.text$_ZN9wxPrivate17UntypedBufferDataD2Ev,"x"
	.linkonce discard
	.align 2
	.globl	_ZN9wxPrivate17UntypedBufferDataD2Ev
	.def	_ZN9wxPrivate17UntypedBufferDataD2Ev;	.scl	2;	.type	32;	.endef
	.seh_proc	_ZN9wxPrivate17UntypedBufferDataD2Ev
_ZN9wxPrivate17UntypedBufferDataD2Ev:
.LFB122:
	.loc 5 41 5
	.cfi_startproc
	pushq	%rbp
	.seh_pushreg	%rbp
	.cfi_def_cfa_offset 16
	.cfi_offset 6, -16
	movq	%rsp, %rbp
	.seh_setframe	%rbp, 0
	.cfi_def_cfa_register 6
	subq	$32, %rsp
	.seh_stackalloc	32
	.seh_endprologue
	movq	%rcx, 16(%rbp)
.LBB5:
	.loc 5 43 14
	movq	16(%rbp), %rax
	movzbl	18(%rax), %eax
	.loc 5 43 9
	testb	%al, %al
	je	.L14
	.loc 5 44 17
	movq	16(%rbp), %rax
	movq	(%rax), %rax
	movq	%rax, %rcx
	call	free
.L14:
.LBE5:
	.loc 5 45 5
	nop
	addq	$32, %rsp
	popq	%rbp
	.cfi_restore 6
	.cfi_def_cfa 7, 8
	ret
	.cfi_endproc
.LFE122:
	.seh_endproc
	.section	.text$_ZN8wxMBConvC2Ev,"x"
	.linkonce discard
	.align 2
	.globl	_ZN8wxMBConvC2Ev
	.def	_ZN8wxMBConvC2Ev;	.scl	2;	.type	32;	.endef
	.seh_proc	_ZN8wxMBConvC2Ev
_ZN8wxMBConvC2Ev:
.LFB243:
	.file 6 "../wxMSW-3.0.5_gcc810_x64_Dev/include/wx/strconv.h"
	.loc 6 47 7
	.cfi_startproc
	pushq	%rbp
	.seh_pushreg	%rbp
	.cfi_def_cfa_offset 16
	.cfi_offset 6, -16
	movq	%rsp, %rbp
	.seh_setframe	%rbp, 0
	.cfi_def_cfa_register 6
	.seh_endprologue
	movq	%rcx, 16(%rbp)
.LBB6:
	.loc 6 47 7
	movq	.refptr._ZTV8wxMBConv(%rip), %rax
	leaq	16(%rax), %rdx
	movq	16(%rbp), %rax
	movq	%rdx, (%rax)
.LBE6:
	nop
	popq	%rbp
	.cfi_restore 6
	.cfi_def_cfa 7, 8
	ret
	.cfi_endproc
.LFE243:
	.seh_endproc
	.section	.text$_ZN18wxMBConvStrictUTF8C2Ev,"x"
	.linkonce discard
	.align 2
	.globl	_ZN18wxMBConvStrictUTF8C2Ev
	.def	_ZN18wxMBConvStrictUTF8C2Ev;	.scl	2;	.type	32;	.endef
	.seh_proc	_ZN18wxMBConvStrictUTF8C2Ev
_ZN18wxMBConvStrictUTF8C2Ev:
.LFB267:
	.loc 6 341 7
	.cfi_startproc
	pushq	%rbp
	.seh_pushreg	%rbp
	.cfi_def_cfa_offset 16
	.cfi_offset 6, -16
	movq	%rsp, %rbp
	.seh_setframe	%rbp, 0
	.cfi_def_cfa_register 6
	subq	$32, %rsp
	.seh_stackalloc	32
	.seh_endprologue
	movq	%rcx, 16(%rbp)
.LBB7:
	.loc 6 341 7
	movq	16(%rbp), %rax
	movq	%rax, %rcx
	call	_ZN8wxMBConvC2Ev
	movq	.refptr._ZTV18wxMBConvStrictUTF8(%rip), %rax
	leaq	16(%rax), %rdx
	movq	16(%rbp), %rax
	movq	%rdx, (%rax)
.LBE7:
	nop
	addq	$32, %rsp
	popq	%rbp
	.cfi_restore 6
	.cfi_def_cfa 7, 8
	ret
	.cfi_endproc
.LFE267:
	.seh_endproc
	.section	.text$_ZN18wxMBConvStrictUTF8D2Ev,"x"
	.linkonce discard
	.align 2
	.globl	_ZN18wxMBConvStrictUTF8D2Ev
	.def	_ZN18wxMBConvStrictUTF8D2Ev;	.scl	2;	.type	32;	.endef
	.seh_proc	_ZN18wxMBConvStrictUTF8D2Ev
_ZN18wxMBConvStrictUTF8D2Ev:
.LFB271:
	.loc 6 341 7
	.cfi_startproc
	pushq	%rbp
	.seh_pushreg	%rbp
	.cfi_def_cfa_offset 16
	.cfi_offset 6, -16
	movq	%rsp, %rbp
	.seh_setframe	%rbp, 0
	.cfi_def_cfa_register 6
	subq	$32, %rsp
	.seh_stackalloc	32
	.seh_endprologue
	movq	%rcx, 16(%rbp)
.LBB8:
	.loc 6 341 7
	movq	.refptr._ZTV18wxMBConvStrictUTF8(%rip), %rax
	leaq	16(%rax), %rdx
	movq	16(%rbp), %rax
	movq	%rdx, (%rax)
	movq	16(%rbp), %rax
	movq	%rax, %rcx
	call	_ZN8wxMBConvD2Ev
.LBE8:
	nop
	addq	$32, %rsp
	popq	%rbp
	.cfi_restore 6
	.cfi_def_cfa 7, 8
	ret
	.cfi_endproc
.LFE271:
	.seh_endproc
	.section	.text$_ZN12wxMBConvUTF8C1Ei,"x"
	.linkonce discard
	.align 2
	.globl	_ZN12wxMBConvUTF8C1Ei
	.def	_ZN12wxMBConvUTF8C1Ei;	.scl	2;	.type	32;	.endef
	.seh_proc	_ZN12wxMBConvUTF8C1Ei
_ZN12wxMBConvUTF8C1Ei:
.LFB275:
	.loc 6 370 5
	.cfi_startproc
	pushq	%rbp
	.seh_pushreg	%rbp
	.cfi_def_cfa_offset 16
	.cfi_offset 6, -16
	movq	%rsp, %rbp
	.seh_setframe	%rbp, 0
	.cfi_def_cfa_register 6
	subq	$32, %rsp
	.seh_stackalloc	32
	.seh_endprologue
	movq	%rcx, 16(%rbp)
	movl	%edx, 24(%rbp)
.LBB9:
	.loc 6 370 73
	movq	16(%rbp), %rax
	movq	%rax, %rcx
	call	_ZN18wxMBConvStrictUTF8C2Ev
	movq	.refptr._ZTV12wxMBConvUTF8(%rip), %rax
	leaq	16(%rax), %rdx
	movq	16(%rbp), %rax
	movq	%rdx, (%rax)
	movq	16(%rbp), %rax
	movl	24(%rbp), %edx
	movl	%edx, 8(%rax)
.LBE9:
	.loc 6 370 77
	nop
	addq	$32, %rsp
	popq	%rbp
	.cfi_restore 6
	.cfi_def_cfa 7, 8
	ret
	.cfi_endproc
.LFE275:
	.seh_endproc
	.section	.text$_Z16wxGet_wxConvLibcv,"x"
	.linkonce discard
	.globl	_Z16wxGet_wxConvLibcv
	.def	_Z16wxGet_wxConvLibcv;	.scl	2;	.type	32;	.endef
	.seh_proc	_Z16wxGet_wxConvLibcv
_Z16wxGet_wxConvLibcv:
.LFB310:
	.loc 6 576 109
	.cfi_startproc
	pushq	%rbp
	.seh_pushreg	%rbp
	.cfi_def_cfa_offset 16
	.cfi_offset 6, -16
	movq	%rsp, %rbp
	.seh_setframe	%rbp, 0
	.cfi_def_cfa_register 6
	subq	$32, %rsp
	.seh_stackalloc	32
	.seh_endprologue
	.loc 6 576 116
	movq	.refptr.wxConvLibcPtr(%rip), %rax
	movq	(%rax), %rax
	.loc 6 576 111
	testq	%rax, %rax
	jne	.L20
	.loc 6 576 168 discriminator 1
	call	_Z19wxGet_wxConvLibcPtrv
	movq	%rax, %rdx
	.loc 6 576 147 discriminator 1
	movq	.refptr.wxConvLibcPtr(%rip), %rax
	movq	%rdx, (%rax)
.L20:
	.loc 6 576 180 discriminator 3
	movq	.refptr.wxConvLibcPtr(%rip), %rax
	movq	(%rax), %rax
	.loc 6 576 195 discriminator 3
	addq	$32, %rsp
	popq	%rbp
	.cfi_restore 6
	.cfi_def_cfa 7, 8
	ret
	.cfi_endproc
.LFE310:
	.seh_endproc
	.section .rdata,"dr"
_ZStL19piecewise_construct:
	.space 1
	.section	.text$_ZNKSt9type_info4nameEv,"x"
	.linkonce discard
	.align 2
	.globl	_ZNKSt9type_info4nameEv
	.def	_ZNKSt9type_info4nameEv;	.scl	2;	.type	32;	.endef
	.seh_proc	_ZNKSt9type_info4nameEv
_ZNKSt9type_info4nameEv:
.LFB711:
	.file 7 "C:/Program Files/CodeBlocks/MinGW/lib/gcc/x86_64-w64-mingw32/8.1.0/include/c++/typeinfo"
	.loc 7 99 17
	.cfi_startproc
	pushq	%rbp
	.seh_pushreg	%rbp
	.cfi_def_cfa_offset 16
	.cfi_offset 6, -16
	movq	%rsp, %rbp
	.seh_setframe	%rbp, 0
	.cfi_def_cfa_register 6
	.seh_endprologue
	movq	%rcx, 16(%rbp)
	.loc 7 100 14
	movq	16(%rbp), %rax
	movq	8(%rax), %rax
	.loc 7 100 22
	movzbl	(%rax), %eax
	.loc 7 100 31
	cmpb	$42, %al
	jne	.L23
	.loc 7 100 33 discriminator 1
	movq	16(%rbp), %rax
	movq	8(%rax), %rax
	.loc 7 100 31 discriminator 1
	addq	$1, %rax
	.loc 7 100 46 discriminator 1
	jmp	.L25
.L23:
	.loc 7 100 31 discriminator 2
	movq	16(%rbp), %rax
	movq	8(%rax), %rax
.L25:
	.loc 7 100 54 discriminator 5
	popq	%rbp
	.cfi_restore 6
	.cfi_def_cfa 7, 8
	ret
	.cfi_endproc
.LFE711:
	.seh_endproc
	.section .rdata,"dr"
.LC0:
	.ascii "stod\0"
	.section	.text$_ZNSt7__cxx114stodERKNS_12basic_stringIcSt11char_traitsIcESaIcEEEPy,"x"
	.linkonce discard
	.globl	_ZNSt7__cxx114stodERKNS_12basic_stringIcSt11char_traitsIcESaIcEEEPy
	.def	_ZNSt7__cxx114stodERKNS_12basic_stringIcSt11char_traitsIcESaIcEEEPy;	.scl	2;	.type	32;	.endef
	.seh_proc	_ZNSt7__cxx114stodERKNS_12basic_stringIcSt11char_traitsIcESaIcEEEPy
_ZNSt7__cxx114stodERKNS_12basic_stringIcSt11char_traitsIcESaIcEEEPy:
.LFB1155:
	.file 8 "C:/Program Files/CodeBlocks/MinGW/lib/gcc/x86_64-w64-mingw32/8.1.0/include/c++/bits/basic_string.h"
	.loc 8 6402 3
	.cfi_startproc
	pushq	%rbp
	.seh_pushreg	%rbp
	.cfi_def_cfa_offset 16
	.cfi_offset 6, -16
	movq	%rsp, %rbp
	.seh_setframe	%rbp, 0
	.cfi_def_cfa_register 6
	subq	$32, %rsp
	.seh_stackalloc	32
	.seh_endprologue
	movq	%rcx, 16(%rbp)
	movq	%rdx, 24(%rbp)
	.loc 8 6402 29
	movq	16(%rbp), %rcx
	call	_ZNKSt7__cxx1112basic_stringIcSt11char_traitsIcESaIcEE5c_strEv
	movq	%rax, %rdx
	movq	24(%rbp), %rax
	movq	%rax, %r9
	movq	%rdx, %r8
	leaq	.LC0(%rip), %rdx
	leaq	strtod(%rip), %rax
	movq	%rax, %rcx
	call	_ZN9__gnu_cxx6__stoaIddcJEEET0_PFT_PKT1_PPS3_DpT2_EPKcS5_PyS9_
	movq	%xmm0, %rax
	.loc 8 6402 75
	movq	%rax, %xmm0
	addq	$32, %rsp
	popq	%rbp
	.cfi_restore 6
	.cfi_def_cfa 7, 8
	ret
	.cfi_endproc
.LFE1155:
	.seh_endproc
	.section .rdata,"dr"
.LC1:
	.ascii "%d\0"
	.section	.text$_ZNSt7__cxx119to_stringEi,"x"
	.linkonce discard
	.globl	_ZNSt7__cxx119to_stringEi
	.def	_ZNSt7__cxx119to_stringEi;	.scl	2;	.type	32;	.endef
	.seh_proc	_ZNSt7__cxx119to_stringEi
_ZNSt7__cxx119to_stringEi:
.LFB1157:
	.loc 8 6415 3
	.cfi_startproc
	pushq	%rbp
	.seh_pushreg	%rbp
	.cfi_def_cfa_offset 16
	.cfi_offset 6, -16
	movq	%rsp, %rbp
	.seh_setframe	%rbp, 0
	.cfi_def_cfa_register 6
	subq	$48, %rsp
	.seh_stackalloc	48
	.seh_endprologue
	movq	%rcx, 16(%rbp)
	movl	%edx, 24(%rbp)
	.loc 8 6416 20
	movq	16(%rbp), %rax
	movl	24(%rbp), %edx
	movl	%edx, 32(%rsp)
	leaq	.LC1(%rip), %r9
	movl	$16, %r8d
	leaq	_ZL9vsnprintfPcyPKcS_(%rip), %rdx
	movq	%rax, %rcx
	call	_ZN9__gnu_cxx12__to_xstringINSt7__cxx1112basic_stringIcSt11char_traitsIcESaIcEEEcEET_PFiPT0_yPKS8_PcEySB_z
	.loc 8 6416 23
	movq	16(%rbp), %rax
	addq	$48, %rsp
	popq	%rbp
	.cfi_restore 6
	.cfi_def_cfa 7, 8
	ret
	.cfi_endproc
.LFE1157:
	.seh_endproc
	.section .rdata,"dr"
	.align 2
.LC2:
	.ascii "\0\0"
	.section	.text$_ZN8wxString7ImplStrEPKw,"x"
	.linkonce discard
	.globl	_ZN8wxString7ImplStrEPKw
	.def	_ZN8wxString7ImplStrEPKw;	.scl	2;	.type	32;	.endef
	.seh_proc	_ZN8wxString7ImplStrEPKw
_ZN8wxString7ImplStrEPKw:
.LFB1709:
	.file 9 "../wxMSW-3.0.5_gcc810_x64_Dev/include/wx/string.h"
	.loc 9 471 25
	.cfi_startproc
	pushq	%rbp
	.seh_pushreg	%rbp
	.cfi_def_cfa_offset 16
	.cfi_offset 6, -16
	movq	%rsp, %rbp
	.seh_setframe	%rbp, 0
	.cfi_def_cfa_register 6
	.seh_endprologue
	movq	%rcx, 16(%rbp)
	.loc 9 472 18
	cmpq	$0, 16(%rbp)
	je	.L31
	.loc 9 472 18 is_stmt 0 discriminator 1
	movq	16(%rbp), %rax
	.loc 9 472 26 is_stmt 1 discriminator 1
	jmp	.L33
.L31:
	.loc 9 472 18 discriminator 2
	leaq	.LC2(%rip), %rax
.L33:
	.loc 9 472 31 discriminator 5
	popq	%rbp
	.cfi_restore 6
	.cfi_def_cfa 7, 8
	ret
	.cfi_endproc
.LFE1709:
	.seh_endproc
	.section	.text$_ZN8wxString17SubstrBufFromTypeI22wxScopedCharTypeBufferIwEED1Ev,"x"
	.linkonce discard
	.align 2
	.globl	_ZN8wxString17SubstrBufFromTypeI22wxScopedCharTypeBufferIwEED1Ev
	.def	_ZN8wxString17SubstrBufFromTypeI22wxScopedCharTypeBufferIwEED1Ev;	.scl	2;	.type	32;	.endef
	.seh_proc	_ZN8wxString17SubstrBufFromTypeI22wxScopedCharTypeBufferIwEED1Ev
_ZN8wxString17SubstrBufFromTypeI22wxScopedCharTypeBufferIwEED1Ev:
.LFB1714:
	.loc 9 425 10
	.cfi_startproc
	pushq	%rbp
	.seh_pushreg	%rbp
	.cfi_def_cfa_offset 16
	.cfi_offset 6, -16
	movq	%rsp, %rbp
	.seh_setframe	%rbp, 0
	.cfi_def_cfa_register 6
	subq	$32, %rsp
	.seh_stackalloc	32
	.seh_endprologue
	movq	%rcx, 16(%rbp)
.LBB10:
	.loc 9 425 10
	movq	16(%rbp), %rax
	movq	%rax, %rcx
	call	_ZN22wxScopedCharTypeBufferIwED1Ev
.LBE10:
	nop
	addq	$32, %rsp
	popq	%rbp
	.cfi_restore 6
	.cfi_def_cfa 7, 8
	ret
	.cfi_endproc
.LFE1714:
	.seh_endproc
	.section	.text$_ZN8wxString7ImplStrEPKcRK8wxMBConv,"x"
	.linkonce discard
	.globl	_ZN8wxString7ImplStrEPKcRK8wxMBConv
	.def	_ZN8wxString7ImplStrEPKcRK8wxMBConv;	.scl	2;	.type	32;	.endef
	.seh_proc	_ZN8wxString7ImplStrEPKcRK8wxMBConv
_ZN8wxString7ImplStrEPKcRK8wxMBConv:
.LFB1711:
	.loc 9 475 30
	.cfi_startproc
	pushq	%rbp
	.seh_pushreg	%rbp
	.cfi_def_cfa_offset 16
	.cfi_offset 6, -16
	pushq	%rbx
	.seh_pushreg	%rbx
	.cfi_def_cfa_offset 24
	.cfi_offset 3, -24
	subq	$56, %rsp
	.seh_stackalloc	56
	.cfi_def_cfa_offset 80
	leaq	128(%rsp), %rbp
	.seh_setframe	%rbp, 128
	.cfi_def_cfa 6, -48
	.seh_endprologue
	movq	%rcx, -48(%rbp)
	movq	%rdx, -40(%rbp)
	movq	%r8, -32(%rbp)
	.loc 9 477 24
	movq	.refptr._ZN8wxString4nposE(%rip), %rax
	movq	(%rax), %rcx
	leaq	-96(%rbp), %rax
	movq	-32(%rbp), %r8
	movq	-40(%rbp), %rdx
	movq	%r8, %r9
	movq	%rcx, %r8
	movq	%rax, %rcx
.LEHB0:
	call	_ZN8wxString10ConvertStrEPKcyRK8wxMBConv
.LEHE0:
	.loc 9 477 42
	leaq	-96(%rbp), %rax
	movq	%rax, %rdx
	movq	-48(%rbp), %rcx
.LEHB1:
	call	_ZN22wxScopedCharTypeBufferIwEC1ERKS0_
.LEHE1:
	nop
	.loc 9 477 24
	leaq	-96(%rbp), %rax
	movq	%rax, %rcx
	call	_ZN8wxString17SubstrBufFromTypeI22wxScopedCharTypeBufferIwEED1Ev
	.loc 9 477 42
	jmp	.L39
.L38:
	movq	%rax, %rbx
	.loc 9 477 24
	leaq	-96(%rbp), %rax
	movq	%rax, %rcx
	call	_ZN8wxString17SubstrBufFromTypeI22wxScopedCharTypeBufferIwEED1Ev
	movq	%rbx, %rax
	movq	%rax, %rcx
.LEHB2:
	call	_Unwind_Resume
.LEHE2:
.L39:
	.loc 9 477 48
	movq	-48(%rbp), %rax
	addq	$56, %rsp
	popq	%rbx
	.cfi_restore 3
	popq	%rbp
	.cfi_restore 6
	.cfi_def_cfa 7, -40
	ret
	.cfi_endproc
.LFE1711:
	.seh_handler	__gxx_personality_seh0, @unwind, @except
	.seh_handlerdata
.LLSDA1711:
	.byte	0xff
	.byte	0xff
	.byte	0x1
	.uleb128 .LLSDACSE1711-.LLSDACSB1711
.LLSDACSB1711:
	.uleb128 .LEHB0-.LFB1711
	.uleb128 .LEHE0-.LEHB0
	.uleb128 0
	.uleb128 0
	.uleb128 .LEHB1-.LFB1711
	.uleb128 .LEHE1-.LEHB1
	.uleb128 .L38-.LFB1711
	.uleb128 0
	.uleb128 .LEHB2-.LFB1711
	.uleb128 .LEHE2-.LEHB2
	.uleb128 0
	.uleb128 0
.LLSDACSE1711:
	.section	.text$_ZN8wxString7ImplStrEPKcRK8wxMBConv,"x"
	.linkonce discard
	.seh_endproc
	.section	.text$_ZN8wxString7ImplStrEPKcyRK8wxMBConv,"x"
	.linkonce discard
	.globl	_ZN8wxString7ImplStrEPKcyRK8wxMBConv
	.def	_ZN8wxString7ImplStrEPKcyRK8wxMBConv;	.scl	2;	.type	32;	.endef
	.seh_proc	_ZN8wxString7ImplStrEPKcyRK8wxMBConv
_ZN8wxString7ImplStrEPKcyRK8wxMBConv:
.LFB1715:
	.loc 9 478 26
	.cfi_startproc
	pushq	%rbp
	.seh_pushreg	%rbp
	.cfi_def_cfa_offset 16
	.cfi_offset 6, -16
	movq	%rsp, %rbp
	.seh_setframe	%rbp, 0
	.cfi_def_cfa_register 6
	subq	$32, %rsp
	.seh_stackalloc	32
	.seh_endprologue
	movq	%rcx, 16(%rbp)
	movq	%rdx, 24(%rbp)
	movq	%r8, 32(%rbp)
	movq	%r9, 40(%rbp)
	.loc 9 480 37
	movq	16(%rbp), %rax
	movq	40(%rbp), %r8
	movq	32(%rbp), %rcx
	movq	24(%rbp), %rdx
	movq	%r8, %r9
	movq	%rcx, %r8
	movq	%rax, %rcx
	call	_ZN8wxString10ConvertStrEPKcyRK8wxMBConv
	.loc 9 480 40
	movq	16(%rbp), %rax
	addq	$32, %rsp
	popq	%rbp
	.cfi_restore 6
	.cfi_def_cfa 7, 8
	ret
	.cfi_endproc
.LFE1715:
	.seh_endproc
	.section	.text$_ZN8wxStringD1Ev,"x"
	.linkonce discard
	.align 2
	.globl	_ZN8wxStringD1Ev
	.def	_ZN8wxStringD1Ev;	.scl	2;	.type	32;	.endef
	.seh_proc	_ZN8wxStringD1Ev
_ZN8wxStringD1Ev:
.LFB1791:
	.loc 9 393 7
	.cfi_startproc
	pushq	%rbp
	.seh_pushreg	%rbp
	.cfi_def_cfa_offset 16
	.cfi_offset 6, -16
	movq	%rsp, %rbp
	.seh_setframe	%rbp, 0
	.cfi_def_cfa_register 6
	subq	$32, %rsp
	.seh_stackalloc	32
	.seh_endprologue
	movq	%rcx, 16(%rbp)
.LBB11:
	.loc 9 393 7
	movq	16(%rbp), %rax
	addq	$32, %rax
	movq	%rax, %rcx
	call	_ZN8wxString15ConvertedBufferIcED1Ev
	movq	16(%rbp), %rax
	movq	%rax, %rcx
	call	_ZNSt7__cxx1112basic_stringIwSt11char_traitsIwESaIwEED1Ev
.LBE11:
	nop
	addq	$32, %rsp
	popq	%rbp
	.cfi_restore 6
	.cfi_def_cfa 7, 8
	ret
	.cfi_endproc
.LFE1791:
	.seh_endproc
	.section	.text$_ZN8wxStringC1Ev,"x"
	.linkonce discard
	.align 2
	.globl	_ZN8wxStringC1Ev
	.def	_ZN8wxStringC1Ev;	.scl	2;	.type	32;	.endef
	.seh_proc	_ZN8wxStringC1Ev
_ZN8wxStringC1Ev:
.LFB1817:
	.loc 9 1217 3
	.cfi_startproc
	pushq	%rbp
	.seh_pushreg	%rbp
	.cfi_def_cfa_offset 16
	.cfi_offset 6, -16
	movq	%rsp, %rbp
	.seh_setframe	%rbp, 0
	.cfi_def_cfa_register 6
	subq	$32, %rsp
	.seh_stackalloc	32
	.seh_endprologue
	movq	%rcx, 16(%rbp)
.LBB12:
	.loc 9 1217 14
	movq	16(%rbp), %rax
	movq	%rax, %rcx
	call	_ZNSt7__cxx1112basic_stringIwSt11char_traitsIwESaIwEEC1Ev
	movq	16(%rbp), %rax
	addq	$32, %rax
	movq	%rax, %rcx
	call	_ZN8wxString15ConvertedBufferIcEC1Ev
.LBE12:
	.loc 9 1217 15
	nop
	addq	$32, %rsp
	popq	%rbp
	.cfi_restore 6
	.cfi_def_cfa 7, 8
	ret
	.cfi_endproc
.LFE1817:
	.seh_endproc
	.section	.text$_ZN8wxStringC1ERKS_,"x"
	.linkonce discard
	.align 2
	.globl	_ZN8wxStringC1ERKS_
	.def	_ZN8wxStringC1ERKS_;	.scl	2;	.type	32;	.endef
	.seh_proc	_ZN8wxStringC1ERKS_
_ZN8wxStringC1ERKS_:
.LFB1820:
	.loc 9 1220 3
	.cfi_startproc
	pushq	%rbp
	.seh_pushreg	%rbp
	.cfi_def_cfa_offset 16
	.cfi_offset 6, -16
	movq	%rsp, %rbp
	.seh_setframe	%rbp, 0
	.cfi_def_cfa_register 6
	subq	$32, %rsp
	.seh_stackalloc	32
	.seh_endprologue
	movq	%rcx, 16(%rbp)
	movq	%rdx, 24(%rbp)
.LBB13:
	.loc 9 1220 64
	movq	16(%rbp), %rax
	.loc 9 1220 58
	movq	24(%rbp), %rdx
	.loc 9 1220 64
	movq	%rax, %rcx
	call	_ZNSt7__cxx1112basic_stringIwSt11char_traitsIwESaIwEEC1ERKS4_
	movq	16(%rbp), %rax
	addq	$32, %rax
	movq	%rax, %rcx
	call	_ZN8wxString15ConvertedBufferIcEC1Ev
.LBE13:
	.loc 9 1220 68
	nop
	addq	$32, %rsp
	popq	%rbp
	.cfi_restore 6
	.cfi_def_cfa 7, 8
	ret
	.cfi_endproc
.LFE1820:
	.seh_endproc
	.section	.text$_ZN8wxStringC1EPKc,"x"
	.linkonce discard
	.align 2
	.globl	_ZN8wxStringC1EPKc
	.def	_ZN8wxStringC1EPKc;	.scl	2;	.type	32;	.endef
	.seh_proc	_ZN8wxStringC1EPKc
_ZN8wxStringC1EPKc:
.LFB1847:
	.loc 9 1241 3
	.cfi_startproc
	pushq	%rbp
	.seh_pushreg	%rbp
	.cfi_def_cfa_offset 16
	.cfi_offset 6, -16
	pushq	%rbx
	.seh_pushreg	%rbx
	.cfi_def_cfa_offset 24
	.cfi_offset 3, -24
	subq	$56, %rsp
	.seh_stackalloc	56
	.cfi_def_cfa_offset 80
	leaq	128(%rsp), %rbp
	.seh_setframe	%rbp, 128
	.cfi_def_cfa 6, -48
	.seh_endprologue
	movq	%rcx, -48(%rbp)
	movq	%rdx, -40(%rbp)
.LBB14:
	.loc 9 1242 26
	movq	-48(%rbp), %rbx
	leaq	-89(%rbp), %rax
	movq	%rax, %rcx
	call	_ZNSaIwEC1Ev
.LEHB3:
	.loc 9 1242 25
	call	_Z16wxGet_wxConvLibcv
	movq	%rax, %rcx
	.loc 9 1242 21
	leaq	-88(%rbp), %rax
	movq	-40(%rbp), %rdx
	movq	%rcx, %r8
	movq	%rax, %rcx
	call	_ZN8wxString7ImplStrEPKcRK8wxMBConv
.LEHE3:
	.loc 9 1242 26 discriminator 4
	leaq	-88(%rbp), %rax
	movq	%rax, %rcx
.LEHB4:
	call	_ZNK22wxScopedCharTypeBufferIwEcvPKwEv
	movq	%rax, %rdx
	leaq	-89(%rbp), %rax
	movq	%rax, %r8
	movq	%rbx, %rcx
	call	_ZNSt7__cxx1112basic_stringIwSt11char_traitsIwESaIwEEC1EPKwRKS3_
.LEHE4:
	.loc 9 1242 21 discriminator 8
	leaq	-88(%rbp), %rax
	movq	%rax, %rcx
	call	_ZN22wxScopedCharTypeBufferIwED1Ev
	.loc 9 1242 26 discriminator 8
	leaq	-89(%rbp), %rax
	movq	%rax, %rcx
	call	_ZNSaIwED1Ev
	movq	-48(%rbp), %rax
	addq	$32, %rax
	movq	%rax, %rcx
	call	_ZN8wxString15ConvertedBufferIcEC1Ev
.LBE14:
	.loc 9 1242 29 discriminator 8
	jmp	.L50
.L49:
	movq	%rax, %rbx
.LBB15:
	.loc 9 1242 21
	leaq	-88(%rbp), %rax
	movq	%rax, %rcx
	call	_ZN22wxScopedCharTypeBufferIwED1Ev
	jmp	.L47
.L48:
	movq	%rax, %rbx
.L47:
	.loc 9 1242 26 discriminator 3
	leaq	-89(%rbp), %rax
	movq	%rax, %rcx
	call	_ZNSaIwED1Ev
	movq	%rbx, %rax
	movq	%rax, %rcx
.LEHB5:
	call	_Unwind_Resume
	nop
.LEHE5:
.L50:
.LBE15:
	.loc 9 1242 29
	addq	$56, %rsp
	popq	%rbx
	.cfi_restore 3
	popq	%rbp
	.cfi_restore 6
	.cfi_def_cfa 7, -40
	ret
	.cfi_endproc
.LFE1847:
	.seh_handler	__gxx_personality_seh0, @unwind, @except
	.seh_handlerdata
.LLSDA1847:
	.byte	0xff
	.byte	0xff
	.byte	0x1
	.uleb128 .LLSDACSE1847-.LLSDACSB1847
.LLSDACSB1847:
	.uleb128 .LEHB3-.LFB1847
	.uleb128 .LEHE3-.LEHB3
	.uleb128 .L48-.LFB1847
	.uleb128 0
	.uleb128 .LEHB4-.LFB1847
	.uleb128 .LEHE4-.LEHB4
	.uleb128 .L49-.LFB1847
	.uleb128 0
	.uleb128 .LEHB5-.LFB1847
	.uleb128 .LEHE5-.LEHB5
	.uleb128 0
	.uleb128 0
.LLSDACSE1847:
	.section	.text$_ZN8wxStringC1EPKc,"x"
	.linkonce discard
	.seh_endproc
	.section	.text$_ZN8wxStringC1EPKcRK8wxMBConvy,"x"
	.linkonce discard
	.align 2
	.globl	_ZN8wxStringC1EPKcRK8wxMBConvy
	.def	_ZN8wxStringC1EPKcRK8wxMBConvy;	.scl	2;	.type	32;	.endef
	.seh_proc	_ZN8wxStringC1EPKcRK8wxMBConvy
_ZN8wxStringC1EPKcRK8wxMBConvy:
.LFB1856:
	.loc 9 1247 3
	.cfi_startproc
	pushq	%rbp
	.seh_pushreg	%rbp
	.cfi_def_cfa_offset 16
	.cfi_offset 6, -16
	pushq	%rsi
	.seh_pushreg	%rsi
	.cfi_def_cfa_offset 24
	.cfi_offset 4, -24
	pushq	%rbx
	.seh_pushreg	%rbx
	.cfi_def_cfa_offset 32
	.cfi_offset 3, -32
	movq	%rsp, %rbp
	.seh_setframe	%rbp, 0
	.cfi_def_cfa_register 6
	subq	$48, %rsp
	.seh_stackalloc	48
	.seh_endprologue
	movq	%rcx, 32(%rbp)
	movq	%rdx, 40(%rbp)
	movq	%r8, 48(%rbp)
	movq	%r9, 56(%rbp)
.LBB16:
	.loc 9 1248 3
	movq	32(%rbp), %rax
	movq	%rax, %rcx
	call	_ZNSt7__cxx1112basic_stringIwSt11char_traitsIwESaIwEEC1Ev
	movq	32(%rbp), %rax
	addq	$32, %rax
	movq	%rax, %rcx
	call	_ZN8wxString15ConvertedBufferIcEC1Ev
.LBB17:
	.loc 9 1249 52
	leaq	-16(%rbp), %rax
	movq	48(%rbp), %r8
	movq	56(%rbp), %rcx
	movq	40(%rbp), %rdx
	movq	%r8, %r9
	movq	%rcx, %r8
	movq	%rax, %rcx
.LEHB6:
	call	_ZN8wxString7ImplStrEPKcyRK8wxMBConv
.LEHE6:
	.loc 9 1250 36
	movq	32(%rbp), %rbx
	movq	-8(%rbp), %rsi
	leaq	-16(%rbp), %rax
	movq	%rax, %rcx
.LEHB7:
	call	_ZNK22wxScopedCharTypeBufferIwEcvPKwEv
	movq	%rsi, %r8
	movq	%rax, %rdx
	movq	%rbx, %rcx
	call	_ZNSt7__cxx1112basic_stringIwSt11char_traitsIwESaIwEE6assignEPKwy
.LEHE7:
	.loc 9 1249 52
	leaq	-16(%rbp), %rax
	movq	%rax, %rcx
	call	_ZN8wxString17SubstrBufFromTypeI22wxScopedCharTypeBufferIwEED1Ev
.LBE17:
.LBE16:
	.loc 9 1251 3
	jmp	.L56
.L55:
	movq	%rax, %rbx
.LBB19:
.LBB18:
	.loc 9 1249 52
	leaq	-16(%rbp), %rax
	movq	%rax, %rcx
	call	_ZN8wxString17SubstrBufFromTypeI22wxScopedCharTypeBufferIwEED1Ev
	jmp	.L53
.L54:
	movq	%rax, %rbx
.L53:
.LBE18:
	.loc 9 1248 3
	movq	32(%rbp), %rax
	addq	$32, %rax
	movq	%rax, %rcx
	call	_ZN8wxString15ConvertedBufferIcED1Ev
	movq	32(%rbp), %rax
	movq	%rax, %rcx
	call	_ZNSt7__cxx1112basic_stringIwSt11char_traitsIwESaIwEED1Ev
	movq	%rbx, %rax
	movq	%rax, %rcx
.LEHB8:
	call	_Unwind_Resume
	nop
.LEHE8:
.L56:
.LBE19:
	.loc 9 1251 3
	addq	$48, %rsp
	popq	%rbx
	.cfi_restore 3
	popq	%rsi
	.cfi_restore 4
	popq	%rbp
	.cfi_restore 6
	.cfi_def_cfa 7, 24
	ret
	.cfi_endproc
.LFE1856:
	.seh_handler	__gxx_personality_seh0, @unwind, @except
	.seh_handlerdata
.LLSDA1856:
	.byte	0xff
	.byte	0xff
	.byte	0x1
	.uleb128 .LLSDACSE1856-.LLSDACSB1856
.LLSDACSB1856:
	.uleb128 .LEHB6-.LFB1856
	.uleb128 .LEHE6-.LEHB6
	.uleb128 .L54-.LFB1856
	.uleb128 0
	.uleb128 .LEHB7-.LFB1856
	.uleb128 .LEHE7-.LEHB7
	.uleb128 .L55-.LFB1856
	.uleb128 0
	.uleb128 .LEHB8-.LFB1856
	.uleb128 .LEHE8-.LEHB8
	.uleb128 0
	.uleb128 0
.LLSDACSE1856:
	.section	.text$_ZN8wxStringC1EPKcRK8wxMBConvy,"x"
	.linkonce discard
	.seh_endproc
	.section	.text$_ZN8wxStringC1EPKw,"x"
	.linkonce discard
	.align 2
	.globl	_ZN8wxStringC1EPKw
	.def	_ZN8wxStringC1EPKw;	.scl	2;	.type	32;	.endef
	.seh_proc	_ZN8wxStringC1EPKw
_ZN8wxStringC1EPKw:
.LFB1871:
	.loc 9 1267 3
	.cfi_startproc
	pushq	%rbp
	.seh_pushreg	%rbp
	.cfi_def_cfa_offset 16
	.cfi_offset 6, -16
	pushq	%rbx
	.seh_pushreg	%rbx
	.cfi_def_cfa_offset 24
	.cfi_offset 3, -24
	subq	$56, %rsp
	.seh_stackalloc	56
	.cfi_def_cfa_offset 80
	leaq	128(%rsp), %rbp
	.seh_setframe	%rbp, 128
	.cfi_def_cfa 6, -48
	.seh_endprologue
	movq	%rcx, -48(%rbp)
	movq	%rdx, -40(%rbp)
.LBB20:
	.loc 9 1268 26
	movq	-48(%rbp), %rbx
	leaq	-81(%rbp), %rax
	movq	%rax, %rcx
	call	_ZNSaIwEC1Ev
	movq	-40(%rbp), %rax
	movq	%rax, %rcx
	call	_ZN8wxString7ImplStrEPKw
	movq	%rax, %rdx
	leaq	-81(%rbp), %rax
	movq	%rax, %r8
	movq	%rbx, %rcx
.LEHB9:
	call	_ZNSt7__cxx1112basic_stringIwSt11char_traitsIwESaIwEEC1EPKwRKS3_
.LEHE9:
	.loc 9 1268 26 is_stmt 0 discriminator 2
	leaq	-81(%rbp), %rax
	movq	%rax, %rcx
	call	_ZNSaIwED1Ev
	movq	-48(%rbp), %rax
	addq	$32, %rax
	movq	%rax, %rcx
	call	_ZN8wxString15ConvertedBufferIcEC1Ev
.LBE20:
	.loc 9 1268 29 is_stmt 1 discriminator 2
	jmp	.L60
.L59:
	movq	%rax, %rbx
.LBB21:
	.loc 9 1268 26
	leaq	-81(%rbp), %rax
	movq	%rax, %rcx
	call	_ZNSaIwED1Ev
	movq	%rbx, %rax
	movq	%rax, %rcx
.LEHB10:
	call	_Unwind_Resume
	nop
.LEHE10:
.L60:
.LBE21:
	.loc 9 1268 29
	addq	$56, %rsp
	popq	%rbx
	.cfi_restore 3
	popq	%rbp
	.cfi_restore 6
	.cfi_def_cfa 7, -40
	ret
	.cfi_endproc
.LFE1871:
	.seh_handler	__gxx_personality_seh0, @unwind, @except
	.seh_handlerdata
.LLSDA1871:
	.byte	0xff
	.byte	0xff
	.byte	0x1
	.uleb128 .LLSDACSE1871-.LLSDACSB1871
.LLSDACSB1871:
	.uleb128 .LEHB9-.LFB1871
	.uleb128 .LEHE9-.LEHB9
	.uleb128 .L59-.LFB1871
	.uleb128 0
	.uleb128 .LEHB10-.LFB1871
	.uleb128 .LEHE10-.LEHB10
	.uleb128 0
	.uleb128 0
.LLSDACSE1871:
	.section	.text$_ZN8wxStringC1EPKw,"x"
	.linkonce discard
	.seh_endproc
	.section	.text$_ZNK8wxString11ToStdStringB5cxx11Ev,"x"
	.linkonce discard
	.align 2
	.globl	_ZNK8wxString11ToStdStringB5cxx11Ev
	.def	_ZNK8wxString11ToStdStringB5cxx11Ev;	.scl	2;	.type	32;	.endef
	.seh_proc	_ZNK8wxString11ToStdStringB5cxx11Ev
_ZNK8wxString11ToStdStringB5cxx11Ev:
.LFB1903:
	.loc 9 1363 17
	.cfi_startproc
	pushq	%rbp
	.seh_pushreg	%rbp
	.cfi_def_cfa_offset 16
	.cfi_offset 6, -16
	pushq	%rbx
	.seh_pushreg	%rbx
	.cfi_def_cfa_offset 24
	.cfi_offset 3, -24
	subq	$56, %rsp
	.seh_stackalloc	56
	.cfi_def_cfa_offset 80
	leaq	128(%rsp), %rbp
	.seh_setframe	%rbp, 128
	.cfi_def_cfa 6, -48
	.seh_endprologue
	movq	%rcx, -48(%rbp)
	movq	%rdx, -40(%rbp)
.LEHB11:
	.loc 9 1365 39
	call	_Z16wxGet_wxConvLibcv
	movq	%rax, %rcx
	.loc 9 1365 40
	leaq	-96(%rbp), %rax
	movq	-40(%rbp), %rdx
	movq	%rcx, %r8
	movq	%rax, %rcx
	call	_ZNK8wxString6mb_strERK8wxMBConv
.LEHE11:
	.loc 9 1366 52
	leaq	-81(%rbp), %rax
	movq	%rax, %rcx
	call	_ZNSaIcEC1Ev
	leaq	-96(%rbp), %rax
	movq	%rax, %rcx
	call	_ZNK22wxScopedCharTypeBufferIcE6lengthEv
	movq	%rax, %rbx
	.loc 9 1366 36
	leaq	-96(%rbp), %rax
	movq	%rax, %rcx
.LEHB12:
	call	_ZN22wxScopedCharTypeBufferIcE4dataEv
	movq	%rax, %rdx
	.loc 9 1366 52
	leaq	-81(%rbp), %rax
	movq	%rax, %r9
	movq	%rbx, %r8
	movq	-48(%rbp), %rcx
	call	_ZNSt7__cxx1112basic_stringIcSt11char_traitsIcESaIcEEC1EPKcyRKS3_
.LEHE12:
	leaq	-81(%rbp), %rax
	movq	%rax, %rcx
	call	_ZNSaIcED1Ev
	.loc 9 1365 40
	leaq	-96(%rbp), %rax
	movq	%rax, %rcx
	call	_ZN22wxScopedCharTypeBufferIcED1Ev
	.loc 9 1366 52
	jmp	.L65
.L64:
	movq	%rax, %rbx
	leaq	-81(%rbp), %rax
	movq	%rax, %rcx
	call	_ZNSaIcED1Ev
	.loc 9 1365 40
	leaq	-96(%rbp), %rax
	movq	%rax, %rcx
	call	_ZN22wxScopedCharTypeBufferIcED1Ev
	movq	%rbx, %rax
	movq	%rax, %rcx
.LEHB13:
	call	_Unwind_Resume
.LEHE13:
.L65:
	.loc 9 1367 5
	movq	-48(%rbp), %rax
	addq	$56, %rsp
	popq	%rbx
	.cfi_restore 3
	popq	%rbp
	.cfi_restore 6
	.cfi_def_cfa 7, -40
	ret
	.cfi_endproc
.LFE1903:
	.seh_handler	__gxx_personality_seh0, @unwind, @except
	.seh_handlerdata
.LLSDA1903:
	.byte	0xff
	.byte	0xff
	.byte	0x1
	.uleb128 .LLSDACSE1903-.LLSDACSB1903
.LLSDACSB1903:
	.uleb128 .LEHB11-.LFB1903
	.uleb128 .LEHE11-.LEHB11
	.uleb128 0
	.uleb128 0
	.uleb128 .LEHB12-.LFB1903
	.uleb128 .LEHE12-.LEHB12
	.uleb128 .L64-.LFB1903
	.uleb128 0
	.uleb128 .LEHB13-.LFB1903
	.uleb128 .LEHE13-.LEHB13
	.uleb128 0
	.uleb128 0
.LLSDACSE1903:
	.section	.text$_ZNK8wxString11ToStdStringB5cxx11Ev,"x"
	.linkonce discard
	.seh_endproc
	.section	.text$_ZNK8wxString6lengthEv,"x"
	.linkonce discard
	.align 2
	.globl	_ZNK8wxString6lengthEv
	.def	_ZNK8wxString6lengthEv;	.scl	2;	.type	32;	.endef
	.seh_proc	_ZNK8wxString6lengthEv
_ZNK8wxString6lengthEv:
.LFB1913:
	.loc 9 1438 10
	.cfi_startproc
	pushq	%rbp
	.seh_pushreg	%rbp
	.cfi_def_cfa_offset 16
	.cfi_offset 6, -16
	movq	%rsp, %rbp
	.seh_setframe	%rbp, 0
	.cfi_def_cfa_register 6
	subq	$32, %rsp
	.seh_stackalloc	32
	.seh_endprologue
	movq	%rcx, 16(%rbp)
	.loc 9 1438 47
	movq	16(%rbp), %rax
	movq	%rax, %rcx
	call	_ZNKSt7__cxx1112basic_stringIwSt11char_traitsIwESaIwEE6lengthEv
	.loc 9 1438 51
	addq	$32, %rsp
	popq	%rbp
	.cfi_restore 6
	.cfi_def_cfa 7, 8
	ret
	.cfi_endproc
.LFE1913:
	.seh_endproc
	.section	.text$_ZNK8wxString5emptyEv,"x"
	.linkonce discard
	.align 2
	.globl	_ZNK8wxString5emptyEv
	.def	_ZNK8wxString5emptyEv;	.scl	2;	.type	32;	.endef
	.seh_proc	_ZNK8wxString5emptyEv
_ZNK8wxString5emptyEv:
.LFB1916:
	.loc 9 1444 8
	.cfi_startproc
	pushq	%rbp
	.seh_pushreg	%rbp
	.cfi_def_cfa_offset 16
	.cfi_offset 6, -16
	movq	%rsp, %rbp
	.seh_setframe	%rbp, 0
	.cfi_def_cfa_register 6
	subq	$32, %rsp
	.seh_stackalloc	32
	.seh_endprologue
	movq	%rcx, 16(%rbp)
	.loc 9 1444 43
	movq	16(%rbp), %rax
	movq	%rax, %rcx
	call	_ZNKSt7__cxx1112basic_stringIwSt11char_traitsIwESaIwEE5emptyEv
	.loc 9 1444 47
	addq	$32, %rsp
	popq	%rbp
	.cfi_restore 6
	.cfi_def_cfa 7, 8
	ret
	.cfi_endproc
.LFE1916:
	.seh_endproc
	.section	.text$_ZN8wxString8FromUTF8EPKcy,"x"
	.linkonce discard
	.globl	_ZN8wxString8FromUTF8EPKcy
	.def	_ZN8wxString8FromUTF8EPKcy;	.scl	2;	.type	32;	.endef
	.seh_proc	_ZN8wxString8FromUTF8EPKcy
_ZN8wxString8FromUTF8EPKcy:
.LFB1966:
	.loc 9 1742 21
	.cfi_startproc
	pushq	%rbp
	.seh_pushreg	%rbp
	.cfi_def_cfa_offset 16
	.cfi_offset 6, -16
	pushq	%rbx
	.seh_pushreg	%rbx
	.cfi_def_cfa_offset 24
	.cfi_offset 3, -24
	subq	$56, %rsp
	.seh_stackalloc	56
	.cfi_def_cfa_offset 80
	leaq	128(%rsp), %rbp
	.seh_setframe	%rbp, 128
	.cfi_def_cfa 6, -48
	.seh_endprologue
	movq	%rcx, -48(%rbp)
	movq	%rdx, -40(%rbp)
	movq	%r8, -32(%rbp)
	.loc 9 1743 31
	leaq	-96(%rbp), %rax
	movl	$0, %edx
	movq	%rax, %rcx
	call	_ZN12wxMBConvUTF8C1Ei
	.loc 9 1743 50
	movq	-32(%rbp), %rcx
	leaq	-96(%rbp), %rdx
	movq	-40(%rbp), %rax
	movq	%rcx, %r9
	movq	%rdx, %r8
	movq	%rax, %rdx
	movq	-48(%rbp), %rcx
.LEHB14:
	call	_ZN8wxStringC1EPKcRK8wxMBConvy
.LEHE14:
	nop
	.loc 9 1743 31
	leaq	-96(%rbp), %rax
	movq	%rax, %rcx
	call	_ZN12wxMBConvUTF8D1Ev
	.loc 9 1743 50
	jmp	.L74
.L73:
	movq	%rax, %rbx
	.loc 9 1743 31
	leaq	-96(%rbp), %rax
	movq	%rax, %rcx
	call	_ZN12wxMBConvUTF8D1Ev
	movq	%rbx, %rax
	movq	%rax, %rcx
.LEHB15:
	call	_Unwind_Resume
.LEHE15:
.L74:
	.loc 9 1743 53
	movq	-48(%rbp), %rax
	addq	$56, %rsp
	popq	%rbx
	.cfi_restore 3
	popq	%rbp
	.cfi_restore 6
	.cfi_def_cfa 7, -40
	ret
	.cfi_endproc
.LFE1966:
	.seh_handler	__gxx_personality_seh0, @unwind, @except
	.seh_handlerdata
.LLSDA1966:
	.byte	0xff
	.byte	0xff
	.byte	0x1
	.uleb128 .LLSDACSE1966-.LLSDACSB1966
.LLSDACSB1966:
	.uleb128 .LEHB14-.LFB1966
	.uleb128 .LEHE14-.LEHB14
	.uleb128 .L73-.LFB1966
	.uleb128 0
	.uleb128 .LEHB15-.LFB1966
	.uleb128 .LEHE15-.LEHB15
	.uleb128 0
	.uleb128 0
.LLSDACSE1966:
	.section	.text$_ZN8wxString8FromUTF8EPKcy,"x"
	.linkonce discard
	.seh_endproc
	.section	.text$_ZNK8wxString6mb_strERK8wxMBConv,"x"
	.linkonce discard
	.align 2
	.globl	_ZNK8wxString6mb_strERK8wxMBConv
	.def	_ZNK8wxString6mb_strERK8wxMBConv;	.scl	2;	.type	32;	.endef
	.seh_proc	_ZNK8wxString6mb_strERK8wxMBConv
_ZNK8wxString6mb_strERK8wxMBConv:
.LFB1973:
	.loc 9 1827 30
	.cfi_startproc
	pushq	%rbp
	.seh_pushreg	%rbp
	.cfi_def_cfa_offset 16
	.cfi_offset 6, -16
	movq	%rsp, %rbp
	.seh_setframe	%rbp, 0
	.cfi_def_cfa_register 6
	subq	$32, %rsp
	.seh_stackalloc	32
	.seh_endprologue
	movq	%rcx, 16(%rbp)
	movq	%rdx, 24(%rbp)
	movq	%r8, 32(%rbp)
	.loc 9 1829 30
	movq	16(%rbp), %rax
	movq	32(%rbp), %rcx
	movq	24(%rbp), %rdx
	movq	%rcx, %r8
	movq	%rax, %rcx
	call	_ZNK8wxString9AsCharBufERK8wxMBConv
	.loc 9 1830 5
	movq	16(%rbp), %rax
	addq	$32, %rsp
	popq	%rbp
	.cfi_restore 6
	.cfi_def_cfa 7, 8
	ret
	.cfi_endproc
.LFE1973:
	.seh_endproc
	.section	.text$_ZN8wxStringaSERKS_,"x"
	.linkonce discard
	.align 2
	.globl	_ZN8wxStringaSERKS_
	.def	_ZN8wxStringaSERKS_;	.scl	2;	.type	32;	.endef
	.seh_proc	_ZN8wxStringaSERKS_
_ZN8wxStringaSERKS_:
.LFB1982:
	.loc 9 1877 13
	.cfi_startproc
	pushq	%rbp
	.seh_pushreg	%rbp
	.cfi_def_cfa_offset 16
	.cfi_offset 6, -16
	movq	%rsp, %rbp
	.seh_setframe	%rbp, 0
	.cfi_def_cfa_register 6
	subq	$32, %rsp
	.seh_stackalloc	32
	.seh_endprologue
	movq	%rcx, 16(%rbp)
	movq	%rdx, 24(%rbp)
	.loc 9 1879 5
	movq	16(%rbp), %rax
	cmpq	24(%rbp), %rax
	je	.L78
	.loc 9 1883 28
	movq	24(%rbp), %rdx
	movq	16(%rbp), %rax
	movq	%rax, %rcx
	call	_ZNSt7__cxx1112basic_stringIwSt11char_traitsIwESaIwEEaSERKS4_
.L78:
	.loc 9 1886 13
	movq	16(%rbp), %rax
	.loc 9 1887 3
	addq	$32, %rsp
	popq	%rbp
	.cfi_restore 6
	.cfi_def_cfa 7, 8
	ret
	.cfi_endproc
.LFE1982:
	.seh_endproc
	.section	.text$_ZNK8wxString3CmpERKS_,"x"
	.linkonce discard
	.align 2
	.globl	_ZNK8wxString3CmpERKS_
	.def	_ZNK8wxString3CmpERKS_;	.scl	2;	.type	32;	.endef
	.seh_proc	_ZNK8wxString3CmpERKS_
_ZNK8wxString3CmpERKS_:
.LFB2035:
	.loc 9 2110 7
	.cfi_startproc
	pushq	%rbp
	.seh_pushreg	%rbp
	.cfi_def_cfa_offset 16
	.cfi_offset 6, -16
	movq	%rsp, %rbp
	.seh_setframe	%rbp, 0
	.cfi_def_cfa_register 6
	subq	$32, %rsp
	.seh_stackalloc	32
	.seh_endprologue
	movq	%rcx, 16(%rbp)
	movq	%rdx, 24(%rbp)
	.loc 9 2111 21
	movq	24(%rbp), %rax
	movq	%rax, %rdx
	movq	16(%rbp), %rcx
	call	_ZNK8wxString7compareERKS_
	.loc 9 2111 26
	addq	$32, %rsp
	popq	%rbp
	.cfi_restore 6
	.cfi_def_cfa 7, 8
	ret
	.cfi_endproc
.LFE2035:
	.seh_endproc
	.section	.text$_ZNK8wxString8IsSameAsERKS_b,"x"
	.linkonce discard
	.align 2
	.globl	_ZNK8wxString8IsSameAsERKS_b
	.def	_ZNK8wxString8IsSameAsERKS_b;	.scl	2;	.type	32;	.endef
	.seh_proc	_ZNK8wxString8IsSameAsERKS_b
_ZNK8wxString8IsSameAsERKS_b:
.LFB2039:
	.loc 9 2123 8
	.cfi_startproc
	pushq	%rbp
	.seh_pushreg	%rbp
	.cfi_def_cfa_offset 16
	.cfi_offset 6, -16
	pushq	%rbx
	.seh_pushreg	%rbx
	.cfi_def_cfa_offset 24
	.cfi_offset 3, -24
	subq	$40, %rsp
	.seh_stackalloc	40
	.cfi_def_cfa_offset 64
	leaq	128(%rsp), %rbp
	.seh_setframe	%rbp, 128
	.cfi_def_cfa 6, -64
	.seh_endprologue
	movq	%rcx, -64(%rbp)
	movq	%rdx, -56(%rbp)
	movl	%r8d, %eax
	movb	%al, -48(%rbp)
	.loc 9 2127 18
	movq	-64(%rbp), %rcx
	call	_ZNK8wxString6lengthEv
	movq	%rax, %rbx
	.loc 9 2127 34
	movq	-56(%rbp), %rax
	movq	%rax, %rcx
	call	_ZNK8wxString6lengthEv
	.loc 9 2127 21
	cmpq	%rax, %rbx
	setne	%al
	.loc 9 2127 7
	testb	%al, %al
	je	.L83
	.loc 9 2128 18
	movl	$0, %eax
	jmp	.L84
.L83:
	.loc 9 2130 60
	cmpb	$0, -48(%rbp)
	je	.L85
	.loc 9 2130 36 discriminator 1
	movq	-56(%rbp), %rax
	movq	%rax, %rdx
	movq	-64(%rbp), %rcx
	call	_ZNK8wxString3CmpERKS_
	.loc 9 2130 60 discriminator 1
	testl	%eax, %eax
	sete	%al
	.loc 9 2130 63 discriminator 1
	jmp	.L87
.L85:
	.loc 9 2130 53 discriminator 2
	movq	-56(%rbp), %rax
	movq	%rax, %rdx
	movq	-64(%rbp), %rcx
	call	_ZNK8wxString9CmpNoCaseERKS_
	.loc 9 2130 60 discriminator 2
	testl	%eax, %eax
	sete	%al
.L87:
	.loc 9 2130 63
	nop
.L84:
	.loc 9 2131 3
	addq	$40, %rsp
	popq	%rbx
	.cfi_restore 3
	popq	%rbp
	.cfi_restore 6
	.cfi_def_cfa 7, -24
	ret
	.cfi_endproc
.LFE2039:
	.seh_endproc
	.section .rdata,"dr"
.LC3:
	.ascii "\0"
	.section	.text$_ZNK8wxString9AsCharBufERK8wxMBConv,"x"
	.linkonce discard
	.align 2
	.globl	_ZNK8wxString9AsCharBufERK8wxMBConv
	.def	_ZNK8wxString9AsCharBufERK8wxMBConv;	.scl	2;	.type	32;	.endef
	.seh_proc	_ZNK8wxString9AsCharBufERK8wxMBConv
_ZNK8wxString9AsCharBufERK8wxMBConv:
.LFB2377:
	.loc 9 3529 22
	.cfi_startproc
	pushq	%rbp
	.seh_pushreg	%rbp
	.cfi_def_cfa_offset 16
	.cfi_offset 6, -16
	movq	%rsp, %rbp
	.seh_setframe	%rbp, 0
	.cfi_def_cfa_register 6
	subq	$32, %rsp
	.seh_stackalloc	32
	.seh_endprologue
	movq	%rcx, 16(%rbp)
	movq	%rdx, 24(%rbp)
	movq	%r8, 32(%rbp)
	.loc 9 3546 19
	movq	32(%rbp), %rdx
	movq	24(%rbp), %rax
	movq	%rax, %rcx
	call	_ZNK8wxString6AsCharERK8wxMBConv
	.loc 9 3546 12
	testq	%rax, %rax
	sete	%al
	.loc 9 3546 7
	testb	%al, %al
	je	.L89
	.loc 9 3556 58
	movq	16(%rbp), %rax
	movl	$0, %r8d
	leaq	.LC3(%rip), %rdx
	movq	%rax, %rcx
	call	_ZN22wxScopedCharTypeBufferIcE14CreateNonOwnedEPKcy
	jmp	.L88
.L89:
	.loc 9 3559 47
	movq	24(%rbp), %rax
	leaq	32(%rax), %rdx
	movq	16(%rbp), %rax
	movq	%rax, %rcx
	call	_ZNK8wxString15ConvertedBufferIcE14AsScopedBufferEv
.L88:
	.loc 9 3560 3
	movq	16(%rbp), %rax
	addq	$32, %rsp
	popq	%rbp
	.cfi_restore 6
	.cfi_def_cfa 7, 8
	ret
	.cfi_endproc
.LFE2377:
	.seh_endproc
	.section	.text$_ZN8wxObjectC2Ev,"x"
	.linkonce discard
	.align 2
	.globl	_ZN8wxObjectC2Ev
	.def	_ZN8wxObjectC2Ev;	.scl	2;	.type	32;	.endef
	.seh_proc	_ZN8wxObjectC2Ev
_ZN8wxObjectC2Ev:
.LFB3705:
	.file 10 "../wxMSW-3.0.5_gcc810_x64_Dev/include/wx/object.h"
	.loc 10 360 5
	.cfi_startproc
	pushq	%rbp
	.seh_pushreg	%rbp
	.cfi_def_cfa_offset 16
	.cfi_offset 6, -16
	movq	%rsp, %rbp
	.seh_setframe	%rbp, 0
	.cfi_def_cfa_register 6
	.seh_endprologue
	movq	%rcx, 16(%rbp)
.LBB22:
	.loc 10 360 16
	movq	.refptr._ZTV8wxObject(%rip), %rax
	leaq	16(%rax), %rdx
	movq	16(%rbp), %rax
	movq	%rdx, (%rax)
	.loc 10 360 28
	movq	16(%rbp), %rax
	movq	$0, 8(%rax)
.LBE22:
	.loc 10 360 35
	nop
	popq	%rbp
	.cfi_restore 6
	.cfi_def_cfa 7, 8
	ret
	.cfi_endproc
.LFE3705:
	.seh_endproc
	.section	.text$_ZN8wxObjectD2Ev,"x"
	.linkonce discard
	.align 2
	.globl	_ZN8wxObjectD2Ev
	.def	_ZN8wxObjectD2Ev;	.scl	2;	.type	32;	.endef
	.seh_proc	_ZN8wxObjectD2Ev
_ZN8wxObjectD2Ev:
.LFB3708:
	.loc 10 361 13
	.cfi_startproc
	pushq	%rbp
	.seh_pushreg	%rbp
	.cfi_def_cfa_offset 16
	.cfi_offset 6, -16
	movq	%rsp, %rbp
	.seh_setframe	%rbp, 0
	.cfi_def_cfa_register 6
	subq	$32, %rsp
	.seh_stackalloc	32
	.seh_endprologue
	movq	%rcx, 16(%rbp)
.LBB23:
	.loc 10 361 25
	movq	.refptr._ZTV8wxObject(%rip), %rax
	leaq	16(%rax), %rdx
	movq	16(%rbp), %rax
	movq	%rdx, (%rax)
	.loc 10 361 32
	movq	16(%rbp), %rcx
	call	_ZN8wxObject5UnRefEv
.LBE23:
	.loc 10 361 36
	nop
	addq	$32, %rsp
	popq	%rbp
	.cfi_restore 6
	.cfi_def_cfa 7, 8
	ret
	.cfi_endproc
.LFE3708:
	.seh_handler	__gxx_personality_seh0, @unwind, @except
	.seh_handlerdata
.LLSDA3708:
	.byte	0xff
	.byte	0xff
	.byte	0x1
	.uleb128 .LLSDACSE3708-.LLSDACSB3708
.LLSDACSB3708:
.LLSDACSE3708:
	.section	.text$_ZN8wxObjectD2Ev,"x"
	.linkonce discard
	.seh_endproc
	.section	.text$_ZN8wxObjectaSERKS_,"x"
	.linkonce discard
	.align 2
	.globl	_ZN8wxObjectaSERKS_
	.def	_ZN8wxObjectaSERKS_;	.scl	2;	.type	32;	.endef
	.seh_proc	_ZN8wxObjectaSERKS_
_ZN8wxObjectaSERKS_:
.LFB3714:
	.loc 10 370 15
	.cfi_startproc
	pushq	%rbp
	.seh_pushreg	%rbp
	.cfi_def_cfa_offset 16
	.cfi_offset 6, -16
	movq	%rsp, %rbp
	.seh_setframe	%rbp, 0
	.cfi_def_cfa_register 6
	subq	$32, %rsp
	.seh_stackalloc	32
	.seh_endprologue
	movq	%rcx, 16(%rbp)
	movq	%rdx, 24(%rbp)
	.loc 10 372 9
	movq	16(%rbp), %rax
	cmpq	24(%rbp), %rax
	je	.L94
	.loc 10 374 16
	movq	24(%rbp), %rax
	movq	%rax, %rdx
	movq	16(%rbp), %rcx
	call	_ZN8wxObject3RefERKS_
.L94:
	.loc 10 376 17
	movq	16(%rbp), %rax
	.loc 10 377 5
	addq	$32, %rsp
	popq	%rbp
	.cfi_restore 6
	.cfi_def_cfa 7, 8
	ret
	.cfi_endproc
.LFE3714:
	.seh_endproc
	.section	.text$_ZN6wxSizeC1Ev,"x"
	.linkonce discard
	.align 2
	.globl	_ZN6wxSizeC1Ev
	.def	_ZN6wxSizeC1Ev;	.scl	2;	.type	32;	.endef
	.seh_proc	_ZN6wxSizeC1Ev
_ZN6wxSizeC1Ev:
.LFB4792:
	.file 11 "../wxMSW-3.0.5_gcc810_x64_Dev/include/wx/gdicmn.h"
	.loc 11 257 5
	.cfi_startproc
	pushq	%rbp
	.seh_pushreg	%rbp
	.cfi_def_cfa_offset 16
	.cfi_offset 6, -16
	movq	%rsp, %rbp
	.seh_setframe	%rbp, 0
	.cfi_def_cfa_register 6
	.seh_endprologue
	movq	%rcx, 16(%rbp)
.LBB24:
	.loc 11 257 25
	movq	16(%rbp), %rax
	movl	$0, (%rax)
	movq	16(%rbp), %rax
	movl	$0, 4(%rax)
.LBE24:
	.loc 11 257 29
	nop
	popq	%rbp
	.cfi_restore 6
	.cfi_def_cfa 7, 8
	ret
	.cfi_endproc
.LFE4792:
	.seh_endproc
	.section	.text$_ZN6wxSizeC1Eii,"x"
	.linkonce discard
	.align 2
	.globl	_ZN6wxSizeC1Eii
	.def	_ZN6wxSizeC1Eii;	.scl	2;	.type	32;	.endef
	.seh_proc	_ZN6wxSizeC1Eii
_ZN6wxSizeC1Eii:
.LFB4795:
	.loc 11 258 5
	.cfi_startproc
	pushq	%rbp
	.seh_pushreg	%rbp
	.cfi_def_cfa_offset 16
	.cfi_offset 6, -16
	movq	%rsp, %rbp
	.seh_setframe	%rbp, 0
	.cfi_def_cfa_register 6
	.seh_endprologue
	movq	%rcx, 16(%rbp)
	movl	%edx, 24(%rbp)
	movl	%r8d, 32(%rbp)
.LBB25:
	.loc 11 258 41
	movq	16(%rbp), %rax
	movl	24(%rbp), %edx
	movl	%edx, (%rax)
	movq	16(%rbp), %rax
	movl	32(%rbp), %edx
	movl	%edx, 4(%rax)
.LBE25:
	.loc 11 258 45
	nop
	popq	%rbp
	.cfi_restore 6
	.cfi_def_cfa 7, 8
	ret
	.cfi_endproc
.LFE4795:
	.seh_endproc
	.section	.text$_ZN7wxPointC1Ev,"x"
	.linkonce discard
	.align 2
	.globl	_ZN7wxPointC1Ev
	.def	_ZN7wxPointC1Ev;	.scl	2;	.type	32;	.endef
	.seh_proc	_ZN7wxPointC1Ev
_ZN7wxPointC1Ev:
.LFB4875:
	.loc 11 545 5
	.cfi_startproc
	pushq	%rbp
	.seh_pushreg	%rbp
	.cfi_def_cfa_offset 16
	.cfi_offset 6, -16
	movq	%rsp, %rbp
	.seh_setframe	%rbp, 0
	.cfi_def_cfa_register 6
	.seh_endprologue
	movq	%rcx, 16(%rbp)
.LBB26:
	.loc 11 545 26
	movq	16(%rbp), %rax
	movl	$0, (%rax)
	movq	16(%rbp), %rax
	movl	$0, 4(%rax)
.LBE26:
	.loc 11 545 30
	nop
	popq	%rbp
	.cfi_restore 6
	.cfi_def_cfa 7, 8
	ret
	.cfi_endproc
.LFE4875:
	.seh_endproc
	.section	.text$_ZN7wxPointC1Eii,"x"
	.linkonce discard
	.align 2
	.globl	_ZN7wxPointC1Eii
	.def	_ZN7wxPointC1Eii;	.scl	2;	.type	32;	.endef
	.seh_proc	_ZN7wxPointC1Eii
_ZN7wxPointC1Eii:
.LFB4878:
	.loc 11 546 5
	.cfi_startproc
	pushq	%rbp
	.seh_pushreg	%rbp
	.cfi_def_cfa_offset 16
	.cfi_offset 6, -16
	movq	%rsp, %rbp
	.seh_setframe	%rbp, 0
	.cfi_def_cfa_register 6
	.seh_endprologue
	movq	%rcx, 16(%rbp)
	movl	%edx, 24(%rbp)
	movl	%r8d, 32(%rbp)
.LBB27:
	.loc 11 546 42
	movq	16(%rbp), %rax
	movl	24(%rbp), %edx
	movl	%edx, (%rax)
	movq	16(%rbp), %rax
	movl	32(%rbp), %edx
	movl	%edx, 4(%rax)
.LBE27:
	.loc 11 546 46
	nop
	popq	%rbp
	.cfi_restore 6
	.cfi_def_cfa 7, 8
	ret
	.cfi_endproc
.LFE4878:
	.seh_endproc
	.section .rdata,"dr"
_ZL19wxALPHA_TRANSPARENT:
	.space 1
_ZL14wxALPHA_OPAQUE:
	.byte	-1
	.section	.text$_ZN13wxArrayStringC1Ev,"x"
	.linkonce discard
	.align 2
	.globl	_ZN13wxArrayStringC1Ev
	.def	_ZN13wxArrayStringC1Ev;	.scl	2;	.type	32;	.endef
	.seh_proc	_ZN13wxArrayStringC1Ev
_ZN13wxArrayStringC1Ev:
.LFB5772:
	.file 12 "../wxMSW-3.0.5_gcc810_x64_Dev/include/wx/arrstr.h"
	.loc 12 133 3
	.cfi_startproc
	pushq	%rbp
	.seh_pushreg	%rbp
	.cfi_def_cfa_offset 16
	.cfi_offset 6, -16
	movq	%rsp, %rbp
	.seh_setframe	%rbp, 0
	.cfi_def_cfa_register 6
	subq	$32, %rsp
	.seh_stackalloc	32
	.seh_endprologue
	movq	%rcx, 16(%rbp)
.LBB28:
	.loc 12 133 25
	movl	$0, %edx
	movq	16(%rbp), %rcx
	call	_ZN13wxArrayString4InitEb
.LBE28:
	.loc 12 133 34
	nop
	addq	$32, %rsp
	popq	%rbp
	.cfi_restore 6
	.cfi_def_cfa 7, 8
	ret
	.cfi_endproc
.LFE5772:
	.seh_endproc
	.section	.text$_ZN21wxArrayStringsAdapterC1ERK8wxString,"x"
	.linkonce discard
	.align 2
	.globl	_ZN21wxArrayStringsAdapterC1ERK8wxString
	.def	_ZN21wxArrayStringsAdapterC1ERK8wxString;	.scl	2;	.type	32;	.endef
	.seh_proc	_ZN21wxArrayStringsAdapterC1ERK8wxString
_ZN21wxArrayStringsAdapterC1ERK8wxString:
.LFB5878:
	.loc 12 474 5
	.cfi_startproc
	pushq	%rbp
	.seh_pushreg	%rbp
	.cfi_def_cfa_offset 16
	.cfi_offset 6, -16
	movq	%rsp, %rbp
	.seh_setframe	%rbp, 0
	.cfi_def_cfa_register 6
	.seh_endprologue
	movq	%rcx, 16(%rbp)
	movq	%rdx, 24(%rbp)
.LBB29:
	.loc 12 475 45
	movq	16(%rbp), %rax
	movl	$1, (%rax)
	movq	16(%rbp), %rax
	movq	$1, 8(%rax)
	.loc 12 477 20
	movq	16(%rbp), %rax
	movq	24(%rbp), %rdx
	movq	%rdx, 16(%rax)
.LBE29:
	.loc 12 478 5
	nop
	popq	%rbp
	.cfi_restore 6
	.cfi_def_cfa 7, 8
	ret
	.cfi_endproc
.LFE5878:
	.seh_endproc
	.section	.text$_ZNK21wxArrayStringsAdapter8GetCountEv,"x"
	.linkonce discard
	.align 2
	.globl	_ZNK21wxArrayStringsAdapter8GetCountEv
	.def	_ZNK21wxArrayStringsAdapter8GetCountEv;	.scl	2;	.type	32;	.endef
	.seh_proc	_ZNK21wxArrayStringsAdapter8GetCountEv
_ZNK21wxArrayStringsAdapter8GetCountEv:
.LFB5879:
	.loc 12 483 12
	.cfi_startproc
	pushq	%rbp
	.seh_pushreg	%rbp
	.cfi_def_cfa_offset 16
	.cfi_offset 6, -16
	movq	%rsp, %rbp
	.seh_setframe	%rbp, 0
	.cfi_def_cfa_register 6
	.seh_endprologue
	movq	%rcx, 16(%rbp)
	.loc 12 483 38
	movq	16(%rbp), %rax
	movq	8(%rax), %rax
	.loc 12 483 46
	popq	%rbp
	.cfi_restore 6
	.cfi_def_cfa 7, 8
	ret
	.cfi_endproc
.LFE5879:
	.seh_endproc
	.section	.text$_ZNK21wxArrayStringsAdapter7IsEmptyEv,"x"
	.linkonce discard
	.align 2
	.globl	_ZNK21wxArrayStringsAdapter7IsEmptyEv
	.def	_ZNK21wxArrayStringsAdapter7IsEmptyEv;	.scl	2;	.type	32;	.endef
	.seh_proc	_ZNK21wxArrayStringsAdapter7IsEmptyEv
_ZNK21wxArrayStringsAdapter7IsEmptyEv:
.LFB5880:
	.loc 12 484 10
	.cfi_startproc
	pushq	%rbp
	.seh_pushreg	%rbp
	.cfi_def_cfa_offset 16
	.cfi_offset 6, -16
	movq	%rsp, %rbp
	.seh_setframe	%rbp, 0
	.cfi_def_cfa_register 6
	subq	$32, %rsp
	.seh_stackalloc	32
	.seh_endprologue
	movq	%rcx, 16(%rbp)
	.loc 12 484 43
	movq	16(%rbp), %rcx
	call	_ZNK21wxArrayStringsAdapter8GetCountEv
	.loc 12 484 49
	testq	%rax, %rax
	sete	%al
	.loc 12 484 52
	addq	$32, %rsp
	popq	%rbp
	.cfi_restore 6
	.cfi_def_cfa 7, 8
	ret
	.cfi_endproc
.LFE5880:
	.seh_endproc
	.section	.text$_ZNSt14numeric_limitsIiE3minEv,"x"
	.linkonce discard
	.globl	_ZNSt14numeric_limitsIiE3minEv
	.def	_ZNSt14numeric_limitsIiE3minEv;	.scl	2;	.type	32;	.endef
	.seh_proc	_ZNSt14numeric_limitsIiE3minEv
_ZNSt14numeric_limitsIiE3minEv:
.LFB6124:
	.file 13 "C:/Program Files/CodeBlocks/MinGW/lib/gcc/x86_64-w64-mingw32/8.1.0/include/c++/limits"
	.loc 13 999 7
	.cfi_startproc
	.seh_endprologue
	.loc 13 999 45
	movl	$-2147483648, %eax
	.loc 13 999 48
	ret
	.cfi_endproc
.LFE6124:
	.seh_endproc
	.section	.text$_ZNSt14numeric_limitsIiE3maxEv,"x"
	.linkonce discard
	.globl	_ZNSt14numeric_limitsIiE3maxEv
	.def	_ZNSt14numeric_limitsIiE3maxEv;	.scl	2;	.type	32;	.endef
	.seh_proc	_ZNSt14numeric_limitsIiE3maxEv
_ZNSt14numeric_limitsIiE3maxEv:
.LFB6125:
	.loc 13 1002 7
	.cfi_startproc
	.seh_endprologue
	.loc 13 1002 31
	movl	$2147483647, %eax
	.loc 13 1002 43
	ret
	.cfi_endproc
.LFE6125:
	.seh_endproc
	.section	.text$_ZN10wxArrayIntC1Ev,"x"
	.linkonce discard
	.align 2
	.globl	_ZN10wxArrayIntC1Ev
	.def	_ZN10wxArrayIntC1Ev;	.scl	2;	.type	32;	.endef
	.seh_proc	_ZN10wxArrayIntC1Ev
_ZN10wxArrayIntC1Ev:
.LFB6486:
	.file 14 "../wxMSW-3.0.5_gcc810_x64_Dev/include/wx/dynarray.h"
	.loc 14 1022 331
	.cfi_startproc
	pushq	%rbp
	.seh_pushreg	%rbp
	.cfi_def_cfa_offset 16
	.cfi_offset 6, -16
	movq	%rsp, %rbp
	.seh_setframe	%rbp, 0
	.cfi_def_cfa_register 6
	subq	$32, %rsp
	.seh_stackalloc	32
	.seh_endprologue
	movq	%rcx, 16(%rbp)
.LBB30:
	.loc 14 1022 344
	movq	16(%rbp), %rax
	movq	%rax, %rcx
	call	_ZN14wxBaseArrayIntC2Ev
.LBE30:
	.loc 14 1022 346
	nop
	addq	$32, %rsp
	popq	%rbp
	.cfi_restore 6
	.cfi_def_cfa 7, 8
	ret
	.cfi_endproc
.LFE6486:
	.seh_endproc
	.section	.text$_ZN10wxArrayIntD1Ev,"x"
	.linkonce discard
	.align 2
	.globl	_ZN10wxArrayIntD1Ev
	.def	_ZN10wxArrayIntD1Ev;	.scl	2;	.type	32;	.endef
	.seh_proc	_ZN10wxArrayIntD1Ev
_ZN10wxArrayIntD1Ev:
.LFB6489:
	.loc 14 1022 348
	.cfi_startproc
	pushq	%rbp
	.seh_pushreg	%rbp
	.cfi_def_cfa_offset 16
	.cfi_offset 6, -16
	movq	%rsp, %rbp
	.seh_setframe	%rbp, 0
	.cfi_def_cfa_register 6
	subq	$32, %rsp
	.seh_stackalloc	32
	.seh_endprologue
	movq	%rcx, 16(%rbp)
.LBB31:
	.loc 14 1022 362
	movq	16(%rbp), %rax
	movq	%rax, %rcx
	call	_ZN14wxBaseArrayIntD2Ev
.LBE31:
	.loc 14 1022 364
	nop
	addq	$32, %rsp
	popq	%rbp
	.cfi_restore 6
	.cfi_def_cfa 7, 8
	ret
	.cfi_endproc
.LFE6489:
	.seh_endproc
	.section	.text$_ZN11wxArrayLongC1Ev,"x"
	.linkonce discard
	.align 2
	.globl	_ZN11wxArrayLongC1Ev
	.def	_ZN11wxArrayLongC1Ev;	.scl	2;	.type	32;	.endef
	.seh_proc	_ZN11wxArrayLongC1Ev
_ZN11wxArrayLongC1Ev:
.LFB6666:
	.loc 14 1024 342
	.cfi_startproc
	pushq	%rbp
	.seh_pushreg	%rbp
	.cfi_def_cfa_offset 16
	.cfi_offset 6, -16
	movq	%rsp, %rbp
	.seh_setframe	%rbp, 0
	.cfi_def_cfa_register 6
	subq	$32, %rsp
	.seh_stackalloc	32
	.seh_endprologue
	movq	%rcx, 16(%rbp)
.LBB32:
	.loc 14 1024 356
	movq	16(%rbp), %rax
	movq	%rax, %rcx
	call	_ZN15wxBaseArrayLongC2Ev
.LBE32:
	.loc 14 1024 358
	nop
	addq	$32, %rsp
	popq	%rbp
	.cfi_restore 6
	.cfi_def_cfa 7, 8
	ret
	.cfi_endproc
.LFE6666:
	.seh_endproc
	.section	.text$_ZN11wxArrayLongD1Ev,"x"
	.linkonce discard
	.align 2
	.globl	_ZN11wxArrayLongD1Ev
	.def	_ZN11wxArrayLongD1Ev;	.scl	2;	.type	32;	.endef
	.seh_proc	_ZN11wxArrayLongD1Ev
_ZN11wxArrayLongD1Ev:
.LFB6669:
	.loc 14 1024 360
	.cfi_startproc
	pushq	%rbp
	.seh_pushreg	%rbp
	.cfi_def_cfa_offset 16
	.cfi_offset 6, -16
	movq	%rsp, %rbp
	.seh_setframe	%rbp, 0
	.cfi_def_cfa_register 6
	subq	$32, %rsp
	.seh_stackalloc	32
	.seh_endprologue
	movq	%rcx, 16(%rbp)
.LBB33:
	.loc 14 1024 375
	movq	16(%rbp), %rax
	movq	%rax, %rcx
	call	_ZN15wxBaseArrayLongD2Ev
.LBE33:
	.loc 14 1024 377
	nop
	addq	$32, %rsp
	popq	%rbp
	.cfi_restore 6
	.cfi_def_cfa 7, 8
	ret
	.cfi_endproc
.LFE6669:
	.seh_endproc
	.section	.text$_ZN16wxTypeIdentifierC1EPKc,"x"
	.linkonce discard
	.align 2
	.globl	_ZN16wxTypeIdentifierC1EPKc
	.def	_ZN16wxTypeIdentifierC1EPKc;	.scl	2;	.type	32;	.endef
	.seh_proc	_ZN16wxTypeIdentifierC1EPKc
_ZN16wxTypeIdentifierC1EPKc:
.LFB7378:
	.file 15 "../wxMSW-3.0.5_gcc810_x64_Dev/include/wx/typeinfo.h"
	.loc 15 66 5
	.cfi_startproc
	pushq	%rbp
	.seh_pushreg	%rbp
	.cfi_def_cfa_offset 16
	.cfi_offset 6, -16
	movq	%rsp, %rbp
	.seh_setframe	%rbp, 0
	.cfi_def_cfa_register 6
	.seh_endprologue
	movq	%rcx, 16(%rbp)
	movq	%rdx, 24(%rbp)
.LBB34:
	.loc 15 68 21
	movq	16(%rbp), %rax
	movq	24(%rbp), %rdx
	movq	%rdx, (%rax)
.LBE34:
	.loc 15 69 5
	nop
	popq	%rbp
	.cfi_restore 6
	.cfi_def_cfa 7, 8
	ret
	.cfi_endproc
.LFE7378:
	.seh_endproc
	.section	.text$_ZN16wxTypeIdentifiereqERKS_,"x"
	.linkonce discard
	.align 2
	.globl	_ZN16wxTypeIdentifiereqERKS_
	.def	_ZN16wxTypeIdentifiereqERKS_;	.scl	2;	.type	32;	.endef
	.seh_proc	_ZN16wxTypeIdentifiereqERKS_
_ZN16wxTypeIdentifiereqERKS_:
.LFB7379:
	.loc 15 71 10
	.cfi_startproc
	pushq	%rbp
	.seh_pushreg	%rbp
	.cfi_def_cfa_offset 16
	.cfi_offset 6, -16
	movq	%rsp, %rbp
	.seh_setframe	%rbp, 0
	.cfi_def_cfa_register 6
	subq	$32, %rsp
	.seh_stackalloc	32
	.seh_endprologue
	movq	%rcx, 16(%rbp)
	movq	%rdx, 24(%rbp)
	.loc 15 73 42
	movq	24(%rbp), %rax
	movq	(%rax), %rdx
	.loc 15 73 22
	movq	16(%rbp), %rax
	movq	(%rax), %rax
	movq	%rax, %rcx
	call	strcmp
	.loc 15 73 58
	testl	%eax, %eax
	sete	%al
	.loc 15 74 5
	addq	$32, %rsp
	popq	%rbp
	.cfi_restore 6
	.cfi_def_cfa 7, 8
	ret
	.cfi_endproc
.LFE7379:
	.seh_endproc
	.section	.text$_ZN12wxColourBaseC2Ev,"x"
	.linkonce discard
	.align 2
	.globl	_ZN12wxColourBaseC2Ev
	.def	_ZN12wxColourBaseC2Ev;	.scl	2;	.type	32;	.endef
	.seh_proc	_ZN12wxColourBaseC2Ev
_ZN12wxColourBaseC2Ev:
.LFB7858:
	.file 16 "../wxMSW-3.0.5_gcc810_x64_Dev/include/wx/colour.h"
	.loc 16 85 5
	.cfi_startproc
	pushq	%rbp
	.seh_pushreg	%rbp
	.cfi_def_cfa_offset 16
	.cfi_offset 6, -16
	movq	%rsp, %rbp
	.seh_setframe	%rbp, 0
	.cfi_def_cfa_register 6
	subq	$32, %rsp
	.seh_stackalloc	32
	.seh_endprologue
	movq	%rcx, 16(%rbp)
.LBB35:
	.loc 16 85 20
	movq	16(%rbp), %rax
	movq	%rax, %rcx
	call	_ZN8wxObjectC2Ev
	movq	.refptr._ZTV12wxColourBase(%rip), %rax
	leaq	16(%rax), %rdx
	movq	16(%rbp), %rax
	movq	%rdx, (%rax)
.LBE35:
	.loc 16 85 21
	nop
	addq	$32, %rsp
	popq	%rbp
	.cfi_restore 6
	.cfi_def_cfa 7, 8
	ret
	.cfi_endproc
.LFE7858:
	.seh_endproc
	.section	.text$_ZN12wxColourBaseD2Ev,"x"
	.linkonce discard
	.align 2
	.globl	_ZN12wxColourBaseD2Ev
	.def	_ZN12wxColourBaseD2Ev;	.scl	2;	.type	32;	.endef
	.seh_proc	_ZN12wxColourBaseD2Ev
_ZN12wxColourBaseD2Ev:
.LFB7861:
	.loc 16 86 13
	.cfi_startproc
	pushq	%rbp
	.seh_pushreg	%rbp
	.cfi_def_cfa_offset 16
	.cfi_offset 6, -16
	movq	%rsp, %rbp
	.seh_setframe	%rbp, 0
	.cfi_def_cfa_register 6
	subq	$32, %rsp
	.seh_stackalloc	32
	.seh_endprologue
	movq	%rcx, 16(%rbp)
.LBB36:
	.loc 16 86 29
	movq	.refptr._ZTV12wxColourBase(%rip), %rax
	leaq	16(%rax), %rdx
	movq	16(%rbp), %rax
	movq	%rdx, (%rax)
	movq	16(%rbp), %rax
	movq	%rax, %rcx
	call	_ZN8wxObjectD2Ev
.LBE36:
	.loc 16 86 30
	nop
	addq	$32, %rsp
	popq	%rbp
	.cfi_restore 6
	.cfi_def_cfa 7, 8
	ret
	.cfi_endproc
.LFE7861:
	.seh_endproc
	.section	.text$_ZN8wxColourC1Ev,"x"
	.linkonce discard
	.align 2
	.globl	_ZN8wxColourC1Ev
	.def	_ZN8wxColourC1Ev;	.scl	2;	.type	32;	.endef
	.seh_proc	_ZN8wxColourC1Ev
_ZN8wxColourC1Ev:
.LFB7876:
	.file 17 "../wxMSW-3.0.5_gcc810_x64_Dev/include/wx/msw/colour.h"
	.loc 17 25 5
	.cfi_startproc
	pushq	%rbp
	.seh_pushreg	%rbp
	.cfi_def_cfa_offset 16
	.cfi_offset 6, -16
	pushq	%rbx
	.seh_pushreg	%rbx
	.cfi_def_cfa_offset 24
	.cfi_offset 3, -24
	subq	$40, %rsp
	.seh_stackalloc	40
	.cfi_def_cfa_offset 64
	leaq	128(%rsp), %rbp
	.seh_setframe	%rbp, 128
	.cfi_def_cfa 6, -64
	.seh_endprologue
	movq	%rcx, -64(%rbp)
.LBB37:
	.loc 17 25 16
	movq	-64(%rbp), %rax
	movq	%rax, %rcx
	call	_ZN12wxColourBaseC2Ev
	movq	.refptr._ZTV8wxColour(%rip), %rax
	leaq	16(%rax), %rdx
	movq	-64(%rbp), %rax
	movq	%rdx, (%rax)
	.loc 17 25 22
	movq	-64(%rbp), %rcx
.LEHB16:
	call	_ZN8wxColour4InitEv
.LEHE16:
.LBE37:
	.loc 17 25 26
	jmp	.L122
.L121:
	movq	%rax, %rbx
.LBB38:
	.loc 17 25 16
	movq	-64(%rbp), %rax
	movq	%rax, %rcx
	call	_ZN12wxColourBaseD2Ev
	movq	%rbx, %rax
	movq	%rax, %rcx
.LEHB17:
	call	_Unwind_Resume
	nop
.LEHE17:
.L122:
.LBE38:
	.loc 17 25 26
	addq	$40, %rsp
	popq	%rbx
	.cfi_restore 3
	popq	%rbp
	.cfi_restore 6
	.cfi_def_cfa 7, -24
	ret
	.cfi_endproc
.LFE7876:
	.seh_handler	__gxx_personality_seh0, @unwind, @except
	.seh_handlerdata
.LLSDA7876:
	.byte	0xff
	.byte	0xff
	.byte	0x1
	.uleb128 .LLSDACSE7876-.LLSDACSB7876
.LLSDACSB7876:
	.uleb128 .LEHB16-.LFB7876
	.uleb128 .LEHE16-.LEHB16
	.uleb128 .L121-.LFB7876
	.uleb128 0
	.uleb128 .LEHB17-.LFB7876
	.uleb128 .LEHE17-.LEHB17
	.uleb128 0
	.uleb128 0
.LLSDACSE7876:
	.section	.text$_ZN8wxColourC1Ev,"x"
	.linkonce discard
	.seh_endproc
	.section .rdata,"dr"
	.align 4
_ZL15wxInvalidOffset:
	.long	-1
	.align 4
_ZL5wxEOF:
	.long	-1
_ZL25wxIMAGE_ALPHA_TRANSPARENT:
	.space 1
_ZL23wxIMAGE_ALPHA_THRESHOLD:
	.byte	-128
_ZL20wxIMAGE_ALPHA_OPAQUE:
	.byte	-1
	.section	.text$_ZN11wxGDIObjectC2Ev,"x"
	.linkonce discard
	.align 2
	.globl	_ZN11wxGDIObjectC2Ev
	.def	_ZN11wxGDIObjectC2Ev;	.scl	2;	.type	32;	.endef
	.seh_proc	_ZN11wxGDIObjectC2Ev
_ZN11wxGDIObjectC2Ev:
.LFB8415:
	.file 18 "../wxMSW-3.0.5_gcc810_x64_Dev/include/wx/gdiobj.h"
	.loc 18 41 7
	.cfi_startproc
	pushq	%rbp
	.seh_pushreg	%rbp
	.cfi_def_cfa_offset 16
	.cfi_offset 6, -16
	movq	%rsp, %rbp
	.seh_setframe	%rbp, 0
	.cfi_def_cfa_register 6
	subq	$32, %rsp
	.seh_stackalloc	32
	.seh_endprologue
	movq	%rcx, 16(%rbp)
.LBB39:
	.loc 18 41 7
	movq	16(%rbp), %rax
	movq	%rax, %rcx
	call	_ZN8wxObjectC2Ev
	movq	.refptr._ZTV11wxGDIObject(%rip), %rax
	leaq	16(%rax), %rdx
	movq	16(%rbp), %rax
	movq	%rdx, (%rax)
.LBE39:
	nop
	addq	$32, %rsp
	popq	%rbp
	.cfi_restore 6
	.cfi_def_cfa 7, 8
	ret
	.cfi_endproc
.LFE8415:
	.seh_endproc
	.section	.text$_ZN10wxGDIImageC2Ev,"x"
	.linkonce discard
	.align 2
	.globl	_ZN10wxGDIImageC2Ev
	.def	_ZN10wxGDIImageC2Ev;	.scl	2;	.type	32;	.endef
	.seh_proc	_ZN10wxGDIImageC2Ev
_ZN10wxGDIImageC2Ev:
.LFB8426:
	.file 19 "../wxMSW-3.0.5_gcc810_x64_Dev/include/wx/msw/gdiimage.h"
	.loc 19 84 7
	.cfi_startproc
	pushq	%rbp
	.seh_pushreg	%rbp
	.cfi_def_cfa_offset 16
	.cfi_offset 6, -16
	movq	%rsp, %rbp
	.seh_setframe	%rbp, 0
	.cfi_def_cfa_register 6
	subq	$32, %rsp
	.seh_stackalloc	32
	.seh_endprologue
	movq	%rcx, 16(%rbp)
.LBB40:
	.loc 19 84 7
	movq	16(%rbp), %rax
	movq	%rax, %rcx
	call	_ZN11wxGDIObjectC2Ev
	movq	.refptr._ZTV10wxGDIImage(%rip), %rax
	leaq	16(%rax), %rdx
	movq	16(%rbp), %rax
	movq	%rdx, (%rax)
.LBE40:
	nop
	addq	$32, %rsp
	popq	%rbp
	.cfi_restore 6
	.cfi_def_cfa 7, 8
	ret
	.cfi_endproc
.LFE8426:
	.seh_endproc
	.section	.text$_ZN8wxBitmapC1Ev,"x"
	.linkonce discard
	.align 2
	.globl	_ZN8wxBitmapC1Ev
	.def	_ZN8wxBitmapC1Ev;	.scl	2;	.type	32;	.endef
	.seh_proc	_ZN8wxBitmapC1Ev
_ZN8wxBitmapC1Ev:
.LFB8433:
	.file 20 "../wxMSW-3.0.5_gcc810_x64_Dev/include/wx/msw/bitmap.h"
	.loc 20 51 5
	.cfi_startproc
	pushq	%rbp
	.seh_pushreg	%rbp
	.cfi_def_cfa_offset 16
	.cfi_offset 6, -16
	movq	%rsp, %rbp
	.seh_setframe	%rbp, 0
	.cfi_def_cfa_register 6
	subq	$32, %rsp
	.seh_stackalloc	32
	.seh_endprologue
	movq	%rcx, 16(%rbp)
.LBB41:
	.loc 20 51 16
	movq	16(%rbp), %rax
	movq	%rax, %rcx
	call	_ZN10wxGDIImageC2Ev
	movq	.refptr._ZTV8wxBitmap(%rip), %rax
	leaq	16(%rax), %rdx
	movq	16(%rbp), %rax
	movq	%rdx, (%rax)
.LBE41:
	.loc 20 51 18
	nop
	addq	$32, %rsp
	popq	%rbp
	.cfi_restore 6
	.cfi_def_cfa 7, 8
	ret
	.cfi_endproc
.LFE8433:
	.seh_endproc
	.section	.text$_ZN23wxCriticalSectionLockerC1ER17wxCriticalSection,"x"
	.linkonce discard
	.align 2
	.globl	_ZN23wxCriticalSectionLockerC1ER17wxCriticalSection
	.def	_ZN23wxCriticalSectionLockerC1ER17wxCriticalSection;	.scl	2;	.type	32;	.endef
	.seh_proc	_ZN23wxCriticalSectionLockerC1ER17wxCriticalSection
_ZN23wxCriticalSectionLockerC1ER17wxCriticalSection:
.LFB8880:
	.file 21 "../wxMSW-3.0.5_gcc810_x64_Dev/include/wx/thread.h"
	.loc 21 304 5
	.cfi_startproc
	pushq	%rbp
	.seh_pushreg	%rbp
	.cfi_def_cfa_offset 16
	.cfi_offset 6, -16
	movq	%rsp, %rbp
	.seh_setframe	%rbp, 0
	.cfi_def_cfa_register 6
	subq	$32, %rsp
	.seh_stackalloc	32
	.seh_endprologue
	movq	%rcx, 16(%rbp)
	movq	%rdx, 24(%rbp)
.LBB42:
	.loc 21 305 24
	movq	16(%rbp), %rax
	movq	24(%rbp), %rdx
	movq	%rdx, (%rax)
	.loc 21 307 9
	movq	16(%rbp), %rax
	movq	(%rax), %rax
	.loc 21 307 25
	movq	%rax, %rcx
	call	_ZN17wxCriticalSection5EnterEv
.LBE42:
	.loc 21 308 5
	nop
	addq	$32, %rsp
	popq	%rbp
	.cfi_restore 6
	.cfi_def_cfa 7, 8
	ret
	.cfi_endproc
.LFE8880:
	.seh_endproc
	.section	.text$_ZN23wxCriticalSectionLockerD1Ev,"x"
	.linkonce discard
	.align 2
	.globl	_ZN23wxCriticalSectionLockerD1Ev
	.def	_ZN23wxCriticalSectionLockerD1Ev;	.scl	2;	.type	32;	.endef
	.seh_proc	_ZN23wxCriticalSectionLockerD1Ev
_ZN23wxCriticalSectionLockerD1Ev:
.LFB8883:
	.loc 21 310 5
	.cfi_startproc
	pushq	%rbp
	.seh_pushreg	%rbp
	.cfi_def_cfa_offset 16
	.cfi_offset 6, -16
	movq	%rsp, %rbp
	.seh_setframe	%rbp, 0
	.cfi_def_cfa_register 6
	subq	$32, %rsp
	.seh_stackalloc	32
	.seh_endprologue
	movq	%rcx, 16(%rbp)
.LBB43:
	.loc 21 312 9
	movq	16(%rbp), %rax
	movq	(%rax), %rax
	.loc 21 312 25
	movq	%rax, %rcx
	call	_ZN17wxCriticalSection5LeaveEv
.LBE43:
	.loc 21 313 5
	nop
	addq	$32, %rsp
	popq	%rbp
	.cfi_restore 6
	.cfi_def_cfa 7, 8
	ret
	.cfi_endproc
.LFE8883:
	.seh_handler	__gxx_personality_seh0, @unwind, @except
	.seh_handlerdata
.LLSDA8883:
	.byte	0xff
	.byte	0xff
	.byte	0x1
	.uleb128 .LLSDACSE8883-.LLSDACSB8883
.LLSDACSB8883:
.LLSDACSE8883:
	.section	.text$_ZN23wxCriticalSectionLockerD1Ev,"x"
	.linkonce discard
	.seh_endproc
	.section	.text$_ZN8wxThread8OnDeleteEv,"x"
	.linkonce discard
	.align 2
	.globl	_ZN8wxThread8OnDeleteEv
	.def	_ZN8wxThread8OnDeleteEv;	.scl	2;	.type	32;	.endef
	.seh_proc	_ZN8wxThread8OnDeleteEv
_ZN8wxThread8OnDeleteEv:
.LFB8889:
	.loc 21 627 18
	.cfi_startproc
	pushq	%rbp
	.seh_pushreg	%rbp
	.cfi_def_cfa_offset 16
	.cfi_offset 6, -16
	movq	%rsp, %rbp
	.seh_setframe	%rbp, 0
	.cfi_def_cfa_register 6
	.seh_endprologue
	movq	%rcx, 16(%rbp)
	.loc 21 627 30
	nop
	popq	%rbp
	.cfi_restore 6
	.cfi_def_cfa 7, 8
	ret
	.cfi_endproc
.LFE8889:
	.seh_endproc
	.section	.text$_ZN8wxThread6OnKillEv,"x"
	.linkonce discard
	.align 2
	.globl	_ZN8wxThread6OnKillEv
	.def	_ZN8wxThread6OnKillEv;	.scl	2;	.type	32;	.endef
	.seh_proc	_ZN8wxThread6OnKillEv
_ZN8wxThread6OnKillEv:
.LFB8890:
	.loc 21 631 18
	.cfi_startproc
	pushq	%rbp
	.seh_pushreg	%rbp
	.cfi_def_cfa_offset 16
	.cfi_offset 6, -16
	movq	%rsp, %rbp
	.seh_setframe	%rbp, 0
	.cfi_def_cfa_register 6
	.seh_endprologue
	movq	%rcx, 16(%rbp)
	.loc 21 631 28
	nop
	popq	%rbp
	.cfi_restore 6
	.cfi_def_cfa 7, 8
	ret
	.cfi_endproc
.LFE8890:
	.seh_endproc
	.section	.text$_ZN8wxThread6OnExitEv,"x"
	.linkonce discard
	.align 2
	.globl	_ZN8wxThread6OnExitEv
	.def	_ZN8wxThread6OnExitEv;	.scl	2;	.type	32;	.endef
	.seh_proc	_ZN8wxThread6OnExitEv
_ZN8wxThread6OnExitEv:
.LFB8891:
	.loc 21 641 18
	.cfi_startproc
	pushq	%rbp
	.seh_pushreg	%rbp
	.cfi_def_cfa_offset 16
	.cfi_offset 6, -16
	movq	%rsp, %rbp
	.seh_setframe	%rbp, 0
	.cfi_def_cfa_register 6
	.seh_endprologue
	movq	%rcx, 16(%rbp)
	.loc 21 641 29
	nop
	popq	%rbp
	.cfi_restore 6
	.cfi_def_cfa 7, 8
	ret
	.cfi_endproc
.LFE8891:
	.seh_endproc
	.section	.text$_ZN20wxThreadHelperThread5EntryEv,"x"
	.linkonce discard
	.align 2
	.globl	_ZN20wxThreadHelperThread5EntryEv
	.def	_ZN20wxThreadHelperThread5EntryEv;	.scl	2;	.type	32;	.endef
	.seh_proc	_ZN20wxThreadHelperThread5EntryEv
_ZN20wxThreadHelperThread5EntryEv:
.LFB8906:
	.loc 21 767 1
	.cfi_startproc
	pushq	%rbp
	.seh_pushreg	%rbp
	.cfi_def_cfa_offset 16
	.cfi_offset 6, -16
	pushq	%rbx
	.seh_pushreg	%rbx
	.cfi_def_cfa_offset 24
	.cfi_offset 3, -24
	subq	$56, %rsp
	.seh_stackalloc	56
	.cfi_def_cfa_offset 80
	leaq	128(%rsp), %rbp
	.seh_setframe	%rbp, 128
	.cfi_def_cfa 6, -48
	.seh_endprologue
	movq	%rcx, -48(%rbp)
	.loc 21 768 27
	movq	-48(%rbp), %rax
	movq	64(%rax), %rdx
	movq	-48(%rbp), %rax
	movq	64(%rax), %rax
	.loc 21 768 41
	movq	(%rax), %rax
	addq	$16, %rax
	movq	(%rax), %rax
	.loc 21 768 40
	movq	%rdx, %rcx
	call	*%rax
.LVL0:
	movq	%rax, -88(%rbp)
	.loc 21 770 36
	movq	-48(%rbp), %rax
	movq	64(%rax), %rax
	.loc 21 770 44
	leaq	24(%rax), %rdx
	.loc 21 770 57
	leaq	-96(%rbp), %rax
	movq	%rax, %rcx
	call	_ZN23wxCriticalSectionLockerC1ER17wxCriticalSection
	.loc 21 776 10
	movq	-48(%rbp), %rax
	movq	64(%rax), %rax
	.loc 21 776 18
	movl	16(%rax), %eax
	.loc 21 776 5
	testl	%eax, %eax
	jne	.L132
	.loc 21 777 9
	movq	-48(%rbp), %rax
	movq	64(%rax), %rax
	.loc 21 777 26
	movq	$0, 8(%rax)
.L132:
	.loc 21 779 12
	movq	-88(%rbp), %rbx
	.loc 21 770 57
	leaq	-96(%rbp), %rax
	movq	%rax, %rcx
	call	_ZN23wxCriticalSectionLockerD1Ev
	.loc 21 779 12
	movq	%rbx, %rax
	.loc 21 780 1
	addq	$56, %rsp
	popq	%rbx
	.cfi_restore 3
	popq	%rbp
	.cfi_restore 6
	.cfi_def_cfa 7, -40
	ret
	.cfi_endproc
.LFE8906:
	.seh_endproc
	.section	.text$_ZN14wxEventFunctorC2Ev,"x"
	.linkonce discard
	.align 2
	.globl	_ZN14wxEventFunctorC2Ev
	.def	_ZN14wxEventFunctorC2Ev;	.scl	2;	.type	32;	.endef
	.seh_proc	_ZN14wxEventFunctorC2Ev
_ZN14wxEventFunctorC2Ev:
.LFB8942:
	.file 22 "../wxMSW-3.0.5_gcc810_x64_Dev/include/wx/event.h"
	.loc 22 211 7
	.cfi_startproc
	pushq	%rbp
	.seh_pushreg	%rbp
	.cfi_def_cfa_offset 16
	.cfi_offset 6, -16
	movq	%rsp, %rbp
	.seh_setframe	%rbp, 0
	.cfi_def_cfa_register 6
	.seh_endprologue
	movq	%rcx, 16(%rbp)
.LBB44:
	.loc 22 211 7
	movq	.refptr._ZTV14wxEventFunctor(%rip), %rax
	leaq	16(%rax), %rdx
	movq	16(%rbp), %rax
	movq	%rdx, (%rax)
.LBE44:
	nop
	popq	%rbp
	.cfi_restore 6
	.cfi_def_cfa 7, 8
	ret
	.cfi_endproc
.LFE8942:
	.seh_endproc
	.section	.text$_ZN20wxObjectEventFunctorC1EM12wxEvtHandlerFvR7wxEventEPS0_,"x"
	.linkonce discard
	.align 2
	.globl	_ZN20wxObjectEventFunctorC1EM12wxEvtHandlerFvR7wxEventEPS0_
	.def	_ZN20wxObjectEventFunctorC1EM12wxEvtHandlerFvR7wxEventEPS0_;	.scl	2;	.type	32;	.endef
	.seh_proc	_ZN20wxObjectEventFunctorC1EM12wxEvtHandlerFvR7wxEventEPS0_
_ZN20wxObjectEventFunctorC1EM12wxEvtHandlerFvR7wxEventEPS0_:
.LFB8945:
	.loc 22 243 5
	.cfi_startproc
	pushq	%rbp
	.seh_pushreg	%rbp
	.cfi_def_cfa_offset 16
	.cfi_offset 6, -16
	pushq	%rbx
	.seh_pushreg	%rbx
	.cfi_def_cfa_offset 24
	.cfi_offset 3, -24
	subq	$56, %rsp
	.seh_stackalloc	56
	.cfi_def_cfa_offset 80
	leaq	128(%rsp), %rbp
	.seh_setframe	%rbp, 128
	.cfi_def_cfa 6, -48
	.seh_endprologue
	movq	%rcx, -48(%rbp)
	movq	%rdx, %rbx
	movq	(%rbx), %rax
	movq	8(%rbx), %rdx
	movq	%rax, -96(%rbp)
	movq	%rdx, -88(%rbp)
	movq	%r8, -32(%rbp)
.LBB45:
	.loc 22 244 50
	movq	-48(%rbp), %rax
	movq	%rax, %rcx
	call	_ZN14wxEventFunctorC2Ev
	leaq	16+_ZTV20wxObjectEventFunctor(%rip), %rdx
	movq	-48(%rbp), %rax
	movq	%rdx, (%rax)
	movq	-48(%rbp), %rax
	movq	-32(%rbp), %rdx
	movq	%rdx, 8(%rax)
	movq	-48(%rbp), %rcx
	movq	-96(%rbp), %rax
	movq	-88(%rbp), %rdx
	movq	%rax, 16(%rcx)
	movq	%rdx, 24(%rcx)
.LBE45:
	.loc 22 245 11
	nop
	addq	$56, %rsp
	popq	%rbx
	.cfi_restore 3
	popq	%rbp
	.cfi_restore 6
	.cfi_def_cfa 7, -40
	ret
	.cfi_endproc
.LFE8945:
	.seh_endproc
	.section	.text$_ZNK20wxObjectEventFunctor10IsMatchingERK14wxEventFunctor,"x"
	.linkonce discard
	.align 2
	.globl	_ZNK20wxObjectEventFunctor10IsMatchingERK14wxEventFunctor
	.def	_ZNK20wxObjectEventFunctor10IsMatchingERK14wxEventFunctor;	.scl	2;	.type	32;	.endef
	.seh_proc	_ZNK20wxObjectEventFunctor10IsMatchingERK14wxEventFunctor
_ZNK20wxObjectEventFunctor10IsMatchingERK14wxEventFunctor:
.LFB8946:
	.loc 22 249 18
	.cfi_startproc
	pushq	%rbp
	.seh_pushreg	%rbp
	.cfi_def_cfa_offset 16
	.cfi_offset 6, -16
	movq	%rsp, %rbp
	.seh_setframe	%rbp, 0
	.cfi_def_cfa_register 6
	subq	$64, %rsp
	.seh_stackalloc	64
	.seh_endprologue
	movq	%rcx, 16(%rbp)
	movq	%rdx, 24(%rbp)
.LBB46:
	.loc 22 251 83
	movq	16(%rbp), %rax
	movq	(%rax), %rax
	subq	$8, %rax
	.loc 22 251 58
	movq	(%rax), %rax
	movq	%rax, %rcx
	call	_ZNKSt9type_info4nameEv
	movq	%rax, %rdx
	leaq	-24(%rbp), %rax
	movq	%rax, %rcx
	call	_ZN16wxTypeIdentifierC1EPKc
	.loc 22 251 38
	movq	24(%rbp), %rax
	movq	(%rax), %rax
	subq	$8, %rax
	.loc 22 251 14
	movq	(%rax), %rax
	movq	%rax, %rcx
	call	_ZNKSt9type_info4nameEv
	movq	%rax, %rdx
	leaq	-16(%rbp), %rax
	movq	%rax, %rcx
	call	_ZN16wxTypeIdentifierC1EPKc
	.loc 22 251 55
	leaq	-24(%rbp), %rdx
	leaq	-16(%rbp), %rax
	movq	%rax, %rcx
	call	_ZN16wxTypeIdentifiereqERKS_
	.loc 22 251 9
	testb	%al, %al
	je	.L137
.LBB47:
	.loc 22 253 41
	movq	24(%rbp), %rax
	movq	%rax, -8(%rbp)
	.loc 22 262 40
	movq	16(%rbp), %rax
	movq	16(%rax), %rdx
	movq	-8(%rbp), %rax
	movq	16(%rax), %rax
	.loc 22 262 74
	cmpq	%rax, %rdx
	jne	.L138
	.loc 22 262 40 discriminator 1
	movq	16(%rbp), %rax
	movq	24(%rax), %rdx
	movq	-8(%rbp), %rax
	movq	24(%rax), %rax
	.loc 22 262 31 discriminator 1
	cmpq	%rax, %rdx
	je	.L139
	.loc 22 262 40 discriminator 4
	movq	16(%rbp), %rax
	movq	16(%rax), %rax
	.loc 22 262 31 discriminator 4
	testq	%rax, %rax
	je	.L139
.L138:
	.loc 22 262 70 discriminator 6
	movq	-8(%rbp), %rax
	movq	16(%rax), %rax
	.loc 22 262 49 discriminator 6
	testq	%rax, %rax
	jne	.L140
.L139:
	.loc 22 263 22 discriminator 7
	movq	16(%rbp), %rax
	movq	8(%rax), %rdx
	.loc 22 263 41 discriminator 7
	movq	-8(%rbp), %rax
	movq	8(%rax), %rax
	.loc 22 262 74 discriminator 7
	cmpq	%rax, %rdx
	je	.L141
	.loc 22 263 60
	movq	-8(%rbp), %rax
	movq	8(%rax), %rax
	.loc 22 263 51
	testq	%rax, %rax
	jne	.L140
.L141:
	.loc 22 262 74 discriminator 9
	movl	$1, %eax
	.loc 22 263 77 discriminator 9
	jmp	.L143
.L140:
	.loc 22 262 74 discriminator 8
	movl	$0, %eax
	.loc 22 263 77 discriminator 8
	jmp	.L143
.L137:
.LBE47:
	.loc 22 266 20
	movl	$0, %eax
.L143:
.LBE46:
	.loc 22 267 5
	addq	$64, %rsp
	popq	%rbp
	.cfi_restore 6
	.cfi_def_cfa 7, 8
	ret
	.cfi_endproc
.LFE8946:
	.seh_endproc
	.section	.text$_ZNK20wxObjectEventFunctor13GetEvtHandlerEv,"x"
	.linkonce discard
	.align 2
	.globl	_ZNK20wxObjectEventFunctor13GetEvtHandlerEv
	.def	_ZNK20wxObjectEventFunctor13GetEvtHandlerEv;	.scl	2;	.type	32;	.endef
	.seh_proc	_ZNK20wxObjectEventFunctor13GetEvtHandlerEv
_ZNK20wxObjectEventFunctor13GetEvtHandlerEv:
.LFB8947:
	.loc 22 269 27
	.cfi_startproc
	pushq	%rbp
	.seh_pushreg	%rbp
	.cfi_def_cfa_offset 16
	.cfi_offset 6, -16
	movq	%rsp, %rbp
	.seh_setframe	%rbp, 0
	.cfi_def_cfa_register 6
	.seh_endprologue
	movq	%rcx, 16(%rbp)
	.loc 22 270 18
	movq	16(%rbp), %rax
	movq	8(%rax), %rax
	.loc 22 270 29
	popq	%rbp
	.cfi_restore 6
	.cfi_def_cfa 7, 8
	ret
	.cfi_endproc
.LFE8947:
	.seh_endproc
	.section	.text$_ZNK20wxObjectEventFunctor12GetEvtMethodEv,"x"
	.linkonce discard
	.align 2
	.globl	_ZNK20wxObjectEventFunctor12GetEvtMethodEv
	.def	_ZNK20wxObjectEventFunctor12GetEvtMethodEv;	.scl	2;	.type	32;	.endef
	.seh_proc	_ZNK20wxObjectEventFunctor12GetEvtMethodEv
_ZNK20wxObjectEventFunctor12GetEvtMethodEv:
.LFB8948:
	.loc 22 272 29
	.cfi_startproc
	pushq	%rbp
	.seh_pushreg	%rbp
	.cfi_def_cfa_offset 16
	.cfi_offset 6, -16
	movq	%rsp, %rbp
	.seh_setframe	%rbp, 0
	.cfi_def_cfa_register 6
	.seh_endprologue
	movq	%rcx, 16(%rbp)
	movq	%rdx, 24(%rbp)
	.loc 22 273 18
	movq	16(%rbp), %rcx
	movq	24(%rbp), %rax
	movq	24(%rax), %rdx
	movq	16(%rax), %rax
	movq	%rax, (%rcx)
	movq	%rdx, 8(%rcx)
	.loc 22 273 28
	movq	16(%rbp), %rax
	popq	%rbp
	.cfi_restore 6
	.cfi_def_cfa 7, 8
	ret
	.cfi_endproc
.LFE8948:
	.seh_endproc
	.section	.text$_Z17wxNewEventFunctorRKiM12wxEvtHandlerFvR7wxEventEPS1_,"x"
	.linkonce discard
	.globl	_Z17wxNewEventFunctorRKiM12wxEvtHandlerFvR7wxEventEPS1_
	.def	_Z17wxNewEventFunctorRKiM12wxEvtHandlerFvR7wxEventEPS1_;	.scl	2;	.type	32;	.endef
	.seh_proc	_Z17wxNewEventFunctorRKiM12wxEvtHandlerFvR7wxEventEPS1_
_Z17wxNewEventFunctorRKiM12wxEvtHandlerFvR7wxEventEPS1_:
.LFB8952:
	.loc 22 290 1
	.cfi_startproc
	pushq	%rbp
	.seh_pushreg	%rbp
	.cfi_def_cfa_offset 16
	.cfi_offset 6, -16
	pushq	%rbx
	.seh_pushreg	%rbx
	.cfi_def_cfa_offset 24
	.cfi_offset 3, -24
	subq	$72, %rsp
	.seh_stackalloc	72
	.cfi_def_cfa_offset 96
	leaq	128(%rsp), %rbp
	.seh_setframe	%rbp, 128
	.cfi_def_cfa 6, -32
	.seh_endprologue
	movq	%rcx, -32(%rbp)
	movq	%rdx, %rbx
	movq	(%rbx), %rax
	movq	8(%rbx), %rdx
	movq	%rax, -80(%rbp)
	movq	%rdx, -72(%rbp)
	movq	%r8, -16(%rbp)
	.loc 22 291 52
	movl	$32, %ecx
	call	_Znwy
	movq	%rax, %rbx
	movq	-80(%rbp), %rax
	movq	-72(%rbp), %rdx
	movq	%rax, -96(%rbp)
	movq	%rdx, -88(%rbp)
	movq	-16(%rbp), %rdx
	leaq	-96(%rbp), %rax
	movq	%rdx, %r8
	movq	%rax, %rdx
	movq	%rbx, %rcx
	call	_ZN20wxObjectEventFunctorC1EM12wxEvtHandlerFvR7wxEventEPS0_
	movq	%rbx, %rax
	.loc 22 292 1
	addq	$72, %rsp
	popq	%rbx
	.cfi_restore 3
	popq	%rbp
	.cfi_restore 6
	.cfi_def_cfa 7, -56
	ret
	.cfi_endproc
.LFE8952:
	.seh_endproc
	.section	.text$_ZNK15wxUpdateUIEvent10GetCheckedEv,"x"
	.linkonce discard
	.align 2
	.globl	_ZNK15wxUpdateUIEvent10GetCheckedEv
	.def	_ZNK15wxUpdateUIEvent10GetCheckedEv;	.scl	2;	.type	32;	.endef
	.seh_proc	_ZNK15wxUpdateUIEvent10GetCheckedEv
_ZNK15wxUpdateUIEvent10GetCheckedEv:
.LFB9392:
	.loc 22 2714 10
	.cfi_startproc
	pushq	%rbp
	.seh_pushreg	%rbp
	.cfi_def_cfa_offset 16
	.cfi_offset 6, -16
	movq	%rsp, %rbp
	.seh_setframe	%rbp, 0
	.cfi_def_cfa_register 6
	.seh_endprologue
	movq	%rcx, 16(%rbp)
	.loc 22 2714 38
	movq	16(%rbp), %rax
	movzbl	152(%rax), %eax
	.loc 22 2714 49
	popq	%rbp
	.cfi_restore 6
	.cfi_def_cfa 7, 8
	ret
	.cfi_endproc
.LFE9392:
	.seh_endproc
	.section	.text$_ZNK15wxUpdateUIEvent13GetSetCheckedEv,"x"
	.linkonce discard
	.align 2
	.globl	_ZNK15wxUpdateUIEvent13GetSetCheckedEv
	.def	_ZNK15wxUpdateUIEvent13GetSetCheckedEv;	.scl	2;	.type	32;	.endef
	.seh_proc	_ZNK15wxUpdateUIEvent13GetSetCheckedEv
_ZNK15wxUpdateUIEvent13GetSetCheckedEv:
.LFB9397:
	.loc 22 2719 10
	.cfi_startproc
	pushq	%rbp
	.seh_pushreg	%rbp
	.cfi_def_cfa_offset 16
	.cfi_offset 6, -16
	movq	%rsp, %rbp
	.seh_setframe	%rbp, 0
	.cfi_def_cfa_register 6
	.seh_endprologue
	movq	%rcx, 16(%rbp)
	.loc 22 2719 41
	movq	16(%rbp), %rax
	movzbl	158(%rax), %eax
	.loc 22 2719 55
	popq	%rbp
	.cfi_restore 6
	.cfi_def_cfa 7, 8
	ret
	.cfi_endproc
.LFE9397:
	.seh_endproc
	.section .rdata,"dr"
	.align 8
.LC4:
	.ascii "idLast == wxID_ANY || winid <= idLast\0"
	.align 8
.LC5:
	.ascii "..\\wxMSW-3.0.5_gcc810_x64_Dev\\include/wx/event.h\0"
	.align 8
.LC6:
	.ascii "invalid IDs range: lower bound > upper bound\0"
	.section	.text$_ZN21wxEventTableEntryBaseC2EiiP14wxEventFunctorP8wxObject,"x"
	.linkonce discard
	.align 2
	.globl	_ZN21wxEventTableEntryBaseC2EiiP14wxEventFunctorP8wxObject
	.def	_ZN21wxEventTableEntryBaseC2EiiP14wxEventFunctorP8wxObject;	.scl	2;	.type	32;	.endef
	.seh_proc	_ZN21wxEventTableEntryBaseC2EiiP14wxEventFunctorP8wxObject
_ZN21wxEventTableEntryBaseC2EiiP14wxEventFunctorP8wxObject:
.LFB9514:
	.loc 22 3170 5
	.cfi_startproc
	pushq	%rbp
	.seh_pushreg	%rbp
	.cfi_def_cfa_offset 16
	.cfi_offset 6, -16
	movq	%rsp, %rbp
	.seh_setframe	%rbp, 0
	.cfi_def_cfa_register 6
	subq	$48, %rsp
	.seh_stackalloc	48
	.seh_endprologue
	movq	%rcx, 16(%rbp)
	movl	%edx, 24(%rbp)
	movl	%r8d, 32(%rbp)
	movq	%r9, 40(%rbp)
.LBB48:
	.loc 22 3175 34
	movq	16(%rbp), %rax
	movl	24(%rbp), %edx
	movl	%edx, (%rax)
	movq	16(%rbp), %rax
	movl	32(%rbp), %edx
	movl	%edx, 4(%rax)
	movq	16(%rbp), %rax
	movq	40(%rbp), %rdx
	movq	%rdx, 8(%rax)
	movq	16(%rbp), %rax
	movq	48(%rbp), %rdx
	movq	%rdx, 16(%rax)
	.loc 22 3177 80
	movq	.refptr.wxTheAssertHandler(%rip), %rax
	movq	(%rax), %rax
	.loc 22 3177 82
	testq	%rax, %rax
	je	.L155
	.loc 22 3177 38 discriminator 1
	cmpl	$-1, 32(%rbp)
	je	.L155
	.loc 22 3177 41 discriminator 3
	movl	24(%rbp), %eax
	cmpl	32(%rbp), %eax
	jle	.L155
	.loc 22 3177 96 discriminator 5
	leaq	.LC6(%rip), %rax
	movq	%rax, 32(%rsp)
	leaq	.LC4(%rip), %r9
	leaq	_ZZN21wxEventTableEntryBaseC4EiiP14wxEventFunctorP8wxObjectE12__FUNCTION__(%rip), %r8
	movl	$3178, %edx
	leaq	.LC5(%rip), %rcx
	call	_Z10wxOnAssertPKciS0_S0_S0_
	.loc 22 3177 82 discriminator 5
	movq	.refptr.wxTrapInAssert(%rip), %rax
	movzbl	(%rax), %eax
	testb	%al, %al
	je	.L155
	.loc 22 3177 82 is_stmt 0 discriminator 7
	movl	$1, %eax
	jmp	.L156
.L155:
	.loc 22 3177 82 discriminator 8
	movl	$0, %eax
.L156:
	.loc 22 3177 14 is_stmt 1 discriminator 10
	testb	%al, %al
	je	.L158
	.loc 22 3177 150 discriminator 11
	movq	.refptr.wxTrapInAssert(%rip), %rax
	movb	$0, (%rax)
	.loc 22 3177 165 discriminator 11
	call	_Z6wxTrapv
.L158:
.LBE48:
	.loc 22 3179 5
	nop
	addq	$48, %rsp
	popq	%rbp
	.cfi_restore 6
	.cfi_def_cfa 7, 8
	ret
	.cfi_endproc
.LFE9514:
	.seh_endproc
	.section	.text$_ZN21wxEventTableEntryBaseD2Ev,"x"
	.linkonce discard
	.align 2
	.globl	_ZN21wxEventTableEntryBaseD2Ev
	.def	_ZN21wxEventTableEntryBaseD2Ev;	.scl	2;	.type	32;	.endef
	.seh_proc	_ZN21wxEventTableEntryBaseD2Ev
_ZN21wxEventTableEntryBaseD2Ev:
.LFB9520:
	.loc 22 3196 5
	.cfi_startproc
	pushq	%rbp
	.seh_pushreg	%rbp
	.cfi_def_cfa_offset 16
	.cfi_offset 6, -16
	movq	%rsp, %rbp
	.seh_setframe	%rbp, 0
	.cfi_def_cfa_register 6
	subq	$32, %rsp
	.seh_stackalloc	32
	.seh_endprologue
	movq	%rcx, 16(%rbp)
.LBB49:
	.loc 22 3198 16
	movq	16(%rbp), %rax
	movq	8(%rax), %rax
	.loc 22 3198 20
	testq	%rax, %rax
	je	.L161
	.loc 22 3198 16 discriminator 1
	movq	16(%rbp), %rax
	movq	8(%rax), %rdx
	movq	16(%rbp), %rax
	movq	8(%rax), %rax
	movq	(%rax), %rax
	addq	$8, %rax
	movq	(%rax), %rax
	movq	%rdx, %rcx
	call	*%rax
.LVL1:
.L161:
.LBE49:
	.loc 22 3199 5
	nop
	addq	$32, %rsp
	popq	%rbp
	.cfi_restore 6
	.cfi_def_cfa 7, 8
	ret
	.cfi_endproc
.LFE9520:
	.seh_endproc
	.section	.text$_ZN17wxEventTableEntryC1ERKiiiP14wxEventFunctorP8wxObject,"x"
	.linkonce discard
	.align 2
	.globl	_ZN17wxEventTableEntryC1ERKiiiP14wxEventFunctorP8wxObject
	.def	_ZN17wxEventTableEntryC1ERKiiiP14wxEventFunctorP8wxObject;	.scl	2;	.type	32;	.endef
	.seh_proc	_ZN17wxEventTableEntryC1ERKiiiP14wxEventFunctorP8wxObject
_ZN17wxEventTableEntryC1ERKiiiP14wxEventFunctorP8wxObject:
.LFB9524:
	.loc 22 3219 5
	.cfi_startproc
	pushq	%rbp
	.seh_pushreg	%rbp
	.cfi_def_cfa_offset 16
	.cfi_offset 6, -16
	movq	%rsp, %rbp
	.seh_setframe	%rbp, 0
	.cfi_def_cfa_register 6
	subq	$48, %rsp
	.seh_stackalloc	48
	.seh_endprologue
	movq	%rcx, 16(%rbp)
	movq	%rdx, 24(%rbp)
	movl	%r8d, 32(%rbp)
	movl	%r9d, 40(%rbp)
.LBB50:
	.loc 22 3222 27
	movq	16(%rbp), %rax
	movq	48(%rbp), %r9
	movl	40(%rbp), %r8d
	movl	32(%rbp), %edx
	movq	56(%rbp), %rcx
	movq	%rcx, 32(%rsp)
	movq	%rax, %rcx
	call	_ZN21wxEventTableEntryBaseC2EiiP14wxEventFunctorP8wxObject
	movq	16(%rbp), %rax
	movq	24(%rbp), %rdx
	movq	%rdx, 24(%rax)
.LBE50:
	.loc 22 3223 7
	nop
	addq	$48, %rsp
	popq	%rbp
	.cfi_restore 6
	.cfi_def_cfa 7, 8
	ret
	.cfi_endproc
.LFE9524:
	.seh_endproc
	.section	.text$_ZN12wxEvtHandler14SetNextHandlerEPS_,"x"
	.linkonce discard
	.align 2
	.globl	_ZN12wxEvtHandler14SetNextHandlerEPS_
	.def	_ZN12wxEvtHandler14SetNextHandlerEPS_;	.scl	2;	.type	32;	.endef
	.seh_proc	_ZN12wxEvtHandler14SetNextHandlerEPS_
_ZN12wxEvtHandler14SetNextHandlerEPS_:
.LFB9620:
	.loc 22 3346 18
	.cfi_startproc
	pushq	%rbp
	.seh_pushreg	%rbp
	.cfi_def_cfa_offset 16
	.cfi_offset 6, -16
	movq	%rsp, %rbp
	.seh_setframe	%rbp, 0
	.cfi_def_cfa_register 6
	.seh_endprologue
	movq	%rcx, 16(%rbp)
	movq	%rdx, 24(%rbp)
	.loc 22 3346 72
	movq	16(%rbp), %rax
	movq	24(%rbp), %rdx
	movq	%rdx, 24(%rax)
	.loc 22 3346 83
	nop
	popq	%rbp
	.cfi_restore 6
	.cfi_def_cfa 7, 8
	ret
	.cfi_endproc
.LFE9620:
	.seh_endproc
	.section	.text$_ZN12wxEvtHandler18SetPreviousHandlerEPS_,"x"
	.linkonce discard
	.align 2
	.globl	_ZN12wxEvtHandler18SetPreviousHandlerEPS_
	.def	_ZN12wxEvtHandler18SetPreviousHandlerEPS_;	.scl	2;	.type	32;	.endef
	.seh_proc	_ZN12wxEvtHandler18SetPreviousHandlerEPS_
_ZN12wxEvtHandler18SetPreviousHandlerEPS_:
.LFB9621:
	.loc 22 3347 18
	.cfi_startproc
	pushq	%rbp
	.seh_pushreg	%rbp
	.cfi_def_cfa_offset 16
	.cfi_offset 6, -16
	movq	%rsp, %rbp
	.seh_setframe	%rbp, 0
	.cfi_def_cfa_register 6
	.seh_endprologue
	movq	%rcx, 16(%rbp)
	movq	%rdx, 24(%rbp)
	.loc 22 3347 80
	movq	16(%rbp), %rax
	movq	24(%rbp), %rdx
	movq	%rdx, 32(%rax)
	.loc 22 3347 91
	nop
	popq	%rbp
	.cfi_restore 6
	.cfi_def_cfa 7, 8
	ret
	.cfi_endproc
.LFE9621:
	.seh_endproc
	.section	.text$_ZN12wxEvtHandler15AddPendingEventERK7wxEvent,"x"
	.linkonce discard
	.align 2
	.globl	_ZN12wxEvtHandler15AddPendingEventERK7wxEvent
	.def	_ZN12wxEvtHandler15AddPendingEventERK7wxEvent;	.scl	2;	.type	32;	.endef
	.seh_proc	_ZN12wxEvtHandler15AddPendingEventERK7wxEvent
_ZN12wxEvtHandler15AddPendingEventERK7wxEvent:
.LFB9624:
	.loc 22 3408 18
	.cfi_startproc
	pushq	%rbp
	.seh_pushreg	%rbp
	.cfi_def_cfa_offset 16
	.cfi_offset 6, -16
	pushq	%rbx
	.seh_pushreg	%rbx
	.cfi_def_cfa_offset 24
	.cfi_offset 3, -24
	subq	$40, %rsp
	.seh_stackalloc	40
	.cfi_def_cfa_offset 64
	leaq	128(%rsp), %rbp
	.seh_setframe	%rbp, 128
	.cfi_def_cfa 6, -64
	.seh_endprologue
	movq	%rcx, -64(%rbp)
	movq	%rdx, -56(%rbp)
	.loc 22 3416 33
	movq	-64(%rbp), %rax
	movq	(%rax), %rax
	addq	$64, %rax
	movq	(%rax), %rbx
	.loc 22 3416 32
	movq	-56(%rbp), %rax
	movq	(%rax), %rax
	addq	$40, %rax
	movq	(%rax), %rax
	.loc 22 3416 19
	movq	-56(%rbp), %rdx
	movq	%rdx, %rcx
	call	*%rax
.LVL2:
	movq	%rax, %rdx
	movq	-64(%rbp), %rcx
	call	*%rbx
.LVL3:
	.loc 22 3417 5
	nop
	addq	$40, %rsp
	popq	%rbx
	.cfi_restore 3
	popq	%rbp
	.cfi_restore 6
	.cfi_def_cfa 7, -24
	ret
	.cfi_endproc
.LFE9624:
	.seh_endproc
	.section	.text$_ZN12wxEvtHandler7ConnectEiiiMS_FvR7wxEventEP8wxObjectPS_,"x"
	.linkonce discard
	.align 2
	.globl	_ZN12wxEvtHandler7ConnectEiiiMS_FvR7wxEventEP8wxObjectPS_
	.def	_ZN12wxEvtHandler7ConnectEiiiMS_FvR7wxEventEP8wxObjectPS_;	.scl	2;	.type	32;	.endef
	.seh_proc	_ZN12wxEvtHandler7ConnectEiiiMS_FvR7wxEventEP8wxObjectPS_
_ZN12wxEvtHandler7ConnectEiiiMS_FvR7wxEventEP8wxObjectPS_:
.LFB9629:
	.loc 22 3490 10
	.cfi_startproc
	pushq	%rbp
	.seh_pushreg	%rbp
	.cfi_def_cfa_offset 16
	.cfi_offset 6, -16
	pushq	%rbx
	.seh_pushreg	%rbx
	.cfi_def_cfa_offset 24
	.cfi_offset 3, -24
	subq	$88, %rsp
	.seh_stackalloc	88
	.cfi_def_cfa_offset 112
	leaq	128(%rsp), %rbp
	.seh_setframe	%rbp, 128
	.cfi_def_cfa 6, -16
	.seh_endprologue
	movq	%rcx, -16(%rbp)
	movl	%edx, -8(%rbp)
	movl	%r8d, 0(%rbp)
	movl	%r9d, 8(%rbp)
	movq	16(%rbp), %rbx
	movq	(%rbx), %rax
	movq	8(%rbx), %rdx
	movq	%rax, -64(%rbp)
	movq	%rdx, -56(%rbp)
	.loc 22 3498 36
	movq	-64(%rbp), %rax
	movq	-56(%rbp), %rdx
	movq	%rax, -80(%rbp)
	movq	%rdx, -72(%rbp)
	movq	32(%rbp), %rcx
	leaq	-80(%rbp), %rdx
	leaq	8(%rbp), %rax
	movq	%rcx, %r8
	movq	%rax, %rcx
	call	_Z17wxNewEventFunctorRKiM12wxEvtHandlerFvR7wxEventEPS1_
	movq	%rax, %r9
	.loc 22 3497 15
	movl	8(%rbp), %r8d
	movl	0(%rbp), %ecx
	movl	-8(%rbp), %eax
	movq	24(%rbp), %rdx
	movq	%rdx, 40(%rsp)
	movq	%r9, 32(%rsp)
	movl	%r8d, %r9d
	movl	%ecx, %r8d
	movl	%eax, %edx
	movq	-16(%rbp), %rcx
	call	_ZN12wxEvtHandler6DoBindEiiiP14wxEventFunctorP8wxObject
	.loc 22 3500 5
	nop
	addq	$88, %rsp
	popq	%rbx
	.cfi_restore 3
	popq	%rbp
	.cfi_restore 6
	.cfi_def_cfa 7, -72
	ret
	.cfi_endproc
.LFE9629:
	.seh_endproc
	.section	.text$_ZN12wxEvtHandler7ConnectEiiMS_FvR7wxEventEP8wxObjectPS_,"x"
	.linkonce discard
	.align 2
	.globl	_ZN12wxEvtHandler7ConnectEiiMS_FvR7wxEventEP8wxObjectPS_
	.def	_ZN12wxEvtHandler7ConnectEiiMS_FvR7wxEventEP8wxObjectPS_;	.scl	2;	.type	32;	.endef
	.seh_proc	_ZN12wxEvtHandler7ConnectEiiMS_FvR7wxEventEP8wxObjectPS_
_ZN12wxEvtHandler7ConnectEiiMS_FvR7wxEventEP8wxObjectPS_:
.LFB9630:
	.loc 22 3503 10
	.cfi_startproc
	pushq	%rbp
	.seh_pushreg	%rbp
	.cfi_def_cfa_offset 16
	.cfi_offset 6, -16
	pushq	%rbx
	.seh_pushreg	%rbx
	.cfi_def_cfa_offset 24
	.cfi_offset 3, -24
	subq	$104, %rsp
	.seh_stackalloc	104
	.cfi_def_cfa_offset 128
	leaq	128(%rsp), %rbp
	.seh_setframe	%rbp, 128
	.cfi_def_cfa 6, 0
	.seh_endprologue
	movq	%rcx, 0(%rbp)
	movl	%edx, 8(%rbp)
	movl	%r8d, 16(%rbp)
	movq	%r9, %rbx
	movq	(%rbx), %rax
	movq	8(%rbx), %rdx
	movq	%rax, -48(%rbp)
	movq	%rdx, -40(%rbp)
	.loc 22 3508 18
	movq	-48(%rbp), %rax
	movq	-40(%rbp), %rdx
	movq	%rax, -64(%rbp)
	movq	%rdx, -56(%rbp)
	movl	16(%rbp), %ecx
	movl	8(%rbp), %edx
	movq	40(%rbp), %rax
	movq	%rax, 48(%rsp)
	movq	32(%rbp), %rax
	movq	%rax, 40(%rsp)
	leaq	-64(%rbp), %rax
	movq	%rax, 32(%rsp)
	movl	%ecx, %r9d
	movl	$-1, %r8d
	movq	0(%rbp), %rcx
	call	_ZN12wxEvtHandler7ConnectEiiiMS_FvR7wxEventEP8wxObjectPS_
	.loc 22 3508 75
	nop
	addq	$104, %rsp
	popq	%rbx
	.cfi_restore 3
	popq	%rbp
	.cfi_restore 6
	.cfi_def_cfa 7, -88
	ret
	.cfi_endproc
.LFE9630:
	.seh_endproc
	.section	.text$_ZN12wxEvtHandler12TryValidatorER7wxEvent,"x"
	.linkonce discard
	.align 2
	.globl	_ZN12wxEvtHandler12TryValidatorER7wxEvent
	.def	_ZN12wxEvtHandler12TryValidatorER7wxEvent;	.scl	2;	.type	32;	.endef
	.seh_proc	_ZN12wxEvtHandler12TryValidatorER7wxEvent
_ZN12wxEvtHandler12TryValidatorER7wxEvent:
.LFB9648:
	.loc 22 3703 46
	.cfi_startproc
	pushq	%rbp
	.seh_pushreg	%rbp
	.cfi_def_cfa_offset 16
	.cfi_offset 6, -16
	movq	%rsp, %rbp
	.seh_setframe	%rbp, 0
	.cfi_def_cfa_register 6
	.seh_endprologue
	movq	%rcx, 16(%rbp)
	movq	%rdx, 24(%rbp)
	.loc 22 3703 79
	movl	$0, %eax
	.loc 22 3703 86
	popq	%rbp
	.cfi_restore 6
	.cfi_def_cfa 7, 8
	ret
	.cfi_endproc
.LFE9648:
	.seh_endproc
	.section	.text$_ZN12wxEvtHandler9TryParentER7wxEvent,"x"
	.linkonce discard
	.align 2
	.globl	_ZN12wxEvtHandler9TryParentER7wxEvent
	.def	_ZN12wxEvtHandler9TryParentER7wxEvent;	.scl	2;	.type	32;	.endef
	.seh_proc	_ZN12wxEvtHandler9TryParentER7wxEvent
_ZN12wxEvtHandler9TryParentER7wxEvent:
.LFB9649:
	.loc 22 3706 46
	.cfi_startproc
	pushq	%rbp
	.seh_pushreg	%rbp
	.cfi_def_cfa_offset 16
	.cfi_offset 6, -16
	movq	%rsp, %rbp
	.seh_setframe	%rbp, 0
	.cfi_def_cfa_register 6
	subq	$32, %rsp
	.seh_stackalloc	32
	.seh_endprologue
	movq	%rcx, 16(%rbp)
	movq	%rdx, 24(%rbp)
	.loc 22 3706 89
	movq	24(%rbp), %rax
	movq	%rax, %rdx
	movq	16(%rbp), %rcx
	call	_ZN12wxEvtHandler8DoTryAppER7wxEvent
	.loc 22 3706 98
	addq	$32, %rsp
	popq	%rbp
	.cfi_restore 6
	.cfi_def_cfa 7, 8
	ret
	.cfi_endproc
.LFE9649:
	.seh_endproc
	.section	.text$_ZN20wxObjectEventFunctorclEP12wxEvtHandlerR7wxEvent,"x"
	.linkonce discard
	.align 2
	.globl	_ZN20wxObjectEventFunctorclEP12wxEvtHandlerR7wxEvent
	.def	_ZN20wxObjectEventFunctorclEP12wxEvtHandlerR7wxEvent;	.scl	2;	.type	32;	.endef
	.seh_proc	_ZN20wxObjectEventFunctorclEP12wxEvtHandlerR7wxEvent
_ZN20wxObjectEventFunctorclEP12wxEvtHandlerR7wxEvent:
.LFB9740:
	.loc 22 3775 1
	.cfi_startproc
	pushq	%rbp
	.seh_pushreg	%rbp
	.cfi_def_cfa_offset 16
	.cfi_offset 6, -16
	movq	%rsp, %rbp
	.seh_setframe	%rbp, 0
	.cfi_def_cfa_register 6
	subq	$48, %rsp
	.seh_stackalloc	48
	.seh_endprologue
	movq	%rcx, 16(%rbp)
	movq	%rdx, 24(%rbp)
	movq	%r8, 32(%rbp)
	.loc 22 3776 40
	movq	16(%rbp), %rax
	movq	8(%rax), %rax
	.loc 22 3776 50
	testq	%rax, %rax
	je	.L173
	.loc 22 3776 50 is_stmt 0 discriminator 1
	movq	16(%rbp), %rax
	movq	8(%rax), %rax
	jmp	.L174
.L173:
	.loc 22 3776 50 discriminator 2
	movq	24(%rbp), %rax
.L174:
	.loc 22 3776 26 is_stmt 1 discriminator 4
	movq	%rax, -8(%rbp)
	.loc 22 3778 35 discriminator 4
	movq	16(%rbp), %rax
	movq	24(%rax), %rax
	.loc 22 3778 29 discriminator 4
	movq	%rax, %rdx
	movq	-8(%rbp), %rax
	leaq	(%rdx,%rax), %rcx
	.loc 22 3778 35 discriminator 4
	movq	16(%rbp), %rax
	movq	16(%rax), %rax
	andl	$1, %eax
	testq	%rax, %rax
	je	.L175
	.loc 22 3778 35 is_stmt 0 discriminator 1
	movq	16(%rbp), %rax
	movq	24(%rax), %rax
	movq	%rax, %rdx
	movq	-8(%rbp), %rax
	addq	%rdx, %rax
	movq	(%rax), %rdx
	movq	16(%rbp), %rax
	movq	16(%rax), %rax
	subq	$1, %rax
	addq	%rdx, %rax
	movq	(%rax), %rax
	jmp	.L176
.L175:
	.loc 22 3778 35 discriminator 2
	movq	16(%rbp), %rax
	movq	16(%rax), %rax
.L176:
	.loc 22 3778 29 is_stmt 1 discriminator 4
	movq	32(%rbp), %rdx
	call	*%rax
.LVL4:
	.loc 22 3779 1 discriminator 4
	nop
	addq	$48, %rsp
	popq	%rbp
	.cfi_restore 6
	.cfi_def_cfa 7, 8
	ret
	.cfi_endproc
.LFE9740:
	.seh_endproc
	.section	.text$_ZN10wxFontBaseC2Ev,"x"
	.linkonce discard
	.align 2
	.globl	_ZN10wxFontBaseC2Ev
	.def	_ZN10wxFontBaseC2Ev;	.scl	2;	.type	32;	.endef
	.seh_proc	_ZN10wxFontBaseC2Ev
_ZN10wxFontBaseC2Ev:
.LFB9804:
	.file 23 "../wxMSW-3.0.5_gcc810_x64_Dev/include/wx/font.h"
	.loc 23 258 7
	.cfi_startproc
	pushq	%rbp
	.seh_pushreg	%rbp
	.cfi_def_cfa_offset 16
	.cfi_offset 6, -16
	movq	%rsp, %rbp
	.seh_setframe	%rbp, 0
	.cfi_def_cfa_register 6
	subq	$32, %rsp
	.seh_stackalloc	32
	.seh_endprologue
	movq	%rcx, 16(%rbp)
.LBB51:
	.loc 23 258 7
	movq	16(%rbp), %rax
	movq	%rax, %rcx
	call	_ZN11wxGDIObjectC2Ev
	movq	.refptr._ZTV10wxFontBase(%rip), %rax
	leaq	16(%rax), %rdx
	movq	16(%rbp), %rax
	movq	%rdx, (%rax)
.LBE51:
	nop
	addq	$32, %rsp
	popq	%rbp
	.cfi_restore 6
	.cfi_def_cfa 7, 8
	ret
	.cfi_endproc
.LFE9804:
	.seh_endproc
	.section	.text$_ZN6wxFontC1Ei12wxFontFamily11wxFontStyle12wxFontWeightbRK8wxString14wxFontEncoding,"x"
	.linkonce discard
	.align 2
	.globl	_ZN6wxFontC1Ei12wxFontFamily11wxFontStyle12wxFontWeightbRK8wxString14wxFontEncoding
	.def	_ZN6wxFontC1Ei12wxFontFamily11wxFontStyle12wxFontWeightbRK8wxString14wxFontEncoding;	.scl	2;	.type	32;	.endef
	.seh_proc	_ZN6wxFontC1Ei12wxFontFamily11wxFontStyle12wxFontWeightbRK8wxString14wxFontEncoding
_ZN6wxFontC1Ei12wxFontFamily11wxFontStyle12wxFontWeightbRK8wxString14wxFontEncoding:
.LFB9813:
	.file 24 "../wxMSW-3.0.5_gcc810_x64_Dev/include/wx/msw/font.h"
	.loc 24 41 5
	.cfi_startproc
	pushq	%rbp
	.seh_pushreg	%rbp
	.cfi_def_cfa_offset 16
	.cfi_offset 6, -16
	pushq	%rbx
	.seh_pushreg	%rbx
	.cfi_def_cfa_offset 24
	.cfi_offset 3, -24
	subq	$88, %rsp
	.seh_stackalloc	88
	.cfi_def_cfa_offset 112
	leaq	128(%rsp), %rbp
	.seh_setframe	%rbp, 128
	.cfi_def_cfa 6, -16
	.seh_endprologue
	movq	%rcx, -16(%rbp)
	movl	%edx, -8(%rbp)
	movl	%r8d, 0(%rbp)
	movl	%r9d, 8(%rbp)
	movl	24(%rbp), %eax
	movb	%al, -52(%rbp)
.LBB52:
	.loc 24 48 5
	movq	-16(%rbp), %rax
	movq	%rax, %rcx
	call	_ZN10wxFontBaseC2Ev
	movq	.refptr._ZTV6wxFont(%rip), %rax
	leaq	16(%rax), %rdx
	movq	-16(%rbp), %rax
	movq	%rdx, (%rax)
	.loc 24 49 15
	movzbl	-52(%rbp), %eax
	movl	8(%rbp), %r9d
	movl	0(%rbp), %r8d
	movl	-8(%rbp), %edx
	movl	40(%rbp), %ecx
	movl	%ecx, 56(%rsp)
	movq	32(%rbp), %rcx
	movq	%rcx, 48(%rsp)
	movl	%eax, 40(%rsp)
	movl	16(%rbp), %eax
	movl	%eax, 32(%rsp)
	movq	-16(%rbp), %rcx
.LEHB18:
	call	_ZN6wxFont6CreateEi12wxFontFamily11wxFontStyle12wxFontWeightbRK8wxString14wxFontEncoding
.LEHE18:
.LBE52:
	.loc 24 50 5
	jmp	.L181
.L180:
	movq	%rax, %rbx
.LBB53:
	.loc 24 48 5
	movq	-16(%rbp), %rax
	movq	%rax, %rcx
	call	_ZN10wxFontBaseD2Ev
	movq	%rbx, %rax
	movq	%rax, %rcx
.LEHB19:
	call	_Unwind_Resume
	nop
.LEHE19:
.L181:
.LBE53:
	.loc 24 50 5
	addq	$88, %rsp
	popq	%rbx
	.cfi_restore 3
	popq	%rbp
	.cfi_restore 6
	.cfi_def_cfa 7, -72
	ret
	.cfi_endproc
.LFE9813:
	.seh_handler	__gxx_personality_seh0, @unwind, @except
	.seh_handlerdata
.LLSDA9813:
	.byte	0xff
	.byte	0xff
	.byte	0x1
	.uleb128 .LLSDACSE9813-.LLSDACSB9813
.LLSDACSB9813:
	.uleb128 .LEHB18-.LFB9813
	.uleb128 .LEHE18-.LEHB18
	.uleb128 .L180-.LFB9813
	.uleb128 0
	.uleb128 .LEHB19-.LFB9813
	.uleb128 .LEHE19-.LEHB19
	.uleb128 0
	.uleb128 0
.LLSDACSE9813:
	.section	.text$_ZN6wxFontC1Ei12wxFontFamily11wxFontStyle12wxFontWeightbRK8wxString14wxFontEncoding,"x"
	.linkonce discard
	.seh_endproc
	.section	.text$_ZN6wxFont6CreateEi12wxFontFamily11wxFontStyle12wxFontWeightbRK8wxString14wxFontEncoding,"x"
	.linkonce discard
	.align 2
	.globl	_ZN6wxFont6CreateEi12wxFontFamily11wxFontStyle12wxFontWeightbRK8wxString14wxFontEncoding
	.def	_ZN6wxFont6CreateEi12wxFontFamily11wxFontStyle12wxFontWeightbRK8wxString14wxFontEncoding;	.scl	2;	.type	32;	.endef
	.seh_proc	_ZN6wxFont6CreateEi12wxFontFamily11wxFontStyle12wxFontWeightbRK8wxString14wxFontEncoding
_ZN6wxFont6CreateEi12wxFontFamily11wxFontStyle12wxFontWeightbRK8wxString14wxFontEncoding:
.LFB9814:
	.loc 24 52 10
	.cfi_startproc
	pushq	%rbp
	.seh_pushreg	%rbp
	.cfi_def_cfa_offset 16
	.cfi_offset 6, -16
	movq	%rsp, %rbp
	.seh_setframe	%rbp, 0
	.cfi_def_cfa_register 6
	subq	$96, %rsp
	.seh_stackalloc	96
	.seh_endprologue
	movq	%rcx, 16(%rbp)
	movl	%edx, 24(%rbp)
	movl	%r8d, 32(%rbp)
	movl	%r9d, 40(%rbp)
	movl	56(%rbp), %eax
	movb	%al, -4(%rbp)
	.loc 24 60 24
	movzbl	-4(%rbp), %eax
	movl	24(%rbp), %edx
	movl	72(%rbp), %ecx
	movl	%ecx, 72(%rsp)
	movq	64(%rbp), %rcx
	movq	%rcx, 64(%rsp)
	movl	%eax, 56(%rsp)
	movl	48(%rbp), %eax
	movl	%eax, 48(%rsp)
	movl	40(%rbp), %eax
	movl	%eax, 40(%rsp)
	movl	32(%rbp), %eax
	movl	%eax, 32(%rsp)
	movl	$0, %r9d
	movq	.refptr.wxDefaultSize(%rip), %r8
	movq	16(%rbp), %rcx
	call	_ZN6wxFont8DoCreateEiRK6wxSizeb12wxFontFamily11wxFontStyle12wxFontWeightbRK8wxString14wxFontEncoding
	.loc 24 62 5
	addq	$96, %rsp
	popq	%rbp
	.cfi_restore 6
	.cfi_def_cfa 7, 8
	ret
	.cfi_endproc
.LFE9814:
	.seh_endproc
	.section	.text$_Z16wxGetTranslationRK8wxStringS1_,"x"
	.linkonce discard
	.globl	_Z16wxGetTranslationRK8wxStringS1_
	.def	_Z16wxGetTranslationRK8wxStringS1_;	.scl	2;	.type	32;	.endef
	.seh_proc	_Z16wxGetTranslationRK8wxStringS1_
_Z16wxGetTranslationRK8wxStringS1_:
.LFB9939:
	.file 25 "../wxMSW-3.0.5_gcc810_x64_Dev/include/wx/translation.h"
	.loc 25 245 1
	.cfi_startproc
	pushq	%rbp
	.seh_pushreg	%rbp
	.cfi_def_cfa_offset 16
	.cfi_offset 6, -16
	movq	%rsp, %rbp
	.seh_setframe	%rbp, 0
	.cfi_def_cfa_register 6
	subq	$48, %rsp
	.seh_stackalloc	48
	.seh_endprologue
	movq	%rcx, 16(%rbp)
	movq	%rdx, 24(%rbp)
	.loc 25 246 48
	call	_ZN14wxTranslations3GetEv
	movq	%rax, -8(%rbp)
	.loc 25 247 38
	cmpq	$0, -8(%rbp)
	je	.L185
	.loc 25 247 66 discriminator 1
	movq	24(%rbp), %rdx
	movq	-8(%rbp), %rax
	movq	%rdx, %r8
	movq	16(%rbp), %rdx
	movq	%rax, %rcx
	call	_ZNK14wxTranslations19GetTranslatedStringERK8wxStringS2_
	jmp	.L186
.L185:
	.loc 25 247 38 discriminator 2
	movl	$0, %eax
.L186:
	.loc 25 248 39
	movq	%rax, -16(%rbp)
	.loc 25 249 5
	cmpq	$0, -16(%rbp)
	je	.L187
	.loc 25 250 17
	movq	-16(%rbp), %rax
	jmp	.L188
.L187:
	.loc 25 254 57
	movq	16(%rbp), %rcx
	call	_ZN14wxTranslations21GetUntranslatedStringERK8wxString
.L188:
	.loc 25 255 1
	addq	$48, %rsp
	popq	%rbp
	.cfi_restore 6
	.cfi_def_cfa 7, 8
	ret
	.cfi_endproc
.LFE9939:
	.seh_endproc
	.section	.text$_ZN11wxValidatorC2ERKS_,"x"
	.linkonce discard
	.align 2
	.globl	_ZN11wxValidatorC2ERKS_
	.def	_ZN11wxValidatorC2ERKS_;	.scl	2;	.type	32;	.endef
	.seh_proc	_ZN11wxValidatorC2ERKS_
_ZN11wxValidatorC2ERKS_:
.LFB9959:
	.file 26 "../wxMSW-3.0.5_gcc810_x64_Dev/include/wx/validate.h"
	.loc 26 39 5
	.cfi_startproc
	pushq	%rbp
	.seh_pushreg	%rbp
	.cfi_def_cfa_offset 16
	.cfi_offset 6, -16
	movq	%rsp, %rbp
	.seh_setframe	%rbp, 0
	.cfi_def_cfa_register 6
	subq	$32, %rsp
	.seh_stackalloc	32
	.seh_endprologue
	movq	%rcx, 16(%rbp)
	movq	%rdx, 24(%rbp)
.LBB54:
	.loc 26 41 52
	movq	16(%rbp), %rax
	movq	%rax, %rcx
	call	_ZN12wxEvtHandlerC2Ev
	movq	.refptr._ZTV11wxValidator(%rip), %rax
	leaq	16(%rax), %rdx
	movq	16(%rbp), %rax
	movq	%rdx, (%rax)
	.loc 26 41 35
	movq	24(%rbp), %rax
	movq	120(%rax), %rdx
	.loc 26 41 52
	movq	16(%rbp), %rax
	movq	%rdx, 120(%rax)
.LBE54:
	.loc 26 43 5
	nop
	addq	$32, %rsp
	popq	%rbp
	.cfi_restore 6
	.cfi_def_cfa 7, 8
	ret
	.cfi_endproc
.LFE9959:
	.seh_endproc
	.section	.text$_ZNK11wxValidator5CloneEv,"x"
	.linkonce discard
	.align 2
	.globl	_ZNK11wxValidator5CloneEv
	.def	_ZNK11wxValidator5CloneEv;	.scl	2;	.type	32;	.endef
	.seh_proc	_ZNK11wxValidator5CloneEv
_ZNK11wxValidator5CloneEv:
.LFB9961:
	.loc 26 50 23
	.cfi_startproc
	pushq	%rbp
	.seh_pushreg	%rbp
	.cfi_def_cfa_offset 16
	.cfi_offset 6, -16
	movq	%rsp, %rbp
	.seh_setframe	%rbp, 0
	.cfi_def_cfa_register 6
	.seh_endprologue
	movq	%rcx, 16(%rbp)
	.loc 26 51 17
	movl	$0, %eax
	.loc 26 51 23
	popq	%rbp
	.cfi_restore 6
	.cfi_def_cfa 7, 8
	ret
	.cfi_endproc
.LFE9961:
	.seh_endproc
	.section	.text$_ZN12wxWindowBase7SetNameERK8wxString,"x"
	.linkonce discard
	.align 2
	.globl	_ZN12wxWindowBase7SetNameERK8wxString
	.def	_ZN12wxWindowBase7SetNameERK8wxString;	.scl	2;	.type	32;	.endef
	.seh_proc	_ZN12wxWindowBase7SetNameERK8wxString
_ZN12wxWindowBase7SetNameERK8wxString:
.LFB10133:
	.file 27 "../wxMSW-3.0.5_gcc810_x64_Dev/include/wx/window.h"
	.loc 27 215 18
	.cfi_startproc
	pushq	%rbp
	.seh_pushreg	%rbp
	.cfi_def_cfa_offset 16
	.cfi_offset 6, -16
	movq	%rsp, %rbp
	.seh_setframe	%rbp, 0
	.cfi_def_cfa_register 6
	subq	$32, %rsp
	.seh_stackalloc	32
	.seh_endprologue
	movq	%rcx, 16(%rbp)
	movq	%rdx, 24(%rbp)
	.loc 27 215 67
	movq	16(%rbp), %rax
	addq	$408, %rax
	movq	24(%rbp), %rdx
	movq	%rax, %rcx
	call	_ZN8wxStringaSERKS_
	.loc 27 215 73
	nop
	addq	$32, %rsp
	popq	%rbp
	.cfi_restore 6
	.cfi_def_cfa 7, 8
	ret
	.cfi_endproc
.LFE10133:
	.seh_endproc
	.section	.text$_ZNK12wxWindowBase7GetNameEv,"x"
	.linkonce discard
	.align 2
	.globl	_ZNK12wxWindowBase7GetNameEv
	.def	_ZNK12wxWindowBase7GetNameEv;	.scl	2;	.type	32;	.endef
	.seh_proc	_ZNK12wxWindowBase7GetNameEv
_ZNK12wxWindowBase7GetNameEv:
.LFB10134:
	.loc 27 216 22
	.cfi_startproc
	pushq	%rbp
	.seh_pushreg	%rbp
	.cfi_def_cfa_offset 16
	.cfi_offset 6, -16
	movq	%rsp, %rbp
	.seh_setframe	%rbp, 0
	.cfi_def_cfa_register 6
	subq	$32, %rsp
	.seh_stackalloc	32
	.seh_endprologue
	movq	%rcx, 16(%rbp)
	movq	%rdx, 24(%rbp)
	.loc 27 216 47
	movq	24(%rbp), %rax
	addq	$408, %rax
	movq	%rax, %rdx
	movq	16(%rbp), %rcx
	call	_ZN8wxStringC1ERKS_
	.loc 27 216 61
	movq	16(%rbp), %rax
	addq	$32, %rsp
	popq	%rbp
	.cfi_restore 6
	.cfi_def_cfa 7, 8
	ret
	.cfi_endproc
.LFE10134:
	.seh_endproc
	.section	.text$_ZNK12wxWindowBase16GetWindowVariantEv,"x"
	.linkonce discard
	.align 2
	.globl	_ZNK12wxWindowBase16GetWindowVariantEv
	.def	_ZNK12wxWindowBase16GetWindowVariantEv;	.scl	2;	.type	32;	.endef
	.seh_proc	_ZNK12wxWindowBase16GetWindowVariantEv
_ZNK12wxWindowBase16GetWindowVariantEv:
.LFB10135:
	.loc 27 221 21
	.cfi_startproc
	pushq	%rbp
	.seh_pushreg	%rbp
	.cfi_def_cfa_offset 16
	.cfi_offset 6, -16
	movq	%rsp, %rbp
	.seh_setframe	%rbp, 0
	.cfi_def_cfa_register 6
	.seh_endprologue
	movq	%rcx, 16(%rbp)
	.loc 27 221 55
	movq	16(%rbp), %rax
	movl	504(%rax), %eax
	.loc 27 221 72
	popq	%rbp
	.cfi_restore 6
	.cfi_def_cfa 7, 8
	ret
	.cfi_endproc
.LFE10135:
	.seh_endproc
	.section	.text$_ZN12wxWindowBase13SetClientSizeERK6wxSize,"x"
	.linkonce discard
	.align 2
	.globl	_ZN12wxWindowBase13SetClientSizeERK6wxSize
	.def	_ZN12wxWindowBase13SetClientSizeERK6wxSize;	.scl	2;	.type	32;	.endef
	.seh_proc	_ZN12wxWindowBase13SetClientSizeERK6wxSize
_ZN12wxWindowBase13SetClientSizeERK6wxSize:
.LFB10150:
	.loc 27 293 10
	.cfi_startproc
	pushq	%rbp
	.seh_pushreg	%rbp
	.cfi_def_cfa_offset 16
	.cfi_offset 6, -16
	movq	%rsp, %rbp
	.seh_setframe	%rbp, 0
	.cfi_def_cfa_register 6
	subq	$32, %rsp
	.seh_stackalloc	32
	.seh_endprologue
	movq	%rcx, 16(%rbp)
	movq	%rdx, 24(%rbp)
	.loc 27 294 41
	movq	16(%rbp), %rax
	movq	(%rax), %rax
	addq	$1376, %rax
	movq	(%rax), %rax
	.loc 27 294 40
	movq	24(%rbp), %rdx
	movl	4(%rdx), %ecx
	.loc 27 294 32
	movq	24(%rbp), %rdx
	movl	(%rdx), %edx
	.loc 27 294 26
	movl	%ecx, %r8d
	movq	16(%rbp), %rcx
	call	*%rax
.LVL5:
	.loc 27 294 44
	nop
	addq	$32, %rsp
	popq	%rbp
	.cfi_restore 6
	.cfi_def_cfa 7, 8
	ret
	.cfi_endproc
.LFE10150:
	.seh_endproc
	.section	.text$_ZNK12wxWindowBase13GetClientSizeEv,"x"
	.linkonce discard
	.align 2
	.globl	_ZNK12wxWindowBase13GetClientSizeEv
	.def	_ZNK12wxWindowBase13GetClientSizeEv;	.scl	2;	.type	32;	.endef
	.seh_proc	_ZNK12wxWindowBase13GetClientSizeEv
_ZNK12wxWindowBase13GetClientSizeEv:
.LFB10159:
	.loc 27 332 12
	.cfi_startproc
	pushq	%rbp
	.seh_pushreg	%rbp
	.cfi_def_cfa_offset 16
	.cfi_offset 6, -16
	movq	%rsp, %rbp
	.seh_setframe	%rbp, 0
	.cfi_def_cfa_register 6
	subq	$48, %rsp
	.seh_stackalloc	48
	.seh_endprologue
	movq	%rcx, 16(%rbp)
	.loc 27 335 31
	movq	16(%rbp), %rax
	movq	(%rax), %rax
	addq	$1328, %rax
	movq	(%rax), %r9
	.loc 27 335 24
	leaq	-16(%rbp), %rdx
	leaq	-12(%rbp), %rax
	movq	%rdx, %r8
	movq	%rax, %rdx
	movq	16(%rbp), %rcx
	call	*%r9
.LVL6:
	.loc 27 337 16
	movl	-16(%rbp), %ecx
	movl	-12(%rbp), %edx
	leaq	-8(%rbp), %rax
	movl	%ecx, %r8d
	movq	%rax, %rcx
	call	_ZN6wxSizeC1Eii
	.loc 27 337 27
	movq	-8(%rbp), %rax
	.loc 27 338 5
	addq	$48, %rsp
	popq	%rbp
	.cfi_restore 6
	.cfi_def_cfa 7, 8
	ret
	.cfi_endproc
.LFE10159:
	.seh_endproc
	.section	.text$_ZN12wxWindowBase12SetSizeHintsEiiiiii,"x"
	.linkonce discard
	.align 2
	.globl	_ZN12wxWindowBase12SetSizeHintsEiiiiii
	.def	_ZN12wxWindowBase12SetSizeHintsEiiiiii;	.scl	2;	.type	32;	.endef
	.seh_proc	_ZN12wxWindowBase12SetSizeHintsEiiiiii
_ZN12wxWindowBase12SetSizeHintsEiiiiii:
.LFB10171:
	.loc 27 446 18
	.cfi_startproc
	pushq	%rbp
	.seh_pushreg	%rbp
	.cfi_def_cfa_offset 16
	.cfi_offset 6, -16
	movq	%rsp, %rbp
	.seh_setframe	%rbp, 0
	.cfi_def_cfa_register 6
	subq	$64, %rsp
	.seh_stackalloc	64
	.seh_endprologue
	movq	%rcx, 16(%rbp)
	movl	%edx, 24(%rbp)
	movl	%r8d, 32(%rbp)
	movl	%r9d, 40(%rbp)
	.loc 27 449 56
	movq	16(%rbp), %rax
	movq	(%rax), %rax
	addq	$1384, %rax
	movq	(%rax), %rax
	.loc 27 449 21
	movl	40(%rbp), %r9d
	movl	32(%rbp), %r8d
	movl	24(%rbp), %edx
	movl	64(%rbp), %ecx
	movl	%ecx, 48(%rsp)
	movl	56(%rbp), %ecx
	movl	%ecx, 40(%rsp)
	movl	48(%rbp), %ecx
	movl	%ecx, 32(%rsp)
	movq	16(%rbp), %rcx
	call	*%rax
.LVL7:
	.loc 27 449 59
	nop
	addq	$64, %rsp
	popq	%rbp
	.cfi_restore 6
	.cfi_def_cfa 7, 8
	ret
	.cfi_endproc
.LFE10171:
	.seh_endproc
	.section	.text$_ZN12wxWindowBase16SetMinClientSizeERK6wxSize,"x"
	.linkonce discard
	.align 2
	.globl	_ZN12wxWindowBase16SetMinClientSizeERK6wxSize
	.def	_ZN12wxWindowBase16SetMinClientSizeERK6wxSize;	.scl	2;	.type	32;	.endef
	.seh_proc	_ZN12wxWindowBase16SetMinClientSizeERK6wxSize
_ZN12wxWindowBase16SetMinClientSizeERK6wxSize:
.LFB10173:
	.loc 27 473 18
	.cfi_startproc
	pushq	%rbp
	.seh_pushreg	%rbp
	.cfi_def_cfa_offset 16
	.cfi_offset 6, -16
	pushq	%rbx
	.seh_pushreg	%rbx
	.cfi_def_cfa_offset 24
	.cfi_offset 3, -24
	subq	$56, %rsp
	.seh_stackalloc	56
	.cfi_def_cfa_offset 80
	leaq	128(%rsp), %rbp
	.seh_setframe	%rbp, 128
	.cfi_def_cfa 6, -48
	.seh_endprologue
	movq	%rcx, -48(%rbp)
	movq	%rdx, -40(%rbp)
	.loc 27 474 46
	movq	-48(%rbp), %rax
	movq	(%rax), %rax
	addq	$312, %rax
	movq	(%rax), %rbx
	.loc 27 474 45
	movq	-48(%rbp), %rax
	movq	(%rax), %rax
	addq	$256, %rax
	movq	(%rax), %rax
	movq	-40(%rbp), %rdx
	movq	-48(%rbp), %rcx
	call	*%rax
.LVL8:
	movq	%rax, -88(%rbp)
	.loc 27 474 21
	leaq	-88(%rbp), %rax
	movq	%rax, %rdx
	movq	-48(%rbp), %rcx
	call	*%rbx
.LVL9:
	.loc 27 474 49
	nop
	addq	$56, %rsp
	popq	%rbx
	.cfi_restore 3
	popq	%rbp
	.cfi_restore 6
	.cfi_def_cfa 7, -40
	ret
	.cfi_endproc
.LFE10173:
	.seh_endproc
	.section	.text$_ZN12wxWindowBase16SetMaxClientSizeERK6wxSize,"x"
	.linkonce discard
	.align 2
	.globl	_ZN12wxWindowBase16SetMaxClientSizeERK6wxSize
	.def	_ZN12wxWindowBase16SetMaxClientSizeERK6wxSize;	.scl	2;	.type	32;	.endef
	.seh_proc	_ZN12wxWindowBase16SetMaxClientSizeERK6wxSize
_ZN12wxWindowBase16SetMaxClientSizeERK6wxSize:
.LFB10174:
	.loc 27 475 18
	.cfi_startproc
	pushq	%rbp
	.seh_pushreg	%rbp
	.cfi_def_cfa_offset 16
	.cfi_offset 6, -16
	pushq	%rbx
	.seh_pushreg	%rbx
	.cfi_def_cfa_offset 24
	.cfi_offset 3, -24
	subq	$56, %rsp
	.seh_stackalloc	56
	.cfi_def_cfa_offset 80
	leaq	128(%rsp), %rbp
	.seh_setframe	%rbp, 128
	.cfi_def_cfa 6, -48
	.seh_endprologue
	movq	%rcx, -48(%rbp)
	movq	%rdx, -40(%rbp)
	.loc 27 476 46
	movq	-48(%rbp), %rax
	movq	(%rax), %rax
	addq	$320, %rax
	movq	(%rax), %rbx
	.loc 27 476 45
	movq	-48(%rbp), %rax
	movq	(%rax), %rax
	addq	$256, %rax
	movq	(%rax), %rax
	movq	-40(%rbp), %rdx
	movq	-48(%rbp), %rcx
	call	*%rax
.LVL10:
	movq	%rax, -88(%rbp)
	.loc 27 476 21
	leaq	-88(%rbp), %rax
	movq	%rax, %rdx
	movq	-48(%rbp), %rcx
	call	*%rbx
.LVL11:
	.loc 27 476 49
	nop
	addq	$56, %rsp
	popq	%rbx
	.cfi_restore 3
	popq	%rbp
	.cfi_restore 6
	.cfi_def_cfa 7, -40
	ret
	.cfi_endproc
.LFE10174:
	.seh_endproc
	.section	.text$_ZNK12wxWindowBase10GetMinSizeEv,"x"
	.linkonce discard
	.align 2
	.globl	_ZNK12wxWindowBase10GetMinSizeEv
	.def	_ZNK12wxWindowBase10GetMinSizeEv;	.scl	2;	.type	32;	.endef
	.seh_proc	_ZNK12wxWindowBase10GetMinSizeEv
_ZNK12wxWindowBase10GetMinSizeEv:
.LFB10175:
	.loc 27 481 20
	.cfi_startproc
	pushq	%rbp
	.seh_pushreg	%rbp
	.cfi_def_cfa_offset 16
	.cfi_offset 6, -16
	movq	%rsp, %rbp
	.seh_setframe	%rbp, 0
	.cfi_def_cfa_register 6
	subq	$48, %rsp
	.seh_stackalloc	48
	.seh_endprologue
	movq	%rcx, 16(%rbp)
	.loc 27 481 67
	movq	16(%rbp), %rax
	movl	180(%rax), %ecx
	.loc 27 481 55
	movq	16(%rbp), %rax
	movl	176(%rax), %edx
	.loc 27 481 48
	leaq	-8(%rbp), %rax
	movl	%ecx, %r8d
	movq	%rax, %rcx
	call	_ZN6wxSizeC1Eii
	.loc 27 481 78
	movq	-8(%rbp), %rax
	.loc 27 481 81
	addq	$48, %rsp
	popq	%rbp
	.cfi_restore 6
	.cfi_def_cfa 7, 8
	ret
	.cfi_endproc
.LFE10175:
	.seh_endproc
	.section	.text$_ZNK12wxWindowBase10GetMaxSizeEv,"x"
	.linkonce discard
	.align 2
	.globl	_ZNK12wxWindowBase10GetMaxSizeEv
	.def	_ZNK12wxWindowBase10GetMaxSizeEv;	.scl	2;	.type	32;	.endef
	.seh_proc	_ZNK12wxWindowBase10GetMaxSizeEv
_ZNK12wxWindowBase10GetMaxSizeEv:
.LFB10176:
	.loc 27 482 20
	.cfi_startproc
	pushq	%rbp
	.seh_pushreg	%rbp
	.cfi_def_cfa_offset 16
	.cfi_offset 6, -16
	movq	%rsp, %rbp
	.seh_setframe	%rbp, 0
	.cfi_def_cfa_register 6
	subq	$48, %rsp
	.seh_stackalloc	48
	.seh_endprologue
	movq	%rcx, 16(%rbp)
	.loc 27 482 67
	movq	16(%rbp), %rax
	movl	188(%rax), %ecx
	.loc 27 482 55
	movq	16(%rbp), %rax
	movl	184(%rax), %edx
	.loc 27 482 48
	leaq	-8(%rbp), %rax
	movl	%ecx, %r8d
	movq	%rax, %rcx
	call	_ZN6wxSizeC1Eii
	.loc 27 482 78
	movq	-8(%rbp), %rax
	.loc 27 482 81
	addq	$48, %rsp
	popq	%rbp
	.cfi_restore 6
	.cfi_def_cfa 7, 8
	ret
	.cfi_endproc
.LFE10176:
	.seh_endproc
	.section	.text$_ZNK12wxWindowBase16GetMinClientSizeEv,"x"
	.linkonce discard
	.align 2
	.globl	_ZNK12wxWindowBase16GetMinClientSizeEv
	.def	_ZNK12wxWindowBase16GetMinClientSizeEv;	.scl	2;	.type	32;	.endef
	.seh_proc	_ZNK12wxWindowBase16GetMinClientSizeEv
_ZNK12wxWindowBase16GetMinClientSizeEv:
.LFB10177:
	.loc 27 485 20
	.cfi_startproc
	pushq	%rbp
	.seh_pushreg	%rbp
	.cfi_def_cfa_offset 16
	.cfi_offset 6, -16
	pushq	%rbx
	.seh_pushreg	%rbx
	.cfi_def_cfa_offset 24
	.cfi_offset 3, -24
	subq	$56, %rsp
	.seh_stackalloc	56
	.cfi_def_cfa_offset 80
	leaq	128(%rsp), %rbp
	.seh_setframe	%rbp, 128
	.cfi_def_cfa 6, -48
	.seh_endprologue
	movq	%rcx, -48(%rbp)
	.loc 27 486 49
	movq	-48(%rbp), %rax
	movq	(%rax), %rax
	addq	$264, %rax
	movq	(%rax), %rbx
	.loc 27 486 48
	movq	-48(%rbp), %rax
	movq	(%rax), %rax
	addq	$344, %rax
	movq	(%rax), %rax
	movq	-48(%rbp), %rcx
	call	*%rax
.LVL12:
	movq	%rax, -88(%rbp)
	.loc 27 486 49
	leaq	-88(%rbp), %rax
	movq	%rax, %rdx
	movq	-48(%rbp), %rcx
	call	*%rbx
.LVL13:
	.loc 27 486 52
	addq	$56, %rsp
	popq	%rbx
	.cfi_restore 3
	popq	%rbp
	.cfi_restore 6
	.cfi_def_cfa 7, -40
	ret
	.cfi_endproc
.LFE10177:
	.seh_endproc
	.section	.text$_ZNK12wxWindowBase16GetMaxClientSizeEv,"x"
	.linkonce discard
	.align 2
	.globl	_ZNK12wxWindowBase16GetMaxClientSizeEv
	.def	_ZNK12wxWindowBase16GetMaxClientSizeEv;	.scl	2;	.type	32;	.endef
	.seh_proc	_ZNK12wxWindowBase16GetMaxClientSizeEv
_ZNK12wxWindowBase16GetMaxClientSizeEv:
.LFB10178:
	.loc 27 487 20
	.cfi_startproc
	pushq	%rbp
	.seh_pushreg	%rbp
	.cfi_def_cfa_offset 16
	.cfi_offset 6, -16
	pushq	%rbx
	.seh_pushreg	%rbx
	.cfi_def_cfa_offset 24
	.cfi_offset 3, -24
	subq	$56, %rsp
	.seh_stackalloc	56
	.cfi_def_cfa_offset 80
	leaq	128(%rsp), %rbp
	.seh_setframe	%rbp, 128
	.cfi_def_cfa 6, -48
	.seh_endprologue
	movq	%rcx, -48(%rbp)
	.loc 27 488 49
	movq	-48(%rbp), %rax
	movq	(%rax), %rax
	addq	$264, %rax
	movq	(%rax), %rbx
	.loc 27 488 48
	movq	-48(%rbp), %rax
	movq	(%rax), %rax
	addq	$352, %rax
	movq	(%rax), %rax
	movq	-48(%rbp), %rcx
	call	*%rax
.LVL14:
	movq	%rax, -88(%rbp)
	.loc 27 488 49
	leaq	-88(%rbp), %rax
	movq	%rax, %rdx
	movq	-48(%rbp), %rcx
	call	*%rbx
.LVL15:
	.loc 27 488 52
	addq	$56, %rsp
	popq	%rbx
	.cfi_restore 3
	popq	%rbp
	.cfi_restore 6
	.cfi_def_cfa 7, -40
	ret
	.cfi_endproc
.LFE10178:
	.seh_endproc
	.section	.text$_ZNK12wxWindowBase18GetBestVirtualSizeEv,"x"
	.linkonce discard
	.align 2
	.globl	_ZNK12wxWindowBase18GetBestVirtualSizeEv
	.def	_ZNK12wxWindowBase18GetBestVirtualSizeEv;	.scl	2;	.type	32;	.endef
	.seh_proc	_ZNK12wxWindowBase18GetBestVirtualSizeEv
_ZNK12wxWindowBase18GetBestVirtualSizeEv:
.LFB10187:
	.loc 27 527 20
	.cfi_startproc
	pushq	%rbp
	.seh_pushreg	%rbp
	.cfi_def_cfa_offset 16
	.cfi_offset 6, -16
	pushq	%rbx
	.seh_pushreg	%rbx
	.cfi_def_cfa_offset 24
	.cfi_offset 3, -24
	subq	$72, %rsp
	.seh_stackalloc	72
	.cfi_def_cfa_offset 96
	leaq	128(%rsp), %rbp
	.seh_setframe	%rbp, 128
	.cfi_def_cfa 6, -32
	.seh_endprologue
	movq	%rcx, -32(%rbp)
	.loc 27 529 38
	movq	-32(%rbp), %rcx
	call	_ZNK12wxWindowBase13GetClientSizeEv
	movq	%rax, -80(%rbp)
	.loc 27 530 34
	movq	-32(%rbp), %rcx
	call	_ZNK12wxWindowBase11GetBestSizeEv
	movq	%rax, -88(%rbp)
	.loc 27 532 16
	movl	-84(%rbp), %edx
	movl	-76(%rbp), %eax
	movl	%eax, %ecx
	call	_Z5wxMaxIiiEN24wxImplicitConversionTypeIT_T0_E5valueES1_S2_
	movl	%eax, %ebx
	movl	-88(%rbp), %edx
	movl	-80(%rbp), %eax
	movl	%eax, %ecx
	call	_Z5wxMaxIiiEN24wxImplicitConversionTypeIT_T0_E5valueES1_S2_
	movl	%eax, %edx
	leaq	-72(%rbp), %rax
	movl	%ebx, %r8d
	movq	%rax, %rcx
	call	_ZN6wxSizeC1Eii
	.loc 27 532 77
	movq	-72(%rbp), %rax
	.loc 27 533 5
	addq	$72, %rsp
	popq	%rbx
	.cfi_restore 3
	popq	%rbp
	.cfi_restore 6
	.cfi_def_cfa 7, -56
	ret
	.cfi_endproc
.LFE10187:
	.seh_endproc
	.section	.text$_ZNK12wxWindowBase21GetContentScaleFactorEv,"x"
	.linkonce discard
	.align 2
	.globl	_ZNK12wxWindowBase21GetContentScaleFactorEv
	.def	_ZNK12wxWindowBase21GetContentScaleFactorEv;	.scl	2;	.type	32;	.endef
	.seh_proc	_ZNK12wxWindowBase21GetContentScaleFactorEv
_ZNK12wxWindowBase21GetContentScaleFactorEv:
.LFB10188:
	.loc 27 537 20
	.cfi_startproc
	pushq	%rbp
	.seh_pushreg	%rbp
	.cfi_def_cfa_offset 16
	.cfi_offset 6, -16
	movq	%rsp, %rbp
	.seh_setframe	%rbp, 0
	.cfi_def_cfa_register 6
	.seh_endprologue
	movq	%rcx, 16(%rbp)
	.loc 27 538 14
	movsd	.LC7(%rip), %xmm0
	movq	%xmm0, %rax
	.loc 27 538 19
	movq	%rax, %xmm0
	popq	%rbp
	.cfi_restore 6
	.cfi_def_cfa 7, 8
	ret
	.cfi_endproc
.LFE10188:
	.seh_endproc
	.section	.text$_ZN12wxWindowBase7DisableEv,"x"
	.linkonce discard
	.align 2
	.globl	_ZN12wxWindowBase7DisableEv
	.def	_ZN12wxWindowBase7DisableEv;	.scl	2;	.type	32;	.endef
	.seh_proc	_ZN12wxWindowBase7DisableEv
_ZN12wxWindowBase7DisableEv:
.LFB10202:
	.loc 27 639 10
	.cfi_startproc
	pushq	%rbp
	.seh_pushreg	%rbp
	.cfi_def_cfa_offset 16
	.cfi_offset 6, -16
	movq	%rsp, %rbp
	.seh_setframe	%rbp, 0
	.cfi_def_cfa_register 6
	subq	$32, %rsp
	.seh_stackalloc	32
	.seh_endprologue
	movq	%rcx, 16(%rbp)
	.loc 27 639 41
	movq	16(%rbp), %rax
	movq	(%rax), %rax
	addq	$472, %rax
	movq	(%rax), %rax
	.loc 27 639 35
	movl	$0, %edx
	movq	16(%rbp), %rcx
	call	*%rax
.LVL16:
	.loc 27 639 44
	addq	$32, %rsp
	popq	%rbp
	.cfi_restore 6
	.cfi_def_cfa 7, 8
	ret
	.cfi_endproc
.LFE10202:
	.seh_endproc
	.section	.text$_ZNK12wxWindowBase7IsShownEv,"x"
	.linkonce discard
	.align 2
	.globl	_ZNK12wxWindowBase7IsShownEv
	.def	_ZNK12wxWindowBase7IsShownEv;	.scl	2;	.type	32;	.endef
	.seh_proc	_ZNK12wxWindowBase7IsShownEv
_ZNK12wxWindowBase7IsShownEv:
.LFB10203:
	.loc 27 641 18
	.cfi_startproc
	pushq	%rbp
	.seh_pushreg	%rbp
	.cfi_def_cfa_offset 16
	.cfi_offset 6, -16
	movq	%rsp, %rbp
	.seh_setframe	%rbp, 0
	.cfi_def_cfa_register 6
	.seh_endprologue
	movq	%rcx, 16(%rbp)
	.loc 27 641 43
	movq	16(%rbp), %rax
	movzbl	392(%rax), %eax
	shrb	%al
	andl	$1, %eax
	.loc 27 641 54
	popq	%rbp
	.cfi_restore 6
	.cfi_def_cfa 7, 8
	ret
	.cfi_endproc
.LFE10203:
	.seh_endproc
	.section	.text$_ZNK12wxWindowBase18GetWindowStyleFlagEv,"x"
	.linkonce discard
	.align 2
	.globl	_ZNK12wxWindowBase18GetWindowStyleFlagEv
	.def	_ZNK12wxWindowBase18GetWindowStyleFlagEv;	.scl	2;	.type	32;	.endef
	.seh_proc	_ZNK12wxWindowBase18GetWindowStyleFlagEv
_ZNK12wxWindowBase18GetWindowStyleFlagEv:
.LFB10206:
	.loc 27 665 18
	.cfi_startproc
	pushq	%rbp
	.seh_pushreg	%rbp
	.cfi_def_cfa_offset 16
	.cfi_offset 6, -16
	movq	%rsp, %rbp
	.seh_setframe	%rbp, 0
	.cfi_def_cfa_register 6
	.seh_endprologue
	movq	%rcx, 16(%rbp)
	.loc 27 665 54
	movq	16(%rbp), %rax
	movl	396(%rax), %eax
	.loc 27 665 69
	popq	%rbp
	.cfi_restore 6
	.cfi_def_cfa 7, 8
	ret
	.cfi_endproc
.LFE10206:
	.seh_endproc
	.section	.text$_ZNK12wxWindowBase7HasFlagEi,"x"
	.linkonce discard
	.align 2
	.globl	_ZNK12wxWindowBase7HasFlagEi
	.def	_ZNK12wxWindowBase7HasFlagEi;	.scl	2;	.type	32;	.endef
	.seh_proc	_ZNK12wxWindowBase7HasFlagEi
_ZNK12wxWindowBase7HasFlagEi:
.LFB10209:
	.loc 27 672 10
	.cfi_startproc
	pushq	%rbp
	.seh_pushreg	%rbp
	.cfi_def_cfa_offset 16
	.cfi_offset 6, -16
	movq	%rsp, %rbp
	.seh_setframe	%rbp, 0
	.cfi_def_cfa_register 6
	.seh_endprologue
	movq	%rcx, 16(%rbp)
	movl	%edx, 24(%rbp)
	.loc 27 672 44
	movq	16(%rbp), %rax
	movl	396(%rax), %eax
	.loc 27 672 58
	andl	24(%rbp), %eax
	.loc 27 672 69
	testl	%eax, %eax
	setne	%al
	.loc 27 672 72
	popq	%rbp
	.cfi_restore 6
	.cfi_def_cfa 7, 8
	ret
	.cfi_endproc
.LFE10209:
	.seh_endproc
	.section	.text$_ZNK12wxWindowBase10IsRetainedEv,"x"
	.linkonce discard
	.align 2
	.globl	_ZNK12wxWindowBase10IsRetainedEv
	.def	_ZNK12wxWindowBase10IsRetainedEv;	.scl	2;	.type	32;	.endef
	.seh_proc	_ZNK12wxWindowBase10IsRetainedEv
_ZNK12wxWindowBase10IsRetainedEv:
.LFB10210:
	.loc 27 673 18
	.cfi_startproc
	pushq	%rbp
	.seh_pushreg	%rbp
	.cfi_def_cfa_offset 16
	.cfi_offset 6, -16
	movq	%rsp, %rbp
	.seh_setframe	%rbp, 0
	.cfi_def_cfa_register 6
	subq	$32, %rsp
	.seh_stackalloc	32
	.seh_endprologue
	movq	%rcx, 16(%rbp)
	.loc 27 673 53
	movl	$0, %edx
	movq	16(%rbp), %rcx
	call	_ZNK12wxWindowBase7HasFlagEi
	.loc 27 673 67
	addq	$32, %rsp
	popq	%rbp
	.cfi_restore 6
	.cfi_def_cfa 7, 8
	ret
	.cfi_endproc
.LFE10210:
	.seh_endproc
	.section	.text$_ZN12wxWindowBase15SetThemeEnabledEb,"x"
	.linkonce discard
	.align 2
	.globl	_ZN12wxWindowBase15SetThemeEnabledEb
	.def	_ZN12wxWindowBase15SetThemeEnabledEb;	.scl	2;	.type	32;	.endef
	.seh_proc	_ZN12wxWindowBase15SetThemeEnabledEb
_ZN12wxWindowBase15SetThemeEnabledEb:
.LFB10214:
	.loc 27 694 18
	.cfi_startproc
	pushq	%rbp
	.seh_pushreg	%rbp
	.cfi_def_cfa_offset 16
	.cfi_offset 6, -16
	movq	%rsp, %rbp
	.seh_setframe	%rbp, 0
	.cfi_def_cfa_register 6
	.seh_endprologue
	movq	%rcx, 16(%rbp)
	movl	%edx, %eax
	movb	%al, 24(%rbp)
	.loc 27 694 69
	movq	16(%rbp), %rdx
	movzbl	24(%rbp), %eax
	movb	%al, 456(%rdx)
	.loc 27 694 84
	nop
	popq	%rbp
	.cfi_restore 6
	.cfi_def_cfa 7, 8
	ret
	.cfi_endproc
.LFE10214:
	.seh_endproc
	.section	.text$_ZNK12wxWindowBase15GetThemeEnabledEv,"x"
	.linkonce discard
	.align 2
	.globl	_ZNK12wxWindowBase15GetThemeEnabledEv
	.def	_ZNK12wxWindowBase15GetThemeEnabledEv;	.scl	2;	.type	32;	.endef
	.seh_proc	_ZNK12wxWindowBase15GetThemeEnabledEv
_ZNK12wxWindowBase15GetThemeEnabledEv:
.LFB10215:
	.loc 27 695 18
	.cfi_startproc
	pushq	%rbp
	.seh_pushreg	%rbp
	.cfi_def_cfa_offset 16
	.cfi_offset 6, -16
	movq	%rsp, %rbp
	.seh_setframe	%rbp, 0
	.cfi_def_cfa_register 6
	.seh_endprologue
	movq	%rcx, 16(%rbp)
	.loc 27 695 51
	movq	16(%rbp), %rax
	movzbl	456(%rax), %eax
	.loc 27 695 67
	popq	%rbp
	.cfi_restore 6
	.cfi_def_cfa 7, 8
	ret
	.cfi_endproc
.LFE10215:
	.seh_endproc
	.section	.text$_ZNK12wxWindowBase12AcceptsFocusEv,"x"
	.linkonce discard
	.align 2
	.globl	_ZNK12wxWindowBase12AcceptsFocusEv
	.def	_ZNK12wxWindowBase12AcceptsFocusEv;	.scl	2;	.type	32;	.endef
	.seh_proc	_ZNK12wxWindowBase12AcceptsFocusEv
_ZNK12wxWindowBase12AcceptsFocusEv:
.LFB10217:
	.loc 27 724 18
	.cfi_startproc
	pushq	%rbp
	.seh_pushreg	%rbp
	.cfi_def_cfa_offset 16
	.cfi_offset 6, -16
	movq	%rsp, %rbp
	.seh_setframe	%rbp, 0
	.cfi_def_cfa_register 6
	.seh_endprologue
	movq	%rcx, 16(%rbp)
	.loc 27 724 48
	movl	$1, %eax
	.loc 27 724 54
	popq	%rbp
	.cfi_restore 6
	.cfi_def_cfa 7, 8
	ret
	.cfi_endproc
.LFE10217:
	.seh_endproc
	.section	.text$_ZNK12wxWindowBase23AcceptsFocusRecursivelyEv,"x"
	.linkonce discard
	.align 2
	.globl	_ZNK12wxWindowBase23AcceptsFocusRecursivelyEv
	.def	_ZNK12wxWindowBase23AcceptsFocusRecursivelyEv;	.scl	2;	.type	32;	.endef
	.seh_proc	_ZNK12wxWindowBase23AcceptsFocusRecursivelyEv
_ZNK12wxWindowBase23AcceptsFocusRecursivelyEv:
.LFB10218:
	.loc 27 730 18
	.cfi_startproc
	pushq	%rbp
	.seh_pushreg	%rbp
	.cfi_def_cfa_offset 16
	.cfi_offset 6, -16
	movq	%rsp, %rbp
	.seh_setframe	%rbp, 0
	.cfi_def_cfa_register 6
	subq	$32, %rsp
	.seh_stackalloc	32
	.seh_endprologue
	movq	%rcx, 16(%rbp)
	.loc 27 730 72
	movq	16(%rbp), %rax
	movq	(%rax), %rax
	addq	$576, %rax
	movq	(%rax), %rax
	.loc 27 730 71
	movq	16(%rbp), %rcx
	call	*%rax
.LVL17:
	.loc 27 730 75
	addq	$32, %rsp
	popq	%rbp
	.cfi_restore 6
	.cfi_def_cfa 7, 8
	ret
	.cfi_endproc
.LFE10218:
	.seh_endproc
	.section	.text$_ZNK12wxWindowBase24AcceptsFocusFromKeyboardEv,"x"
	.linkonce discard
	.align 2
	.globl	_ZNK12wxWindowBase24AcceptsFocusFromKeyboardEv
	.def	_ZNK12wxWindowBase24AcceptsFocusFromKeyboardEv;	.scl	2;	.type	32;	.endef
	.seh_proc	_ZNK12wxWindowBase24AcceptsFocusFromKeyboardEv
_ZNK12wxWindowBase24AcceptsFocusFromKeyboardEv:
.LFB10219:
	.loc 27 735 18
	.cfi_startproc
	pushq	%rbp
	.seh_pushreg	%rbp
	.cfi_def_cfa_offset 16
	.cfi_offset 6, -16
	movq	%rsp, %rbp
	.seh_setframe	%rbp, 0
	.cfi_def_cfa_register 6
	subq	$32, %rsp
	.seh_stackalloc	32
	.seh_endprologue
	movq	%rcx, 16(%rbp)
	.loc 27 735 73
	movq	16(%rbp), %rax
	movq	(%rax), %rax
	addq	$576, %rax
	movq	(%rax), %rax
	.loc 27 735 72
	movq	16(%rbp), %rcx
	call	*%rax
.LVL18:
	.loc 27 735 76
	addq	$32, %rsp
	popq	%rbp
	.cfi_restore 6
	.cfi_def_cfa 7, 8
	ret
	.cfi_endproc
.LFE10219:
	.seh_endproc
	.section	.text$_ZNK12wxWindowBase12CanBeFocusedEv,"x"
	.linkonce discard
	.align 2
	.globl	_ZNK12wxWindowBase12CanBeFocusedEv
	.def	_ZNK12wxWindowBase12CanBeFocusedEv;	.scl	2;	.type	32;	.endef
	.seh_proc	_ZNK12wxWindowBase12CanBeFocusedEv
_ZNK12wxWindowBase12CanBeFocusedEv:
.LFB10220:
	.loc 27 744 18
	.cfi_startproc
	pushq	%rbp
	.seh_pushreg	%rbp
	.cfi_def_cfa_offset 16
	.cfi_offset 6, -16
	movq	%rsp, %rbp
	.seh_setframe	%rbp, 0
	.cfi_def_cfa_register 6
	subq	$32, %rsp
	.seh_stackalloc	32
	.seh_endprologue
	movq	%rcx, 16(%rbp)
	.loc 27 744 56
	movq	16(%rbp), %rax
	movq	(%rax), %rax
	addq	$480, %rax
	movq	(%rax), %rax
	.loc 27 744 55
	movq	16(%rbp), %rcx
	call	*%rax
.LVL19:
	.loc 27 744 58
	testb	%al, %al
	je	.L235
	.loc 27 744 70 discriminator 1
	movq	16(%rbp), %rcx
	call	_ZNK12wxWindowBase9IsEnabledEv
	.loc 27 744 58 discriminator 1
	testb	%al, %al
	je	.L235
	.loc 27 744 58 is_stmt 0 discriminator 3
	movl	$1, %eax
	jmp	.L236
.L235:
	.loc 27 744 58 discriminator 4
	movl	$0, %eax
.L236:
	.loc 27 744 74 is_stmt 1 discriminator 6
	addq	$32, %rsp
	popq	%rbp
	.cfi_restore 6
	.cfi_def_cfa 7, 8
	ret
	.cfi_endproc
.LFE10220:
	.seh_endproc
	.section	.text$_ZN12wxWindowBase11SetCanFocusEb,"x"
	.linkonce discard
	.align 2
	.globl	_ZN12wxWindowBase11SetCanFocusEb
	.def	_ZN12wxWindowBase11SetCanFocusEb;	.scl	2;	.type	32;	.endef
	.seh_proc	_ZN12wxWindowBase11SetCanFocusEb
_ZN12wxWindowBase11SetCanFocusEb:
.LFB10224:
	.loc 27 762 18
	.cfi_startproc
	pushq	%rbp
	.seh_pushreg	%rbp
	.cfi_def_cfa_offset 16
	.cfi_offset 6, -16
	movq	%rsp, %rbp
	.seh_setframe	%rbp, 0
	.cfi_def_cfa_register 6
	.seh_endprologue
	movq	%rcx, 16(%rbp)
	movl	%edx, %eax
	movb	%al, 24(%rbp)
	.loc 27 762 39
	nop
	popq	%rbp
	.cfi_restore 6
	.cfi_def_cfa 7, 8
	ret
	.cfi_endproc
.LFE10224:
	.seh_endproc
	.section	.text$_ZNK12wxWindowBase17IsClientAreaChildEPK8wxWindow,"x"
	.linkonce discard
	.align 2
	.globl	_ZNK12wxWindowBase17IsClientAreaChildEPK8wxWindow
	.def	_ZNK12wxWindowBase17IsClientAreaChildEPK8wxWindow;	.scl	2;	.type	32;	.endef
	.seh_proc	_ZNK12wxWindowBase17IsClientAreaChildEPK8wxWindow
_ZNK12wxWindowBase17IsClientAreaChildEPK8wxWindow:
.LFB10235:
	.loc 27 824 18
	.cfi_startproc
	pushq	%rbp
	.seh_pushreg	%rbp
	.cfi_def_cfa_offset 16
	.cfi_offset 6, -16
	movq	%rsp, %rbp
	.seh_setframe	%rbp, 0
	.cfi_def_cfa_register 6
	.seh_endprologue
	movq	%rcx, 16(%rbp)
	movq	%rdx, 24(%rbp)
	.loc 27 825 18
	movl	$1, %eax
	.loc 27 825 24
	popq	%rbp
	.cfi_restore 6
	.cfi_def_cfa 7, 8
	ret
	.cfi_endproc
.LFE10235:
	.seh_endproc
	.section	.text$_ZN12wxWindowBase12GetValidatorEv,"x"
	.linkonce discard
	.align 2
	.globl	_ZN12wxWindowBase12GetValidatorEv
	.def	_ZN12wxWindowBase12GetValidatorEv;	.scl	2;	.type	32;	.endef
	.seh_proc	_ZN12wxWindowBase12GetValidatorEv
_ZN12wxWindowBase12GetValidatorEv:
.LFB10239:
	.loc 27 924 26
	.cfi_startproc
	pushq	%rbp
	.seh_pushreg	%rbp
	.cfi_def_cfa_offset 16
	.cfi_offset 6, -16
	movq	%rsp, %rbp
	.seh_setframe	%rbp, 0
	.cfi_def_cfa_register 6
	.seh_endprologue
	movq	%rcx, 16(%rbp)
	.loc 27 924 50
	movq	16(%rbp), %rax
	movq	200(%rax), %rax
	.loc 27 924 69
	popq	%rbp
	.cfi_restore 6
	.cfi_def_cfa 7, 8
	ret
	.cfi_endproc
.LFE10239:
	.seh_endproc
	.section	.text$_ZN18wxAcceleratorTableaSERKS_,"x"
	.linkonce discard
	.align 2
	.globl	_ZN18wxAcceleratorTableaSERKS_
	.def	_ZN18wxAcceleratorTableaSERKS_;	.scl	2;	.type	32;	.endef
	.seh_proc	_ZN18wxAcceleratorTableaSERKS_
_ZN18wxAcceleratorTableaSERKS_:
.LFB10241:
	.file 28 "../wxMSW-3.0.5_gcc810_x64_Dev/include/wx/msw/accel.h"
	.loc 28 20 7
	.cfi_startproc
	pushq	%rbp
	.seh_pushreg	%rbp
	.cfi_def_cfa_offset 16
	.cfi_offset 6, -16
	movq	%rsp, %rbp
	.seh_setframe	%rbp, 0
	.cfi_def_cfa_register 6
	subq	$32, %rsp
	.seh_stackalloc	32
	.seh_endprologue
	movq	%rcx, 16(%rbp)
	movq	%rdx, 24(%rbp)
	.loc 28 20 7
	movq	16(%rbp), %rax
	movq	24(%rbp), %rdx
	movq	%rax, %rcx
	call	_ZN8wxObjectaSERKS_
	movq	16(%rbp), %rax
	addq	$32, %rsp
	popq	%rbp
	.cfi_restore 6
	.cfi_def_cfa 7, 8
	ret
	.cfi_endproc
.LFE10241:
	.seh_endproc
	.section	.text$_ZN12wxWindowBase19SetAcceleratorTableERK18wxAcceleratorTable,"x"
	.linkonce discard
	.align 2
	.globl	_ZN12wxWindowBase19SetAcceleratorTableERK18wxAcceleratorTable
	.def	_ZN12wxWindowBase19SetAcceleratorTableERK18wxAcceleratorTable;	.scl	2;	.type	32;	.endef
	.seh_proc	_ZN12wxWindowBase19SetAcceleratorTableERK18wxAcceleratorTable
_ZN12wxWindowBase19SetAcceleratorTableERK18wxAcceleratorTable:
.LFB10240:
	.loc 27 943 18
	.cfi_startproc
	pushq	%rbp
	.seh_pushreg	%rbp
	.cfi_def_cfa_offset 16
	.cfi_offset 6, -16
	movq	%rsp, %rbp
	.seh_setframe	%rbp, 0
	.cfi_def_cfa_register 6
	subq	$32, %rsp
	.seh_stackalloc	32
	.seh_endprologue
	movq	%rcx, 16(%rbp)
	movq	%rdx, 24(%rbp)
	.loc 27 944 32
	movq	16(%rbp), %rax
	addq	$336, %rax
	movq	24(%rbp), %rdx
	movq	%rax, %rcx
	call	_ZN18wxAcceleratorTableaSERKS_
	.loc 27 944 39
	nop
	addq	$32, %rsp
	popq	%rbp
	.cfi_restore 6
	.cfi_def_cfa 7, 8
	ret
	.cfi_endproc
.LFE10240:
	.seh_endproc
	.section	.text$_ZNK12wxWindowBase10HasCaptureEv,"x"
	.linkonce discard
	.align 2
	.globl	_ZNK12wxWindowBase10HasCaptureEv
	.def	_ZNK12wxWindowBase10HasCaptureEv;	.scl	2;	.type	32;	.endef
	.seh_proc	_ZNK12wxWindowBase10HasCaptureEv
_ZNK12wxWindowBase10HasCaptureEv:
.LFB10245:
	.loc 27 995 18
	.cfi_startproc
	pushq	%rbp
	.seh_pushreg	%rbp
	.cfi_def_cfa_offset 16
	.cfi_offset 6, -16
	movq	%rsp, %rbp
	.seh_setframe	%rbp, 0
	.cfi_def_cfa_register 6
	subq	$32, %rsp
	.seh_stackalloc	32
	.seh_endprologue
	movq	%rcx, 16(%rbp)
	.loc 27 996 48
	call	_ZN12wxWindowBase10GetCaptureEv
	.loc 27 996 49
	cmpq	%rax, 16(%rbp)
	sete	%al
	.loc 27 996 52
	addq	$32, %rsp
	popq	%rbp
	.cfi_restore 6
	.cfi_def_cfa 7, 8
	ret
	.cfi_endproc
.LFE10245:
	.seh_endproc
	.section	.text$_ZN12wxWindowBase9PrepareDCER4wxDC,"x"
	.linkonce discard
	.align 2
	.globl	_ZN12wxWindowBase9PrepareDCER4wxDC
	.def	_ZN12wxWindowBase9PrepareDCER4wxDC;	.scl	2;	.type	32;	.endef
	.seh_proc	_ZN12wxWindowBase9PrepareDCER4wxDC
_ZN12wxWindowBase9PrepareDCER4wxDC:
.LFB10249:
	.loc 27 1028 18
	.cfi_startproc
	pushq	%rbp
	.seh_pushreg	%rbp
	.cfi_def_cfa_offset 16
	.cfi_offset 6, -16
	movq	%rsp, %rbp
	.seh_setframe	%rbp, 0
	.cfi_def_cfa_register 6
	.seh_endprologue
	movq	%rcx, 16(%rbp)
	movq	%rdx, 24(%rbp)
	.loc 27 1028 40
	nop
	popq	%rbp
	.cfi_restore 6
	.cfi_def_cfa 7, 8
	ret
	.cfi_endproc
.LFE10249:
	.seh_endproc
	.section	.text$_ZNK12wxWindowBase20GetDefaultAttributesEv,"x"
	.linkonce discard
	.align 2
	.globl	_ZNK12wxWindowBase20GetDefaultAttributesEv
	.def	_ZNK12wxWindowBase20GetDefaultAttributesEv;	.scl	2;	.type	32;	.endef
	.seh_proc	_ZNK12wxWindowBase20GetDefaultAttributesEv
_ZNK12wxWindowBase20GetDefaultAttributesEv:
.LFB10257:
	.loc 27 1065 32
	.cfi_startproc
	pushq	%rbp
	.seh_pushreg	%rbp
	.cfi_def_cfa_offset 16
	.cfi_offset 6, -16
	movq	%rsp, %rbp
	.seh_setframe	%rbp, 0
	.cfi_def_cfa_register 6
	subq	$32, %rsp
	.seh_stackalloc	32
	.seh_endprologue
	movq	%rcx, 16(%rbp)
	movq	%rdx, 24(%rbp)
	.loc 27 1067 60
	movq	24(%rbp), %rax
	movq	%rax, %rcx
	call	_ZNK12wxWindowBase16GetWindowVariantEv
	movl	%eax, %edx
	movq	16(%rbp), %rax
	movq	%rax, %rcx
	call	_ZN12wxWindowBase25GetClassDefaultAttributesE15wxWindowVariant
	.loc 27 1068 5
	movq	16(%rbp), %rax
	addq	$32, %rsp
	popq	%rbp
	.cfi_restore 6
	.cfi_def_cfa 7, 8
	ret
	.cfi_endproc
.LFE10257:
	.seh_endproc
	.section	.text$_ZNK12wxWindowBase24InheritsBackgroundColourEv,"x"
	.linkonce discard
	.align 2
	.globl	_ZNK12wxWindowBase24InheritsBackgroundColourEv
	.def	_ZNK12wxWindowBase24InheritsBackgroundColourEv;	.scl	2;	.type	32;	.endef
	.seh_proc	_ZNK12wxWindowBase24InheritsBackgroundColourEv
_ZNK12wxWindowBase24InheritsBackgroundColourEv:
.LFB10271:
	.loc 27 1084 10
	.cfi_startproc
	pushq	%rbp
	.seh_pushreg	%rbp
	.cfi_def_cfa_offset 16
	.cfi_offset 6, -16
	movq	%rsp, %rbp
	.seh_setframe	%rbp, 0
	.cfi_def_cfa_register 6
	.seh_endprologue
	movq	%rcx, 16(%rbp)
	.loc 27 1086 16
	movq	16(%rbp), %rax
	movzbl	392(%rax), %eax
	shrb	$7, %al
	.loc 27 1087 5
	popq	%rbp
	.cfi_restore 6
	.cfi_def_cfa 7, 8
	ret
	.cfi_endproc
.LFE10271:
	.seh_endproc
	.section	.text$_ZN12wxWindowBase24HasTransparentBackgroundEv,"x"
	.linkonce discard
	.align 2
	.globl	_ZN12wxWindowBase24HasTransparentBackgroundEv
	.def	_ZN12wxWindowBase24HasTransparentBackgroundEv;	.scl	2;	.type	32;	.endef
	.seh_proc	_ZN12wxWindowBase24HasTransparentBackgroundEv
_ZN12wxWindowBase24HasTransparentBackgroundEv:
.LFB10275:
	.loc 27 1109 18
	.cfi_startproc
	pushq	%rbp
	.seh_pushreg	%rbp
	.cfi_def_cfa_offset 16
	.cfi_offset 6, -16
	movq	%rsp, %rbp
	.seh_setframe	%rbp, 0
	.cfi_def_cfa_register 6
	.seh_endprologue
	movq	%rcx, 16(%rbp)
	.loc 27 1109 54
	movl	$0, %eax
	.loc 27 1109 61
	popq	%rbp
	.cfi_restore 6
	.cfi_def_cfa 7, 8
	ret
	.cfi_endproc
.LFE10275:
	.seh_endproc
	.section	.text$_ZNK12wxWindowBase16HasMultiplePagesEv,"x"
	.linkonce discard
	.align 2
	.globl	_ZNK12wxWindowBase16HasMultiplePagesEv
	.def	_ZNK12wxWindowBase16HasMultiplePagesEv;	.scl	2;	.type	32;	.endef
	.seh_proc	_ZNK12wxWindowBase16HasMultiplePagesEv
_ZNK12wxWindowBase16HasMultiplePagesEv:
.LFB10291:
	.loc 27 1229 18
	.cfi_startproc
	pushq	%rbp
	.seh_pushreg	%rbp
	.cfi_def_cfa_offset 16
	.cfi_offset 6, -16
	movq	%rsp, %rbp
	.seh_setframe	%rbp, 0
	.cfi_def_cfa_register 6
	.seh_endprologue
	movq	%rcx, 16(%rbp)
	.loc 27 1229 52
	movl	$0, %eax
	.loc 27 1229 59
	popq	%rbp
	.cfi_restore 6
	.cfi_def_cfa 7, 8
	ret
	.cfi_endproc
.LFE10291:
	.seh_endproc
	.section	.text$_ZN12wxWindowBase20AlwaysShowScrollbarsEbb,"x"
	.linkonce discard
	.align 2
	.globl	_ZN12wxWindowBase20AlwaysShowScrollbarsEbb
	.def	_ZN12wxWindowBase20AlwaysShowScrollbarsEbb;	.scl	2;	.type	32;	.endef
	.seh_proc	_ZN12wxWindowBase20AlwaysShowScrollbarsEbb
_ZN12wxWindowBase20AlwaysShowScrollbarsEbb:
.LFB10298:
	.loc 27 1270 18
	.cfi_startproc
	pushq	%rbp
	.seh_pushreg	%rbp
	.cfi_def_cfa_offset 16
	.cfi_offset 6, -16
	movq	%rsp, %rbp
	.seh_setframe	%rbp, 0
	.cfi_def_cfa_register 6
	.seh_endprologue
	movq	%rcx, 16(%rbp)
	movl	%edx, %eax
	movl	%r8d, %edx
	movb	%al, 24(%rbp)
	movl	%edx, %eax
	movb	%al, 32(%rbp)
	.loc 27 1273 5
	nop
	popq	%rbp
	.cfi_restore 6
	.cfi_def_cfa 7, 8
	ret
	.cfi_endproc
.LFE10298:
	.seh_endproc
	.section	.text$_ZNK12wxWindowBase22IsScrollbarAlwaysShownEi,"x"
	.linkonce discard
	.align 2
	.globl	_ZNK12wxWindowBase22IsScrollbarAlwaysShownEi
	.def	_ZNK12wxWindowBase22IsScrollbarAlwaysShownEi;	.scl	2;	.type	32;	.endef
	.seh_proc	_ZNK12wxWindowBase22IsScrollbarAlwaysShownEi
_ZNK12wxWindowBase22IsScrollbarAlwaysShownEi:
.LFB10299:
	.loc 27 1277 18
	.cfi_startproc
	pushq	%rbp
	.seh_pushreg	%rbp
	.cfi_def_cfa_offset 16
	.cfi_offset 6, -16
	movq	%rsp, %rbp
	.seh_setframe	%rbp, 0
	.cfi_def_cfa_register 6
	.seh_endprologue
	movq	%rcx, 16(%rbp)
	movl	%edx, 24(%rbp)
	.loc 27 1279 16
	movl	$0, %eax
	.loc 27 1280 5
	popq	%rbp
	.cfi_restore 6
	.cfi_def_cfa 7, 8
	ret
	.cfi_endproc
.LFE10299:
	.seh_endproc
	.section	.text$_ZNK12wxWindowBase10GetToolTipEv,"x"
	.linkonce discard
	.align 2
	.globl	_ZNK12wxWindowBase10GetToolTipEv
	.def	_ZNK12wxWindowBase10GetToolTipEv;	.scl	2;	.type	32;	.endef
	.seh_proc	_ZNK12wxWindowBase10GetToolTipEv
_ZNK12wxWindowBase10GetToolTipEv:
.LFB10303:
	.loc 27 1327 16
	.cfi_startproc
	pushq	%rbp
	.seh_pushreg	%rbp
	.cfi_def_cfa_offset 16
	.cfi_offset 6, -16
	movq	%rsp, %rbp
	.seh_setframe	%rbp, 0
	.cfi_def_cfa_register 6
	.seh_endprologue
	movq	%rcx, 16(%rbp)
	.loc 27 1327 44
	movq	16(%rbp), %rax
	movq	352(%rax), %rax
	.loc 27 1327 55
	popq	%rbp
	.cfi_restore 6
	.cfi_def_cfa 7, 8
	ret
	.cfi_endproc
.LFE10303:
	.seh_endproc
	.section	.text$_ZNK12wxWindowBase13GetDropTargetEv,"x"
	.linkonce discard
	.align 2
	.globl	_ZNK12wxWindowBase13GetDropTargetEv
	.def	_ZNK12wxWindowBase13GetDropTargetEv;	.scl	2;	.type	32;	.endef
	.seh_proc	_ZNK12wxWindowBase13GetDropTargetEv
_ZNK12wxWindowBase13GetDropTargetEv:
.LFB10304:
	.loc 27 1351 27
	.cfi_startproc
	pushq	%rbp
	.seh_pushreg	%rbp
	.cfi_def_cfa_offset 16
	.cfi_offset 6, -16
	movq	%rsp, %rbp
	.seh_setframe	%rbp, 0
	.cfi_def_cfa_register 6
	.seh_endprologue
	movq	%rcx, 16(%rbp)
	.loc 27 1351 58
	movq	16(%rbp), %rax
	movq	208(%rax), %rax
	.loc 27 1351 72
	popq	%rbp
	.cfi_restore 6
	.cfi_def_cfa 7, 8
	ret
	.cfi_endproc
.LFE10304:
	.seh_endproc
	.section	.text$_ZN12wxWindowBase14SetTransparentEh,"x"
	.linkonce discard
	.align 2
	.globl	_ZN12wxWindowBase14SetTransparentEh
	.def	_ZN12wxWindowBase14SetTransparentEh;	.scl	2;	.type	32;	.endef
	.seh_proc	_ZN12wxWindowBase14SetTransparentEh
_ZN12wxWindowBase14SetTransparentEh:
.LFB10311:
	.loc 27 1432 18
	.cfi_startproc
	pushq	%rbp
	.seh_pushreg	%rbp
	.cfi_def_cfa_offset 16
	.cfi_offset 6, -16
	movq	%rsp, %rbp
	.seh_setframe	%rbp, 0
	.cfi_def_cfa_register 6
	.seh_endprologue
	movq	%rcx, 16(%rbp)
	movl	%edx, %eax
	movb	%al, 24(%rbp)
	.loc 27 1432 51
	movl	$0, %eax
	.loc 27 1432 58
	popq	%rbp
	.cfi_restore 6
	.cfi_def_cfa 7, 8
	ret
	.cfi_endproc
.LFE10311:
	.seh_endproc
	.section	.text$_ZN12wxWindowBase17CanSetTransparentEv,"x"
	.linkonce discard
	.align 2
	.globl	_ZN12wxWindowBase17CanSetTransparentEv
	.def	_ZN12wxWindowBase17CanSetTransparentEv;	.scl	2;	.type	32;	.endef
	.seh_proc	_ZN12wxWindowBase17CanSetTransparentEv
_ZN12wxWindowBase17CanSetTransparentEv:
.LFB10312:
	.loc 27 1433 18
	.cfi_startproc
	pushq	%rbp
	.seh_pushreg	%rbp
	.cfi_def_cfa_offset 16
	.cfi_offset 6, -16
	movq	%rsp, %rbp
	.seh_setframe	%rbp, 0
	.cfi_def_cfa_register 6
	.seh_endprologue
	movq	%rcx, 16(%rbp)
	.loc 27 1433 47
	movl	$0, %eax
	.loc 27 1433 54
	popq	%rbp
	.cfi_restore 6
	.cfi_def_cfa 7, 8
	ret
	.cfi_endproc
.LFE10312:
	.seh_endproc
	.section	.text$_ZNK12wxWindowBase20ShouldInheritColoursEv,"x"
	.linkonce discard
	.align 2
	.globl	_ZNK12wxWindowBase20ShouldInheritColoursEv
	.def	_ZNK12wxWindowBase20ShouldInheritColoursEv;	.scl	2;	.type	32;	.endef
	.seh_proc	_ZNK12wxWindowBase20ShouldInheritColoursEv
_ZNK12wxWindowBase20ShouldInheritColoursEv:
.LFB10323:
	.loc 27 1490 18
	.cfi_startproc
	pushq	%rbp
	.seh_pushreg	%rbp
	.cfi_def_cfa_offset 16
	.cfi_offset 6, -16
	movq	%rsp, %rbp
	.seh_setframe	%rbp, 0
	.cfi_def_cfa_register 6
	.seh_endprologue
	movq	%rcx, 16(%rbp)
	.loc 27 1490 56
	movl	$0, %eax
	.loc 27 1490 63
	popq	%rbp
	.cfi_restore 6
	.cfi_def_cfa 7, 8
	ret
	.cfi_endproc
.LFE10323:
	.seh_endproc
	.section	.text$_ZNK12wxWindowBase22CanBeOutsideClientAreaEv,"x"
	.linkonce discard
	.align 2
	.globl	_ZNK12wxWindowBase22CanBeOutsideClientAreaEv
	.def	_ZNK12wxWindowBase22CanBeOutsideClientAreaEv;	.scl	2;	.type	32;	.endef
	.seh_proc	_ZNK12wxWindowBase22CanBeOutsideClientAreaEv
_ZNK12wxWindowBase22CanBeOutsideClientAreaEv:
.LFB10324:
	.loc 27 1494 18
	.cfi_startproc
	pushq	%rbp
	.seh_pushreg	%rbp
	.cfi_def_cfa_offset 16
	.cfi_offset 6, -16
	movq	%rsp, %rbp
	.seh_setframe	%rbp, 0
	.cfi_def_cfa_register 6
	.seh_endprologue
	movq	%rcx, 16(%rbp)
	.loc 27 1494 58
	movl	$0, %eax
	.loc 27 1494 65
	popq	%rbp
	.cfi_restore 6
	.cfi_def_cfa 7, 8
	ret
	.cfi_endproc
.LFE10324:
	.seh_endproc
	.section	.text$_ZNK12wxWindowBase19CanApplyThemeBorderEv,"x"
	.linkonce discard
	.align 2
	.globl	_ZNK12wxWindowBase19CanApplyThemeBorderEv
	.def	_ZNK12wxWindowBase19CanApplyThemeBorderEv;	.scl	2;	.type	32;	.endef
	.seh_proc	_ZNK12wxWindowBase19CanApplyThemeBorderEv
_ZNK12wxWindowBase19CanApplyThemeBorderEv:
.LFB10325:
	.loc 27 1498 18
	.cfi_startproc
	pushq	%rbp
	.seh_pushreg	%rbp
	.cfi_def_cfa_offset 16
	.cfi_offset 6, -16
	movq	%rsp, %rbp
	.seh_setframe	%rbp, 0
	.cfi_def_cfa_register 6
	.seh_endprologue
	movq	%rcx, 16(%rbp)
	.loc 27 1498 55
	movl	$1, %eax
	.loc 27 1498 61
	popq	%rbp
	.cfi_restore 6
	.cfi_def_cfa 7, 8
	ret
	.cfi_endproc
.LFE10325:
	.seh_endproc
	.section	.text$_ZN12wxWindowBase31GetMainWindowOfCompositeControlEv,"x"
	.linkonce discard
	.align 2
	.globl	_ZN12wxWindowBase31GetMainWindowOfCompositeControlEv
	.def	_ZN12wxWindowBase31GetMainWindowOfCompositeControlEv;	.scl	2;	.type	32;	.endef
	.seh_proc	_ZN12wxWindowBase31GetMainWindowOfCompositeControlEv
_ZN12wxWindowBase31GetMainWindowOfCompositeControlEv:
.LFB10326:
	.loc 27 1503 23
	.cfi_startproc
	pushq	%rbp
	.seh_pushreg	%rbp
	.cfi_def_cfa_offset 16
	.cfi_offset 6, -16
	movq	%rsp, %rbp
	.seh_setframe	%rbp, 0
	.cfi_def_cfa_register 6
	.seh_endprologue
	movq	%rcx, 16(%rbp)
	.loc 27 1504 29
	movq	16(%rbp), %rax
	.loc 27 1504 35
	popq	%rbp
	.cfi_restore 6
	.cfi_def_cfa 7, 8
	ret
	.cfi_endproc
.LFE10326:
	.seh_endproc
	.section	.text$_ZNK12wxWindowBase21IsTopNavigationDomainEv,"x"
	.linkonce discard
	.align 2
	.globl	_ZNK12wxWindowBase21IsTopNavigationDomainEv
	.def	_ZNK12wxWindowBase21IsTopNavigationDomainEv;	.scl	2;	.type	32;	.endef
	.seh_proc	_ZNK12wxWindowBase21IsTopNavigationDomainEv
_ZNK12wxWindowBase21IsTopNavigationDomainEv:
.LFB10327:
	.loc 27 1512 18
	.cfi_startproc
	pushq	%rbp
	.seh_pushreg	%rbp
	.cfi_def_cfa_offset 16
	.cfi_offset 6, -16
	movq	%rsp, %rbp
	.seh_setframe	%rbp, 0
	.cfi_def_cfa_register 6
	.seh_endprologue
	movq	%rcx, 16(%rbp)
	.loc 27 1512 57
	movl	$0, %eax
	.loc 27 1512 64
	popq	%rbp
	.cfi_restore 6
	.cfi_def_cfa 7, 8
	ret
	.cfi_endproc
.LFE10327:
	.seh_endproc
	.section	.text$_ZNK12wxWindowBase19DoGetBestClientSizeEv,"x"
	.linkonce discard
	.align 2
	.globl	_ZNK12wxWindowBase19DoGetBestClientSizeEv
	.def	_ZNK12wxWindowBase19DoGetBestClientSizeEv;	.scl	2;	.type	32;	.endef
	.seh_proc	_ZNK12wxWindowBase19DoGetBestClientSizeEv
_ZNK12wxWindowBase19DoGetBestClientSizeEv:
.LFB10332:
	.loc 27 1746 20
	.cfi_startproc
	pushq	%rbp
	.seh_pushreg	%rbp
	.cfi_def_cfa_offset 16
	.cfi_offset 6, -16
	movq	%rsp, %rbp
	.seh_setframe	%rbp, 0
	.cfi_def_cfa_register 6
	.seh_endprologue
	movq	%rcx, 16(%rbp)
	.loc 27 1746 57
	movq	.refptr.wxDefaultSize(%rip), %rax
	movq	(%rax), %rax
	.loc 27 1746 72
	popq	%rbp
	.cfi_restore 6
	.cfi_def_cfa 7, 8
	ret
	.cfi_endproc
.LFE10332:
	.seh_endproc
	.section	.text$_ZNK12wxWindowBase21DoGetBestClientHeightEi,"x"
	.linkonce discard
	.align 2
	.globl	_ZNK12wxWindowBase21DoGetBestClientHeightEi
	.def	_ZNK12wxWindowBase21DoGetBestClientHeightEi;	.scl	2;	.type	32;	.endef
	.seh_proc	_ZNK12wxWindowBase21DoGetBestClientHeightEi
_ZNK12wxWindowBase21DoGetBestClientHeightEi:
.LFB10333:
	.loc 27 1751 17
	.cfi_startproc
	pushq	%rbp
	.seh_pushreg	%rbp
	.cfi_def_cfa_offset 16
	.cfi_offset 6, -16
	movq	%rsp, %rbp
	.seh_setframe	%rbp, 0
	.cfi_def_cfa_register 6
	.seh_endprologue
	movq	%rcx, 16(%rbp)
	movl	%edx, 24(%rbp)
	.loc 27 1752 18
	movl	$-1, %eax
	.loc 27 1752 34
	popq	%rbp
	.cfi_restore 6
	.cfi_def_cfa 7, 8
	ret
	.cfi_endproc
.LFE10333:
	.seh_endproc
	.section	.text$_ZNK12wxWindowBase20DoGetBestClientWidthEi,"x"
	.linkonce discard
	.align 2
	.globl	_ZNK12wxWindowBase20DoGetBestClientWidthEi
	.def	_ZNK12wxWindowBase20DoGetBestClientWidthEi;	.scl	2;	.type	32;	.endef
	.seh_proc	_ZNK12wxWindowBase20DoGetBestClientWidthEi
_ZNK12wxWindowBase20DoGetBestClientWidthEi:
.LFB10334:
	.loc 27 1753 17
	.cfi_startproc
	pushq	%rbp
	.seh_pushreg	%rbp
	.cfi_def_cfa_offset 16
	.cfi_offset 6, -16
	movq	%rsp, %rbp
	.seh_setframe	%rbp, 0
	.cfi_def_cfa_register 6
	.seh_endprologue
	movq	%rcx, 16(%rbp)
	movl	%edx, 24(%rbp)
	.loc 27 1754 18
	movl	$-1, %eax
	.loc 27 1754 34
	popq	%rbp
	.cfi_restore 6
	.cfi_def_cfa 7, 8
	ret
	.cfi_endproc
.LFE10334:
	.seh_endproc
	.section	.text$_ZN12wxWindowBase18SetInitialBestSizeERK6wxSize,"x"
	.linkonce discard
	.align 2
	.globl	_ZN12wxWindowBase18SetInitialBestSizeERK6wxSize
	.def	_ZN12wxWindowBase18SetInitialBestSizeERK6wxSize;	.scl	2;	.type	32;	.endef
	.seh_proc	_ZN12wxWindowBase18SetInitialBestSizeERK6wxSize
_ZN12wxWindowBase18SetInitialBestSizeERK6wxSize:
.LFB10340:
	.loc 27 1873 1
	.cfi_startproc
	pushq	%rbp
	.seh_pushreg	%rbp
	.cfi_def_cfa_offset 16
	.cfi_offset 6, -16
	movq	%rsp, %rbp
	.seh_setframe	%rbp, 0
	.cfi_def_cfa_register 6
	subq	$32, %rsp
	.seh_stackalloc	32
	.seh_endprologue
	movq	%rcx, 16(%rbp)
	movq	%rdx, 24(%rbp)
	.loc 27 1874 19
	movq	24(%rbp), %rax
	movq	%rax, %rdx
	movq	16(%rbp), %rcx
	call	_ZN12wxWindowBase14SetInitialSizeERK6wxSize
	.loc 27 1875 1
	nop
	addq	$32, %rsp
	popq	%rbp
	.cfi_restore 6
	.cfi_def_cfa 7, 8
	ret
	.cfi_endproc
.LFE10340:
	.seh_endproc
	.section	.text$_ZN8wxWindowC2Ev,"x"
	.linkonce discard
	.align 2
	.globl	_ZN8wxWindowC2Ev
	.def	_ZN8wxWindowC2Ev;	.scl	2;	.type	32;	.endef
	.seh_proc	_ZN8wxWindowC2Ev
_ZN8wxWindowC2Ev:
.LFB10342:
	.file 29 "../wxMSW-3.0.5_gcc810_x64_Dev/include/wx/msw/window.h"
	.loc 29 40 5
	.cfi_startproc
	pushq	%rbp
	.seh_pushreg	%rbp
	.cfi_def_cfa_offset 16
	.cfi_offset 6, -16
	pushq	%rbx
	.seh_pushreg	%rbx
	.cfi_def_cfa_offset 24
	.cfi_offset 3, -24
	subq	$40, %rsp
	.seh_stackalloc	40
	.cfi_def_cfa_offset 64
	leaq	128(%rsp), %rbp
	.seh_setframe	%rbp, 128
	.cfi_def_cfa 6, -64
	.seh_endprologue
	movq	%rcx, -64(%rbp)
.LBB55:
	.loc 29 40 16
	movq	-64(%rbp), %rax
	movq	%rax, %rcx
.LEHB20:
	call	_ZN12wxWindowBaseC2Ev
.LEHE20:
	movq	.refptr._ZTV8wxWindow(%rip), %rax
	leaq	16(%rax), %rdx
	movq	-64(%rbp), %rax
	movq	%rdx, (%rax)
	movq	-64(%rbp), %rax
	addq	$560, %rax
	movq	%rax, %rcx
	call	_ZN7wxPointC1Ev
	movq	-64(%rbp), %rax
	addq	$568, %rax
	movq	%rax, %rcx
	call	_ZN6wxSizeC1Ev
	.loc 29 40 22
	movq	-64(%rbp), %rcx
.LEHB21:
	call	_ZN8wxWindow4InitEv
.LEHE21:
.LBE55:
	.loc 29 40 26
	jmp	.L288
.L287:
	movq	%rax, %rbx
.LBB56:
	.loc 29 40 16
	movq	-64(%rbp), %rax
	movq	%rax, %rcx
	call	_ZN12wxWindowBaseD2Ev
	movq	%rbx, %rax
	movq	%rax, %rcx
.LEHB22:
	call	_Unwind_Resume
	nop
.LEHE22:
.L288:
.LBE56:
	.loc 29 40 26
	addq	$40, %rsp
	popq	%rbx
	.cfi_restore 3
	popq	%rbp
	.cfi_restore 6
	.cfi_def_cfa 7, -24
	ret
	.cfi_endproc
.LFE10342:
	.seh_handler	__gxx_personality_seh0, @unwind, @except
	.seh_handlerdata
.LLSDA10342:
	.byte	0xff
	.byte	0xff
	.byte	0x1
	.uleb128 .LLSDACSE10342-.LLSDACSB10342
.LLSDACSB10342:
	.uleb128 .LEHB20-.LFB10342
	.uleb128 .LEHE20-.LEHB20
	.uleb128 0
	.uleb128 0
	.uleb128 .LEHB21-.LFB10342
	.uleb128 .LEHE21-.LEHB21
	.uleb128 .L287-.LFB10342
	.uleb128 0
	.uleb128 .LEHB22-.LFB10342
	.uleb128 .LEHE22-.LEHB22
	.uleb128 0
	.uleb128 0
.LLSDACSE10342:
	.section	.text$_ZN8wxWindowC2Ev,"x"
	.linkonce discard
	.seh_endproc
	.section	.text$_ZN8wxWindow14ShowWithEffectE12wxShowEffectj,"x"
	.linkonce discard
	.align 2
	.globl	_ZN8wxWindow14ShowWithEffectE12wxShowEffectj
	.def	_ZN8wxWindow14ShowWithEffectE12wxShowEffectj;	.scl	2;	.type	32;	.endef
	.seh_proc	_ZN8wxWindow14ShowWithEffectE12wxShowEffectj
_ZN8wxWindow14ShowWithEffectE12wxShowEffectj:
.LFB10347:
	.loc 29 73 18
	.cfi_startproc
	pushq	%rbp
	.seh_pushreg	%rbp
	.cfi_def_cfa_offset 16
	.cfi_offset 6, -16
	movq	%rsp, %rbp
	.seh_setframe	%rbp, 0
	.cfi_def_cfa_register 6
	subq	$32, %rsp
	.seh_stackalloc	32
	.seh_endprologue
	movq	%rcx, 16(%rbp)
	movl	%edx, 24(%rbp)
	movl	%r8d, 32(%rbp)
	.loc 29 76 33
	movl	32(%rbp), %edx
	movl	24(%rbp), %eax
	movl	%edx, %r9d
	movl	%eax, %r8d
	movl	$1, %edx
	movq	16(%rbp), %rcx
	call	_ZN8wxWindow17MSWShowWithEffectEb12wxShowEffectj
	.loc 29 77 5
	addq	$32, %rsp
	popq	%rbp
	.cfi_restore 6
	.cfi_def_cfa 7, 8
	ret
	.cfi_endproc
.LFE10347:
	.seh_endproc
	.section	.text$_ZN8wxWindow14HideWithEffectE12wxShowEffectj,"x"
	.linkonce discard
	.align 2
	.globl	_ZN8wxWindow14HideWithEffectE12wxShowEffectj
	.def	_ZN8wxWindow14HideWithEffectE12wxShowEffectj;	.scl	2;	.type	32;	.endef
	.seh_proc	_ZN8wxWindow14HideWithEffectE12wxShowEffectj
_ZN8wxWindow14HideWithEffectE12wxShowEffectj:
.LFB10348:
	.loc 29 78 18
	.cfi_startproc
	pushq	%rbp
	.seh_pushreg	%rbp
	.cfi_def_cfa_offset 16
	.cfi_offset 6, -16
	movq	%rsp, %rbp
	.seh_setframe	%rbp, 0
	.cfi_def_cfa_register 6
	subq	$32, %rsp
	.seh_stackalloc	32
	.seh_endprologue
	movq	%rcx, 16(%rbp)
	movl	%edx, 24(%rbp)
	movl	%r8d, 32(%rbp)
	.loc 29 81 33
	movl	32(%rbp), %edx
	movl	24(%rbp), %eax
	movl	%edx, %r9d
	movl	%eax, %r8d
	movl	$0, %edx
	movq	16(%rbp), %rcx
	call	_ZN8wxWindow17MSWShowWithEffectEb12wxShowEffectj
	.loc 29 82 5
	addq	$32, %rsp
	popq	%rbp
	.cfi_restore 6
	.cfi_def_cfa 7, 8
	ret
	.cfi_endproc
.LFE10348:
	.seh_endproc
	.section	.text$_ZNK8wxWindow7GetHWNDEv,"x"
	.linkonce discard
	.align 2
	.globl	_ZNK8wxWindow7GetHWNDEv
	.def	_ZNK8wxWindow7GetHWNDEv;	.scl	2;	.type	32;	.endef
	.seh_proc	_ZNK8wxWindow7GetHWNDEv
_ZNK8wxWindow7GetHWNDEv:
.LFB10349:
	.loc 29 151 12
	.cfi_startproc
	pushq	%rbp
	.seh_pushreg	%rbp
	.cfi_def_cfa_offset 16
	.cfi_offset 6, -16
	movq	%rsp, %rbp
	.seh_setframe	%rbp, 0
	.cfi_def_cfa_register 6
	.seh_endprologue
	movq	%rcx, 16(%rbp)
	.loc 29 151 37
	movq	16(%rbp), %rax
	movq	520(%rax), %rax
	.loc 29 151 45
	popq	%rbp
	.cfi_restore 6
	.cfi_def_cfa 7, 8
	ret
	.cfi_endproc
.LFE10349:
	.seh_endproc
	.section	.text$_ZNK8wxWindow9GetHandleEv,"x"
	.linkonce discard
	.align 2
	.globl	_ZNK8wxWindow9GetHandleEv
	.def	_ZNK8wxWindow9GetHandleEv;	.scl	2;	.type	32;	.endef
	.seh_proc	_ZNK8wxWindow9GetHandleEv
_ZNK8wxWindow9GetHandleEv:
.LFB10351:
	.loc 29 153 22
	.cfi_startproc
	pushq	%rbp
	.seh_pushreg	%rbp
	.cfi_def_cfa_offset 16
	.cfi_offset 6, -16
	movq	%rsp, %rbp
	.seh_setframe	%rbp, 0
	.cfi_def_cfa_register 6
	subq	$32, %rsp
	.seh_stackalloc	32
	.seh_endprologue
	movq	%rcx, 16(%rbp)
	.loc 29 153 56
	movq	16(%rbp), %rcx
	call	_ZNK8wxWindow7GetHWNDEv
	.loc 29 153 60
	addq	$32, %rsp
	popq	%rbp
	.cfi_restore 6
	.cfi_def_cfa 7, 8
	ret
	.cfi_endproc
.LFE10351:
	.seh_endproc
	.section	.text$_ZNK8wxWindow12ContainsHWNDEP6HWND__,"x"
	.linkonce discard
	.align 2
	.globl	_ZNK8wxWindow12ContainsHWNDEP6HWND__
	.def	_ZNK8wxWindow12ContainsHWNDEP6HWND__;	.scl	2;	.type	32;	.endef
	.seh_proc	_ZNK8wxWindow12ContainsHWNDEP6HWND__
_ZNK8wxWindow12ContainsHWNDEP6HWND__:
.LFB10355:
	.loc 29 213 18
	.cfi_startproc
	pushq	%rbp
	.seh_pushreg	%rbp
	.cfi_def_cfa_offset 16
	.cfi_offset 6, -16
	movq	%rsp, %rbp
	.seh_setframe	%rbp, 0
	.cfi_def_cfa_register 6
	.seh_endprologue
	movq	%rcx, 16(%rbp)
	movq	%rdx, 24(%rbp)
	.loc 29 213 55
	movl	$0, %eax
	.loc 29 213 62
	popq	%rbp
	.cfi_restore 6
	.cfi_def_cfa 7, 8
	ret
	.cfi_endproc
.LFE10355:
	.seh_endproc
	.section	.text$_ZNK8wxWindow11HasToolTipsEv,"x"
	.linkonce discard
	.align 2
	.globl	_ZNK8wxWindow11HasToolTipsEv
	.def	_ZNK8wxWindow11HasToolTipsEv;	.scl	2;	.type	32;	.endef
	.seh_proc	_ZNK8wxWindow11HasToolTipsEv
_ZNK8wxWindow11HasToolTipsEv:
.LFB10356:
	.loc 29 217 18
	.cfi_startproc
	pushq	%rbp
	.seh_pushreg	%rbp
	.cfi_def_cfa_offset 16
	.cfi_offset 6, -16
	movq	%rsp, %rbp
	.seh_setframe	%rbp, 0
	.cfi_def_cfa_register 6
	subq	$32, %rsp
	.seh_stackalloc	32
	.seh_endprologue
	movq	%rcx, 16(%rbp)
	.loc 29 217 57
	movq	16(%rbp), %rax
	movq	%rax, %rcx
	call	_ZNK12wxWindowBase10GetToolTipEv
	.loc 29 217 62
	testq	%rax, %rax
	setne	%al
	.loc 29 217 68
	addq	$32, %rsp
	popq	%rbp
	.cfi_restore 6
	.cfi_def_cfa 7, 8
	ret
	.cfi_endproc
.LFE10356:
	.seh_endproc
	.section	.text$_ZNK8wxWindow17MSWAdjustBrushOrgEPiS0_,"x"
	.linkonce discard
	.align 2
	.globl	_ZNK8wxWindow17MSWAdjustBrushOrgEPiS0_
	.def	_ZNK8wxWindow17MSWAdjustBrushOrgEPiS0_;	.scl	2;	.type	32;	.endef
	.seh_proc	_ZNK8wxWindow17MSWAdjustBrushOrgEPiS0_
_ZNK8wxWindow17MSWAdjustBrushOrgEPiS0_:
.LFB10358:
	.loc 29 421 18
	.cfi_startproc
	pushq	%rbp
	.seh_pushreg	%rbp
	.cfi_def_cfa_offset 16
	.cfi_offset 6, -16
	movq	%rsp, %rbp
	.seh_setframe	%rbp, 0
	.cfi_def_cfa_register 6
	.seh_endprologue
	movq	%rcx, 16(%rbp)
	movq	%rdx, 24(%rbp)
	movq	%r8, 32(%rbp)
	.loc 29 424 5
	nop
	popq	%rbp
	.cfi_restore 6
	.cfi_def_cfa 7, 8
	ret
	.cfi_endproc
.LFE10358:
	.seh_endproc
	.section	.text$_ZN8wxWindow19MSWGetCustomBgBrushEv,"x"
	.linkonce discard
	.align 2
	.globl	_ZN8wxWindow19MSWGetCustomBgBrushEv
	.def	_ZN8wxWindow19MSWGetCustomBgBrushEv;	.scl	2;	.type	32;	.endef
	.seh_proc	_ZN8wxWindow19MSWGetCustomBgBrushEv
_ZN8wxWindow19MSWGetCustomBgBrushEv:
.LFB10359:
	.loc 29 429 22
	.cfi_startproc
	pushq	%rbp
	.seh_pushreg	%rbp
	.cfi_def_cfa_offset 16
	.cfi_offset 6, -16
	movq	%rsp, %rbp
	.seh_setframe	%rbp, 0
	.cfi_def_cfa_register 6
	.seh_endprologue
	movq	%rcx, 16(%rbp)
	.loc 29 429 53
	movl	$0, %eax
	.loc 29 429 56
	popq	%rbp
	.cfi_restore 6
	.cfi_def_cfa 7, 8
	ret
	.cfi_endproc
.LFE10359:
	.seh_endproc
	.section	.text$_ZN8wxWindow13MSWPrintChildEP5HDC__PS_,"x"
	.linkonce discard
	.align 2
	.globl	_ZN8wxWindow13MSWPrintChildEP5HDC__PS_
	.def	_ZN8wxWindow13MSWPrintChildEP5HDC__PS_;	.scl	2;	.type	32;	.endef
	.seh_proc	_ZN8wxWindow13MSWPrintChildEP5HDC__PS_
_ZN8wxWindow13MSWPrintChildEP5HDC__PS_:
.LFB10360:
	.loc 29 468 18
	.cfi_startproc
	pushq	%rbp
	.seh_pushreg	%rbp
	.cfi_def_cfa_offset 16
	.cfi_offset 6, -16
	movq	%rsp, %rbp
	.seh_setframe	%rbp, 0
	.cfi_def_cfa_register 6
	.seh_endprologue
	movq	%rcx, 16(%rbp)
	movq	%rdx, 24(%rbp)
	movq	%r8, 32(%rbp)
	.loc 29 470 16
	movl	$0, %eax
	.loc 29 471 5
	popq	%rbp
	.cfi_restore 6
	.cfi_def_cfa 7, 8
	ret
	.cfi_endproc
.LFE10360:
	.seh_endproc
	.section	.text$_ZN8wxWindow28MSWShouldPropagatePrintChildEv,"x"
	.linkonce discard
	.align 2
	.globl	_ZN8wxWindow28MSWShouldPropagatePrintChildEv
	.def	_ZN8wxWindow28MSWShouldPropagatePrintChildEv;	.scl	2;	.type	32;	.endef
	.seh_proc	_ZN8wxWindow28MSWShouldPropagatePrintChildEv
_ZN8wxWindow28MSWShouldPropagatePrintChildEv:
.LFB10361:
	.loc 29 476 18
	.cfi_startproc
	pushq	%rbp
	.seh_pushreg	%rbp
	.cfi_def_cfa_offset 16
	.cfi_offset 6, -16
	movq	%rsp, %rbp
	.seh_setframe	%rbp, 0
	.cfi_def_cfa_register 6
	.seh_endprologue
	movq	%rcx, 16(%rbp)
	.loc 29 478 16
	movl	$1, %eax
	.loc 29 479 5
	popq	%rbp
	.cfi_restore 6
	.cfi_def_cfa 7, 8
	ret
	.cfi_endproc
.LFE10361:
	.seh_endproc
	.section	.text$_ZNK8wxWindow27MSWHasInheritableBackgroundEv,"x"
	.linkonce discard
	.align 2
	.globl	_ZNK8wxWindow27MSWHasInheritableBackgroundEv
	.def	_ZNK8wxWindow27MSWHasInheritableBackgroundEv;	.scl	2;	.type	32;	.endef
	.seh_proc	_ZNK8wxWindow27MSWHasInheritableBackgroundEv
_ZNK8wxWindow27MSWHasInheritableBackgroundEv:
.LFB10362:
	.loc 29 487 18
	.cfi_startproc
	pushq	%rbp
	.seh_pushreg	%rbp
	.cfi_def_cfa_offset 16
	.cfi_offset 6, -16
	movq	%rsp, %rbp
	.seh_setframe	%rbp, 0
	.cfi_def_cfa_register 6
	subq	$32, %rsp
	.seh_stackalloc	32
	.seh_endprologue
	movq	%rcx, 16(%rbp)
	.loc 29 489 40
	movq	16(%rbp), %rax
	movq	%rax, %rcx
	call	_ZNK12wxWindowBase24InheritsBackgroundColourEv
	.loc 29 490 5
	addq	$32, %rsp
	popq	%rbp
	.cfi_restore 6
	.cfi_def_cfa 7, 8
	ret
	.cfi_endproc
.LFE10362:
	.seh_endproc
	.section	.text$_ZN8wxWindow14MSWEraseBgHookEP5HDC__,"x"
	.linkonce discard
	.align 2
	.globl	_ZN8wxWindow14MSWEraseBgHookEP5HDC__
	.def	_ZN8wxWindow14MSWEraseBgHookEP5HDC__;	.scl	2;	.type	32;	.endef
	.seh_proc	_ZN8wxWindow14MSWEraseBgHookEP5HDC__
_ZN8wxWindow14MSWEraseBgHookEP5HDC__:
.LFB10363:
	.loc 29 510 18
	.cfi_startproc
	pushq	%rbp
	.seh_pushreg	%rbp
	.cfi_def_cfa_offset 16
	.cfi_offset 6, -16
	movq	%rsp, %rbp
	.seh_setframe	%rbp, 0
	.cfi_def_cfa_register 6
	.seh_endprologue
	movq	%rcx, 16(%rbp)
	movq	%rdx, 24(%rbp)
	.loc 29 510 50
	movl	$0, %eax
	.loc 29 510 57
	popq	%rbp
	.cfi_restore 6
	.cfi_def_cfa 7, 8
	ret
	.cfi_endproc
.LFE10363:
	.seh_endproc
	.section	.text$_ZNK8wxWindow11MSWFindItemElP6HWND__,"x"
	.linkonce discard
	.align 2
	.globl	_ZNK8wxWindow11MSWFindItemElP6HWND__
	.def	_ZNK8wxWindow11MSWFindItemElP6HWND__;	.scl	2;	.type	32;	.endef
	.seh_proc	_ZNK8wxWindow11MSWFindItemElP6HWND__
_ZNK8wxWindow11MSWFindItemElP6HWND__:
.LFB10364:
	.loc 29 670 23
	.cfi_startproc
	pushq	%rbp
	.seh_pushreg	%rbp
	.cfi_def_cfa_offset 16
	.cfi_offset 6, -16
	movq	%rsp, %rbp
	.seh_setframe	%rbp, 0
	.cfi_def_cfa_register 6
	.seh_endprologue
	movq	%rcx, 16(%rbp)
	movl	%edx, 24(%rbp)
	movq	%r8, 32(%rbp)
	.loc 29 672 15
	movl	$0, %eax
	.loc 29 673 5
	popq	%rbp
	.cfi_restore 6
	.cfi_def_cfa 7, 8
	ret
	.cfi_endproc
.LFE10364:
	.seh_endproc
	.section	.text$_ZN8wxWindow20MSWEndDeferWindowPosEv,"x"
	.linkonce discard
	.align 2
	.globl	_ZN8wxWindow20MSWEndDeferWindowPosEv
	.def	_ZN8wxWindow20MSWEndDeferWindowPosEv;	.scl	2;	.type	32;	.endef
	.seh_proc	_ZN8wxWindow20MSWEndDeferWindowPosEv
_ZN8wxWindow20MSWEndDeferWindowPosEv:
.LFB10365:
	.loc 29 695 18
	.cfi_startproc
	pushq	%rbp
	.seh_pushreg	%rbp
	.cfi_def_cfa_offset 16
	.cfi_offset 6, -16
	movq	%rsp, %rbp
	.seh_setframe	%rbp, 0
	.cfi_def_cfa_register 6
	.seh_endprologue
	movq	%rcx, 16(%rbp)
	.loc 29 697 27
	movq	16(%rbp), %rax
	movq	.refptr.wxDefaultPosition(%rip), %rdx
	movq	(%rdx), %rdx
	movq	%rdx, 560(%rax)
	.loc 29 698 23
	movq	16(%rbp), %rax
	movq	.refptr.wxDefaultSize(%rip), %rdx
	movq	(%rdx), %rdx
	movq	%rdx, 568(%rax)
	.loc 29 699 5
	nop
	popq	%rbp
	.cfi_restore 6
	.cfi_def_cfa 7, 8
	ret
	.cfi_endproc
.LFE10365:
	.seh_endproc
	.section	.text$_ZN13wxControlBaseC2Ev,"x"
	.linkonce discard
	.align 2
	.globl	_ZN13wxControlBaseC2Ev
	.def	_ZN13wxControlBaseC2Ev;	.scl	2;	.type	32;	.endef
	.seh_proc	_ZN13wxControlBaseC2Ev
_ZN13wxControlBaseC2Ev:
.LFB10368:
	.file 30 "../wxMSW-3.0.5_gcc810_x64_Dev/include/wx/control.h"
	.loc 30 58 5
	.cfi_startproc
	pushq	%rbp
	.seh_pushreg	%rbp
	.cfi_def_cfa_offset 16
	.cfi_offset 6, -16
	movq	%rsp, %rbp
	.seh_setframe	%rbp, 0
	.cfi_def_cfa_register 6
	subq	$32, %rsp
	.seh_stackalloc	32
	.seh_endprologue
	movq	%rcx, 16(%rbp)
.LBB57:
	.loc 30 58 21
	movq	16(%rbp), %rax
	movq	%rax, %rcx
	call	_ZN8wxWindowC2Ev
	movq	.refptr._ZTV13wxControlBase(%rip), %rax
	leaq	16(%rax), %rdx
	movq	16(%rbp), %rax
	movq	%rdx, (%rax)
	movq	16(%rbp), %rax
	addq	$576, %rax
	movq	%rax, %rcx
	call	_ZN8wxStringC1Ev
.LBE57:
	.loc 30 58 23
	nop
	addq	$32, %rsp
	popq	%rbp
	.cfi_restore 6
	.cfi_def_cfa 7, 8
	ret
	.cfi_endproc
.LFE10368:
	.seh_endproc
	.section	.text$_ZN13wxControlBase8SetLabelERK8wxString,"x"
	.linkonce discard
	.align 2
	.globl	_ZN13wxControlBase8SetLabelERK8wxString
	.def	_ZN13wxControlBase8SetLabelERK8wxString;	.scl	2;	.type	32;	.endef
	.seh_proc	_ZN13wxControlBase8SetLabelERK8wxString
_ZN13wxControlBase8SetLabelERK8wxString:
.LFB10371:
	.loc 30 74 18
	.cfi_startproc
	pushq	%rbp
	.seh_pushreg	%rbp
	.cfi_def_cfa_offset 16
	.cfi_offset 6, -16
	movq	%rsp, %rbp
	.seh_setframe	%rbp, 0
	.cfi_def_cfa_register 6
	subq	$32, %rsp
	.seh_stackalloc	32
	.seh_endprologue
	movq	%rcx, 16(%rbp)
	movq	%rdx, 24(%rbp)
	.loc 30 76 23
	movq	16(%rbp), %rax
	addq	$576, %rax
	movq	24(%rbp), %rdx
	movq	%rax, %rcx
	call	_ZN8wxStringaSERKS_
	.loc 30 78 27
	movq	16(%rbp), %rax
	movq	%rax, %rcx
	call	_ZN12wxWindowBase18InvalidateBestSizeEv
	.loc 30 80 27
	movq	16(%rbp), %rax
	movq	24(%rbp), %rdx
	movq	%rax, %rcx
	call	_ZN8wxWindow8SetLabelERK8wxString
	.loc 30 81 5
	nop
	addq	$32, %rsp
	popq	%rbp
	.cfi_restore 6
	.cfi_def_cfa 7, 8
	ret
	.cfi_endproc
.LFE10371:
	.seh_endproc
	.section	.text$_ZNK13wxControlBase8GetLabelEv,"x"
	.linkonce discard
	.align 2
	.globl	_ZNK13wxControlBase8GetLabelEv
	.def	_ZNK13wxControlBase8GetLabelEv;	.scl	2;	.type	32;	.endef
	.seh_proc	_ZNK13wxControlBase8GetLabelEv
_ZNK13wxControlBase8GetLabelEv:
.LFB10372:
	.loc 30 85 22
	.cfi_startproc
	pushq	%rbp
	.seh_pushreg	%rbp
	.cfi_def_cfa_offset 16
	.cfi_offset 6, -16
	movq	%rsp, %rbp
	.seh_setframe	%rbp, 0
	.cfi_def_cfa_register 6
	subq	$32, %rsp
	.seh_stackalloc	32
	.seh_endprologue
	movq	%rcx, 16(%rbp)
	movq	%rdx, 24(%rbp)
	.loc 30 85 48
	movq	24(%rbp), %rax
	addq	$576, %rax
	movq	%rax, %rdx
	movq	16(%rbp), %rcx
	call	_ZN8wxStringC1ERKS_
	.loc 30 85 61
	movq	16(%rbp), %rax
	addq	$32, %rsp
	popq	%rbp
	.cfi_restore 6
	.cfi_def_cfa 7, 8
	ret
	.cfi_endproc
.LFE10372:
	.seh_endproc
	.section	.text$_ZN13wxControlBase12SetLabelTextERK8wxString,"x"
	.linkonce discard
	.align 2
	.globl	_ZN13wxControlBase12SetLabelTextERK8wxString
	.def	_ZN13wxControlBase12SetLabelTextERK8wxString;	.scl	2;	.type	32;	.endef
	.seh_proc	_ZN13wxControlBase12SetLabelTextERK8wxString
_ZN13wxControlBase12SetLabelTextERK8wxString:
.LFB10373:
	.loc 30 88 18
	.cfi_startproc
	pushq	%rbp
	.seh_pushreg	%rbp
	.cfi_def_cfa_offset 16
	.cfi_offset 6, -16
	pushq	%rbx
	.seh_pushreg	%rbx
	.cfi_def_cfa_offset 24
	.cfi_offset 3, -24
	subq	$88, %rsp
	.seh_stackalloc	88
	.cfi_def_cfa_offset 112
	leaq	128(%rsp), %rbp
	.seh_setframe	%rbp, 128
	.cfi_def_cfa 6, -16
	.seh_endprologue
	movq	%rcx, -16(%rbp)
	movq	%rdx, -8(%rbp)
	.loc 30 90 39
	movq	-16(%rbp), %rax
	movq	(%rax), %rax
	addq	$176, %rax
	movq	(%rax), %rbx
	.loc 30 90 33
	leaq	-96(%rbp), %rax
	movq	-8(%rbp), %rdx
	movq	%rax, %rcx
.LEHB23:
	call	_ZN13wxControlBase15EscapeMnemonicsERK8wxString
.LEHE23:
	.loc 30 90 17
	leaq	-96(%rbp), %rax
	movq	%rax, %rdx
	movq	-16(%rbp), %rcx
.LEHB24:
	call	*%rbx
.LVL20:
.LEHE24:
	.loc 30 90 33 discriminator 2
	leaq	-96(%rbp), %rax
	movq	%rax, %rcx
	call	_ZN8wxStringD1Ev
	.loc 30 91 5 discriminator 2
	jmp	.L322
.L321:
	movq	%rax, %rbx
	.loc 30 90 33
	leaq	-96(%rbp), %rax
	movq	%rax, %rcx
	call	_ZN8wxStringD1Ev
	movq	%rbx, %rax
	movq	%rax, %rcx
.LEHB25:
	call	_Unwind_Resume
	nop
.LEHE25:
.L322:
	.loc 30 91 5
	addq	$88, %rsp
	popq	%rbx
	.cfi_restore 3
	popq	%rbp
	.cfi_restore 6
	.cfi_def_cfa 7, -72
	ret
	.cfi_endproc
.LFE10373:
	.seh_handler	__gxx_personality_seh0, @unwind, @except
	.seh_handlerdata
.LLSDA10373:
	.byte	0xff
	.byte	0xff
	.byte	0x1
	.uleb128 .LLSDACSE10373-.LLSDACSB10373
.LLSDACSB10373:
	.uleb128 .LEHB23-.LFB10373
	.uleb128 .LEHE23-.LEHB23
	.uleb128 0
	.uleb128 0
	.uleb128 .LEHB24-.LFB10373
	.uleb128 .LEHE24-.LEHB24
	.uleb128 .L321-.LFB10373
	.uleb128 0
	.uleb128 .LEHB25-.LFB10373
	.uleb128 .LEHE25-.LEHB25
	.uleb128 0
	.uleb128 0
.LLSDACSE10373:
	.section	.text$_ZN13wxControlBase12SetLabelTextERK8wxString,"x"
	.linkonce discard
	.seh_endproc
	.section	.text$_ZNK13wxControlBase12GetLabelTextEv,"x"
	.linkonce discard
	.align 2
	.globl	_ZNK13wxControlBase12GetLabelTextEv
	.def	_ZNK13wxControlBase12GetLabelTextEv;	.scl	2;	.type	32;	.endef
	.seh_proc	_ZNK13wxControlBase12GetLabelTextEv
_ZNK13wxControlBase12GetLabelTextEv:
.LFB10374:
	.loc 30 94 22
	.cfi_startproc
	pushq	%rbp
	.seh_pushreg	%rbp
	.cfi_def_cfa_offset 16
	.cfi_offset 6, -16
	pushq	%rbx
	.seh_pushreg	%rbx
	.cfi_def_cfa_offset 24
	.cfi_offset 3, -24
	subq	$88, %rsp
	.seh_stackalloc	88
	.cfi_def_cfa_offset 112
	leaq	128(%rsp), %rbp
	.seh_setframe	%rbp, 128
	.cfi_def_cfa 6, -16
	.seh_endprologue
	movq	%rcx, -16(%rbp)
	movq	%rdx, -8(%rbp)
	.loc 30 94 74
	movq	-8(%rbp), %rax
	movq	(%rax), %rax
	addq	$184, %rax
	movq	(%rax), %r8
	.loc 30 94 73
	leaq	-96(%rbp), %rax
	movq	-8(%rbp), %rdx
	movq	%rax, %rcx
.LEHB26:
	call	*%r8
.LVL21:
.LEHE26:
	.loc 30 94 75
	movq	-16(%rbp), %rcx
	leaq	-96(%rbp), %rax
	movq	%rax, %rdx
.LEHB27:
	call	_ZN13wxControlBase12GetLabelTextERK8wxString
.LEHE27:
	nop
	.loc 30 94 73
	leaq	-96(%rbp), %rax
	movq	%rax, %rcx
	call	_ZN8wxStringD1Ev
	.loc 30 94 75
	jmp	.L327
.L326:
	movq	%rax, %rbx
	.loc 30 94 73
	leaq	-96(%rbp), %rax
	movq	%rax, %rcx
	call	_ZN8wxStringD1Ev
	movq	%rbx, %rax
	movq	%rax, %rcx
.LEHB28:
	call	_Unwind_Resume
.LEHE28:
.L327:
	.loc 30 94 78
	movq	-16(%rbp), %rax
	addq	$88, %rsp
	popq	%rbx
	.cfi_restore 3
	popq	%rbp
	.cfi_restore 6
	.cfi_def_cfa 7, -72
	ret
	.cfi_endproc
.LFE10374:
	.seh_handler	__gxx_personality_seh0, @unwind, @except
	.seh_handlerdata
.LLSDA10374:
	.byte	0xff
	.byte	0xff
	.byte	0x1
	.uleb128 .LLSDACSE10374-.LLSDACSB10374
.LLSDACSB10374:
	.uleb128 .LEHB26-.LFB10374
	.uleb128 .LEHE26-.LEHB26
	.uleb128 0
	.uleb128 0
	.uleb128 .LEHB27-.LFB10374
	.uleb128 .LEHE27-.LEHB27
	.uleb128 .L326-.LFB10374
	.uleb128 0
	.uleb128 .LEHB28-.LFB10374
	.uleb128 .LEHE28-.LEHB28
	.uleb128 0
	.uleb128 0
.LLSDACSE10374:
	.section	.text$_ZNK13wxControlBase12GetLabelTextEv,"x"
	.linkonce discard
	.seh_endproc
	.section	.text$_ZNK13wxControlBase20ShouldInheritColoursEv,"x"
	.linkonce discard
	.align 2
	.globl	_ZNK13wxControlBase20ShouldInheritColoursEv
	.def	_ZNK13wxControlBase20ShouldInheritColoursEv;	.scl	2;	.type	32;	.endef
	.seh_proc	_ZNK13wxControlBase20ShouldInheritColoursEv
_ZNK13wxControlBase20ShouldInheritColoursEv:
.LFB10376:
	.loc 30 122 18
	.cfi_startproc
	pushq	%rbp
	.seh_pushreg	%rbp
	.cfi_def_cfa_offset 16
	.cfi_offset 6, -16
	movq	%rsp, %rbp
	.seh_setframe	%rbp, 0
	.cfi_def_cfa_register 6
	.seh_endprologue
	movq	%rcx, 16(%rbp)
	.loc 30 122 56
	movl	$1, %eax
	.loc 30 122 62
	popq	%rbp
	.cfi_restore 6
	.cfi_def_cfa 7, 8
	ret
	.cfi_endproc
.LFE10376:
	.seh_endproc
	.section	.text$_ZN9wxControlC2Ev,"x"
	.linkonce discard
	.align 2
	.globl	_ZN9wxControlC2Ev
	.def	_ZN9wxControlC2Ev;	.scl	2;	.type	32;	.endef
	.seh_proc	_ZN9wxControlC2Ev
_ZN9wxControlC2Ev:
.LFB10380:
	.file 31 "../wxMSW-3.0.5_gcc810_x64_Dev/include/wx/msw/control.h"
	.loc 31 20 5
	.cfi_startproc
	pushq	%rbp
	.seh_pushreg	%rbp
	.cfi_def_cfa_offset 16
	.cfi_offset 6, -16
	pushq	%rbx
	.seh_pushreg	%rbx
	.cfi_def_cfa_offset 24
	.cfi_offset 3, -24
	subq	$40, %rsp
	.seh_stackalloc	40
	.cfi_def_cfa_offset 64
	leaq	128(%rsp), %rbp
	.seh_setframe	%rbp, 128
	.cfi_def_cfa 6, -64
	.seh_endprologue
	movq	%rcx, -64(%rbp)
.LBB58:
	.loc 31 20 17
	movq	-64(%rbp), %rax
	movq	%rax, %rcx
.LEHB29:
	call	_ZN13wxControlBaseC2Ev
.LEHE29:
	movq	.refptr._ZTV9wxControl(%rip), %rax
	leaq	16(%rax), %rdx
	movq	-64(%rbp), %rax
	movq	%rdx, (%rax)
	movq	-64(%rbp), %rax
	addq	$624, %rax
	movq	%rax, %rcx
.LEHB30:
	call	_ZN11wxArrayLongC1Ev
.LEHE30:
.LBE58:
	.loc 31 20 19
	jmp	.L333
.L332:
	movq	%rax, %rbx
.LBB59:
	.loc 31 20 17
	movq	-64(%rbp), %rax
	movq	%rax, %rcx
	call	_ZN13wxControlBaseD2Ev
	movq	%rbx, %rax
	movq	%rax, %rcx
.LEHB31:
	call	_Unwind_Resume
	nop
.LEHE31:
.L333:
.LBE59:
	.loc 31 20 19
	addq	$40, %rsp
	popq	%rbx
	.cfi_restore 3
	popq	%rbp
	.cfi_restore 6
	.cfi_def_cfa 7, -24
	ret
	.cfi_endproc
.LFE10380:
	.seh_handler	__gxx_personality_seh0, @unwind, @except
	.seh_handlerdata
.LLSDA10380:
	.byte	0xff
	.byte	0xff
	.byte	0x1
	.uleb128 .LLSDACSE10380-.LLSDACSB10380
.LLSDACSB10380:
	.uleb128 .LEHB29-.LFB10380
	.uleb128 .LEHE29-.LEHB29
	.uleb128 0
	.uleb128 0
	.uleb128 .LEHB30-.LFB10380
	.uleb128 .LEHE30-.LEHB30
	.uleb128 .L332-.LFB10380
	.uleb128 0
	.uleb128 .LEHB31-.LFB10380
	.uleb128 .LEHE31-.LEHB31
	.uleb128 0
	.uleb128 0
.LLSDACSE10380:
	.section	.text$_ZN9wxControlC2Ev,"x"
	.linkonce discard
	.seh_endproc
	.section	.text$_ZN9wxControl7CommandER14wxCommandEvent,"x"
	.linkonce discard
	.align 2
	.globl	_ZN9wxControl7CommandER14wxCommandEvent
	.def	_ZN9wxControl7CommandER14wxCommandEvent;	.scl	2;	.type	32;	.endef
	.seh_proc	_ZN9wxControl7CommandER14wxCommandEvent
_ZN9wxControl7CommandER14wxCommandEvent:
.LFB10385:
	.loc 31 39 18
	.cfi_startproc
	pushq	%rbp
	.seh_pushreg	%rbp
	.cfi_def_cfa_offset 16
	.cfi_offset 6, -16
	movq	%rsp, %rbp
	.seh_setframe	%rbp, 0
	.cfi_def_cfa_register 6
	subq	$32, %rsp
	.seh_stackalloc	32
	.seh_endprologue
	movq	%rcx, 16(%rbp)
	movq	%rdx, 24(%rbp)
	.loc 31 39 65
	movq	24(%rbp), %rax
	movq	%rax, %rdx
	movq	16(%rbp), %rcx
	call	_ZN9wxControl14ProcessCommandER14wxCommandEvent
	.loc 31 39 74
	nop
	addq	$32, %rsp
	popq	%rbp
	.cfi_restore 6
	.cfi_def_cfa 7, 8
	ret
	.cfi_endproc
.LFE10385:
	.seh_endproc
	.section	.text$_ZNK9wxControl20GetDefaultAttributesEv,"x"
	.linkonce discard
	.align 2
	.globl	_ZNK9wxControl20GetDefaultAttributesEv
	.def	_ZNK9wxControl20GetDefaultAttributesEv;	.scl	2;	.type	32;	.endef
	.seh_proc	_ZNK9wxControl20GetDefaultAttributesEv
_ZNK9wxControl20GetDefaultAttributesEv:
.LFB10386:
	.loc 31 45 32
	.cfi_startproc
	pushq	%rbp
	.seh_pushreg	%rbp
	.cfi_def_cfa_offset 16
	.cfi_offset 6, -16
	movq	%rsp, %rbp
	.seh_setframe	%rbp, 0
	.cfi_def_cfa_register 6
	subq	$32, %rsp
	.seh_stackalloc	32
	.seh_endprologue
	movq	%rcx, 16(%rbp)
	movq	%rdx, 24(%rbp)
	.loc 31 47 60
	movq	24(%rbp), %rax
	movq	%rax, %rcx
	call	_ZNK12wxWindowBase16GetWindowVariantEv
	movl	%eax, %edx
	movq	16(%rbp), %rax
	movq	%rax, %rcx
	call	_ZN9wxControl25GetClassDefaultAttributesE15wxWindowVariant
	.loc 31 48 5
	movq	16(%rbp), %rax
	addq	$32, %rsp
	popq	%rbp
	.cfi_restore 6
	.cfi_def_cfa 7, 8
	ret
	.cfi_endproc
.LFE10386:
	.seh_endproc
	.section	.text$_ZN9wxControl9MSWOnDrawEPPv,"x"
	.linkonce discard
	.align 2
	.globl	_ZN9wxControl9MSWOnDrawEPPv
	.def	_ZN9wxControl9MSWOnDrawEPPv;	.scl	2;	.type	32;	.endef
	.seh_proc	_ZN9wxControl9MSWOnDrawEPPv
_ZN9wxControl9MSWOnDrawEPPv:
.LFB10387:
	.loc 31 60 18
	.cfi_startproc
	pushq	%rbp
	.seh_pushreg	%rbp
	.cfi_def_cfa_offset 16
	.cfi_offset 6, -16
	movq	%rsp, %rbp
	.seh_setframe	%rbp, 0
	.cfi_def_cfa_register 6
	.seh_endprologue
	movq	%rcx, 16(%rbp)
	movq	%rdx, 24(%rbp)
	.loc 31 60 57
	movl	$0, %eax
	.loc 31 60 64
	popq	%rbp
	.cfi_restore 6
	.cfi_def_cfa 7, 8
	ret
	.cfi_endproc
.LFE10387:
	.seh_endproc
	.section	.text$_ZN9wxControl12MSWOnMeasureEPPv,"x"
	.linkonce discard
	.align 2
	.globl	_ZN9wxControl12MSWOnMeasureEPPv
	.def	_ZN9wxControl12MSWOnMeasureEPPv;	.scl	2;	.type	32;	.endef
	.seh_proc	_ZN9wxControl12MSWOnMeasureEPPv
_ZN9wxControl12MSWOnMeasureEPPv:
.LFB10388:
	.loc 31 61 18
	.cfi_startproc
	pushq	%rbp
	.seh_pushreg	%rbp
	.cfi_def_cfa_offset 16
	.cfi_offset 6, -16
	movq	%rsp, %rbp
	.seh_setframe	%rbp, 0
	.cfi_def_cfa_register 6
	.seh_endprologue
	movq	%rcx, 16(%rbp)
	movq	%rdx, 24(%rbp)
	.loc 31 61 63
	movl	$0, %eax
	.loc 31 61 70
	popq	%rbp
	.cfi_restore 6
	.cfi_def_cfa 7, 8
	ret
	.cfi_endproc
.LFE10388:
	.seh_endproc
	.section	.text$_ZN9wxControlD2Ev,"x"
	.linkonce discard
	.align 2
	.globl	_ZN9wxControlD2Ev
	.def	_ZN9wxControlD2Ev;	.scl	2;	.type	32;	.endef
	.seh_proc	_ZN9wxControlD2Ev
_ZN9wxControlD2Ev:
.LFB10392:
	.loc 31 17 7
	.cfi_startproc
	pushq	%rbp
	.seh_pushreg	%rbp
	.cfi_def_cfa_offset 16
	.cfi_offset 6, -16
	movq	%rsp, %rbp
	.seh_setframe	%rbp, 0
	.cfi_def_cfa_register 6
	subq	$32, %rsp
	.seh_stackalloc	32
	.seh_endprologue
	movq	%rcx, 16(%rbp)
.LBB60:
	.loc 31 17 7
	movq	.refptr._ZTV9wxControl(%rip), %rax
	leaq	16(%rax), %rdx
	movq	16(%rbp), %rax
	movq	%rdx, (%rax)
	movq	16(%rbp), %rax
	addq	$624, %rax
	movq	%rax, %rcx
	call	_ZN11wxArrayLongD1Ev
	movq	16(%rbp), %rax
	movq	%rax, %rcx
	call	_ZN13wxControlBaseD2Ev
.LBE60:
	nop
	addq	$32, %rsp
	popq	%rbp
	.cfi_restore 6
	.cfi_def_cfa 7, 8
	ret
	.cfi_endproc
.LFE10392:
	.seh_endproc
	.section	.text$_ZN15wxAnyButtonBaseC2Ev,"x"
	.linkonce discard
	.align 2
	.globl	_ZN15wxAnyButtonBaseC2Ev
	.def	_ZN15wxAnyButtonBaseC2Ev;	.scl	2;	.type	32;	.endef
	.seh_proc	_ZN15wxAnyButtonBaseC2Ev
_ZN15wxAnyButtonBaseC2Ev:
.LFB10395:
	.file 32 "../wxMSW-3.0.5_gcc810_x64_Dev/include/wx/anybutton.h"
	.loc 32 54 5
	.cfi_startproc
	pushq	%rbp
	.seh_pushreg	%rbp
	.cfi_def_cfa_offset 16
	.cfi_offset 6, -16
	movq	%rsp, %rbp
	.seh_setframe	%rbp, 0
	.cfi_def_cfa_register 6
	subq	$32, %rsp
	.seh_stackalloc	32
	.seh_endprologue
	movq	%rcx, 16(%rbp)
.LBB61:
	.loc 32 54 23
	movq	16(%rbp), %rax
	movq	%rax, %rcx
	call	_ZN9wxControlC2Ev
	leaq	16+_ZTV15wxAnyButtonBase(%rip), %rdx
	movq	16(%rbp), %rax
	movq	%rdx, (%rax)
.LBE61:
	.loc 32 54 25
	nop
	addq	$32, %rsp
	popq	%rbp
	.cfi_restore 6
	.cfi_def_cfa 7, 8
	ret
	.cfi_endproc
.LFE10395:
	.seh_endproc
	.section	.text$_ZNK15wxAnyButtonBase20ShouldInheritColoursEv,"x"
	.linkonce discard
	.align 2
	.globl	_ZNK15wxAnyButtonBase20ShouldInheritColoursEv
	.def	_ZNK15wxAnyButtonBase20ShouldInheritColoursEv;	.scl	2;	.type	32;	.endef
	.seh_proc	_ZNK15wxAnyButtonBase20ShouldInheritColoursEv
_ZNK15wxAnyButtonBase20ShouldInheritColoursEv:
.LFB10412:
	.loc 32 105 18
	.cfi_startproc
	pushq	%rbp
	.seh_pushreg	%rbp
	.cfi_def_cfa_offset 16
	.cfi_offset 6, -16
	movq	%rsp, %rbp
	.seh_setframe	%rbp, 0
	.cfi_def_cfa_register 6
	.seh_endprologue
	movq	%rcx, 16(%rbp)
	.loc 32 105 56
	movl	$0, %eax
	.loc 32 105 63
	popq	%rbp
	.cfi_restore 6
	.cfi_def_cfa 7, 8
	ret
	.cfi_endproc
.LFE10412:
	.seh_endproc
	.section	.text$_ZNK15wxAnyButtonBase16GetDefaultBorderEv,"x"
	.linkonce discard
	.align 2
	.globl	_ZNK15wxAnyButtonBase16GetDefaultBorderEv
	.def	_ZNK15wxAnyButtonBase16GetDefaultBorderEv;	.scl	2;	.type	32;	.endef
	.seh_proc	_ZNK15wxAnyButtonBase16GetDefaultBorderEv
_ZNK15wxAnyButtonBase16GetDefaultBorderEv:
.LFB10421:
	.loc 32 153 22
	.cfi_startproc
	pushq	%rbp
	.seh_pushreg	%rbp
	.cfi_def_cfa_offset 16
	.cfi_offset 6, -16
	movq	%rsp, %rbp
	.seh_setframe	%rbp, 0
	.cfi_def_cfa_register 6
	.seh_endprologue
	movq	%rcx, 16(%rbp)
	.loc 32 153 56
	movl	$2097152, %eax
	.loc 32 153 71
	popq	%rbp
	.cfi_restore 6
	.cfi_def_cfa 7, 8
	ret
	.cfi_endproc
.LFE10421:
	.seh_endproc
	.section	.text$_ZNK15wxAnyButtonBase11DoGetBitmapENS_5StateE,"x"
	.linkonce discard
	.align 2
	.globl	_ZNK15wxAnyButtonBase11DoGetBitmapENS_5StateE
	.def	_ZNK15wxAnyButtonBase11DoGetBitmapENS_5StateE;	.scl	2;	.type	32;	.endef
	.seh_proc	_ZNK15wxAnyButtonBase11DoGetBitmapENS_5StateE
_ZNK15wxAnyButtonBase11DoGetBitmapENS_5StateE:
.LFB10422:
	.loc 32 155 22
	.cfi_startproc
	pushq	%rbp
	.seh_pushreg	%rbp
	.cfi_def_cfa_offset 16
	.cfi_offset 6, -16
	movq	%rsp, %rbp
	.seh_setframe	%rbp, 0
	.cfi_def_cfa_register 6
	subq	$32, %rsp
	.seh_stackalloc	32
	.seh_endprologue
	movq	%rcx, 16(%rbp)
	movq	%rdx, 24(%rbp)
	movl	%r8d, 32(%rbp)
	.loc 32 156 27
	movq	16(%rbp), %rcx
	call	_ZN8wxBitmapC1Ev
	.loc 32 156 30
	movq	16(%rbp), %rax
	addq	$32, %rsp
	popq	%rbp
	.cfi_restore 6
	.cfi_def_cfa 7, 8
	ret
	.cfi_endproc
.LFE10422:
	.seh_endproc
	.section	.text$_ZN15wxAnyButtonBase11DoSetBitmapERK8wxBitmapNS_5StateE,"x"
	.linkonce discard
	.align 2
	.globl	_ZN15wxAnyButtonBase11DoSetBitmapERK8wxBitmapNS_5StateE
	.def	_ZN15wxAnyButtonBase11DoSetBitmapERK8wxBitmapNS_5StateE;	.scl	2;	.type	32;	.endef
	.seh_proc	_ZN15wxAnyButtonBase11DoSetBitmapERK8wxBitmapNS_5StateE
_ZN15wxAnyButtonBase11DoSetBitmapERK8wxBitmapNS_5StateE:
.LFB10423:
	.loc 32 157 18
	.cfi_startproc
	pushq	%rbp
	.seh_pushreg	%rbp
	.cfi_def_cfa_offset 16
	.cfi_offset 6, -16
	movq	%rsp, %rbp
	.seh_setframe	%rbp, 0
	.cfi_def_cfa_register 6
	.seh_endprologue
	movq	%rcx, 16(%rbp)
	movq	%rdx, 24(%rbp)
	movl	%r8d, 32(%rbp)
	.loc 32 159 11
	nop
	popq	%rbp
	.cfi_restore 6
	.cfi_def_cfa 7, 8
	ret
	.cfi_endproc
.LFE10423:
	.seh_endproc
	.section	.text$_ZNK15wxAnyButtonBase18DoGetBitmapMarginsEv,"x"
	.linkonce discard
	.align 2
	.globl	_ZNK15wxAnyButtonBase18DoGetBitmapMarginsEv
	.def	_ZNK15wxAnyButtonBase18DoGetBitmapMarginsEv;	.scl	2;	.type	32;	.endef
	.seh_proc	_ZNK15wxAnyButtonBase18DoGetBitmapMarginsEv
_ZNK15wxAnyButtonBase18DoGetBitmapMarginsEv:
.LFB10424:
	.loc 32 161 20
	.cfi_startproc
	pushq	%rbp
	.seh_pushreg	%rbp
	.cfi_def_cfa_offset 16
	.cfi_offset 6, -16
	movq	%rsp, %rbp
	.seh_setframe	%rbp, 0
	.cfi_def_cfa_register 6
	subq	$48, %rsp
	.seh_stackalloc	48
	.seh_endprologue
	movq	%rcx, 16(%rbp)
	.loc 32 162 18
	leaq	-8(%rbp), %rax
	movl	$0, %r8d
	movl	$0, %edx
	movq	%rax, %rcx
	call	_ZN6wxSizeC1Eii
	.loc 32 162 29
	movq	-8(%rbp), %rax
	.loc 32 162 32
	addq	$48, %rsp
	popq	%rbp
	.cfi_restore 6
	.cfi_def_cfa 7, 8
	ret
	.cfi_endproc
.LFE10424:
	.seh_endproc
	.section	.text$_ZN15wxAnyButtonBase18DoSetBitmapMarginsEii,"x"
	.linkonce discard
	.align 2
	.globl	_ZN15wxAnyButtonBase18DoSetBitmapMarginsEii
	.def	_ZN15wxAnyButtonBase18DoSetBitmapMarginsEii;	.scl	2;	.type	32;	.endef
	.seh_proc	_ZN15wxAnyButtonBase18DoSetBitmapMarginsEii
_ZN15wxAnyButtonBase18DoSetBitmapMarginsEii:
.LFB10425:
	.loc 32 164 18
	.cfi_startproc
	pushq	%rbp
	.seh_pushreg	%rbp
	.cfi_def_cfa_offset 16
	.cfi_offset 6, -16
	movq	%rsp, %rbp
	.seh_setframe	%rbp, 0
	.cfi_def_cfa_register 6
	.seh_endprologue
	movq	%rcx, 16(%rbp)
	movl	%edx, 24(%rbp)
	movl	%r8d, 32(%rbp)
	.loc 32 165 11
	nop
	popq	%rbp
	.cfi_restore 6
	.cfi_def_cfa 7, 8
	ret
	.cfi_endproc
.LFE10425:
	.seh_endproc
	.section	.text$_ZN15wxAnyButtonBase19DoSetBitmapPositionE11wxDirection,"x"
	.linkonce discard
	.align 2
	.globl	_ZN15wxAnyButtonBase19DoSetBitmapPositionE11wxDirection
	.def	_ZN15wxAnyButtonBase19DoSetBitmapPositionE11wxDirection;	.scl	2;	.type	32;	.endef
	.seh_proc	_ZN15wxAnyButtonBase19DoSetBitmapPositionE11wxDirection
_ZN15wxAnyButtonBase19DoSetBitmapPositionE11wxDirection:
.LFB10426:
	.loc 32 167 18
	.cfi_startproc
	pushq	%rbp
	.seh_pushreg	%rbp
	.cfi_def_cfa_offset 16
	.cfi_offset 6, -16
	movq	%rsp, %rbp
	.seh_setframe	%rbp, 0
	.cfi_def_cfa_register 6
	.seh_endprologue
	movq	%rcx, 16(%rbp)
	movl	%edx, 24(%rbp)
	.loc 32 168 11
	nop
	popq	%rbp
	.cfi_restore 6
	.cfi_def_cfa 7, 8
	ret
	.cfi_endproc
.LFE10426:
	.seh_endproc
	.section	.text$_ZNK15wxAnyButtonBase15DoGetAuthNeededEv,"x"
	.linkonce discard
	.align 2
	.globl	_ZNK15wxAnyButtonBase15DoGetAuthNeededEv
	.def	_ZNK15wxAnyButtonBase15DoGetAuthNeededEv;	.scl	2;	.type	32;	.endef
	.seh_proc	_ZNK15wxAnyButtonBase15DoGetAuthNeededEv
_ZNK15wxAnyButtonBase15DoGetAuthNeededEv:
.LFB10427:
	.loc 32 170 18
	.cfi_startproc
	pushq	%rbp
	.seh_pushreg	%rbp
	.cfi_def_cfa_offset 16
	.cfi_offset 6, -16
	movq	%rsp, %rbp
	.seh_setframe	%rbp, 0
	.cfi_def_cfa_register 6
	.seh_endprologue
	movq	%rcx, 16(%rbp)
	.loc 32 170 51
	movl	$0, %eax
	.loc 32 170 58
	popq	%rbp
	.cfi_restore 6
	.cfi_def_cfa 7, 8
	ret
	.cfi_endproc
.LFE10427:
	.seh_endproc
	.section	.text$_ZN15wxAnyButtonBase15DoSetAuthNeededEb,"x"
	.linkonce discard
	.align 2
	.globl	_ZN15wxAnyButtonBase15DoSetAuthNeededEb
	.def	_ZN15wxAnyButtonBase15DoSetAuthNeededEb;	.scl	2;	.type	32;	.endef
	.seh_proc	_ZN15wxAnyButtonBase15DoSetAuthNeededEb
_ZN15wxAnyButtonBase15DoSetAuthNeededEb:
.LFB10428:
	.loc 32 171 18
	.cfi_startproc
	pushq	%rbp
	.seh_pushreg	%rbp
	.cfi_def_cfa_offset 16
	.cfi_offset 6, -16
	movq	%rsp, %rbp
	.seh_setframe	%rbp, 0
	.cfi_def_cfa_register 6
	.seh_endprologue
	movq	%rcx, 16(%rbp)
	movl	%edx, %eax
	movb	%al, 24(%rbp)
	.loc 32 171 43
	nop
	popq	%rbp
	.cfi_restore 6
	.cfi_def_cfa 7, 8
	ret
	.cfi_endproc
.LFE10428:
	.seh_endproc
	.section	.text$_ZN15wxAnyButtonBaseD1Ev,"x"
	.linkonce discard
	.align 2
	.globl	_ZN15wxAnyButtonBaseD1Ev
	.def	_ZN15wxAnyButtonBaseD1Ev;	.scl	2;	.type	32;	.endef
	.seh_proc	_ZN15wxAnyButtonBaseD1Ev
_ZN15wxAnyButtonBaseD1Ev:
.LFB10432:
	.loc 32 51 7
	.cfi_startproc
	pushq	%rbp
	.seh_pushreg	%rbp
	.cfi_def_cfa_offset 16
	.cfi_offset 6, -16
	movq	%rsp, %rbp
	.seh_setframe	%rbp, 0
	.cfi_def_cfa_register 6
	subq	$32, %rsp
	.seh_stackalloc	32
	.seh_endprologue
	movq	%rcx, 16(%rbp)
.LBB62:
	.loc 32 51 7
	leaq	16+_ZTV15wxAnyButtonBase(%rip), %rdx
	movq	16(%rbp), %rax
	movq	%rdx, (%rax)
	movq	16(%rbp), %rax
	movq	%rax, %rcx
	call	_ZN9wxControlD2Ev
.LBE62:
	nop
	addq	$32, %rsp
	popq	%rbp
	.cfi_restore 6
	.cfi_def_cfa 7, 8
	ret
	.cfi_endproc
.LFE10432:
	.seh_endproc
	.section	.text$_ZN15wxAnyButtonBaseD0Ev,"x"
	.linkonce discard
	.align 2
	.globl	_ZN15wxAnyButtonBaseD0Ev
	.def	_ZN15wxAnyButtonBaseD0Ev;	.scl	2;	.type	32;	.endef
	.seh_proc	_ZN15wxAnyButtonBaseD0Ev
_ZN15wxAnyButtonBaseD0Ev:
.LFB10433:
	.loc 32 51 7
	.cfi_startproc
	pushq	%rbp
	.seh_pushreg	%rbp
	.cfi_def_cfa_offset 16
	.cfi_offset 6, -16
	movq	%rsp, %rbp
	.seh_setframe	%rbp, 0
	.cfi_def_cfa_register 6
	subq	$32, %rsp
	.seh_stackalloc	32
	.seh_endprologue
	movq	%rcx, 16(%rbp)
	.loc 32 51 7
	movq	16(%rbp), %rcx
	call	_ZN15wxAnyButtonBaseD1Ev
	movq	16(%rbp), %rcx
	call	_ZdlPv
	nop
	addq	$32, %rsp
	popq	%rbp
	.cfi_restore 6
	.cfi_def_cfa 7, 8
	ret
	.cfi_endproc
.LFE10433:
	.seh_endproc
	.section	.text$_ZN11wxAnyButtonC2Ev,"x"
	.linkonce discard
	.align 2
	.globl	_ZN11wxAnyButtonC2Ev
	.def	_ZN11wxAnyButtonC2Ev;	.scl	2;	.type	32;	.endef
	.seh_proc	_ZN11wxAnyButtonC2Ev
_ZN11wxAnyButtonC2Ev:
.LFB10434:
	.file 33 "../wxMSW-3.0.5_gcc810_x64_Dev/include/wx/msw/anybutton.h"
	.loc 33 20 5
	.cfi_startproc
	pushq	%rbp
	.seh_pushreg	%rbp
	.cfi_def_cfa_offset 16
	.cfi_offset 6, -16
	movq	%rsp, %rbp
	.seh_setframe	%rbp, 0
	.cfi_def_cfa_register 6
	subq	$32, %rsp
	.seh_stackalloc	32
	.seh_endprologue
	movq	%rcx, 16(%rbp)
.LBB63:
	.loc 33 21 5
	movq	16(%rbp), %rax
	movq	%rax, %rcx
	call	_ZN15wxAnyButtonBaseC2Ev
	movq	.refptr._ZTV11wxAnyButton(%rip), %rax
	leaq	16(%rax), %rdx
	movq	16(%rbp), %rax
	movq	%rdx, (%rax)
	.loc 33 22 21
	movq	16(%rbp), %rax
	movq	$0, 648(%rax)
	.loc 33 24 22
	movq	16(%rbp), %rax
	movq	$0, 656(%rax)
.LBE63:
	.loc 33 26 5
	nop
	addq	$32, %rsp
	popq	%rbp
	.cfi_restore 6
	.cfi_def_cfa 7, 8
	ret
	.cfi_endproc
.LFE10434:
	.seh_endproc
	.section	.text$_ZN12wxButtonBaseC2Ev,"x"
	.linkonce discard
	.align 2
	.globl	_ZN12wxButtonBaseC2Ev
	.def	_ZN12wxButtonBaseC2Ev;	.scl	2;	.type	32;	.endef
	.seh_proc	_ZN12wxButtonBaseC2Ev
_ZN12wxButtonBaseC2Ev:
.LFB10439:
	.file 34 "../wxMSW-3.0.5_gcc810_x64_Dev/include/wx/button.h"
	.loc 34 29 5
	.cfi_startproc
	pushq	%rbp
	.seh_pushreg	%rbp
	.cfi_def_cfa_offset 16
	.cfi_offset 6, -16
	movq	%rsp, %rbp
	.seh_setframe	%rbp, 0
	.cfi_def_cfa_register 6
	subq	$32, %rsp
	.seh_stackalloc	32
	.seh_endprologue
	movq	%rcx, 16(%rbp)
.LBB64:
	.loc 34 29 20
	movq	16(%rbp), %rax
	movq	%rax, %rcx
	call	_ZN11wxAnyButtonC2Ev
	movq	.refptr._ZTV12wxButtonBase(%rip), %rax
	leaq	16(%rax), %rdx
	movq	16(%rbp), %rax
	movq	%rdx, (%rax)
.LBE64:
	.loc 34 29 22
	nop
	addq	$32, %rsp
	popq	%rbp
	.cfi_restore 6
	.cfi_def_cfa 7, 8
	ret
	.cfi_endproc
.LFE10439:
	.seh_endproc
	.section	.text$_ZN12wxButtonBaseD2Ev,"x"
	.linkonce discard
	.align 2
	.globl	_ZN12wxButtonBaseD2Ev
	.def	_ZN12wxButtonBaseD2Ev;	.scl	2;	.type	32;	.endef
	.seh_proc	_ZN12wxButtonBaseD2Ev
_ZN12wxButtonBaseD2Ev:
.LFB10445:
	.loc 34 26 7
	.cfi_startproc
	pushq	%rbp
	.seh_pushreg	%rbp
	.cfi_def_cfa_offset 16
	.cfi_offset 6, -16
	movq	%rsp, %rbp
	.seh_setframe	%rbp, 0
	.cfi_def_cfa_register 6
	subq	$32, %rsp
	.seh_stackalloc	32
	.seh_endprologue
	movq	%rcx, 16(%rbp)
.LBB65:
	.loc 34 26 7
	movq	.refptr._ZTV12wxButtonBase(%rip), %rax
	leaq	16(%rax), %rdx
	movq	16(%rbp), %rax
	movq	%rdx, (%rax)
	movq	16(%rbp), %rax
	movq	%rax, %rcx
	call	_ZN11wxAnyButtonD2Ev
.LBE65:
	nop
	addq	$32, %rsp
	popq	%rbp
	.cfi_restore 6
	.cfi_def_cfa 7, 8
	ret
	.cfi_endproc
.LFE10445:
	.seh_endproc
	.section	.text$_ZN8wxButtonC1EP8wxWindowiRK8wxStringRK7wxPointRK6wxSizelRK11wxValidatorS4_,"x"
	.linkonce discard
	.align 2
	.globl	_ZN8wxButtonC1EP8wxWindowiRK8wxStringRK7wxPointRK6wxSizelRK11wxValidatorS4_
	.def	_ZN8wxButtonC1EP8wxWindowiRK8wxStringRK7wxPointRK6wxSizelRK11wxValidatorS4_;	.scl	2;	.type	32;	.endef
	.seh_proc	_ZN8wxButtonC1EP8wxWindowiRK8wxStringRK7wxPointRK6wxSizelRK11wxValidatorS4_
_ZN8wxButtonC1EP8wxWindowiRK8wxStringRK7wxPointRK6wxSizelRK11wxValidatorS4_:
.LFB10452:
	.file 35 "../wxMSW-3.0.5_gcc810_x64_Dev/include/wx/msw/button.h"
	.loc 35 22 5
	.cfi_startproc
	pushq	%rbp
	.seh_pushreg	%rbp
	.cfi_def_cfa_offset 16
	.cfi_offset 6, -16
	pushq	%rbx
	.seh_pushreg	%rbx
	.cfi_def_cfa_offset 24
	.cfi_offset 3, -24
	subq	$88, %rsp
	.seh_stackalloc	88
	.cfi_def_cfa_offset 112
	leaq	128(%rsp), %rbp
	.seh_setframe	%rbp, 128
	.cfi_def_cfa 6, -16
	.seh_endprologue
	movq	%rcx, -16(%rbp)
	movq	%rdx, -8(%rbp)
	movl	%r8d, 0(%rbp)
	movq	%r9, 8(%rbp)
.LBB66:
	.loc 35 30 5
	movq	-16(%rbp), %rax
	movq	%rax, %rcx
.LEHB32:
	call	_ZN12wxButtonBaseC2Ev
.LEHE32:
	movq	.refptr._ZTV8wxButton(%rip), %rax
	leaq	16(%rax), %rdx
	movq	-16(%rbp), %rax
	movq	%rdx, (%rax)
	.loc 35 31 13
	movq	-16(%rbp), %rcx
	call	_ZN8wxButton4InitEv
	.loc 35 33 15
	movq	8(%rbp), %r8
	movl	0(%rbp), %ecx
	movq	-8(%rbp), %rax
	movq	48(%rbp), %rdx
	movq	%rdx, 64(%rsp)
	movq	40(%rbp), %rdx
	movq	%rdx, 56(%rsp)
	movl	32(%rbp), %edx
	movl	%edx, 48(%rsp)
	movq	24(%rbp), %rdx
	movq	%rdx, 40(%rsp)
	movq	16(%rbp), %rdx
	movq	%rdx, 32(%rsp)
	movq	%r8, %r9
	movl	%ecx, %r8d
	movq	%rax, %rdx
	movq	-16(%rbp), %rcx
.LEHB33:
	call	_ZN8wxButton6CreateEP8wxWindowiRK8wxStringRK7wxPointRK6wxSizelRK11wxValidatorS4_
.LEHE33:
.LBE66:
	.loc 35 34 5
	jmp	.L365
.L364:
	movq	%rax, %rbx
.LBB67:
	.loc 35 30 5
	movq	-16(%rbp), %rax
	movq	%rax, %rcx
	call	_ZN12wxButtonBaseD2Ev
	movq	%rbx, %rax
	movq	%rax, %rcx
.LEHB34:
	call	_Unwind_Resume
	nop
.LEHE34:
.L365:
.LBE67:
	.loc 35 34 5
	addq	$88, %rsp
	popq	%rbx
	.cfi_restore 3
	popq	%rbp
	.cfi_restore 6
	.cfi_def_cfa 7, -72
	ret
	.cfi_endproc
.LFE10452:
	.seh_handler	__gxx_personality_seh0, @unwind, @except
	.seh_handlerdata
.LLSDA10452:
	.byte	0xff
	.byte	0xff
	.byte	0x1
	.uleb128 .LLSDACSE10452-.LLSDACSB10452
.LLSDACSB10452:
	.uleb128 .LEHB32-.LFB10452
	.uleb128 .LEHE32-.LEHB32
	.uleb128 0
	.uleb128 0
	.uleb128 .LEHB33-.LFB10452
	.uleb128 .LEHE33-.LEHB33
	.uleb128 .L364-.LFB10452
	.uleb128 0
	.uleb128 .LEHB34-.LFB10452
	.uleb128 .LEHE34-.LEHB34
	.uleb128 0
	.uleb128 0
.LLSDACSE10452:
	.section	.text$_ZN8wxButtonC1EP8wxWindowiRK8wxStringRK7wxPointRK6wxSizelRK11wxValidatorS4_,"x"
	.linkonce discard
	.seh_endproc
	.section	.text$_ZN8wxButton4InitEv,"x"
	.linkonce discard
	.align 2
	.globl	_ZN8wxButton4InitEv
	.def	_ZN8wxButton4InitEv;	.scl	2;	.type	32;	.endef
	.seh_proc	_ZN8wxButton4InitEv
_ZN8wxButton4InitEv:
.LFB10453:
	.loc 35 74 10
	.cfi_startproc
	pushq	%rbp
	.seh_pushreg	%rbp
	.cfi_def_cfa_offset 16
	.cfi_offset 6, -16
	movq	%rsp, %rbp
	.seh_setframe	%rbp, 0
	.cfi_def_cfa_register 6
	.seh_endprologue
	movq	%rcx, 16(%rbp)
	.loc 35 76 22
	movq	16(%rbp), %rax
	movb	$0, 664(%rax)
	.loc 35 77 5
	nop
	popq	%rbp
	.cfi_restore 6
	.cfi_def_cfa 7, 8
	ret
	.cfi_endproc
.LFE10453:
	.seh_endproc
	.section	.text$_ZN14wxCheckBoxBaseC2Ev,"x"
	.linkonce discard
	.align 2
	.globl	_ZN14wxCheckBoxBaseC2Ev
	.def	_ZN14wxCheckBoxBaseC2Ev;	.scl	2;	.type	32;	.endef
	.seh_proc	_ZN14wxCheckBoxBaseC2Ev
_ZN14wxCheckBoxBaseC2Ev:
.LFB10455:
	.file 36 "../wxMSW-3.0.5_gcc810_x64_Dev/include/wx/checkbox.h"
	.loc 36 52 5
	.cfi_startproc
	pushq	%rbp
	.seh_pushreg	%rbp
	.cfi_def_cfa_offset 16
	.cfi_offset 6, -16
	movq	%rsp, %rbp
	.seh_setframe	%rbp, 0
	.cfi_def_cfa_register 6
	subq	$32, %rsp
	.seh_stackalloc	32
	.seh_endprologue
	movq	%rcx, 16(%rbp)
.LBB68:
	.loc 36 52 22
	movq	16(%rbp), %rax
	movq	%rax, %rcx
	call	_ZN9wxControlC2Ev
	leaq	16+_ZTV14wxCheckBoxBase(%rip), %rdx
	movq	16(%rbp), %rax
	movq	%rdx, (%rax)
.LBE68:
	.loc 36 52 24
	nop
	addq	$32, %rsp
	popq	%rbp
	.cfi_restore 6
	.cfi_def_cfa 7, 8
	ret
	.cfi_endproc
.LFE10455:
	.seh_endproc
	.section .rdata,"dr"
.LC8:
	.ascii "!Is3State()\0"
	.align 8
.LC9:
	.ascii "..\\wxMSW-3.0.5_gcc810_x64_Dev\\include/wx/checkbox.h\0"
	.align 8
.LC10:
	.ascii "C\0a\0l\0l\0i\0n\0g\0 \0I\0s\0C\0h\0e\0c\0k\0e\0d\0(\0)\0 \0d\0o\0e\0s\0n\0'\0t\0 \0m\0a\0k\0e\0 \0s\0e\0n\0s\0e\0 \0f\0o\0r\0 \0a\0 \0t\0h\0r\0e\0e\0 \0s\0t\0a\0t\0e\0 \0c\0h\0e\0c\0k\0b\0o\0x\0,\0 \0U\0s\0e\0 \0G\0e\0t\0"
	.ascii "3\0S\0t\0a\0t\0e\0V\0a\0l\0u\0e\0(\0)\0 \0i\0n\0s\0t\0e\0a\0d\0\0\0"
	.section	.text$_ZNK14wxCheckBoxBase9IsCheckedEv,"x"
	.linkonce discard
	.align 2
	.globl	_ZNK14wxCheckBoxBase9IsCheckedEv
	.def	_ZNK14wxCheckBoxBase9IsCheckedEv;	.scl	2;	.type	32;	.endef
	.seh_proc	_ZNK14wxCheckBoxBase9IsCheckedEv
_ZNK14wxCheckBoxBase9IsCheckedEv:
.LFB10457:
	.loc 36 58 10
	.cfi_startproc
	pushq	%rbp
	.seh_pushreg	%rbp
	.cfi_def_cfa_offset 16
	.cfi_offset 6, -16
	movq	%rsp, %rbp
	.seh_setframe	%rbp, 0
	.cfi_def_cfa_register 6
	subq	$48, %rsp
	.seh_stackalloc	48
	.seh_endprologue
	movq	%rcx, 16(%rbp)
	.loc 36 60 54
	movq	.refptr.wxTheAssertHandler(%rip), %rax
	movq	(%rax), %rax
	.loc 36 60 56
	testq	%rax, %rax
	je	.L369
	.loc 36 60 41 discriminator 1
	movq	16(%rbp), %rcx
	call	_ZNK14wxCheckBoxBase8Is3StateEv
	.loc 36 60 38 discriminator 1
	testb	%al, %al
	je	.L369
	.loc 36 60 70 discriminator 3
	leaq	.LC10(%rip), %rax
	movq	%rax, 32(%rsp)
	leaq	.LC8(%rip), %r9
	leaq	_ZZNK14wxCheckBoxBase9IsCheckedEvE12__FUNCTION__(%rip), %r8
	movl	$61, %edx
	leaq	.LC9(%rip), %rcx
	call	_Z10wxOnAssertPKciS0_S0_PKw
	.loc 36 60 56 discriminator 3
	movq	.refptr.wxTrapInAssert(%rip), %rax
	movzbl	(%rax), %eax
	testb	%al, %al
	je	.L369
	.loc 36 60 56 is_stmt 0 discriminator 5
	movl	$1, %eax
	jmp	.L370
.L369:
	.loc 36 60 56 discriminator 6
	movl	$0, %eax
.L370:
	.loc 36 60 14 is_stmt 1 discriminator 8
	testb	%al, %al
	je	.L371
	.loc 36 60 180 discriminator 9
	movq	.refptr.wxTrapInAssert(%rip), %rax
	movb	$0, (%rax)
	.loc 36 60 195 discriminator 9
	call	_Z6wxTrapv
.L371:
	.loc 36 63 25
	movq	16(%rbp), %rax
	movq	(%rax), %rax
	addq	$1816, %rax
	movq	(%rax), %rax
	.loc 36 63 24
	movq	16(%rbp), %rcx
	call	*%rax
.LVL22:
	.loc 36 64 5
	addq	$48, %rsp
	popq	%rbp
	.cfi_restore 6
	.cfi_def_cfa 7, 8
	ret
	.cfi_endproc
.LFE10457:
	.seh_endproc
	.section	.text$_ZNK14wxCheckBoxBase8Is3StateEv,"x"
	.linkonce discard
	.align 2
	.globl	_ZNK14wxCheckBoxBase8Is3StateEv
	.def	_ZNK14wxCheckBoxBase8Is3StateEv;	.scl	2;	.type	32;	.endef
	.seh_proc	_ZNK14wxCheckBoxBase8Is3StateEv
_ZNK14wxCheckBoxBase8Is3StateEv:
.LFB10460:
	.loc 36 93 10
	.cfi_startproc
	pushq	%rbp
	.seh_pushreg	%rbp
	.cfi_def_cfa_offset 16
	.cfi_offset 6, -16
	movq	%rsp, %rbp
	.seh_setframe	%rbp, 0
	.cfi_def_cfa_register 6
	subq	$32, %rsp
	.seh_stackalloc	32
	.seh_endprologue
	movq	%rcx, 16(%rbp)
	.loc 36 93 43
	movq	16(%rbp), %rax
	movl	$4096, %edx
	movq	%rax, %rcx
	call	_ZNK12wxWindowBase7HasFlagEi
	.loc 36 93 53
	addq	$32, %rsp
	popq	%rbp
	.cfi_restore 6
	.cfi_def_cfa 7, 8
	ret
	.cfi_endproc
.LFE10460:
	.seh_endproc
	.section	.text$_ZN14wxCheckBoxBase24HasTransparentBackgroundEv,"x"
	.linkonce discard
	.align 2
	.globl	_ZN14wxCheckBoxBase24HasTransparentBackgroundEv
	.def	_ZN14wxCheckBoxBase24HasTransparentBackgroundEv;	.scl	2;	.type	32;	.endef
	.seh_proc	_ZN14wxCheckBoxBase24HasTransparentBackgroundEv
_ZN14wxCheckBoxBase24HasTransparentBackgroundEv:
.LFB10462:
	.loc 36 100 18
	.cfi_startproc
	pushq	%rbp
	.seh_pushreg	%rbp
	.cfi_def_cfa_offset 16
	.cfi_offset 6, -16
	movq	%rsp, %rbp
	.seh_setframe	%rbp, 0
	.cfi_def_cfa_register 6
	.seh_endprologue
	movq	%rcx, 16(%rbp)
	.loc 36 100 54
	movl	$1, %eax
	.loc 36 100 60
	popq	%rbp
	.cfi_restore 6
	.cfi_def_cfa 7, 8
	ret
	.cfi_endproc
.LFE10462:
	.seh_endproc
	.section	.text$_ZN14wxCheckBoxBase16DoUpdateWindowUIER15wxUpdateUIEvent,"x"
	.linkonce discard
	.align 2
	.globl	_ZN14wxCheckBoxBase16DoUpdateWindowUIER15wxUpdateUIEvent
	.def	_ZN14wxCheckBoxBase16DoUpdateWindowUIER15wxUpdateUIEvent;	.scl	2;	.type	32;	.endef
	.seh_proc	_ZN14wxCheckBoxBase16DoUpdateWindowUIER15wxUpdateUIEvent
_ZN14wxCheckBoxBase16DoUpdateWindowUIER15wxUpdateUIEvent:
.LFB10463:
	.loc 36 103 18
	.cfi_startproc
	pushq	%rbp
	.seh_pushreg	%rbp
	.cfi_def_cfa_offset 16
	.cfi_offset 6, -16
	pushq	%rbx
	.seh_pushreg	%rbx
	.cfi_def_cfa_offset 24
	.cfi_offset 3, -24
	subq	$40, %rsp
	.seh_stackalloc	40
	.cfi_def_cfa_offset 64
	leaq	128(%rsp), %rbp
	.seh_setframe	%rbp, 128
	.cfi_def_cfa 6, -64
	.seh_endprologue
	movq	%rcx, -64(%rbp)
	movq	%rdx, -56(%rbp)
	.loc 36 105 36
	movq	-64(%rbp), %rax
	movq	-56(%rbp), %rdx
	movq	%rax, %rcx
	call	_ZN13wxControlBase16DoUpdateWindowUIER15wxUpdateUIEvent
	.loc 36 107 33
	movq	-56(%rbp), %rax
	movq	%rax, %rcx
	call	_ZNK15wxUpdateUIEvent13GetSetCheckedEv
	.loc 36 107 9
	testb	%al, %al
	je	.L379
	.loc 36 108 40
	movq	-64(%rbp), %rax
	movq	(%rax), %rax
	addq	$1808, %rax
	movq	(%rax), %rbx
	.loc 36 108 38
	movq	-56(%rbp), %rax
	movq	%rax, %rcx
	call	_ZNK15wxUpdateUIEvent10GetCheckedEv
	.loc 36 108 21
	movzbl	%al, %eax
	movl	%eax, %edx
	movq	-64(%rbp), %rcx
	call	*%rbx
.LVL23:
.L379:
	.loc 36 109 5
	nop
	addq	$40, %rsp
	popq	%rbx
	.cfi_restore 3
	popq	%rbp
	.cfi_restore 6
	.cfi_def_cfa 7, -24
	ret
	.cfi_endproc
.LFE10463:
	.seh_endproc
	.section	.text$_ZNK14wxCheckBoxBase16GetDefaultBorderEv,"x"
	.linkonce discard
	.align 2
	.globl	_ZNK14wxCheckBoxBase16GetDefaultBorderEv
	.def	_ZNK14wxCheckBoxBase16GetDefaultBorderEv;	.scl	2;	.type	32;	.endef
	.seh_proc	_ZNK14wxCheckBoxBase16GetDefaultBorderEv
_ZNK14wxCheckBoxBase16GetDefaultBorderEv:
.LFB10464:
	.loc 36 113 22
	.cfi_startproc
	pushq	%rbp
	.seh_pushreg	%rbp
	.cfi_def_cfa_offset 16
	.cfi_offset 6, -16
	movq	%rsp, %rbp
	.seh_setframe	%rbp, 0
	.cfi_def_cfa_register 6
	.seh_endprologue
	movq	%rcx, 16(%rbp)
	.loc 36 113 56
	movl	$2097152, %eax
	.loc 36 113 71
	popq	%rbp
	.cfi_restore 6
	.cfi_def_cfa 7, 8
	ret
	.cfi_endproc
.LFE10464:
	.seh_endproc
	.section .rdata,"dr"
.LC11:
	.ascii "Assert failure\0"
	.section	.text$_ZN14wxCheckBoxBase16DoSet3StateValueE15wxCheckBoxState,"x"
	.linkonce discard
	.align 2
	.globl	_ZN14wxCheckBoxBase16DoSet3StateValueE15wxCheckBoxState
	.def	_ZN14wxCheckBoxBase16DoSet3StateValueE15wxCheckBoxState;	.scl	2;	.type	32;	.endef
	.seh_proc	_ZN14wxCheckBoxBase16DoSet3StateValueE15wxCheckBoxState
_ZN14wxCheckBoxBase16DoSet3StateValueE15wxCheckBoxState:
.LFB10465:
	.loc 36 115 18
	.cfi_startproc
	pushq	%rbp
	.seh_pushreg	%rbp
	.cfi_def_cfa_offset 16
	.cfi_offset 6, -16
	movq	%rsp, %rbp
	.seh_setframe	%rbp, 0
	.cfi_def_cfa_register 6
	subq	$48, %rsp
	.seh_stackalloc	48
	.seh_endprologue
	movq	%rcx, 16(%rbp)
	movl	%edx, 24(%rbp)
	.loc 36 115 86
	movq	.refptr.wxTheAssertHandler(%rip), %rax
	movq	(%rax), %rax
	.loc 36 115 84
	testq	%rax, %rax
	je	.L383
	.loc 36 115 98 discriminator 1
	movq	$0, 32(%rsp)
	leaq	.LC11(%rip), %r9
	leaq	_ZZN14wxCheckBoxBase16DoSet3StateValueE15wxCheckBoxStateE12__FUNCTION__(%rip), %r8
	movl	$115, %edx
	leaq	.LC9(%rip), %rcx
	call	_Z10wxOnAssertPKciS0_S0_S0_
	.loc 36 115 84 discriminator 1
	movq	.refptr.wxTrapInAssert(%rip), %rax
	movzbl	(%rax), %eax
	testb	%al, %al
	je	.L383
	.loc 36 115 84 is_stmt 0 discriminator 3
	movl	$1, %eax
	jmp	.L384
.L383:
	.loc 36 115 84 discriminator 4
	movl	$0, %eax
.L384:
	.loc 36 115 60 is_stmt 1 discriminator 6
	testb	%al, %al
	je	.L386
	.loc 36 115 107 discriminator 7
	movq	.refptr.wxTrapInAssert(%rip), %rax
	movb	$0, (%rax)
	.loc 36 115 122 discriminator 7
	call	_Z6wxTrapv
.L386:
	.loc 36 115 152
	nop
	addq	$48, %rsp
	popq	%rbp
	.cfi_restore 6
	.cfi_def_cfa 7, 8
	ret
	.cfi_endproc
.LFE10465:
	.seh_endproc
	.section	.text$_ZNK14wxCheckBoxBase16DoGet3StateValueEv,"x"
	.linkonce discard
	.align 2
	.globl	_ZNK14wxCheckBoxBase16DoGet3StateValueEv
	.def	_ZNK14wxCheckBoxBase16DoGet3StateValueEv;	.scl	2;	.type	32;	.endef
	.seh_proc	_ZNK14wxCheckBoxBase16DoGet3StateValueEv
_ZNK14wxCheckBoxBase16DoGet3StateValueEv:
.LFB10466:
	.loc 36 117 29
	.cfi_startproc
	pushq	%rbp
	.seh_pushreg	%rbp
	.cfi_def_cfa_offset 16
	.cfi_offset 6, -16
	movq	%rsp, %rbp
	.seh_setframe	%rbp, 0
	.cfi_def_cfa_register 6
	subq	$48, %rsp
	.seh_stackalloc	48
	.seh_endprologue
	movq	%rcx, 16(%rbp)
	.loc 36 119 25
	movq	.refptr.wxTheAssertHandler(%rip), %rax
	movq	(%rax), %rax
	.loc 36 119 38
	testq	%rax, %rax
	je	.L388
	.loc 36 119 52 discriminator 1
	movq	$0, 32(%rsp)
	leaq	.LC11(%rip), %r9
	leaq	_ZZNK14wxCheckBoxBase16DoGet3StateValueEvE12__FUNCTION__(%rip), %r8
	movl	$119, %edx
	leaq	.LC9(%rip), %rcx
	call	_Z10wxOnAssertPKciS0_S0_S0_
	.loc 36 119 38 discriminator 1
	movq	.refptr.wxTrapInAssert(%rip), %rax
	movzbl	(%rax), %eax
	testb	%al, %al
	je	.L388
	.loc 36 119 38 is_stmt 0 discriminator 3
	movl	$1, %eax
	jmp	.L389
.L388:
	.loc 36 119 38 discriminator 4
	movl	$0, %eax
.L389:
	.loc 36 119 14 is_stmt 1 discriminator 6
	testb	%al, %al
	je	.L390
	.loc 36 119 46 discriminator 7
	movq	.refptr.wxTrapInAssert(%rip), %rax
	movb	$0, (%rax)
	.loc 36 119 61 discriminator 7
	call	_Z6wxTrapv
.L390:
	.loc 36 120 16
	movl	$0, %eax
	.loc 36 121 5
	addq	$48, %rsp
	popq	%rbp
	.cfi_restore 6
	.cfi_def_cfa 7, 8
	ret
	.cfi_endproc
.LFE10466:
	.seh_endproc
	.section	.text$_ZN14wxCheckBoxBaseD2Ev,"x"
	.linkonce discard
	.align 2
	.globl	_ZN14wxCheckBoxBaseD2Ev
	.def	_ZN14wxCheckBoxBaseD2Ev;	.scl	2;	.type	32;	.endef
	.seh_proc	_ZN14wxCheckBoxBaseD2Ev
_ZN14wxCheckBoxBaseD2Ev:
.LFB10470:
	.loc 36 49 7
	.cfi_startproc
	pushq	%rbp
	.seh_pushreg	%rbp
	.cfi_def_cfa_offset 16
	.cfi_offset 6, -16
	movq	%rsp, %rbp
	.seh_setframe	%rbp, 0
	.cfi_def_cfa_register 6
	subq	$32, %rsp
	.seh_stackalloc	32
	.seh_endprologue
	movq	%rcx, 16(%rbp)
.LBB69:
	.loc 36 49 7
	leaq	16+_ZTV14wxCheckBoxBase(%rip), %rdx
	movq	16(%rbp), %rax
	movq	%rdx, (%rax)
	movq	16(%rbp), %rax
	movq	%rax, %rcx
	call	_ZN9wxControlD2Ev
.LBE69:
	nop
	addq	$32, %rsp
	popq	%rbp
	.cfi_restore 6
	.cfi_def_cfa 7, 8
	ret
	.cfi_endproc
.LFE10470:
	.seh_endproc
	.section	.text$_ZN10wxCheckBoxC1EP8wxWindowiRK8wxStringRK7wxPointRK6wxSizelRK11wxValidatorS4_,"x"
	.linkonce discard
	.align 2
	.globl	_ZN10wxCheckBoxC1EP8wxWindowiRK8wxStringRK7wxPointRK6wxSizelRK11wxValidatorS4_
	.def	_ZN10wxCheckBoxC1EP8wxWindowiRK8wxStringRK7wxPointRK6wxSizelRK11wxValidatorS4_;	.scl	2;	.type	32;	.endef
	.seh_proc	_ZN10wxCheckBoxC1EP8wxWindowiRK8wxStringRK7wxPointRK6wxSizelRK11wxValidatorS4_
_ZN10wxCheckBoxC1EP8wxWindowiRK8wxStringRK7wxPointRK6wxSizelRK11wxValidatorS4_:
.LFB10477:
	.file 37 "../wxMSW-3.0.5_gcc810_x64_Dev/include/wx/msw/checkbox.h"
	.loc 37 19 5
	.cfi_startproc
	pushq	%rbp
	.seh_pushreg	%rbp
	.cfi_def_cfa_offset 16
	.cfi_offset 6, -16
	pushq	%rbx
	.seh_pushreg	%rbx
	.cfi_def_cfa_offset 24
	.cfi_offset 3, -24
	subq	$88, %rsp
	.seh_stackalloc	88
	.cfi_def_cfa_offset 112
	leaq	128(%rsp), %rbp
	.seh_setframe	%rbp, 128
	.cfi_def_cfa 6, -16
	.seh_endprologue
	movq	%rcx, -16(%rbp)
	movq	%rdx, -8(%rbp)
	movl	%r8d, 0(%rbp)
	movq	%r9, 8(%rbp)
.LBB70:
	.loc 37 27 5
	movq	-16(%rbp), %rax
	movq	%rax, %rcx
.LEHB35:
	call	_ZN14wxCheckBoxBaseC2Ev
.LEHE35:
	movq	.refptr._ZTV10wxCheckBox(%rip), %rax
	leaq	16(%rax), %rdx
	movq	-16(%rbp), %rax
	movq	%rdx, (%rax)
	.loc 37 28 15
	movq	8(%rbp), %r8
	movl	0(%rbp), %ecx
	movq	-8(%rbp), %rax
	movq	48(%rbp), %rdx
	movq	%rdx, 64(%rsp)
	movq	40(%rbp), %rdx
	movq	%rdx, 56(%rsp)
	movl	32(%rbp), %edx
	movl	%edx, 48(%rsp)
	movq	24(%rbp), %rdx
	movq	%rdx, 40(%rsp)
	movq	16(%rbp), %rdx
	movq	%rdx, 32(%rsp)
	movq	%r8, %r9
	movl	%ecx, %r8d
	movq	%rax, %rdx
	movq	-16(%rbp), %rcx
.LEHB36:
	call	_ZN10wxCheckBox6CreateEP8wxWindowiRK8wxStringRK7wxPointRK6wxSizelRK11wxValidatorS4_
.LEHE36:
.LBE70:
	.loc 37 29 5
	jmp	.L396
.L395:
	movq	%rax, %rbx
.LBB71:
	.loc 37 27 5
	movq	-16(%rbp), %rax
	movq	%rax, %rcx
	call	_ZN14wxCheckBoxBaseD2Ev
	movq	%rbx, %rax
	movq	%rax, %rcx
.LEHB37:
	call	_Unwind_Resume
	nop
.LEHE37:
.L396:
.LBE71:
	.loc 37 29 5
	addq	$88, %rsp
	popq	%rbx
	.cfi_restore 3
	popq	%rbp
	.cfi_restore 6
	.cfi_def_cfa 7, -72
	ret
	.cfi_endproc
.LFE10477:
	.seh_handler	__gxx_personality_seh0, @unwind, @except
	.seh_handlerdata
.LLSDA10477:
	.byte	0xff
	.byte	0xff
	.byte	0x1
	.uleb128 .LLSDACSE10477-.LLSDACSB10477
.LLSDACSB10477:
	.uleb128 .LEHB35-.LFB10477
	.uleb128 .LEHE35-.LEHB35
	.uleb128 0
	.uleb128 0
	.uleb128 .LEHB36-.LFB10477
	.uleb128 .LEHE36-.LEHB36
	.uleb128 .L395-.LFB10477
	.uleb128 0
	.uleb128 .LEHB37-.LFB10477
	.uleb128 .LEHE37-.LEHB37
	.uleb128 0
	.uleb128 0
.LLSDACSE10477:
	.section	.text$_ZN10wxCheckBoxC1EP8wxWindowiRK8wxStringRK7wxPointRK6wxSizelRK11wxValidatorS4_,"x"
	.linkonce discard
	.seh_endproc
	.section	.text$_ZN24wxItemContainerImmutableC2Ev,"x"
	.linkonce discard
	.align 2
	.globl	_ZN24wxItemContainerImmutableC2Ev
	.def	_ZN24wxItemContainerImmutableC2Ev;	.scl	2;	.type	32;	.endef
	.seh_proc	_ZN24wxItemContainerImmutableC2Ev
_ZN24wxItemContainerImmutableC2Ev:
.LFB10480:
	.file 38 "../wxMSW-3.0.5_gcc810_x64_Dev/include/wx/ctrlsub.h"
	.loc 38 35 5
	.cfi_startproc
	pushq	%rbp
	.seh_pushreg	%rbp
	.cfi_def_cfa_offset 16
	.cfi_offset 6, -16
	movq	%rsp, %rbp
	.seh_setframe	%rbp, 0
	.cfi_def_cfa_register 6
	.seh_endprologue
	movq	%rcx, 16(%rbp)
.LBB72:
	.loc 38 35 32
	movq	.refptr._ZTV24wxItemContainerImmutable(%rip), %rax
	leaq	16(%rax), %rdx
	movq	16(%rbp), %rax
	movq	%rdx, (%rax)
.LBE72:
	.loc 38 35 34
	nop
	popq	%rbp
	.cfi_restore 6
	.cfi_def_cfa 7, 8
	ret
	.cfi_endproc
.LFE10480:
	.seh_endproc
	.section	.text$_ZNK24wxItemContainerImmutable10FindStringERK8wxStringb,"x"
	.linkonce discard
	.align 2
	.globl	_ZNK24wxItemContainerImmutable10FindStringERK8wxStringb
	.def	_ZNK24wxItemContainerImmutable10FindStringERK8wxStringb;	.scl	2;	.type	32;	.endef
	.seh_proc	_ZNK24wxItemContainerImmutable10FindStringERK8wxStringb
_ZNK24wxItemContainerImmutable10FindStringERK8wxStringb:
.LFB10483:
	.loc 38 51 17
	.cfi_startproc
	pushq	%rbp
	.seh_pushreg	%rbp
	.cfi_def_cfa_offset 16
	.cfi_offset 6, -16
	pushq	%rbx
	.seh_pushreg	%rbx
	.cfi_def_cfa_offset 24
	.cfi_offset 3, -24
	subq	$104, %rsp
	.seh_stackalloc	104
	.cfi_def_cfa_offset 128
	leaq	128(%rsp), %rbp
	.seh_setframe	%rbp, 128
	.cfi_def_cfa 6, 0
	.seh_endprologue
	movq	%rcx, 0(%rbp)
	movq	%rdx, 8(%rbp)
	movl	%r8d, %eax
	movb	%al, 16(%rbp)
	.loc 38 53 39
	movq	0(%rbp), %rax
	movq	(%rax), %rax
	addq	$16, %rax
	movq	(%rax), %rax
	.loc 38 53 38
	movq	0(%rbp), %rcx
.LEHB38:
	call	*%rax
.LVL24:
	movl	%eax, -40(%rbp)
.LBB73:
	.loc 38 55 28
	movl	$0, -36(%rbp)
.L402:
	.loc 38 55 37 discriminator 1
	movl	-36(%rbp), %eax
	cmpl	-40(%rbp), %eax
	jnb	.L399
	.loc 38 57 28
	movq	0(%rbp), %rax
	movq	(%rax), %rax
	addq	$24, %rax
	movq	(%rax), %r9
	.loc 38 57 26
	leaq	-96(%rbp), %rax
	movl	-36(%rbp), %edx
	movl	%edx, %r8d
	movq	0(%rbp), %rdx
	movq	%rax, %rcx
	call	*%r9
.LVL25:
.LEHE38:
	.loc 38 57 38
	movzbl	16(%rbp), %ecx
	movq	8(%rbp), %rdx
	leaq	-96(%rbp), %rax
	movl	%ecx, %r8d
	movq	%rax, %rcx
.LEHB39:
	call	_ZNK8wxString8IsSameAsERKS_b
.LEHE39:
	movl	%eax, %ebx
	.loc 38 57 26
	leaq	-96(%rbp), %rax
	movq	%rax, %rcx
	call	_ZN8wxStringD1Ev
	.loc 38 57 13
	testb	%bl, %bl
	je	.L400
	.loc 38 58 29
	movl	-36(%rbp), %eax
	jmp	.L405
.L400:
	.loc 38 55 9 discriminator 2
	addl	$1, -36(%rbp)
	jmp	.L402
.L399:
.LBE73:
	.loc 38 61 19
	movl	$-1, %eax
	jmp	.L405
.L404:
	movq	%rax, %rbx
.LBB74:
	.loc 38 57 26
	leaq	-96(%rbp), %rax
	movq	%rax, %rcx
	call	_ZN8wxStringD1Ev
	movq	%rbx, %rax
	movq	%rax, %rcx
.LEHB40:
	call	_Unwind_Resume
.LEHE40:
.L405:
.LBE74:
	.loc 38 62 5
	addq	$104, %rsp
	popq	%rbx
	.cfi_restore 3
	popq	%rbp
	.cfi_restore 6
	.cfi_def_cfa 7, -88
	ret
	.cfi_endproc
.LFE10483:
	.seh_handler	__gxx_personality_seh0, @unwind, @except
	.seh_handlerdata
.LLSDA10483:
	.byte	0xff
	.byte	0xff
	.byte	0x1
	.uleb128 .LLSDACSE10483-.LLSDACSB10483
.LLSDACSB10483:
	.uleb128 .LEHB38-.LFB10483
	.uleb128 .LEHE38-.LEHB38
	.uleb128 0
	.uleb128 0
	.uleb128 .LEHB39-.LFB10483
	.uleb128 .LEHE39-.LEHB39
	.uleb128 .L404-.LFB10483
	.uleb128 0
	.uleb128 .LEHB40-.LFB10483
	.uleb128 .LEHE40-.LEHB40
	.uleb128 0
	.uleb128 0
.LLSDACSE10483:
	.section	.text$_ZNK24wxItemContainerImmutable10FindStringERK8wxStringb,"x"
	.linkonce discard
	.seh_endproc
	.section	.text$_ZN15wxItemContainer11AppendItemsERK21wxArrayStringsAdapterPPv16wxClientDataType,"x"
	.linkonce discard
	.align 2
	.globl	_ZN15wxItemContainer11AppendItemsERK21wxArrayStringsAdapterPPv16wxClientDataType
	.def	_ZN15wxItemContainer11AppendItemsERK21wxArrayStringsAdapterPPv16wxClientDataType;	.scl	2;	.type	32;	.endef
	.seh_proc	_ZN15wxItemContainer11AppendItemsERK21wxArrayStringsAdapterPPv16wxClientDataType
_ZN15wxItemContainer11AppendItemsERK21wxArrayStringsAdapterPPv16wxClientDataType:
.LFB10487:
	.loc 38 106 9
	.cfi_startproc
	pushq	%rbp
	.seh_pushreg	%rbp
	.cfi_def_cfa_offset 16
	.cfi_offset 6, -16
	movq	%rsp, %rbp
	.seh_setframe	%rbp, 0
	.cfi_def_cfa_register 6
	subq	$32, %rsp
	.seh_stackalloc	32
	.seh_endprologue
	movq	%rcx, 16(%rbp)
	movq	%rdx, 24(%rbp)
	movq	%r8, 32(%rbp)
	movl	%r9d, 40(%rbp)
	.loc 38 110 27
	movq	24(%rbp), %rax
	movq	%rax, %rcx
	call	_ZNK21wxArrayStringsAdapter7IsEmptyEv
	.loc 38 110 9
	testb	%al, %al
	je	.L407
	.loc 38 111 23
	movl	$-1, %eax
	jmp	.L408
.L407:
	.loc 38 113 53
	movq	16(%rbp), %rax
	movq	(%rax), %rax
	addq	$88, %rax
	movq	(%rax), %rax
	.loc 38 113 29
	movl	40(%rbp), %r8d
	movq	32(%rbp), %rcx
	movq	24(%rbp), %rdx
	movl	%r8d, %r9d
	movq	%rcx, %r8
	movq	16(%rbp), %rcx
	call	*%rax
.LVL26:
	.loc 38 113 53
	nop
.L408:
	.loc 38 114 5
	addq	$32, %rsp
	popq	%rbp
	.cfi_restore 6
	.cfi_def_cfa 7, 8
	ret
	.cfi_endproc
.LFE10487:
	.seh_endproc
	.section	.text$_ZN15wxItemContainer11AppendItemsERK21wxArrayStringsAdapter,"x"
	.linkonce discard
	.align 2
	.globl	_ZN15wxItemContainer11AppendItemsERK21wxArrayStringsAdapter
	.def	_ZN15wxItemContainer11AppendItemsERK21wxArrayStringsAdapter;	.scl	2;	.type	32;	.endef
	.seh_proc	_ZN15wxItemContainer11AppendItemsERK21wxArrayStringsAdapter
_ZN15wxItemContainer11AppendItemsERK21wxArrayStringsAdapter:
.LFB10488:
	.loc 38 116 9
	.cfi_startproc
	pushq	%rbp
	.seh_pushreg	%rbp
	.cfi_def_cfa_offset 16
	.cfi_offset 6, -16
	movq	%rsp, %rbp
	.seh_setframe	%rbp, 0
	.cfi_def_cfa_register 6
	subq	$32, %rsp
	.seh_stackalloc	32
	.seh_endprologue
	movq	%rcx, 16(%rbp)
	movq	%rdx, 24(%rbp)
	.loc 38 118 27
	movq	24(%rbp), %rax
	movl	$0, %r9d
	movl	$0, %r8d
	movq	%rax, %rdx
	movq	16(%rbp), %rcx
	call	_ZN15wxItemContainer11AppendItemsERK21wxArrayStringsAdapterPPv16wxClientDataType
	.loc 38 119 5
	addq	$32, %rsp
	popq	%rbp
	.cfi_restore 6
	.cfi_def_cfa 7, 8
	ret
	.cfi_endproc
.LFE10488:
	.seh_endproc
	.section	.text$_ZN15wxItemContainerC2Ev,"x"
	.linkonce discard
	.align 2
	.globl	_ZN15wxItemContainerC2Ev
	.def	_ZN15wxItemContainerC2Ev;	.scl	2;	.type	32;	.endef
	.seh_proc	_ZN15wxItemContainerC2Ev
_ZN15wxItemContainerC2Ev:
.LFB10496:
	.loc 38 187 5
	.cfi_startproc
	pushq	%rbp
	.seh_pushreg	%rbp
	.cfi_def_cfa_offset 16
	.cfi_offset 6, -16
	movq	%rsp, %rbp
	.seh_setframe	%rbp, 0
	.cfi_def_cfa_register 6
	subq	$32, %rsp
	.seh_stackalloc	32
	.seh_endprologue
	movq	%rcx, 16(%rbp)
.LBB75:
	.loc 38 187 23
	movq	16(%rbp), %rax
	movq	%rax, %rcx
	call	_ZN24wxItemContainerImmutableC2Ev
	movq	.refptr._ZTV15wxItemContainer(%rip), %rax
	leaq	16(%rax), %rdx
	movq	16(%rbp), %rax
	movq	%rdx, (%rax)
	.loc 38 187 47
	movq	16(%rbp), %rax
	movl	$0, 8(%rax)
.LBE75:
	.loc 38 187 68
	nop
	addq	$32, %rsp
	popq	%rbp
	.cfi_restore 6
	.cfi_def_cfa 7, 8
	ret
	.cfi_endproc
.LFE10496:
	.seh_endproc
	.section	.text$_ZN15wxItemContainer6AppendERK8wxString,"x"
	.linkonce discard
	.align 2
	.globl	_ZN15wxItemContainer6AppendERK8wxString
	.def	_ZN15wxItemContainer6AppendERK8wxString;	.scl	2;	.type	32;	.endef
	.seh_proc	_ZN15wxItemContainer6AppendERK8wxString
_ZN15wxItemContainer6AppendERK8wxString:
.LFB10498:
	.loc 38 195 9
	.cfi_startproc
	pushq	%rbp
	.seh_pushreg	%rbp
	.cfi_def_cfa_offset 16
	.cfi_offset 6, -16
	movq	%rsp, %rbp
	.seh_setframe	%rbp, 0
	.cfi_def_cfa_register 6
	subq	$64, %rsp
	.seh_stackalloc	64
	.seh_endprologue
	movq	%rcx, 16(%rbp)
	movq	%rdx, 24(%rbp)
	.loc 38 196 29
	movq	24(%rbp), %rdx
	leaq	-32(%rbp), %rax
	movq	%rax, %rcx
	call	_ZN21wxArrayStringsAdapterC1ERK8wxString
	leaq	-32(%rbp), %rax
	movq	%rax, %rdx
	movq	16(%rbp), %rcx
	call	_ZN15wxItemContainer11AppendItemsERK21wxArrayStringsAdapter
	.loc 38 196 34
	nop
	.loc 38 196 37
	addq	$64, %rsp
	popq	%rbp
	.cfi_restore 6
	.cfi_def_cfa 7, 8
	ret
	.cfi_endproc
.LFE10498:
	.seh_endproc
	.section	.text$_ZNK15wxItemContainer8IsSortedEv,"x"
	.linkonce discard
	.align 2
	.globl	_ZNK15wxItemContainer8IsSortedEv
	.def	_ZNK15wxItemContainer8IsSortedEv;	.scl	2;	.type	32;	.endef
	.seh_proc	_ZNK15wxItemContainer8IsSortedEv
_ZNK15wxItemContainer8IsSortedEv:
.LFB10523:
	.loc 38 289 18
	.cfi_startproc
	pushq	%rbp
	.seh_pushreg	%rbp
	.cfi_def_cfa_offset 16
	.cfi_offset 6, -16
	movq	%rsp, %rbp
	.seh_setframe	%rbp, 0
	.cfi_def_cfa_register 6
	.seh_endprologue
	movq	%rcx, 16(%rbp)
	.loc 38 289 44
	movl	$0, %eax
	.loc 38 289 51
	popq	%rbp
	.cfi_restore 6
	.cfi_def_cfa 7, 8
	ret
	.cfi_endproc
.LFE10523:
	.seh_endproc
	.section	.text$_ZNK15wxItemContainer17GetClientDataTypeEv,"x"
	.linkonce discard
	.align 2
	.globl	_ZNK15wxItemContainer17GetClientDataTypeEv
	.def	_ZNK15wxItemContainer17GetClientDataTypeEv;	.scl	2;	.type	32;	.endef
	.seh_proc	_ZNK15wxItemContainer17GetClientDataTypeEv
_ZNK15wxItemContainer17GetClientDataTypeEv:
.LFB10524:
	.loc 38 314 30
	.cfi_startproc
	pushq	%rbp
	.seh_pushreg	%rbp
	.cfi_def_cfa_offset 16
	.cfi_offset 6, -16
	movq	%rsp, %rbp
	.seh_setframe	%rbp, 0
	.cfi_def_cfa_register 6
	.seh_endprologue
	movq	%rcx, 16(%rbp)
	.loc 38 315 18
	movq	16(%rbp), %rax
	movl	8(%rax), %eax
	.loc 38 315 41
	popq	%rbp
	.cfi_restore 6
	.cfi_def_cfa 7, 8
	ret
	.cfi_endproc
.LFE10524:
	.seh_endproc
	.section	.text$_ZN15wxItemContainer13DoAppendItemsERK21wxArrayStringsAdapterPPv16wxClientDataType,"x"
	.linkonce discard
	.align 2
	.globl	_ZN15wxItemContainer13DoAppendItemsERK21wxArrayStringsAdapterPPv16wxClientDataType
	.def	_ZN15wxItemContainer13DoAppendItemsERK21wxArrayStringsAdapterPPv16wxClientDataType;	.scl	2;	.type	32;	.endef
	.seh_proc	_ZN15wxItemContainer13DoAppendItemsERK21wxArrayStringsAdapterPPv16wxClientDataType
_ZN15wxItemContainer13DoAppendItemsERK21wxArrayStringsAdapterPPv16wxClientDataType:
.LFB10528:
	.loc 38 330 17
	.cfi_startproc
	pushq	%rbp
	.seh_pushreg	%rbp
	.cfi_def_cfa_offset 16
	.cfi_offset 6, -16
	pushq	%rbx
	.seh_pushreg	%rbx
	.cfi_def_cfa_offset 24
	.cfi_offset 3, -24
	subq	$56, %rsp
	.seh_stackalloc	56
	.cfi_def_cfa_offset 80
	leaq	128(%rsp), %rbp
	.seh_setframe	%rbp, 128
	.cfi_def_cfa 6, -48
	.seh_endprologue
	movq	%rcx, -48(%rbp)
	movq	%rdx, -40(%rbp)
	movq	%r8, -32(%rbp)
	movl	%r9d, -24(%rbp)
	.loc 38 334 65
	movq	-48(%rbp), %rax
	movq	(%rax), %rax
	addq	$96, %rax
	movq	(%rax), %rbx
	.loc 38 334 29
	movq	-48(%rbp), %rdx
	.loc 38 334 46
	movq	-48(%rbp), %rax
	movq	(%rax), %rax
	addq	$16, %rax
	movq	(%rax), %rax
	.loc 38 334 29
	movq	%rdx, %rcx
	call	*%rax
.LVL27:
	movl	%eax, %r8d
	movq	-32(%rbp), %rcx
	movq	-40(%rbp), %rax
	movl	-24(%rbp), %edx
	movl	%edx, 32(%rsp)
	movq	%rcx, %r9
	movq	%rax, %rdx
	movq	-48(%rbp), %rcx
	call	*%rbx
.LVL28:
	.loc 38 335 5
	addq	$56, %rsp
	popq	%rbx
	.cfi_restore 3
	popq	%rbp
	.cfi_restore 6
	.cfi_def_cfa 7, -40
	ret
	.cfi_endproc
.LFE10528:
	.seh_endproc
	.section	.text$_ZN15wxItemContainer20DoInitItemClientDataEv,"x"
	.linkonce discard
	.align 2
	.globl	_ZN15wxItemContainer20DoInitItemClientDataEv
	.def	_ZN15wxItemContainer20DoInitItemClientDataEv;	.scl	2;	.type	32;	.endef
	.seh_proc	_ZN15wxItemContainer20DoInitItemClientDataEv
_ZN15wxItemContainer20DoInitItemClientDataEv:
.LFB10529:
	.loc 38 355 18
	.cfi_startproc
	pushq	%rbp
	.seh_pushreg	%rbp
	.cfi_def_cfa_offset 16
	.cfi_offset 6, -16
	movq	%rsp, %rbp
	.seh_setframe	%rbp, 0
	.cfi_def_cfa_register 6
	.seh_endprologue
	movq	%rcx, 16(%rbp)
	.loc 38 355 43
	nop
	popq	%rbp
	.cfi_restore 6
	.cfi_def_cfa 7, 8
	ret
	.cfi_endproc
.LFE10529:
	.seh_endproc
	.section	.text$_ZN15wxItemContainer17SetClientDataTypeE16wxClientDataType,"x"
	.linkonce discard
	.align 2
	.globl	_ZN15wxItemContainer17SetClientDataTypeE16wxClientDataType
	.def	_ZN15wxItemContainer17SetClientDataTypeE16wxClientDataType;	.scl	2;	.type	32;	.endef
	.seh_proc	_ZN15wxItemContainer17SetClientDataTypeE16wxClientDataType
_ZN15wxItemContainer17SetClientDataTypeE16wxClientDataType:
.LFB10530:
	.loc 38 387 18
	.cfi_startproc
	pushq	%rbp
	.seh_pushreg	%rbp
	.cfi_def_cfa_offset 16
	.cfi_offset 6, -16
	movq	%rsp, %rbp
	.seh_setframe	%rbp, 0
	.cfi_def_cfa_register 6
	.seh_endprologue
	movq	%rcx, 16(%rbp)
	movl	%edx, 24(%rbp)
	.loc 38 389 31
	movq	16(%rbp), %rax
	movl	24(%rbp), %edx
	movl	%edx, 8(%rax)
	.loc 38 390 5
	nop
	popq	%rbp
	.cfi_restore 6
	.cfi_def_cfa 7, 8
	ret
	.cfi_endproc
.LFE10530:
	.seh_endproc
	.section	.text$_ZN22wxControlWithItemsBaseC2Ev,"x"
	.linkonce discard
	.align 2
	.globl	_ZN22wxControlWithItemsBaseC2Ev
	.def	_ZN22wxControlWithItemsBaseC2Ev;	.scl	2;	.type	32;	.endef
	.seh_proc	_ZN22wxControlWithItemsBaseC2Ev
_ZN22wxControlWithItemsBaseC2Ev:
.LFB10545:
	.loc 38 437 5
	.cfi_startproc
	pushq	%rbp
	.seh_pushreg	%rbp
	.cfi_def_cfa_offset 16
	.cfi_offset 6, -16
	movq	%rsp, %rbp
	.seh_setframe	%rbp, 0
	.cfi_def_cfa_register 6
	subq	$32, %rsp
	.seh_stackalloc	32
	.seh_endprologue
	movq	%rcx, 16(%rbp)
.LBB76:
	.loc 38 437 30
	movq	16(%rbp), %rax
	movq	%rax, %rcx
	call	_ZN17wxWindowWithItemsI9wxControl15wxItemContainerEC2Ev
	leaq	16+_ZTV22wxControlWithItemsBase(%rip), %rdx
	movq	16(%rbp), %rax
	movq	%rdx, (%rax)
	leaq	1840+_ZTV22wxControlWithItemsBase(%rip), %rdx
	movq	16(%rbp), %rax
	movq	%rdx, 648(%rax)
.LBE76:
	.loc 38 437 32
	nop
	addq	$32, %rsp
	popq	%rbp
	.cfi_restore 6
	.cfi_def_cfa 7, 8
	ret
	.cfi_endproc
.LFE10545:
	.seh_endproc
	.section	.text$_ZNK22wxControlWithItemsBase20ShouldInheritColoursEv,"x"
	.linkonce discard
	.align 2
	.globl	_ZNK22wxControlWithItemsBase20ShouldInheritColoursEv
	.def	_ZNK22wxControlWithItemsBase20ShouldInheritColoursEv;	.scl	2;	.type	32;	.endef
	.seh_proc	_ZNK22wxControlWithItemsBase20ShouldInheritColoursEv
_ZNK22wxControlWithItemsBase20ShouldInheritColoursEv:
.LFB10547:
	.loc 38 441 18
	.cfi_startproc
	pushq	%rbp
	.seh_pushreg	%rbp
	.cfi_def_cfa_offset 16
	.cfi_offset 6, -16
	movq	%rsp, %rbp
	.seh_setframe	%rbp, 0
	.cfi_def_cfa_register 6
	.seh_endprologue
	movq	%rcx, 16(%rbp)
	.loc 38 441 56
	movl	$0, %eax
	.loc 38 441 63
	popq	%rbp
	.cfi_restore 6
	.cfi_def_cfa 7, 8
	ret
	.cfi_endproc
.LFE10547:
	.seh_endproc
	.section	.text$_ZN18wxControlWithItemsC2Ev,"x"
	.linkonce discard
	.align 2
	.globl	_ZN18wxControlWithItemsC2Ev
	.def	_ZN18wxControlWithItemsC2Ev;	.scl	2;	.type	32;	.endef
	.seh_proc	_ZN18wxControlWithItemsC2Ev
_ZN18wxControlWithItemsC2Ev:
.LFB10553:
	.file 39 "../wxMSW-3.0.5_gcc810_x64_Dev/include/wx/msw/ctrlsub.h"
	.loc 39 20 5
	.cfi_startproc
	pushq	%rbp
	.seh_pushreg	%rbp
	.cfi_def_cfa_offset 16
	.cfi_offset 6, -16
	movq	%rsp, %rbp
	.seh_setframe	%rbp, 0
	.cfi_def_cfa_register 6
	subq	$32, %rsp
	.seh_stackalloc	32
	.seh_endprologue
	movq	%rcx, 16(%rbp)
.LBB77:
	.loc 39 20 26
	movq	16(%rbp), %rax
	movq	%rax, %rcx
	call	_ZN22wxControlWithItemsBaseC2Ev
	movq	.refptr._ZTV18wxControlWithItems(%rip), %rax
	leaq	16(%rax), %rdx
	movq	16(%rbp), %rax
	movq	%rdx, (%rax)
	movq	.refptr._ZTV18wxControlWithItems(%rip), %rax
	leaq	1848(%rax), %rdx
	movq	16(%rbp), %rax
	movq	%rdx, 648(%rax)
.LBE77:
	.loc 39 20 28
	nop
	addq	$32, %rsp
	popq	%rbp
	.cfi_restore 6
	.cfi_def_cfa 7, 8
	ret
	.cfi_endproc
.LFE10553:
	.seh_endproc
	.section	.text$_ZN12wxChoiceBaseC2Ev,"x"
	.linkonce discard
	.align 2
	.globl	_ZN12wxChoiceBaseC2Ev
	.def	_ZN12wxChoiceBaseC2Ev;	.scl	2;	.type	32;	.endef
	.seh_proc	_ZN12wxChoiceBaseC2Ev
_ZN12wxChoiceBaseC2Ev:
.LFB10561:
	.file 40 "../wxMSW-3.0.5_gcc810_x64_Dev/include/wx/choice.h"
	.loc 40 37 5
	.cfi_startproc
	pushq	%rbp
	.seh_pushreg	%rbp
	.cfi_def_cfa_offset 16
	.cfi_offset 6, -16
	movq	%rsp, %rbp
	.seh_setframe	%rbp, 0
	.cfi_def_cfa_register 6
	subq	$32, %rsp
	.seh_stackalloc	32
	.seh_endprologue
	movq	%rcx, 16(%rbp)
.LBB78:
	.loc 40 37 20
	movq	16(%rbp), %rax
	movq	%rax, %rcx
	call	_ZN18wxControlWithItemsC2Ev
	movq	.refptr._ZTV12wxChoiceBase(%rip), %rax
	leaq	16(%rax), %rdx
	movq	16(%rbp), %rax
	movq	%rdx, (%rax)
	movq	.refptr._ZTV12wxChoiceBase(%rip), %rax
	leaq	1880(%rax), %rdx
	movq	16(%rbp), %rax
	movq	%rdx, 648(%rax)
.LBE78:
	.loc 40 37 22
	nop
	addq	$32, %rsp
	popq	%rbp
	.cfi_restore 6
	.cfi_def_cfa 7, 8
	ret
	.cfi_endproc
.LFE10561:
	.seh_endproc
	.section	.text$_ZN8wxChoiceC1EP8wxWindowiRK7wxPointRK6wxSizeiPK8wxStringlRK11wxValidatorRS9_,"x"
	.linkonce discard
	.align 2
	.globl	_ZN8wxChoiceC1EP8wxWindowiRK7wxPointRK6wxSizeiPK8wxStringlRK11wxValidatorRS9_
	.def	_ZN8wxChoiceC1EP8wxWindowiRK7wxPointRK6wxSizeiPK8wxStringlRK11wxValidatorRS9_;	.scl	2;	.type	32;	.endef
	.seh_proc	_ZN8wxChoiceC1EP8wxWindowiRK7wxPointRK6wxSizeiPK8wxStringlRK11wxValidatorRS9_
_ZN8wxChoiceC1EP8wxWindowiRK7wxPointRK6wxSizeiPK8wxStringlRK11wxValidatorRS9_:
.LFB10572:
	.file 41 "../wxMSW-3.0.5_gcc810_x64_Dev/include/wx/msw/choice.h"
	.loc 41 27 5
	.cfi_startproc
	pushq	%rbp
	.seh_pushreg	%rbp
	.cfi_def_cfa_offset 16
	.cfi_offset 6, -16
	pushq	%rbx
	.seh_pushreg	%rbx
	.cfi_def_cfa_offset 24
	.cfi_offset 3, -24
	subq	$88, %rsp
	.seh_stackalloc	88
	.cfi_def_cfa_offset 112
	leaq	128(%rsp), %rbp
	.seh_setframe	%rbp, 128
	.cfi_def_cfa 6, -16
	.seh_endprologue
	movq	%rcx, -16(%rbp)
	movq	%rdx, -8(%rbp)
	movl	%r8d, 0(%rbp)
	movq	%r9, 8(%rbp)
.LBB79:
	.loc 41 35 5
	movq	-16(%rbp), %rax
	movq	%rax, %rcx
.LEHB41:
	call	_ZN12wxChoiceBaseC2Ev
.LEHE41:
	movq	.refptr._ZTV8wxChoice(%rip), %rax
	leaq	16(%rax), %rdx
	movq	-16(%rbp), %rax
	movq	%rdx, (%rax)
	movq	.refptr._ZTV8wxChoice(%rip), %rax
	leaq	1968(%rax), %rdx
	movq	-16(%rbp), %rax
	movq	%rdx, 648(%rax)
	.loc 41 36 13
	movq	-16(%rbp), %rcx
	call	_ZN8wxChoice4InitEv
	.loc 41 37 15
	movq	8(%rbp), %r8
	movl	0(%rbp), %ecx
	movq	-8(%rbp), %rax
	movq	56(%rbp), %rdx
	movq	%rdx, 72(%rsp)
	movq	48(%rbp), %rdx
	movq	%rdx, 64(%rsp)
	movl	40(%rbp), %edx
	movl	%edx, 56(%rsp)
	movq	32(%rbp), %rdx
	movq	%rdx, 48(%rsp)
	movl	24(%rbp), %edx
	movl	%edx, 40(%rsp)
	movq	16(%rbp), %rdx
	movq	%rdx, 32(%rsp)
	movq	%r8, %r9
	movl	%ecx, %r8d
	movq	%rax, %rdx
	movq	-16(%rbp), %rcx
.LEHB42:
	call	_ZN8wxChoice6CreateEP8wxWindowiRK7wxPointRK6wxSizeiPK8wxStringlRK11wxValidatorRS9_
.LEHE42:
.LBE79:
	.loc 41 38 5
	jmp	.L430
.L429:
	movq	%rax, %rbx
.LBB80:
	.loc 41 35 5
	movq	-16(%rbp), %rax
	movq	%rax, %rcx
	call	_ZN12wxChoiceBaseD2Ev
	movq	%rbx, %rax
	movq	%rax, %rcx
.LEHB43:
	call	_Unwind_Resume
	nop
.LEHE43:
.L430:
.LBE80:
	.loc 41 38 5
	addq	$88, %rsp
	popq	%rbx
	.cfi_restore 3
	popq	%rbp
	.cfi_restore 6
	.cfi_def_cfa 7, -72
	ret
	.cfi_endproc
.LFE10572:
	.seh_handler	__gxx_personality_seh0, @unwind, @except
	.seh_handlerdata
.LLSDA10572:
	.byte	0xff
	.byte	0xff
	.byte	0x1
	.uleb128 .LLSDACSE10572-.LLSDACSB10572
.LLSDACSB10572:
	.uleb128 .LEHB41-.LFB10572
	.uleb128 .LEHE41-.LEHB41
	.uleb128 0
	.uleb128 0
	.uleb128 .LEHB42-.LFB10572
	.uleb128 .LEHE42-.LEHB42
	.uleb128 .L429-.LFB10572
	.uleb128 0
	.uleb128 .LEHB43-.LFB10572
	.uleb128 .LEHE43-.LEHB43
	.uleb128 0
	.uleb128 0
.LLSDACSE10572:
	.section	.text$_ZN8wxChoiceC1EP8wxWindowiRK7wxPointRK6wxSizeiPK8wxStringlRK11wxValidatorRS9_,"x"
	.linkonce discard
	.seh_endproc
	.section	.text$_ZN8wxChoice4InitEv,"x"
	.linkonce discard
	.align 2
	.globl	_ZN8wxChoice4InitEv
	.def	_ZN8wxChoice4InitEv;	.scl	2;	.type	32;	.endef
	.seh_proc	_ZN8wxChoice4InitEv
_ZN8wxChoice4InitEv:
.LFB10579:
	.loc 41 106 10
	.cfi_startproc
	pushq	%rbp
	.seh_pushreg	%rbp
	.cfi_def_cfa_offset 16
	.cfi_offset 6, -16
	movq	%rsp, %rbp
	.seh_setframe	%rbp, 0
	.cfi_def_cfa_register 6
	.seh_endprologue
	movq	%rcx, 16(%rbp)
	.loc 41 109 28
	movq	16(%rbp), %rax
	movl	$-3, 664(%rax)
	.loc 41 109 9
	movq	16(%rbp), %rax
	movl	664(%rax), %edx
	.loc 41 108 33
	movq	16(%rbp), %rax
	movl	%edx, 660(%rax)
	.loc 41 110 21
	movq	16(%rbp), %rax
	movl	$-1, 668(%rax)
	.loc 41 111 5
	nop
	popq	%rbp
	.cfi_restore 6
	.cfi_def_cfa 7, 8
	ret
	.cfi_endproc
.LFE10579:
	.seh_endproc
	.section	.text$_ZNK20wxNonOwnedWindowBase27AdjustForParentClientOriginERiS0_i,"x"
	.linkonce discard
	.align 2
	.globl	_ZNK20wxNonOwnedWindowBase27AdjustForParentClientOriginERiS0_i
	.def	_ZNK20wxNonOwnedWindowBase27AdjustForParentClientOriginERiS0_i;	.scl	2;	.type	32;	.endef
	.seh_proc	_ZNK20wxNonOwnedWindowBase27AdjustForParentClientOriginERiS0_i
_ZNK20wxNonOwnedWindowBase27AdjustForParentClientOriginERiS0_i:
.LFB10581:
	.file 42 "../wxMSW-3.0.5_gcc810_x64_Dev/include/wx/nonownedwnd.h"
	.loc 42 64 18
	.cfi_startproc
	pushq	%rbp
	.seh_pushreg	%rbp
	.cfi_def_cfa_offset 16
	.cfi_offset 6, -16
	movq	%rsp, %rbp
	.seh_setframe	%rbp, 0
	.cfi_def_cfa_register 6
	.seh_endprologue
	movq	%rcx, 16(%rbp)
	movq	%rdx, 24(%rbp)
	movq	%r8, 32(%rbp)
	movl	%r9d, 40(%rbp)
	.loc 42 69 5
	nop
	popq	%rbp
	.cfi_restore 6
	.cfi_def_cfa 7, 8
	ret
	.cfi_endproc
.LFE10581:
	.seh_endproc
	.section	.text$_ZN20wxNonOwnedWindowBase17InheritAttributesEv,"x"
	.linkonce discard
	.align 2
	.globl	_ZN20wxNonOwnedWindowBase17InheritAttributesEv
	.def	_ZN20wxNonOwnedWindowBase17InheritAttributesEv;	.scl	2;	.type	32;	.endef
	.seh_proc	_ZN20wxNonOwnedWindowBase17InheritAttributesEv
_ZN20wxNonOwnedWindowBase17InheritAttributesEv:
.LFB10582:
	.loc 42 71 18
	.cfi_startproc
	pushq	%rbp
	.seh_pushreg	%rbp
	.cfi_def_cfa_offset 16
	.cfi_offset 6, -16
	movq	%rsp, %rbp
	.seh_setframe	%rbp, 0
	.cfi_def_cfa_register 6
	.seh_endprologue
	movq	%rcx, 16(%rbp)
	.loc 42 76 5
	nop
	popq	%rbp
	.cfi_restore 6
	.cfi_def_cfa 7, 8
	ret
	.cfi_endproc
.LFE10582:
	.seh_endproc
	.section	.text$_ZN20wxTopLevelWindowBase8IsActiveEv,"x"
	.linkonce discard
	.align 2
	.globl	_ZN20wxTopLevelWindowBase8IsActiveEv
	.def	_ZN20wxTopLevelWindowBase8IsActiveEv;	.scl	2;	.type	32;	.endef
	.seh_proc	_ZN20wxTopLevelWindowBase8IsActiveEv
_ZN20wxTopLevelWindowBase8IsActiveEv:
.LFB10693:
	.file 43 "../wxMSW-3.0.5_gcc810_x64_Dev/include/wx/toplevel.h"
	.loc 43 226 18
	.cfi_startproc
	pushq	%rbp
	.seh_pushreg	%rbp
	.cfi_def_cfa_offset 16
	.cfi_offset 6, -16
	pushq	%rbx
	.seh_pushreg	%rbx
	.cfi_def_cfa_offset 24
	.cfi_offset 3, -24
	subq	$40, %rsp
	.seh_stackalloc	40
	.cfi_def_cfa_offset 64
	leaq	128(%rsp), %rbp
	.seh_setframe	%rbp, 128
	.cfi_def_cfa 6, -64
	.seh_endprologue
	movq	%rcx, -64(%rbp)
	.loc 43 226 50
	movq	-64(%rbp), %rbx
	.loc 43 226 60
	call	_ZN12wxWindowBase9FindFocusEv
	.loc 43 226 50
	movq	%rax, %rdx
	movq	%rbx, %rcx
	call	_ZNK12wxWindowBase12IsDescendantEPS_
	.loc 43 226 65
	addq	$40, %rsp
	popq	%rbx
	.cfi_restore 3
	popq	%rbp
	.cfi_restore 6
	.cfi_def_cfa 7, -24
	ret
	.cfi_endproc
.LFE10693:
	.seh_endproc
	.section	.text$_ZNK20wxTopLevelWindowBase20ShouldPreventAppExitEv,"x"
	.linkonce discard
	.align 2
	.globl	_ZNK20wxTopLevelWindowBase20ShouldPreventAppExitEv
	.def	_ZNK20wxTopLevelWindowBase20ShouldPreventAppExitEv;	.scl	2;	.type	32;	.endef
	.seh_proc	_ZNK20wxTopLevelWindowBase20ShouldPreventAppExitEv
_ZNK20wxTopLevelWindowBase20ShouldPreventAppExitEv:
.LFB10694:
	.loc 43 233 18
	.cfi_startproc
	pushq	%rbp
	.seh_pushreg	%rbp
	.cfi_def_cfa_offset 16
	.cfi_offset 6, -16
	movq	%rsp, %rbp
	.seh_setframe	%rbp, 0
	.cfi_def_cfa_register 6
	.seh_endprologue
	movq	%rcx, 16(%rbp)
	.loc 43 233 56
	movl	$1, %eax
	.loc 43 233 62
	popq	%rbp
	.cfi_restore 6
	.cfi_def_cfa 7, 8
	ret
	.cfi_endproc
.LFE10694:
	.seh_endproc
	.section	.text$_ZNK20wxTopLevelWindowBase10IsTopLevelEv,"x"
	.linkonce discard
	.align 2
	.globl	_ZNK20wxTopLevelWindowBase10IsTopLevelEv
	.def	_ZNK20wxTopLevelWindowBase10IsTopLevelEv;	.scl	2;	.type	32;	.endef
	.seh_proc	_ZNK20wxTopLevelWindowBase10IsTopLevelEv
_ZNK20wxTopLevelWindowBase10IsTopLevelEv:
.LFB10701:
	.loc 43 277 18
	.cfi_startproc
	pushq	%rbp
	.seh_pushreg	%rbp
	.cfi_def_cfa_offset 16
	.cfi_offset 6, -16
	movq	%rsp, %rbp
	.seh_setframe	%rbp, 0
	.cfi_def_cfa_register 6
	.seh_endprologue
	movq	%rcx, 16(%rbp)
	.loc 43 277 46
	movl	$1, %eax
	.loc 43 277 52
	popq	%rbp
	.cfi_restore 6
	.cfi_def_cfa 7, 8
	ret
	.cfi_endproc
.LFE10701:
	.seh_endproc
	.section	.text$_ZNK20wxTopLevelWindowBase21IsTopNavigationDomainEv,"x"
	.linkonce discard
	.align 2
	.globl	_ZNK20wxTopLevelWindowBase21IsTopNavigationDomainEv
	.def	_ZNK20wxTopLevelWindowBase21IsTopNavigationDomainEv;	.scl	2;	.type	32;	.endef
	.seh_proc	_ZNK20wxTopLevelWindowBase21IsTopNavigationDomainEv
_ZNK20wxTopLevelWindowBase21IsTopNavigationDomainEv:
.LFB10702:
	.loc 43 278 18
	.cfi_startproc
	pushq	%rbp
	.seh_pushreg	%rbp
	.cfi_def_cfa_offset 16
	.cfi_offset 6, -16
	movq	%rsp, %rbp
	.seh_setframe	%rbp, 0
	.cfi_def_cfa_register 6
	.seh_endprologue
	movq	%rcx, 16(%rbp)
	.loc 43 278 57
	movl	$1, %eax
	.loc 43 278 63
	popq	%rbp
	.cfi_restore 6
	.cfi_def_cfa 7, 8
	ret
	.cfi_endproc
.LFE10702:
	.seh_endproc
	.section	.text$_ZNK20wxTopLevelWindowBase9IsVisibleEv,"x"
	.linkonce discard
	.align 2
	.globl	_ZNK20wxTopLevelWindowBase9IsVisibleEv
	.def	_ZNK20wxTopLevelWindowBase9IsVisibleEv;	.scl	2;	.type	32;	.endef
	.seh_proc	_ZNK20wxTopLevelWindowBase9IsVisibleEv
_ZNK20wxTopLevelWindowBase9IsVisibleEv:
.LFB10703:
	.loc 43 279 18
	.cfi_startproc
	pushq	%rbp
	.seh_pushreg	%rbp
	.cfi_def_cfa_offset 16
	.cfi_offset 6, -16
	movq	%rsp, %rbp
	.seh_setframe	%rbp, 0
	.cfi_def_cfa_register 6
	subq	$32, %rsp
	.seh_stackalloc	32
	.seh_endprologue
	movq	%rcx, 16(%rbp)
	.loc 43 279 52
	movq	16(%rbp), %rdx
	.loc 43 279 53
	movq	16(%rbp), %rax
	movq	(%rax), %rax
	addq	$480, %rax
	movq	(%rax), %rax
	.loc 43 279 52
	movq	%rdx, %rcx
	call	*%rax
.LVL29:
	.loc 43 279 56
	addq	$32, %rsp
	popq	%rbp
	.cfi_restore 6
	.cfi_def_cfa 7, 8
	ret
	.cfi_endproc
.LFE10703:
	.seh_endproc
	.section	.text$_ZN20wxTopLevelWindowBase14OSXSetModifiedEb,"x"
	.linkonce discard
	.align 2
	.globl	_ZN20wxTopLevelWindowBase14OSXSetModifiedEb
	.def	_ZN20wxTopLevelWindowBase14OSXSetModifiedEb;	.scl	2;	.type	32;	.endef
	.seh_proc	_ZN20wxTopLevelWindowBase14OSXSetModifiedEb
_ZN20wxTopLevelWindowBase14OSXSetModifiedEb:
.LFB10706:
	.loc 43 299 18
	.cfi_startproc
	pushq	%rbp
	.seh_pushreg	%rbp
	.cfi_def_cfa_offset 16
	.cfi_offset 6, -16
	movq	%rsp, %rbp
	.seh_setframe	%rbp, 0
	.cfi_def_cfa_register 6
	.seh_endprologue
	movq	%rcx, 16(%rbp)
	movl	%edx, %eax
	movb	%al, 24(%rbp)
	.loc 43 299 61
	movq	16(%rbp), %rdx
	movzbl	24(%rbp), %eax
	movb	%al, 640(%rdx)
	.loc 43 299 73
	nop
	popq	%rbp
	.cfi_restore 6
	.cfi_def_cfa 7, 8
	ret
	.cfi_endproc
.LFE10706:
	.seh_endproc
	.section	.text$_ZNK20wxTopLevelWindowBase13OSXIsModifiedEv,"x"
	.linkonce discard
	.align 2
	.globl	_ZNK20wxTopLevelWindowBase13OSXIsModifiedEv
	.def	_ZNK20wxTopLevelWindowBase13OSXIsModifiedEv;	.scl	2;	.type	32;	.endef
	.seh_proc	_ZNK20wxTopLevelWindowBase13OSXIsModifiedEv
_ZNK20wxTopLevelWindowBase13OSXIsModifiedEv:
.LFB10707:
	.loc 43 300 18
	.cfi_startproc
	pushq	%rbp
	.seh_pushreg	%rbp
	.cfi_def_cfa_offset 16
	.cfi_offset 6, -16
	movq	%rsp, %rbp
	.seh_setframe	%rbp, 0
	.cfi_def_cfa_register 6
	.seh_endprologue
	movq	%rcx, 16(%rbp)
	.loc 43 300 49
	movq	16(%rbp), %rax
	movzbl	640(%rax), %eax
	.loc 43 300 61
	popq	%rbp
	.cfi_restore 6
	.cfi_def_cfa 7, 8
	ret
	.cfi_endproc
.LFE10707:
	.seh_endproc
	.section	.text$_ZN20wxTopLevelWindowBase22SetRepresentedFilenameERK8wxString,"x"
	.linkonce discard
	.align 2
	.globl	_ZN20wxTopLevelWindowBase22SetRepresentedFilenameERK8wxString
	.def	_ZN20wxTopLevelWindowBase22SetRepresentedFilenameERK8wxString;	.scl	2;	.type	32;	.endef
	.seh_proc	_ZN20wxTopLevelWindowBase22SetRepresentedFilenameERK8wxString
_ZN20wxTopLevelWindowBase22SetRepresentedFilenameERK8wxString:
.LFB10708:
	.loc 43 302 18
	.cfi_startproc
	pushq	%rbp
	.seh_pushreg	%rbp
	.cfi_def_cfa_offset 16
	.cfi_offset 6, -16
	movq	%rsp, %rbp
	.seh_setframe	%rbp, 0
	.cfi_def_cfa_register 6
	.seh_endprologue
	movq	%rcx, 16(%rbp)
	movq	%rdx, 24(%rbp)
	.loc 43 302 61
	nop
	popq	%rbp
	.cfi_restore 6
	.cfi_def_cfa 7, 8
	ret
	.cfi_endproc
.LFE10708:
	.seh_endproc
	.section	.text$_ZN20wxTopLevelWindowBase10DoGiveHelpERK8wxStringb,"x"
	.linkonce discard
	.align 2
	.globl	_ZN20wxTopLevelWindowBase10DoGiveHelpERK8wxStringb
	.def	_ZN20wxTopLevelWindowBase10DoGiveHelpERK8wxStringb;	.scl	2;	.type	32;	.endef
	.seh_proc	_ZN20wxTopLevelWindowBase10DoGiveHelpERK8wxStringb
_ZN20wxTopLevelWindowBase10DoGiveHelpERK8wxStringb:
.LFB10709:
	.loc 43 308 18
	.cfi_startproc
	pushq	%rbp
	.seh_pushreg	%rbp
	.cfi_def_cfa_offset 16
	.cfi_offset 6, -16
	movq	%rsp, %rbp
	.seh_setframe	%rbp, 0
	.cfi_def_cfa_register 6
	.seh_endprologue
	movq	%rcx, 16(%rbp)
	movq	%rdx, 24(%rbp)
	movl	%r8d, %eax
	movb	%al, 32(%rbp)
	.loc 43 308 55
	nop
	popq	%rbp
	.cfi_restore 6
	.cfi_def_cfa 7, 8
	ret
	.cfi_endproc
.LFE10709:
	.seh_endproc
	.section	.text$_ZNK20wxTopLevelWindowBase19DoGetScreenPositionEPiS0_,"x"
	.linkonce discard
	.align 2
	.globl	_ZNK20wxTopLevelWindowBase19DoGetScreenPositionEPiS0_
	.def	_ZNK20wxTopLevelWindowBase19DoGetScreenPositionEPiS0_;	.scl	2;	.type	32;	.endef
	.seh_proc	_ZNK20wxTopLevelWindowBase19DoGetScreenPositionEPiS0_
_ZNK20wxTopLevelWindowBase19DoGetScreenPositionEPiS0_:
.LFB10710:
	.loc 43 322 18
	.cfi_startproc
	pushq	%rbp
	.seh_pushreg	%rbp
	.cfi_def_cfa_offset 16
	.cfi_offset 6, -16
	movq	%rsp, %rbp
	.seh_setframe	%rbp, 0
	.cfi_def_cfa_register 6
	subq	$32, %rsp
	.seh_stackalloc	32
	.seh_endprologue
	movq	%rcx, 16(%rbp)
	movq	%rdx, 24(%rbp)
	movq	%r8, 32(%rbp)
	.loc 43 324 22
	movq	16(%rbp), %rcx
	.loc 43 324 27
	movq	16(%rbp), %rax
	movq	(%rax), %rax
	addq	$1304, %rax
	movq	(%rax), %rax
	.loc 43 324 22
	movq	32(%rbp), %r8
	movq	24(%rbp), %rdx
	call	*%rax
.LVL30:
	.loc 43 325 5
	nop
	addq	$32, %rsp
	popq	%rbp
	.cfi_restore 6
	.cfi_def_cfa 7, 8
	ret
	.cfi_endproc
.LFE10710:
	.seh_endproc
	.section	.text$_ZNK20wxTopLevelWindowBase11IsOneOfBarsEPK8wxWindow,"x"
	.linkonce discard
	.align 2
	.globl	_ZNK20wxTopLevelWindowBase11IsOneOfBarsEPK8wxWindow
	.def	_ZNK20wxTopLevelWindowBase11IsOneOfBarsEPK8wxWindow;	.scl	2;	.type	32;	.endef
	.seh_proc	_ZNK20wxTopLevelWindowBase11IsOneOfBarsEPK8wxWindow
_ZNK20wxTopLevelWindowBase11IsOneOfBarsEPK8wxWindow:
.LFB10711:
	.loc 43 329 18
	.cfi_startproc
	pushq	%rbp
	.seh_pushreg	%rbp
	.cfi_def_cfa_offset 16
	.cfi_offset 6, -16
	movq	%rsp, %rbp
	.seh_setframe	%rbp, 0
	.cfi_def_cfa_register 6
	.seh_endprologue
	movq	%rcx, 16(%rbp)
	movq	%rdx, 24(%rbp)
	.loc 43 330 18
	movl	$0, %eax
	.loc 43 330 25
	popq	%rbp
	.cfi_restore 6
	.cfi_def_cfa 7, 8
	ret
	.cfi_endproc
.LFE10711:
	.seh_endproc
	.section	.text$_ZNK19wxTopLevelWindowMSW12IsFullScreenEv,"x"
	.linkonce discard
	.align 2
	.globl	_ZNK19wxTopLevelWindowMSW12IsFullScreenEv
	.def	_ZNK19wxTopLevelWindowMSW12IsFullScreenEv;	.scl	2;	.type	32;	.endef
	.seh_proc	_ZNK19wxTopLevelWindowMSW12IsFullScreenEv
_ZNK19wxTopLevelWindowMSW12IsFullScreenEv:
.LFB10720:
	.file 44 "../wxMSW-3.0.5_gcc810_x64_Dev/include/wx/msw/toplevel.h"
	.loc 44 66 18
	.cfi_startproc
	pushq	%rbp
	.seh_pushreg	%rbp
	.cfi_def_cfa_offset 16
	.cfi_offset 6, -16
	movq	%rsp, %rbp
	.seh_setframe	%rbp, 0
	.cfi_def_cfa_register 6
	.seh_endprologue
	movq	%rcx, 16(%rbp)
	.loc 44 66 48
	movq	16(%rbp), %rax
	movzbl	669(%rax), %eax
	.loc 44 66 63
	popq	%rbp
	.cfi_restore 6
	.cfi_def_cfa 7, 8
	ret
	.cfi_endproc
.LFE10720:
	.seh_endproc
	.section	.text$_ZNK19wxTopLevelWindowMSW19CanApplyThemeBorderEv,"x"
	.linkonce discard
	.align 2
	.globl	_ZNK19wxTopLevelWindowMSW19CanApplyThemeBorderEv
	.def	_ZNK19wxTopLevelWindowMSW19CanApplyThemeBorderEv;	.scl	2;	.type	32;	.endef
	.seh_proc	_ZNK19wxTopLevelWindowMSW19CanApplyThemeBorderEv
_ZNK19wxTopLevelWindowMSW19CanApplyThemeBorderEv:
.LFB10723:
	.loc 44 122 18
	.cfi_startproc
	pushq	%rbp
	.seh_pushreg	%rbp
	.cfi_def_cfa_offset 16
	.cfi_offset 6, -16
	movq	%rsp, %rbp
	.seh_setframe	%rbp, 0
	.cfi_def_cfa_register 6
	.seh_endprologue
	movq	%rcx, 16(%rbp)
	.loc 44 122 55
	movl	$0, %eax
	.loc 44 122 62
	popq	%rbp
	.cfi_restore 6
	.cfi_def_cfa 7, 8
	ret
	.cfi_endproc
.LFE10723:
	.seh_endproc
	.section	.text$_ZN22wxControlContainerBaseD2Ev,"x"
	.linkonce discard
	.align 2
	.globl	_ZN22wxControlContainerBaseD2Ev
	.def	_ZN22wxControlContainerBaseD2Ev;	.scl	2;	.type	32;	.endef
	.seh_proc	_ZN22wxControlContainerBaseD2Ev
_ZN22wxControlContainerBaseD2Ev:
.LFB10734:
	.file 45 "../wxMSW-3.0.5_gcc810_x64_Dev/include/wx/containr.h"
	.loc 45 53 13
	.cfi_startproc
	pushq	%rbp
	.seh_pushreg	%rbp
	.cfi_def_cfa_offset 16
	.cfi_offset 6, -16
	movq	%rsp, %rbp
	.seh_setframe	%rbp, 0
	.cfi_def_cfa_register 6
	.seh_endprologue
	movq	%rcx, 16(%rbp)
.LBB81:
	.loc 45 53 39
	movq	.refptr._ZTV22wxControlContainerBase(%rip), %rax
	leaq	16(%rax), %rdx
	movq	16(%rbp), %rax
	movq	%rdx, (%rax)
.LBE81:
	.loc 45 53 40
	nop
	popq	%rbp
	.cfi_restore 6
	.cfi_def_cfa 7, 8
	ret
	.cfi_endproc
.LFE10734:
	.seh_endproc
	.section	.text$_ZNK22wxControlContainerBase23AcceptsFocusRecursivelyEv,"x"
	.linkonce discard
	.align 2
	.globl	_ZNK22wxControlContainerBase23AcceptsFocusRecursivelyEv
	.def	_ZNK22wxControlContainerBase23AcceptsFocusRecursivelyEv;	.scl	2;	.type	32;	.endef
	.seh_proc	_ZNK22wxControlContainerBase23AcceptsFocusRecursivelyEv
_ZNK22wxControlContainerBase23AcceptsFocusRecursivelyEv:
.LFB10740:
	.loc 45 81 10
	.cfi_startproc
	pushq	%rbp
	.seh_pushreg	%rbp
	.cfi_def_cfa_offset 16
	.cfi_offset 6, -16
	movq	%rsp, %rbp
	.seh_setframe	%rbp, 0
	.cfi_def_cfa_register 6
	subq	$32, %rsp
	.seh_stackalloc	32
	.seh_endprologue
	movq	%rcx, 16(%rbp)
	.loc 45 82 30
	movq	16(%rbp), %rcx
	call	_ZNK22wxControlContainerBase12AcceptsFocusEv
	.loc 45 82 33
	testb	%al, %al
	jne	.L458
	.loc 45 83 14 discriminator 2
	movq	16(%rbp), %rax
	movzbl	25(%rax), %eax
	.loc 45 82 33 discriminator 2
	testb	%al, %al
	je	.L459
	.loc 45 83 68
	movq	16(%rbp), %rcx
	call	_ZNK22wxControlContainerBase28HasAnyChildrenAcceptingFocusEv
	.loc 45 83 37
	testb	%al, %al
	je	.L459
.L458:
	.loc 45 82 33 discriminator 1
	movl	$1, %eax
	jmp	.L460
.L459:
	.loc 45 82 33 is_stmt 0 discriminator 3
	movl	$0, %eax
.L460:
	.loc 45 83 73 is_stmt 1
	addq	$32, %rsp
	popq	%rbp
	.cfi_restore 6
	.cfi_def_cfa 7, 8
	ret
	.cfi_endproc
.LFE10740:
	.seh_endproc
	.section	.text$_ZNK22wxControlContainerBase24AcceptsFocusFromKeyboardEv,"x"
	.linkonce discard
	.align 2
	.globl	_ZNK22wxControlContainerBase24AcceptsFocusFromKeyboardEv
	.def	_ZNK22wxControlContainerBase24AcceptsFocusFromKeyboardEv;	.scl	2;	.type	32;	.endef
	.seh_proc	_ZNK22wxControlContainerBase24AcceptsFocusFromKeyboardEv
_ZNK22wxControlContainerBase24AcceptsFocusFromKeyboardEv:
.LFB10741:
	.loc 45 86 10
	.cfi_startproc
	pushq	%rbp
	.seh_pushreg	%rbp
	.cfi_def_cfa_offset 16
	.cfi_offset 6, -16
	movq	%rsp, %rbp
	.seh_setframe	%rbp, 0
	.cfi_def_cfa_register 6
	subq	$32, %rsp
	.seh_stackalloc	32
	.seh_endprologue
	movq	%rcx, 16(%rbp)
	.loc 45 86 75
	movq	16(%rbp), %rcx
	call	_ZNK22wxControlContainerBase23AcceptsFocusRecursivelyEv
	.loc 45 86 79
	addq	$32, %rsp
	popq	%rbp
	.cfi_restore 6
	.cfi_def_cfa 7, 8
	ret
	.cfi_endproc
.LFE10741:
	.seh_endproc
	.section	.text$_ZN16wxTopLevelWindowD2Ev,"x"
	.linkonce discard
	.align 2
	.globl	_ZN16wxTopLevelWindowD2Ev
	.def	_ZN16wxTopLevelWindowD2Ev;	.scl	2;	.type	32;	.endef
	.seh_proc	_ZN16wxTopLevelWindowD2Ev
_ZN16wxTopLevelWindowD2Ev:
.LFB15486:
	.loc 43 395 11
	.cfi_startproc
	pushq	%rbp
	.seh_pushreg	%rbp
	.cfi_def_cfa_offset 16
	.cfi_offset 6, -16
	movq	%rsp, %rbp
	.seh_setframe	%rbp, 0
	.cfi_def_cfa_register 6
	subq	$32, %rsp
	.seh_stackalloc	32
	.seh_endprologue
	movq	%rcx, 16(%rbp)
.LBB82:
	.loc 43 395 11
	movq	.refptr._ZTV16wxTopLevelWindow(%rip), %rax
	leaq	16(%rax), %rdx
	movq	16(%rbp), %rax
	movq	%rdx, (%rax)
	movq	16(%rbp), %rax
	movq	%rax, %rcx
	call	_ZN19wxTopLevelWindowMSWD2Ev
.LBE82:
	nop
	addq	$32, %rsp
	popq	%rbp
	.cfi_restore 6
	.cfi_def_cfa 7, 8
	ret
	.cfi_endproc
.LFE15486:
	.seh_endproc
	.section	.text$_ZN19wxNavigationEnabledI16wxTopLevelWindowED2Ev,"x"
	.linkonce discard
	.align 2
	.globl	_ZN19wxNavigationEnabledI16wxTopLevelWindowED2Ev
	.def	_ZN19wxNavigationEnabledI16wxTopLevelWindowED2Ev;	.scl	2;	.type	32;	.endef
	.seh_proc	_ZN19wxNavigationEnabledI16wxTopLevelWindowED2Ev
_ZN19wxNavigationEnabledI16wxTopLevelWindowED2Ev:
.LFB15489:
	.loc 45 182 7
	.cfi_startproc
	pushq	%rbp
	.seh_pushreg	%rbp
	.cfi_def_cfa_offset 16
	.cfi_offset 6, -16
	movq	%rsp, %rbp
	.seh_setframe	%rbp, 0
	.cfi_def_cfa_register 6
	subq	$32, %rsp
	.seh_stackalloc	32
	.seh_endprologue
	movq	%rcx, 16(%rbp)
.LBB83:
	.loc 45 182 7
	leaq	16+_ZTV19wxNavigationEnabledI16wxTopLevelWindowE(%rip), %rdx
	movq	16(%rbp), %rax
	movq	%rdx, (%rax)
	movq	16(%rbp), %rax
	addq	$696, %rax
	movq	%rax, %rcx
	call	_ZN18wxControlContainerD1Ev
	movq	16(%rbp), %rax
	movq	%rax, %rcx
	call	_ZN16wxTopLevelWindowD2Ev
.LBE83:
	nop
	addq	$32, %rsp
	popq	%rbp
	.cfi_restore 6
	.cfi_def_cfa 7, 8
	ret
	.cfi_endproc
.LFE15489:
	.seh_endproc
	.section	.text$_ZN19wxNavigationEnabledI16wxTopLevelWindowED1Ev,"x"
	.linkonce discard
	.align 2
	.globl	_ZN19wxNavigationEnabledI16wxTopLevelWindowED1Ev
	.def	_ZN19wxNavigationEnabledI16wxTopLevelWindowED1Ev;	.scl	2;	.type	32;	.endef
	.seh_proc	_ZN19wxNavigationEnabledI16wxTopLevelWindowED1Ev
_ZN19wxNavigationEnabledI16wxTopLevelWindowED1Ev:
.LFB15490:
	.loc 45 182 7
	.cfi_startproc
	pushq	%rbp
	.seh_pushreg	%rbp
	.cfi_def_cfa_offset 16
	.cfi_offset 6, -16
	movq	%rsp, %rbp
	.seh_setframe	%rbp, 0
	.cfi_def_cfa_register 6
	subq	$32, %rsp
	.seh_stackalloc	32
	.seh_endprologue
	movq	%rcx, 16(%rbp)
.LBB84:
	.loc 45 182 7
	leaq	16+_ZTV19wxNavigationEnabledI16wxTopLevelWindowE(%rip), %rdx
	movq	16(%rbp), %rax
	movq	%rdx, (%rax)
	movq	16(%rbp), %rax
	addq	$696, %rax
	movq	%rax, %rcx
	call	_ZN18wxControlContainerD1Ev
	movq	16(%rbp), %rax
	movq	%rax, %rcx
	call	_ZN16wxTopLevelWindowD2Ev
.LBE84:
	nop
	addq	$32, %rsp
	popq	%rbp
	.cfi_restore 6
	.cfi_def_cfa 7, 8
	ret
	.cfi_endproc
.LFE15490:
	.seh_endproc
	.section	.text$_ZN19wxNavigationEnabledI16wxTopLevelWindowED0Ev,"x"
	.linkonce discard
	.align 2
	.globl	_ZN19wxNavigationEnabledI16wxTopLevelWindowED0Ev
	.def	_ZN19wxNavigationEnabledI16wxTopLevelWindowED0Ev;	.scl	2;	.type	32;	.endef
	.seh_proc	_ZN19wxNavigationEnabledI16wxTopLevelWindowED0Ev
_ZN19wxNavigationEnabledI16wxTopLevelWindowED0Ev:
.LFB15491:
	.loc 45 182 7
	.cfi_startproc
	pushq	%rbp
	.seh_pushreg	%rbp
	.cfi_def_cfa_offset 16
	.cfi_offset 6, -16
	movq	%rsp, %rbp
	.seh_setframe	%rbp, 0
	.cfi_def_cfa_register 6
	subq	$32, %rsp
	.seh_stackalloc	32
	.seh_endprologue
	movq	%rcx, 16(%rbp)
	.loc 45 182 7
	movq	16(%rbp), %rcx
	call	_ZN19wxNavigationEnabledI16wxTopLevelWindowED1Ev
	movq	16(%rbp), %rcx
	call	_ZdlPv
	nop
	addq	$32, %rsp
	popq	%rbp
	.cfi_restore 6
	.cfi_def_cfa 7, 8
	ret
	.cfi_endproc
.LFE15491:
	.seh_endproc
	.section	.text$_ZN12wxDialogBaseD2Ev,"x"
	.linkonce discard
	.align 2
	.globl	_ZN12wxDialogBaseD2Ev
	.def	_ZN12wxDialogBaseD2Ev;	.scl	2;	.type	32;	.endef
	.seh_proc	_ZN12wxDialogBaseD2Ev
_ZN12wxDialogBaseD2Ev:
.LFB15492:
	.file 46 "../wxMSW-3.0.5_gcc810_x64_Dev/include/wx/dialog.h"
	.loc 46 72 13
	.cfi_startproc
	pushq	%rbp
	.seh_pushreg	%rbp
	.cfi_def_cfa_offset 16
	.cfi_offset 6, -16
	movq	%rsp, %rbp
	.seh_setframe	%rbp, 0
	.cfi_def_cfa_register 6
	subq	$32, %rsp
	.seh_stackalloc	32
	.seh_endprologue
	movq	%rcx, 16(%rbp)
.LBB85:
	.loc 46 72 29
	movq	.refptr._ZTV12wxDialogBase(%rip), %rax
	leaq	16(%rax), %rdx
	movq	16(%rbp), %rax
	movq	%rdx, (%rax)
	movq	16(%rbp), %rax
	addq	$744, %rax
	movq	%rax, %rcx
	call	_ZN10wxArrayIntD1Ev
	movq	16(%rbp), %rax
	movq	%rax, %rcx
	call	_ZN19wxNavigationEnabledI16wxTopLevelWindowED2Ev
.LBE85:
	.loc 46 72 31
	nop
	addq	$32, %rsp
	popq	%rbp
	.cfi_restore 6
	.cfi_def_cfa 7, 8
	ret
	.cfi_endproc
.LFE15492:
	.seh_endproc
	.section	.text$_ZNK12wxDialogBase16GetContentWindowEv,"x"
	.linkonce discard
	.align 2
	.globl	_ZNK12wxDialogBase16GetContentWindowEv
	.def	_ZNK12wxDialogBase16GetContentWindowEv;	.scl	2;	.type	32;	.endef
	.seh_proc	_ZNK12wxDialogBase16GetContentWindowEv
_ZNK12wxDialogBase16GetContentWindowEv:
.LFB15500:
	.loc 46 165 23
	.cfi_startproc
	pushq	%rbp
	.seh_pushreg	%rbp
	.cfi_def_cfa_offset 16
	.cfi_offset 6, -16
	movq	%rsp, %rbp
	.seh_setframe	%rbp, 0
	.cfi_def_cfa_register 6
	.seh_endprologue
	movq	%rcx, 16(%rbp)
	.loc 46 165 56
	movl	$0, %eax
	.loc 46 165 62
	popq	%rbp
	.cfi_restore 6
	.cfi_def_cfa 7, 8
	ret
	.cfi_endproc
.LFE15500:
	.seh_endproc
	.section	.text$_ZN8wxDialogC2Ev,"x"
	.linkonce discard
	.align 2
	.globl	_ZN8wxDialogC2Ev
	.def	_ZN8wxDialogC2Ev;	.scl	2;	.type	32;	.endef
	.seh_proc	_ZN8wxDialogC2Ev
_ZN8wxDialogC2Ev:
.LFB15544:
	.file 47 "../wxMSW-3.0.5_gcc810_x64_Dev/include/wx/msw/dialog.h"
	.loc 47 38 5
	.cfi_startproc
	pushq	%rbp
	.seh_pushreg	%rbp
	.cfi_def_cfa_offset 16
	.cfi_offset 6, -16
	pushq	%rbx
	.seh_pushreg	%rbx
	.cfi_def_cfa_offset 24
	.cfi_offset 3, -24
	subq	$40, %rsp
	.seh_stackalloc	40
	.cfi_def_cfa_offset 64
	leaq	128(%rsp), %rbp
	.seh_setframe	%rbp, 128
	.cfi_def_cfa 6, -64
	.seh_endprologue
	movq	%rcx, -64(%rbp)
.LBB86:
	.loc 47 38 16
	movq	-64(%rbp), %rax
	movq	%rax, %rcx
.LEHB44:
	call	_ZN12wxDialogBaseC2Ev
.LEHE44:
	movq	.refptr._ZTV8wxDialog(%rip), %rax
	leaq	16(%rax), %rdx
	movq	-64(%rbp), %rax
	movq	%rdx, (%rax)
	.loc 47 38 22
	movq	-64(%rbp), %rcx
.LEHB45:
	call	_ZN8wxDialog4InitEv
.LEHE45:
.LBE86:
	.loc 47 38 26
	jmp	.L474
.L473:
	movq	%rax, %rbx
.LBB87:
	.loc 47 38 16
	movq	-64(%rbp), %rax
	movq	%rax, %rcx
	call	_ZN12wxDialogBaseD2Ev
	movq	%rbx, %rax
	movq	%rax, %rcx
.LEHB46:
	call	_Unwind_Resume
	nop
.LEHE46:
.L474:
.LBE87:
	.loc 47 38 26
	addq	$40, %rsp
	popq	%rbx
	.cfi_restore 3
	popq	%rbp
	.cfi_restore 6
	.cfi_def_cfa 7, -24
	ret
	.cfi_endproc
.LFE15544:
	.seh_handler	__gxx_personality_seh0, @unwind, @except
	.seh_handlerdata
.LLSDA15544:
	.byte	0xff
	.byte	0xff
	.byte	0x1
	.uleb128 .LLSDACSE15544-.LLSDACSB15544
.LLSDACSB15544:
	.uleb128 .LEHB44-.LFB15544
	.uleb128 .LEHE44-.LEHB44
	.uleb128 0
	.uleb128 0
	.uleb128 .LEHB45-.LFB15544
	.uleb128 .LEHE45-.LEHB45
	.uleb128 .L473-.LFB15544
	.uleb128 0
	.uleb128 .LEHB46-.LFB15544
	.uleb128 .LEHE46-.LEHB46
	.uleb128 0
	.uleb128 0
.LLSDACSE15544:
	.section	.text$_ZN8wxDialogC2Ev,"x"
	.linkonce discard
	.seh_endproc
	.section	.text$_ZNK8wxDialog7IsModalEv,"x"
	.linkonce discard
	.align 2
	.globl	_ZNK8wxDialog7IsModalEv
	.def	_ZNK8wxDialog7IsModalEv;	.scl	2;	.type	32;	.endef
	.seh_proc	_ZNK8wxDialog7IsModalEv
_ZNK8wxDialog7IsModalEv:
.LFB15549:
	.loc 47 63 18
	.cfi_startproc
	pushq	%rbp
	.seh_pushreg	%rbp
	.cfi_def_cfa_offset 16
	.cfi_offset 6, -16
	movq	%rsp, %rbp
	.seh_setframe	%rbp, 0
	.cfi_def_cfa_register 6
	.seh_endprologue
	movq	%rcx, 16(%rbp)
	.loc 47 63 43
	movq	16(%rbp), %rax
	movq	784(%rax), %rax
	.loc 47 63 57
	testq	%rax, %rax
	setne	%al
	.loc 47 63 63
	popq	%rbp
	.cfi_restore 6
	.cfi_def_cfa 7, 8
	ret
	.cfi_endproc
.LFE15549:
	.seh_endproc
	.section	.text$_ZN14wxRadioBoxBaseC2Ev,"x"
	.linkonce discard
	.align 2
	.globl	_ZN14wxRadioBoxBaseC2Ev
	.def	_ZN14wxRadioBoxBaseC2Ev;	.scl	2;	.type	32;	.endef
	.seh_proc	_ZN14wxRadioBoxBaseC2Ev
_ZN14wxRadioBoxBaseC2Ev:
.LFB15657:
	.file 48 "../wxMSW-3.0.5_gcc810_x64_Dev/include/wx/radiobox.h"
	.loc 48 90 5
	.cfi_startproc
	pushq	%rbp
	.seh_pushreg	%rbp
	.cfi_def_cfa_offset 16
	.cfi_offset 6, -16
	pushq	%rbx
	.seh_pushreg	%rbx
	.cfi_def_cfa_offset 24
	.cfi_offset 3, -24
	subq	$40, %rsp
	.seh_stackalloc	40
	.cfi_def_cfa_offset 64
	leaq	128(%rsp), %rbp
	.seh_setframe	%rbp, 128
	.cfi_def_cfa 6, -64
	.seh_endprologue
	movq	%rcx, -64(%rbp)
.LBB88:
	.loc 48 91 5
	movq	-64(%rbp), %rax
	movq	%rax, %rcx
	call	_ZN24wxItemContainerImmutableC2Ev
	movq	.refptr._ZTV14wxRadioBoxBase(%rip), %rax
	leaq	16(%rax), %rdx
	movq	-64(%rbp), %rax
	movq	%rdx, (%rax)
	movq	-64(%rbp), %rax
	addq	$32, %rax
	movq	%rax, %rcx
.LEHB47:
	call	_ZN13wxArrayStringC1Ev
.LEHE47:
	.loc 48 94 20
	movq	-64(%rbp), %rax
	movl	$0, 8(%rax)
	.loc 48 94 9
	movq	-64(%rbp), %rax
	movl	8(%rax), %edx
	.loc 48 93 19
	movq	-64(%rbp), %rax
	movl	%edx, 16(%rax)
	.loc 48 93 9
	movq	-64(%rbp), %rax
	movl	16(%rax), %edx
	.loc 48 92 19
	movq	-64(%rbp), %rax
	movl	%edx, 12(%rax)
	.loc 48 97 25
	movq	-64(%rbp), %rax
	movq	$0, 24(%rax)
.LBE88:
	.loc 48 99 5
	jmp	.L480
.L479:
	movq	%rax, %rbx
.LBB89:
	.loc 48 91 5
	movq	-64(%rbp), %rax
	movq	%rax, %rcx
	call	_ZN24wxItemContainerImmutableD2Ev
	movq	%rbx, %rax
	movq	%rax, %rcx
.LEHB48:
	call	_Unwind_Resume
	nop
.LEHE48:
.L480:
.LBE89:
	.loc 48 99 5
	addq	$40, %rsp
	popq	%rbx
	.cfi_restore 3
	popq	%rbp
	.cfi_restore 6
	.cfi_def_cfa 7, -24
	ret
	.cfi_endproc
.LFE15657:
	.seh_handler	__gxx_personality_seh0, @unwind, @except
	.seh_handlerdata
.LLSDA15657:
	.byte	0xff
	.byte	0xff
	.byte	0x1
	.uleb128 .LLSDACSE15657-.LLSDACSB15657
.LLSDACSB15657:
	.uleb128 .LEHB47-.LFB15657
	.uleb128 .LEHE47-.LEHB47
	.uleb128 .L479-.LFB15657
	.uleb128 0
	.uleb128 .LEHB48-.LFB15657
	.uleb128 .LEHE48-.LEHB48
	.uleb128 0
	.uleb128 0
.LLSDACSE15657:
	.section	.text$_ZN14wxRadioBoxBaseC2Ev,"x"
	.linkonce discard
	.seh_endproc
	.section	.text$_ZN15wxStaticBoxBase24HasTransparentBackgroundEv,"x"
	.linkonce discard
	.align 2
	.globl	_ZN15wxStaticBoxBase24HasTransparentBackgroundEv
	.def	_ZN15wxStaticBoxBase24HasTransparentBackgroundEv;	.scl	2;	.type	32;	.endef
	.seh_proc	_ZN15wxStaticBoxBase24HasTransparentBackgroundEv
_ZN15wxStaticBoxBase24HasTransparentBackgroundEv:
.LFB15662:
	.file 49 "../wxMSW-3.0.5_gcc810_x64_Dev/include/wx/statbox.h"
	.loc 49 33 18
	.cfi_startproc
	pushq	%rbp
	.seh_pushreg	%rbp
	.cfi_def_cfa_offset 16
	.cfi_offset 6, -16
	movq	%rsp, %rbp
	.seh_setframe	%rbp, 0
	.cfi_def_cfa_register 6
	.seh_endprologue
	movq	%rcx, 16(%rbp)
	.loc 49 33 54
	movl	$1, %eax
	.loc 49 33 60
	popq	%rbp
	.cfi_restore 6
	.cfi_def_cfa 7, 8
	ret
	.cfi_endproc
.LFE15662:
	.seh_endproc
	.section	.text$_ZNK15wxStaticBoxBase18GetBordersForSizerEPiS0_,"x"
	.linkonce discard
	.align 2
	.globl	_ZNK15wxStaticBoxBase18GetBordersForSizerEPiS0_
	.def	_ZNK15wxStaticBoxBase18GetBordersForSizerEPiS0_;	.scl	2;	.type	32;	.endef
	.seh_proc	_ZNK15wxStaticBoxBase18GetBordersForSizerEPiS0_
_ZNK15wxStaticBoxBase18GetBordersForSizerEPiS0_:
.LFB15663:
	.loc 49 40 18
	.cfi_startproc
	pushq	%rbp
	.seh_pushreg	%rbp
	.cfi_def_cfa_offset 16
	.cfi_offset 6, -16
	pushq	%rbx
	.seh_pushreg	%rbx
	.cfi_def_cfa_offset 24
	.cfi_offset 3, -24
	subq	$104, %rsp
	.seh_stackalloc	104
	.cfi_def_cfa_offset 128
	leaq	128(%rsp), %rbp
	.seh_setframe	%rbp, 128
	.cfi_def_cfa 6, 0
	.seh_endprologue
	movq	%rcx, 0(%rbp)
	movq	%rdx, 8(%rbp)
	movq	%r8, 16(%rbp)
	.loc 49 42 19
	movl	$5, -36(%rbp)
	.loc 49 44 30
	movq	0(%rbp), %rdx
	.loc 49 44 31
	movq	0(%rbp), %rax
	movq	(%rax), %rax
	addq	$184, %rax
	movq	(%rax), %r8
	.loc 49 44 30
	leaq	-96(%rbp), %rax
	movq	%rax, %rcx
.LEHB49:
	call	*%r8
.LVL31:
.LEHE49:
	.loc 49 44 38
	leaq	-96(%rbp), %rax
	movq	%rax, %rcx
	call	_ZNK8wxString5emptyEv
	.loc 49 44 41
	testb	%al, %al
	je	.L484
	.loc 49 44 41 is_stmt 0 discriminator 1
	movl	$5, %edx
	jmp	.L485
.L484:
	.loc 49 44 65 is_stmt 1 discriminator 2
	movq	0(%rbp), %rdx
	.loc 49 44 66 discriminator 2
	movq	0(%rbp), %rax
	movq	(%rax), %rax
	addq	$864, %rax
	movq	(%rax), %rax
	.loc 49 44 65 discriminator 2
	movq	%rdx, %rcx
.LEHB50:
	call	*%rax
.LVL32:
.LEHE50:
	movl	%eax, %edx
.L485:
	.loc 49 44 20 discriminator 6
	movq	8(%rbp), %rax
	movl	%edx, (%rax)
	.loc 49 44 30 discriminator 6
	leaq	-96(%rbp), %rax
	movq	%rax, %rcx
	call	_ZN8wxStringD1Ev
	.loc 49 45 22 discriminator 6
	movq	16(%rbp), %rax
	movl	$5, (%rax)
	.loc 49 46 5 discriminator 6
	jmp	.L488
.L487:
	movq	%rax, %rbx
	.loc 49 44 30
	leaq	-96(%rbp), %rax
	movq	%rax, %rcx
	call	_ZN8wxStringD1Ev
	movq	%rbx, %rax
	movq	%rax, %rcx
.LEHB51:
	call	_Unwind_Resume
	nop
.LEHE51:
.L488:
	.loc 49 46 5
	addq	$104, %rsp
	popq	%rbx
	.cfi_restore 3
	popq	%rbp
	.cfi_restore 6
	.cfi_def_cfa 7, -88
	ret
	.cfi_endproc
.LFE15663:
	.seh_handler	__gxx_personality_seh0, @unwind, @except
	.seh_handlerdata
.LLSDA15663:
	.byte	0xff
	.byte	0xff
	.byte	0x1
	.uleb128 .LLSDACSE15663-.LLSDACSB15663
.LLSDACSB15663:
	.uleb128 .LEHB49-.LFB15663
	.uleb128 .LEHE49-.LEHB49
	.uleb128 0
	.uleb128 0
	.uleb128 .LEHB50-.LFB15663
	.uleb128 .LEHE50-.LEHB50
	.uleb128 .L487-.LFB15663
	.uleb128 0
	.uleb128 .LEHB51-.LFB15663
	.uleb128 .LEHE51-.LEHB51
	.uleb128 0
	.uleb128 0
.LLSDACSE15663:
	.section	.text$_ZNK15wxStaticBoxBase18GetBordersForSizerEPiS0_,"x"
	.linkonce discard
	.seh_endproc
	.section	.text$_ZNK15wxStaticBoxBase16GetDefaultBorderEv,"x"
	.linkonce discard
	.align 2
	.globl	_ZNK15wxStaticBoxBase16GetDefaultBorderEv
	.def	_ZNK15wxStaticBoxBase16GetDefaultBorderEv;	.scl	2;	.type	32;	.endef
	.seh_proc	_ZNK15wxStaticBoxBase16GetDefaultBorderEv
_ZNK15wxStaticBoxBase16GetDefaultBorderEv:
.LFB15664:
	.loc 49 50 22
	.cfi_startproc
	pushq	%rbp
	.seh_pushreg	%rbp
	.cfi_def_cfa_offset 16
	.cfi_offset 6, -16
	movq	%rsp, %rbp
	.seh_setframe	%rbp, 0
	.cfi_def_cfa_register 6
	.seh_endprologue
	movq	%rcx, 16(%rbp)
	.loc 49 50 56
	movl	$2097152, %eax
	.loc 49 50 71
	popq	%rbp
	.cfi_restore 6
	.cfi_def_cfa 7, 8
	ret
	.cfi_endproc
.LFE15664:
	.seh_endproc
	.section	.text$_ZN19wxNavigationEnabledI9wxControlED2Ev,"x"
	.linkonce discard
	.align 2
	.globl	_ZN19wxNavigationEnabledI9wxControlED2Ev
	.def	_ZN19wxNavigationEnabledI9wxControlED2Ev;	.scl	2;	.type	32;	.endef
	.seh_proc	_ZN19wxNavigationEnabledI9wxControlED2Ev
_ZN19wxNavigationEnabledI9wxControlED2Ev:
.LFB15668:
	.loc 45 182 7
	.cfi_startproc
	pushq	%rbp
	.seh_pushreg	%rbp
	.cfi_def_cfa_offset 16
	.cfi_offset 6, -16
	movq	%rsp, %rbp
	.seh_setframe	%rbp, 0
	.cfi_def_cfa_register 6
	subq	$32, %rsp
	.seh_stackalloc	32
	.seh_endprologue
	movq	%rcx, 16(%rbp)
.LBB90:
	.loc 45 182 7
	leaq	16+_ZTV19wxNavigationEnabledI9wxControlE(%rip), %rdx
	movq	16(%rbp), %rax
	movq	%rdx, (%rax)
	movq	16(%rbp), %rax
	addq	$648, %rax
	movq	%rax, %rcx
	call	_ZN18wxControlContainerD1Ev
	movq	16(%rbp), %rax
	movq	%rax, %rcx
	call	_ZN9wxControlD2Ev
.LBE90:
	nop
	addq	$32, %rsp
	popq	%rbp
	.cfi_restore 6
	.cfi_def_cfa 7, 8
	ret
	.cfi_endproc
.LFE15668:
	.seh_endproc
	.section	.text$_ZN19wxNavigationEnabledI9wxControlED1Ev,"x"
	.linkonce discard
	.align 2
	.globl	_ZN19wxNavigationEnabledI9wxControlED1Ev
	.def	_ZN19wxNavigationEnabledI9wxControlED1Ev;	.scl	2;	.type	32;	.endef
	.seh_proc	_ZN19wxNavigationEnabledI9wxControlED1Ev
_ZN19wxNavigationEnabledI9wxControlED1Ev:
.LFB15669:
	.loc 45 182 7
	.cfi_startproc
	pushq	%rbp
	.seh_pushreg	%rbp
	.cfi_def_cfa_offset 16
	.cfi_offset 6, -16
	movq	%rsp, %rbp
	.seh_setframe	%rbp, 0
	.cfi_def_cfa_register 6
	subq	$32, %rsp
	.seh_stackalloc	32
	.seh_endprologue
	movq	%rcx, 16(%rbp)
.LBB91:
	.loc 45 182 7
	leaq	16+_ZTV19wxNavigationEnabledI9wxControlE(%rip), %rdx
	movq	16(%rbp), %rax
	movq	%rdx, (%rax)
	movq	16(%rbp), %rax
	addq	$648, %rax
	movq	%rax, %rcx
	call	_ZN18wxControlContainerD1Ev
	movq	16(%rbp), %rax
	movq	%rax, %rcx
	call	_ZN9wxControlD2Ev
.LBE91:
	nop
	addq	$32, %rsp
	popq	%rbp
	.cfi_restore 6
	.cfi_def_cfa 7, 8
	ret
	.cfi_endproc
.LFE15669:
	.seh_endproc
	.section	.text$_ZN19wxNavigationEnabledI9wxControlED0Ev,"x"
	.linkonce discard
	.align 2
	.globl	_ZN19wxNavigationEnabledI9wxControlED0Ev
	.def	_ZN19wxNavigationEnabledI9wxControlED0Ev;	.scl	2;	.type	32;	.endef
	.seh_proc	_ZN19wxNavigationEnabledI9wxControlED0Ev
_ZN19wxNavigationEnabledI9wxControlED0Ev:
.LFB15670:
	.loc 45 182 7
	.cfi_startproc
	pushq	%rbp
	.seh_pushreg	%rbp
	.cfi_def_cfa_offset 16
	.cfi_offset 6, -16
	movq	%rsp, %rbp
	.seh_setframe	%rbp, 0
	.cfi_def_cfa_register 6
	subq	$32, %rsp
	.seh_stackalloc	32
	.seh_endprologue
	movq	%rcx, 16(%rbp)
	.loc 45 182 7
	movq	16(%rbp), %rcx
	call	_ZN19wxNavigationEnabledI9wxControlED1Ev
	movq	16(%rbp), %rcx
	call	_ZdlPv
	nop
	addq	$32, %rsp
	popq	%rbp
	.cfi_restore 6
	.cfi_def_cfa 7, 8
	ret
	.cfi_endproc
.LFE15670:
	.seh_endproc
	.section	.text$_ZN15wxStaticBoxBaseD2Ev,"x"
	.linkonce discard
	.align 2
	.globl	_ZN15wxStaticBoxBaseD2Ev
	.def	_ZN15wxStaticBoxBaseD2Ev;	.scl	2;	.type	32;	.endef
	.seh_proc	_ZN15wxStaticBoxBaseD2Ev
_ZN15wxStaticBoxBaseD2Ev:
.LFB15671:
	.loc 49 27 7
	.cfi_startproc
	pushq	%rbp
	.seh_pushreg	%rbp
	.cfi_def_cfa_offset 16
	.cfi_offset 6, -16
	movq	%rsp, %rbp
	.seh_setframe	%rbp, 0
	.cfi_def_cfa_register 6
	subq	$32, %rsp
	.seh_stackalloc	32
	.seh_endprologue
	movq	%rcx, 16(%rbp)
.LBB92:
	.loc 49 27 7
	leaq	16+_ZTV15wxStaticBoxBase(%rip), %rdx
	movq	16(%rbp), %rax
	movq	%rdx, (%rax)
	movq	16(%rbp), %rax
	movq	%rax, %rcx
	call	_ZN19wxNavigationEnabledI9wxControlED2Ev
.LBE92:
	nop
	addq	$32, %rsp
	popq	%rbp
	.cfi_restore 6
	.cfi_def_cfa 7, 8
	ret
	.cfi_endproc
.LFE15671:
	.seh_endproc
	.section	.text$_ZN15wxStaticBoxBaseD1Ev,"x"
	.linkonce discard
	.align 2
	.globl	_ZN15wxStaticBoxBaseD1Ev
	.def	_ZN15wxStaticBoxBaseD1Ev;	.scl	2;	.type	32;	.endef
	.seh_proc	_ZN15wxStaticBoxBaseD1Ev
_ZN15wxStaticBoxBaseD1Ev:
.LFB15672:
	.loc 49 27 7
	.cfi_startproc
	pushq	%rbp
	.seh_pushreg	%rbp
	.cfi_def_cfa_offset 16
	.cfi_offset 6, -16
	movq	%rsp, %rbp
	.seh_setframe	%rbp, 0
	.cfi_def_cfa_register 6
	subq	$32, %rsp
	.seh_stackalloc	32
	.seh_endprologue
	movq	%rcx, 16(%rbp)
.LBB93:
	.loc 49 27 7
	leaq	16+_ZTV15wxStaticBoxBase(%rip), %rdx
	movq	16(%rbp), %rax
	movq	%rdx, (%rax)
	movq	16(%rbp), %rax
	movq	%rax, %rcx
	call	_ZN19wxNavigationEnabledI9wxControlED2Ev
.LBE93:
	nop
	addq	$32, %rsp
	popq	%rbp
	.cfi_restore 6
	.cfi_def_cfa 7, 8
	ret
	.cfi_endproc
.LFE15672:
	.seh_endproc
	.section	.text$_ZN15wxStaticBoxBaseD0Ev,"x"
	.linkonce discard
	.align 2
	.globl	_ZN15wxStaticBoxBaseD0Ev
	.def	_ZN15wxStaticBoxBaseD0Ev;	.scl	2;	.type	32;	.endef
	.seh_proc	_ZN15wxStaticBoxBaseD0Ev
_ZN15wxStaticBoxBaseD0Ev:
.LFB15673:
	.loc 49 27 7
	.cfi_startproc
	pushq	%rbp
	.seh_pushreg	%rbp
	.cfi_def_cfa_offset 16
	.cfi_offset 6, -16
	movq	%rsp, %rbp
	.seh_setframe	%rbp, 0
	.cfi_def_cfa_register 6
	subq	$32, %rsp
	.seh_stackalloc	32
	.seh_endprologue
	movq	%rcx, 16(%rbp)
	.loc 49 27 7
	movq	16(%rbp), %rcx
	call	_ZN15wxStaticBoxBaseD1Ev
	movq	16(%rbp), %rcx
	call	_ZdlPv
	nop
	addq	$32, %rsp
	popq	%rbp
	.cfi_restore 6
	.cfi_def_cfa 7, 8
	ret
	.cfi_endproc
.LFE15673:
	.seh_endproc
	.section	.text$_ZN11wxStaticBoxC2Ev,"x"
	.linkonce discard
	.align 2
	.globl	_ZN11wxStaticBoxC2Ev
	.def	_ZN11wxStaticBoxC2Ev;	.scl	2;	.type	32;	.endef
	.seh_proc	_ZN11wxStaticBoxC2Ev
_ZN11wxStaticBoxC2Ev:
.LFB15674:
	.file 50 "../wxMSW-3.0.5_gcc810_x64_Dev/include/wx/msw/statbox.h"
	.loc 50 18 5
	.cfi_startproc
	pushq	%rbp
	.seh_pushreg	%rbp
	.cfi_def_cfa_offset 16
	.cfi_offset 6, -16
	movq	%rsp, %rbp
	.seh_setframe	%rbp, 0
	.cfi_def_cfa_register 6
	subq	$32, %rsp
	.seh_stackalloc	32
	.seh_endprologue
	movq	%rcx, 16(%rbp)
.LBB94:
	.loc 50 18 19
	movq	16(%rbp), %rax
	movq	%rax, %rcx
	call	_ZN15wxStaticBoxBaseC2Ev
	movq	.refptr._ZTV11wxStaticBox(%rip), %rax
	leaq	16(%rax), %rdx
	movq	16(%rbp), %rax
	movq	%rdx, (%rax)
.LBE94:
	.loc 50 18 21
	nop
	addq	$32, %rsp
	popq	%rbp
	.cfi_restore 6
	.cfi_def_cfa 7, 8
	ret
	.cfi_endproc
.LFE15674:
	.seh_endproc
	.section	.text$_ZN11wxStaticBoxC1EP8wxWindowiRK8wxStringRK7wxPointRK6wxSizelS4_,"x"
	.linkonce discard
	.align 2
	.globl	_ZN11wxStaticBoxC1EP8wxWindowiRK8wxStringRK7wxPointRK6wxSizelS4_
	.def	_ZN11wxStaticBoxC1EP8wxWindowiRK8wxStringRK7wxPointRK6wxSizelS4_;	.scl	2;	.type	32;	.endef
	.seh_proc	_ZN11wxStaticBoxC1EP8wxWindowiRK8wxStringRK7wxPointRK6wxSizelS4_
_ZN11wxStaticBoxC1EP8wxWindowiRK8wxStringRK7wxPointRK6wxSizelS4_:
.LFB15678:
	.loc 50 20 5
	.cfi_startproc
	pushq	%rbp
	.seh_pushreg	%rbp
	.cfi_def_cfa_offset 16
	.cfi_offset 6, -16
	pushq	%rbx
	.seh_pushreg	%rbx
	.cfi_def_cfa_offset 24
	.cfi_offset 3, -24
	subq	$72, %rsp
	.seh_stackalloc	72
	.cfi_def_cfa_offset 96
	leaq	128(%rsp), %rbp
	.seh_setframe	%rbp, 128
	.cfi_def_cfa 6, -32
	.seh_endprologue
	movq	%rcx, -32(%rbp)
	movq	%rdx, -24(%rbp)
	movl	%r8d, -16(%rbp)
	movq	%r9, -8(%rbp)
.LBB95:
	.loc 50 26 5
	movq	-32(%rbp), %rax
	movq	%rax, %rcx
.LEHB52:
	call	_ZN15wxStaticBoxBaseC2Ev
.LEHE52:
	movq	.refptr._ZTV11wxStaticBox(%rip), %rax
	leaq	16(%rax), %rdx
	movq	-32(%rbp), %rax
	movq	%rdx, (%rax)
	.loc 50 27 15
	movq	-8(%rbp), %r8
	movl	-16(%rbp), %ecx
	movq	-24(%rbp), %rax
	movq	24(%rbp), %rdx
	movq	%rdx, 56(%rsp)
	movl	16(%rbp), %edx
	movl	%edx, 48(%rsp)
	movq	8(%rbp), %rdx
	movq	%rdx, 40(%rsp)
	movq	0(%rbp), %rdx
	movq	%rdx, 32(%rsp)
	movq	%r8, %r9
	movl	%ecx, %r8d
	movq	%rax, %rdx
	movq	-32(%rbp), %rcx
.LEHB53:
	call	_ZN11wxStaticBox6CreateEP8wxWindowiRK8wxStringRK7wxPointRK6wxSizelS4_
.LEHE53:
.LBE95:
	.loc 50 28 5
	jmp	.L501
.L500:
	movq	%rax, %rbx
.LBB96:
	.loc 50 26 5
	movq	-32(%rbp), %rax
	movq	%rax, %rcx
	call	_ZN15wxStaticBoxBaseD2Ev
	movq	%rbx, %rax
	movq	%rax, %rcx
.LEHB54:
	call	_Unwind_Resume
	nop
.LEHE54:
.L501:
.LBE96:
	.loc 50 28 5
	addq	$72, %rsp
	popq	%rbx
	.cfi_restore 3
	popq	%rbp
	.cfi_restore 6
	.cfi_def_cfa 7, -56
	ret
	.cfi_endproc
.LFE15678:
	.seh_handler	__gxx_personality_seh0, @unwind, @except
	.seh_handlerdata
.LLSDA15678:
	.byte	0xff
	.byte	0xff
	.byte	0x1
	.uleb128 .LLSDACSE15678-.LLSDACSB15678
.LLSDACSB15678:
	.uleb128 .LEHB52-.LFB15678
	.uleb128 .LEHE52-.LEHB52
	.uleb128 0
	.uleb128 0
	.uleb128 .LEHB53-.LFB15678
	.uleb128 .LEHE53-.LEHB53
	.uleb128 .L500-.LFB15678
	.uleb128 0
	.uleb128 .LEHB54-.LFB15678
	.uleb128 .LEHE54-.LEHB54
	.uleb128 0
	.uleb128 0
.LLSDACSE15678:
	.section	.text$_ZN11wxStaticBoxC1EP8wxWindowiRK8wxStringRK7wxPointRK6wxSizelS4_,"x"
	.linkonce discard
	.seh_endproc
	.section	.text$_ZN11wxStaticBoxD2Ev,"x"
	.linkonce discard
	.align 2
	.globl	_ZN11wxStaticBoxD2Ev
	.def	_ZN11wxStaticBoxD2Ev;	.scl	2;	.type	32;	.endef
	.seh_proc	_ZN11wxStaticBoxD2Ev
_ZN11wxStaticBoxD2Ev:
.LFB15682:
	.loc 50 15 7
	.cfi_startproc
	pushq	%rbp
	.seh_pushreg	%rbp
	.cfi_def_cfa_offset 16
	.cfi_offset 6, -16
	movq	%rsp, %rbp
	.seh_setframe	%rbp, 0
	.cfi_def_cfa_register 6
	subq	$32, %rsp
	.seh_stackalloc	32
	.seh_endprologue
	movq	%rcx, 16(%rbp)
.LBB97:
	.loc 50 15 7
	movq	.refptr._ZTV11wxStaticBox(%rip), %rax
	leaq	16(%rax), %rdx
	movq	16(%rbp), %rax
	movq	%rdx, (%rax)
	movq	16(%rbp), %rax
	movq	%rax, %rcx
	call	_ZN15wxStaticBoxBaseD2Ev
.LBE97:
	nop
	addq	$32, %rsp
	popq	%rbp
	.cfi_restore 6
	.cfi_def_cfa 7, 8
	ret
	.cfi_endproc
.LFE15682:
	.seh_endproc
	.section	.text$_ZN10wxRadioBoxC1EP8wxWindowiRK8wxStringRK7wxPointRK6wxSizeiPS3_ilRK11wxValidatorS4_,"x"
	.linkonce discard
	.align 2
	.globl	_ZN10wxRadioBoxC1EP8wxWindowiRK8wxStringRK7wxPointRK6wxSizeiPS3_ilRK11wxValidatorS4_
	.def	_ZN10wxRadioBoxC1EP8wxWindowiRK8wxStringRK7wxPointRK6wxSizeiPS3_ilRK11wxValidatorS4_;	.scl	2;	.type	32;	.endef
	.seh_proc	_ZN10wxRadioBoxC1EP8wxWindowiRK8wxStringRK7wxPointRK6wxSizeiPS3_ilRK11wxValidatorS4_
_ZN10wxRadioBoxC1EP8wxWindowiRK8wxStringRK7wxPointRK6wxSizeiPS3_ilRK11wxValidatorS4_:
.LFB15689:
	.file 51 "../wxMSW-3.0.5_gcc810_x64_Dev/include/wx/msw/radiobox.h"
	.loc 51 27 5
	.cfi_startproc
	pushq	%rbp
	.seh_pushreg	%rbp
	.cfi_def_cfa_offset 16
	.cfi_offset 6, -16
	pushq	%rbx
	.seh_pushreg	%rbx
	.cfi_def_cfa_offset 24
	.cfi_offset 3, -24
	subq	$104, %rsp
	.seh_stackalloc	104
	.cfi_def_cfa_offset 128
	leaq	128(%rsp), %rbp
	.seh_setframe	%rbp, 128
	.cfi_def_cfa 6, 0
	.seh_endprologue
	movq	%rcx, 0(%rbp)
	movq	%rdx, 8(%rbp)
	movl	%r8d, 16(%rbp)
	movq	%r9, 24(%rbp)
.LBB98:
	.loc 51 37 5
	movq	0(%rbp), %rax
	movq	%rax, %rcx
.LEHB55:
	call	_ZN11wxStaticBoxC2Ev
.LEHE55:
	movq	0(%rbp), %rax
	addq	$680, %rax
	movq	%rax, %rcx
.LEHB56:
	call	_ZN14wxRadioBoxBaseC2Ev
.LEHE56:
	.loc 51 37 5 is_stmt 0 discriminator 2
	movq	.refptr._ZTV10wxRadioBox(%rip), %rax
	leaq	16(%rax), %rdx
	movq	0(%rbp), %rax
	movq	%rdx, (%rax)
	movq	.refptr._ZTV10wxRadioBox(%rip), %rax
	leaq	1968(%rax), %rdx
	movq	0(%rbp), %rax
	movq	%rdx, 680(%rax)
	movq	0(%rbp), %rax
	addq	$760, %rax
	movq	%rax, %rcx
	call	_ZN13wxWindowIDRefC1Ev
	.loc 51 38 13 is_stmt 1 discriminator 2
	movq	0(%rbp), %rcx
.LEHB57:
	call	_ZN10wxRadioBox4InitEv
	.loc 51 40 21
	movq	24(%rbp), %r8
	movl	16(%rbp), %ecx
	movq	8(%rbp), %rax
	movq	88(%rbp), %rdx
	movq	%rdx, 88(%rsp)
	movq	80(%rbp), %rdx
	movq	%rdx, 80(%rsp)
	movl	72(%rbp), %edx
	movl	%edx, 72(%rsp)
	movl	64(%rbp), %edx
	movl	%edx, 64(%rsp)
	movq	56(%rbp), %rdx
	movq	%rdx, 56(%rsp)
	movl	48(%rbp), %edx
	movl	%edx, 48(%rsp)
	movq	40(%rbp), %rdx
	movq	%rdx, 40(%rsp)
	movq	32(%rbp), %rdx
	movq	%rdx, 32(%rsp)
	movq	%r8, %r9
	movl	%ecx, %r8d
	movq	%rax, %rdx
	movq	0(%rbp), %rcx
	call	_ZN10wxRadioBox6CreateEP8wxWindowiRK8wxStringRK7wxPointRK6wxSizeiPS3_ilRK11wxValidatorS4_
.LEHE57:
.LBE98:
	.loc 51 42 5
	jmp	.L508
.L507:
	movq	%rax, %rbx
.LBB99:
	.loc 51 37 5
	movq	0(%rbp), %rax
	addq	$760, %rax
	movq	%rax, %rcx
	call	_ZN13wxWindowIDRefD1Ev
	movq	0(%rbp), %rax
	addq	$680, %rax
	movq	%rax, %rcx
	call	_ZN14wxRadioBoxBaseD2Ev
	jmp	.L505
.L506:
	movq	%rax, %rbx
.L505:
	.loc 51 37 5 is_stmt 0 discriminator 1
	movq	0(%rbp), %rax
	movq	%rax, %rcx
	call	_ZN11wxStaticBoxD2Ev
	movq	%rbx, %rax
	movq	%rax, %rcx
.LEHB58:
	call	_Unwind_Resume
	nop
.LEHE58:
.L508:
.LBE99:
	.loc 51 42 5 is_stmt 1
	addq	$104, %rsp
	popq	%rbx
	.cfi_restore 3
	popq	%rbp
	.cfi_restore 6
	.cfi_def_cfa 7, -88
	ret
	.cfi_endproc
.LFE15689:
	.seh_handler	__gxx_personality_seh0, @unwind, @except
	.seh_handlerdata
.LLSDA15689:
	.byte	0xff
	.byte	0xff
	.byte	0x1
	.uleb128 .LLSDACSE15689-.LLSDACSB15689
.LLSDACSB15689:
	.uleb128 .LEHB55-.LFB15689
	.uleb128 .LEHE55-.LEHB55
	.uleb128 0
	.uleb128 0
	.uleb128 .LEHB56-.LFB15689
	.uleb128 .LEHE56-.LEHB56
	.uleb128 .L506-.LFB15689
	.uleb128 0
	.uleb128 .LEHB57-.LFB15689
	.uleb128 .LEHE57-.LEHB57
	.uleb128 .L507-.LFB15689
	.uleb128 0
	.uleb128 .LEHB58-.LFB15689
	.uleb128 .LEHE58-.LEHB58
	.uleb128 0
	.uleb128 0
.LLSDACSE15689:
