	.file	"configuracao.cpp"
	.text
.Ltext0:
	.cfi_sections	.debug_frame
	.section .rdata,"dr"
_ZStL19piecewise_construct:
	.space 1
_ZStL13allocator_arg:
	.space 1
_ZStL6ignore:
	.space 1
	.globl	_ZN12Configuracao8instanceE
	.bss
	.align 8
_ZN12Configuracao8instanceE:
	.space 8
	.section	.text$_ZSt7forwardIdEOT_RNSt16remove_referenceIS0_E4typeE,"x"
	.linkonce discard
	.globl	_ZSt7forwardIdEOT_RNSt16remove_referenceIS0_E4typeE
	.def	_ZSt7forwardIdEOT_RNSt16remove_referenceIS0_E4typeE;	.scl	2;	.type	32;	.endef
	.seh_proc	_ZSt7forwardIdEOT_RNSt16remove_referenceIS0_E4typeE
_ZSt7forwardIdEOT_RNSt16remove_referenceIS0_E4typeE:
.LFB1857:
	.file 1 "C:/Program Files/CodeBlocks/MinGW/lib/gcc/x86_64-w64-mingw32/8.1.0/include/c++/bits/move.h"
	.loc 1 74 5
	.cfi_startproc
	pushq	%rbp
	.seh_pushreg	%rbp
	.cfi_def_cfa_offset 16
	.cfi_offset 6, -16
	movq	%rsp, %rbp
	.seh_setframe	%rbp, 0
	.cfi_def_cfa_register 6
	.seh_endprologue
	movq	%rcx, 16(%rbp)
	.loc 1 75 36
	movq	16(%rbp), %rax
	.loc 1 75 39
	popq	%rbp
	.cfi_restore 6
	.cfi_def_cfa 7, 8
	ret
	.cfi_endproc
.LFE1857:
	.seh_endproc
	.section	.text$_ZNSt5tupleIJddEEC1IddLb1EEEOT_OT0_,"x"
	.linkonce discard
	.align 2
	.globl	_ZNSt5tupleIJddEEC1IddLb1EEEOT_OT0_
	.def	_ZNSt5tupleIJddEEC1IddLb1EEEOT_OT0_;	.scl	2;	.type	32;	.endef
	.seh_proc	_ZNSt5tupleIJddEEC1IddLb1EEEOT_OT0_
_ZNSt5tupleIJddEEC1IddLb1EEEOT_OT0_:
.LFB1860:
	.file 2 "C:/Program Files/CodeBlocks/MinGW/lib/gcc/x86_64-w64-mingw32/8.1.0/include/c++/tuple"
	.loc 2 971 19
	.cfi_startproc
	pushq	%rbp
	.seh_pushreg	%rbp
	.cfi_def_cfa_offset 16
	.cfi_offset 6, -16
	pushq	%rsi
	.seh_pushreg	%rsi
	.cfi_def_cfa_offset 24
	.cfi_offset 4, -24
	pushq	%rbx
	.seh_pushreg	%rbx
	.cfi_def_cfa_offset 32
	.cfi_offset 3, -32
	movq	%rsp, %rbp
	.seh_setframe	%rbp, 0
	.cfi_def_cfa_register 6
	subq	$32, %rsp
	.seh_stackalloc	32
	.seh_endprologue
	movq	%rcx, 32(%rbp)
	movq	%rdx, 40(%rbp)
	movq	%r8, 48(%rbp)
.LBB2:
	.loc 2 972 63
	movq	32(%rbp), %rbx
	movq	48(%rbp), %rax
	movq	%rax, %rcx
	call	_ZSt7forwardIdEOT_RNSt16remove_referenceIS0_E4typeE
	movq	%rax, %rsi
	movq	40(%rbp), %rax
	movq	%rax, %rcx
	call	_ZSt7forwardIdEOT_RNSt16remove_referenceIS0_E4typeE
	movq	%rsi, %r8
	movq	%rax, %rdx
	movq	%rbx, %rcx
	call	_ZNSt11_Tuple_implILy0EJddEEC2IdJdEvEEOT_DpOT0_
.LBE2:
	.loc 2 972 67
	nop
	addq	$32, %rsp
	popq	%rbx
	.cfi_restore 3
	popq	%rsi
	.cfi_restore 4
	popq	%rbp
	.cfi_restore 6
	.cfi_def_cfa 7, 24
	ret
	.cfi_endproc
.LFE1860:
	.seh_endproc
	.section	.text$_ZNSt11_Tuple_implILy0EJddEEC2IdJdEvEEOT_DpOT0_,"x"
	.linkonce discard
	.align 2
	.globl	_ZNSt11_Tuple_implILy0EJddEEC2IdJdEvEEOT_DpOT0_
	.def	_ZNSt11_Tuple_implILy0EJddEEC2IdJdEvEEOT_DpOT0_;	.scl	2;	.type	32;	.endef
	.seh_proc	_ZNSt11_Tuple_implILy0EJddEEC2IdJdEvEEOT_DpOT0_
_ZNSt11_Tuple_implILy0EJddEEC2IdJdEvEEOT_DpOT0_:
.LFB1862:
	.loc 2 216 19
	.cfi_startproc
	pushq	%rbp
	.seh_pushreg	%rbp
	.cfi_def_cfa_offset 16
	.cfi_offset 6, -16
	pushq	%rbx
	.seh_pushreg	%rbx
	.cfi_def_cfa_offset 24
	.cfi_offset 3, -24
	subq	$40, %rsp
	.seh_stackalloc	40
	.cfi_def_cfa_offset 64
	leaq	128(%rsp), %rbp
	.seh_setframe	%rbp, 128
	.cfi_def_cfa 6, -64
	.seh_endprologue
	movq	%rcx, -64(%rbp)
	movq	%rdx, -56(%rbp)
	movq	%r8, -48(%rbp)
.LBB3:
	.loc 2 218 38
	movq	-64(%rbp), %rbx
	movq	-48(%rbp), %rax
	movq	%rax, %rcx
	call	_ZSt7forwardIdEOT_RNSt16remove_referenceIS0_E4typeE
	movq	%rax, %rdx
	movq	%rbx, %rcx
	call	_ZNSt11_Tuple_implILy1EJdEEC2IdEEOT_
	movq	-64(%rbp), %rax
	leaq	8(%rax), %rbx
	movq	-56(%rbp), %rax
	movq	%rax, %rcx
	call	_ZSt7forwardIdEOT_RNSt16remove_referenceIS0_E4typeE
	movq	%rax, %rdx
	movq	%rbx, %rcx
	call	_ZNSt10_Head_baseILy0EdLb0EEC2IdEEOT_
.LBE3:
	.loc 2 218 42
	nop
	addq	$40, %rsp
	popq	%rbx
	.cfi_restore 3
	popq	%rbp
	.cfi_restore 6
	.cfi_def_cfa 7, -24
	ret
	.cfi_endproc
.LFE1862:
	.seh_endproc
	.section	.text$_ZNSt11_Tuple_implILy1EJdEEC2IdEEOT_,"x"
	.linkonce discard
	.align 2
	.globl	_ZNSt11_Tuple_implILy1EJdEEC2IdEEOT_
	.def	_ZNSt11_Tuple_implILy1EJdEEC2IdEEOT_;	.scl	2;	.type	32;	.endef
	.seh_proc	_ZNSt11_Tuple_implILy1EJdEEC2IdEEOT_
_ZNSt11_Tuple_implILy1EJdEEC2IdEEOT_:
.LFB1865:
	.loc 2 365 19
	.cfi_startproc
	pushq	%rbp
	.seh_pushreg	%rbp
	.cfi_def_cfa_offset 16
	.cfi_offset 6, -16
	pushq	%rbx
	.seh_pushreg	%rbx
	.cfi_def_cfa_offset 24
	.cfi_offset 3, -24
	subq	$40, %rsp
	.seh_stackalloc	40
	.cfi_def_cfa_offset 64
	leaq	128(%rsp), %rbp
	.seh_setframe	%rbp, 128
	.cfi_def_cfa 6, -64
	.seh_endprologue
	movq	%rcx, -64(%rbp)
	movq	%rdx, -56(%rbp)
.LBB4:
	.loc 2 366 38
	movq	-64(%rbp), %rbx
	movq	-56(%rbp), %rax
	movq	%rax, %rcx
	call	_ZSt7forwardIdEOT_RNSt16remove_referenceIS0_E4typeE
	movq	%rax, %rdx
	movq	%rbx, %rcx
	call	_ZNSt10_Head_baseILy1EdLb0EEC2IdEEOT_
.LBE4:
	.loc 2 366 42
	nop
	addq	$40, %rsp
	popq	%rbx
	.cfi_restore 3
	popq	%rbp
	.cfi_restore 6
	.cfi_def_cfa 7, -24
	ret
	.cfi_endproc
.LFE1865:
	.seh_endproc
	.section	.text$_ZNSt10_Head_baseILy1EdLb0EEC2IdEEOT_,"x"
	.linkonce discard
	.align 2
	.globl	_ZNSt10_Head_baseILy1EdLb0EEC2IdEEOT_
	.def	_ZNSt10_Head_baseILy1EdLb0EEC2IdEEOT_;	.scl	2;	.type	32;	.endef
	.seh_proc	_ZNSt10_Head_baseILy1EdLb0EEC2IdEEOT_
_ZNSt10_Head_baseILy1EdLb0EEC2IdEEOT_:
.LFB1868:
	.loc 2 132 19
	.cfi_startproc
	pushq	%rbp
	.seh_pushreg	%rbp
	.cfi_def_cfa_offset 16
	.cfi_offset 6, -16
	movq	%rsp, %rbp
	.seh_setframe	%rbp, 0
	.cfi_def_cfa_register 6
	subq	$32, %rsp
	.seh_stackalloc	32
	.seh_endprologue
	movq	%rcx, 16(%rbp)
	movq	%rdx, 24(%rbp)
.LBB5:
	.loc 2 133 37
	movq	24(%rbp), %rax
	movq	%rax, %rcx
	call	_ZSt7forwardIdEOT_RNSt16remove_referenceIS0_E4typeE
	.loc 2 133 42
	movsd	(%rax), %xmm0
	movq	16(%rbp), %rax
	movsd	%xmm0, (%rax)
.LBE5:
	.loc 2 133 46
	nop
	addq	$32, %rsp
	popq	%rbp
	.cfi_restore 6
	.cfi_def_cfa 7, 8
	ret
	.cfi_endproc
.LFE1868:
	.seh_endproc
	.section	.text$_ZNSt11_Tuple_implILy1EJdEE7_M_headERS0_,"x"
	.linkonce discard
	.globl	_ZNSt11_Tuple_implILy1EJdEE7_M_headERS0_
	.def	_ZNSt11_Tuple_implILy1EJdEE7_M_headERS0_;	.scl	2;	.type	32;	.endef
	.seh_proc	_ZNSt11_Tuple_implILy1EJdEE7_M_headERS0_
_ZNSt11_Tuple_implILy1EJdEE7_M_headERS0_:
.LFB1871:
	.loc 2 351 7
	.cfi_startproc
	pushq	%rbp
	.seh_pushreg	%rbp
	.cfi_def_cfa_offset 16
	.cfi_offset 6, -16
	movq	%rsp, %rbp
	.seh_setframe	%rbp, 0
	.cfi_def_cfa_register 6
	subq	$32, %rsp
	.seh_stackalloc	32
	.seh_endprologue
	movq	%rcx, 16(%rbp)
	.loc 2 351 65
	movq	16(%rbp), %rax
	movq	%rax, %rcx
	call	_ZNSt10_Head_baseILy1EdLb0EE7_M_headERS0_
	.loc 2 351 72
	addq	$32, %rsp
	popq	%rbp
	.cfi_restore 6
	.cfi_def_cfa 7, 8
	ret
	.cfi_endproc
.LFE1871:
	.seh_endproc
	.section	.text$_ZNSt10_Head_baseILy1EdLb0EE7_M_headERS0_,"x"
	.linkonce discard
	.globl	_ZNSt10_Head_baseILy1EdLb0EE7_M_headERS0_
	.def	_ZNSt10_Head_baseILy1EdLb0EE7_M_headERS0_;	.scl	2;	.type	32;	.endef
	.seh_proc	_ZNSt10_Head_baseILy1EdLb0EE7_M_headERS0_
_ZNSt10_Head_baseILy1EdLb0EE7_M_headERS0_:
.LFB1872:
	.loc 2 160 7
	.cfi_startproc
	pushq	%rbp
	.seh_pushreg	%rbp
	.cfi_def_cfa_offset 16
	.cfi_offset 6, -16
	movq	%rsp, %rbp
	.seh_setframe	%rbp, 0
	.cfi_def_cfa_register 6
	.seh_endprologue
	movq	%rcx, 16(%rbp)
	.loc 2 160 54
	movq	16(%rbp), %rax
	.loc 2 160 68
	popq	%rbp
	.cfi_restore 6
	.cfi_def_cfa 7, 8
	ret
	.cfi_endproc
.LFE1872:
	.seh_endproc
	.section	.text$_ZSt10make_tupleIJddEESt5tupleIJDpNSt17__decay_and_stripIT_E6__typeEEEDpOS2_,"x"
	.linkonce discard
	.globl	_ZSt10make_tupleIJddEESt5tupleIJDpNSt17__decay_and_stripIT_E6__typeEEEDpOS2_
	.def	_ZSt10make_tupleIJddEESt5tupleIJDpNSt17__decay_and_stripIT_E6__typeEEEDpOS2_;	.scl	2;	.type	32;	.endef
	.seh_proc	_ZSt10make_tupleIJddEESt5tupleIJDpNSt17__decay_and_stripIT_E6__typeEEEDpOS2_
_ZSt10make_tupleIJddEESt5tupleIJDpNSt17__decay_and_stripIT_E6__typeEEEDpOS2_:
.LFB1856:
	.loc 2 1464 5
	.cfi_startproc
	pushq	%rbp
	.seh_pushreg	%rbp
	.cfi_def_cfa_offset 16
	.cfi_offset 6, -16
	pushq	%rbx
	.seh_pushreg	%rbx
	.cfi_def_cfa_offset 24
	.cfi_offset 3, -24
	subq	$40, %rsp
	.seh_stackalloc	40
	.cfi_def_cfa_offset 64
	leaq	128(%rsp), %rbp
	.seh_setframe	%rbp, 128
	.cfi_def_cfa 6, -64
	.seh_endprologue
	movq	%rcx, -64(%rbp)
	movq	%rdx, -56(%rbp)
	movq	%r8, -48(%rbp)
	.loc 2 1468 62
	movq	-48(%rbp), %rax
	movq	%rax, %rcx
	call	_ZSt7forwardIdEOT_RNSt16remove_referenceIS0_E4typeE
	movq	%rax, %rbx
	movq	-56(%rbp), %rax
	movq	%rax, %rcx
	call	_ZSt7forwardIdEOT_RNSt16remove_referenceIS0_E4typeE
	movq	%rbx, %r8
	movq	%rax, %rdx
	movq	-64(%rbp), %rcx
	call	_ZNSt5tupleIJddEEC1IddLb1EEEOT_OT0_
	.loc 2 1469 5
	movq	-64(%rbp), %rax
	addq	$40, %rsp
	popq	%rbx
	.cfi_restore 3
	popq	%rbp
	.cfi_restore 6
	.cfi_def_cfa 7, -24
	ret
	.cfi_endproc
.LFE1856:
	.seh_endproc
	.section	.text$_ZNSt10_Head_baseILy0EdLb0EEC2IdEEOT_,"x"
	.linkonce discard
	.align 2
	.globl	_ZNSt10_Head_baseILy0EdLb0EEC2IdEEOT_
	.def	_ZNSt10_Head_baseILy0EdLb0EEC2IdEEOT_;	.scl	2;	.type	32;	.endef
	.seh_proc	_ZNSt10_Head_baseILy0EdLb0EEC2IdEEOT_
_ZNSt10_Head_baseILy0EdLb0EEC2IdEEOT_:
.LFB1879:
	.loc 2 132 19
	.cfi_startproc
	pushq	%rbp
	.seh_pushreg	%rbp
	.cfi_def_cfa_offset 16
	.cfi_offset 6, -16
	movq	%rsp, %rbp
	.seh_setframe	%rbp, 0
	.cfi_def_cfa_register 6
	subq	$32, %rsp
	.seh_stackalloc	32
	.seh_endprologue
	movq	%rcx, 16(%rbp)
	movq	%rdx, 24(%rbp)
.LBB6:
	.loc 2 133 37
	movq	24(%rbp), %rax
	movq	%rax, %rcx
	call	_ZSt7forwardIdEOT_RNSt16remove_referenceIS0_E4typeE
	.loc 2 133 42
	movsd	(%rax), %xmm0
	movq	16(%rbp), %rax
	movsd	%xmm0, (%rax)
.LBE6:
	.loc 2 133 46
	nop
	addq	$32, %rsp
	popq	%rbp
	.cfi_restore 6
	.cfi_def_cfa 7, 8
	ret
	.cfi_endproc
.LFE1879:
	.seh_endproc
	.text
	.align 2
	.globl	_ZN12ConfiguracaoC2Ev
	.def	_ZN12ConfiguracaoC2Ev;	.scl	2;	.type	32;	.endef
	.seh_proc	_ZN12ConfiguracaoC2Ev
_ZN12ConfiguracaoC2Ev:
.LFB1881:
	.file 3 "C:/temp/ballisticKernelCpp/interfaceGrafica/calculadorBalisiticaGraficoWindows/configuracao.cpp"
	.loc 3 5 1
	.cfi_startproc
	pushq	%rbp
	.seh_pushreg	%rbp
	.cfi_def_cfa_offset 16
	.cfi_offset 6, -16
	movq	%rsp, %rbp
	.seh_setframe	%rbp, 0
	.cfi_def_cfa_register 6
	subq	$96, %rsp
	.seh_stackalloc	96
	.seh_endprologue
	movq	%rcx, 16(%rbp)
.LBB7:
	.loc 3 5 28
	movq	16(%rbp), %rax
	addq	$72, %rax
	movq	%rax, %rcx
	call	_ZNSt5tupleIJddEEC1IddLb1EEEv
	movq	16(%rbp), %rax
	addq	$120, %rax
	movq	%rax, %rcx
	call	_ZNSt5tupleIJddEEC1IddLb1EEEv
	.loc 3 9 11
	movq	16(%rbp), %rax
	movsd	.LC0(%rip), %xmm0
	movsd	%xmm0, 152(%rax)
	.loc 3 10 11
	movq	16(%rbp), %rax
	movl	$25, 168(%rax)
	.loc 3 11 14
	movq	16(%rbp), %rax
	movsd	.LC1(%rip), %xmm0
	movsd	%xmm0, 176(%rax)
	.loc 3 12 23
	movq	16(%rbp), %rax
	movsd	.LC2(%rip), %xmm0
	movsd	%xmm0, 136(%rax)
	.loc 3 13 19
	movq	16(%rbp), %rax
	movsd	.LC3(%rip), %xmm0
	movsd	%xmm0, (%rax)
	.loc 3 14 20
	movq	16(%rbp), %rax
	movl	$3, 164(%rax)
	.loc 3 15 19
	movq	16(%rbp), %rax
	movl	$0, 160(%rax)
	.loc 3 16 16
	movq	16(%rbp), %rax
	movl	$0, 144(%rax)
	.loc 3 17 13
	movq	16(%rbp), %rax
	movsd	.LC4(%rip), %xmm0
	movsd	%xmm0, 8(%rax)
	.loc 3 18 25
	movq	16(%rbp), %rax
	movsd	.LC5(%rip), %xmm0
	movsd	%xmm0, 32(%rax)
	.loc 3 19 14
	movq	16(%rbp), %rax
	pxor	%xmm0, %xmm0
	movsd	%xmm0, 16(%rax)
	.loc 3 20 28
	movq	16(%rbp), %rax
	movsd	.LC7(%rip), %xmm0
	movsd	%xmm0, 40(%rax)
	.loc 3 21 27
	movq	16(%rbp), %rax
	movsd	.LC8(%rip), %xmm0
	movsd	%xmm0, 48(%rax)
	.loc 3 22 38
	movq	16(%rbp), %rax
	movsd	.LC9(%rip), %xmm0
	movsd	%xmm0, 56(%rax)
	.loc 3 23 30
	movq	16(%rbp), %rax
	movsd	.LC10(%rip), %xmm0
	movsd	%xmm0, 64(%rax)
	.loc 3 24 30
	movq	16(%rbp), %rax
	movb	$0, 89(%rax)
	.loc 3 25 36
	movq	16(%rbp), %rax
	movb	$0, 88(%rax)
	.loc 3 26 14
	movq	16(%rbp), %rax
	movsd	.LC11(%rip), %xmm0
	movsd	%xmm0, 96(%rax)
	.loc 3 27 16
	movq	16(%rbp), %rax
	pxor	%xmm0, %xmm0
	movsd	%xmm0, 104(%rax)
	.loc 3 28 21
	movq	16(%rbp), %rax
	pxor	%xmm0, %xmm0
	movsd	%xmm0, 112(%rax)
	.loc 3 29 18
	movq	16(%rbp), %rax
	movb	$0, 184(%rax)
	.loc 3 30 26
	movq	16(%rbp), %rax
	movb	$0, 185(%rax)
	.loc 3 31 17
	movq	16(%rbp), %rax
	movb	$0, 186(%rax)
	.loc 3 32 46
	movsd	.LC12(%rip), %xmm0
	movsd	%xmm0, -48(%rbp)
	.loc 3 32 40
	movsd	.LC13(%rip), %xmm0
	movsd	%xmm0, -40(%rbp)
	.loc 3 32 50
	leaq	-64(%rbp), %rax
	leaq	-48(%rbp), %rcx
	leaq	-40(%rbp), %rdx
	movq	%rcx, %r8
	movq	%rax, %rcx
	call	_ZSt10make_tupleIJddEESt5tupleIJDpNSt17__decay_and_stripIT_E6__typeEEEDpOS2_
	movq	16(%rbp), %rax
	leaq	120(%rax), %rcx
	leaq	-64(%rbp), %rax
	movq	%rax, %rdx
	call	_ZNSt5tupleIJddEEaSEOS0_
	.loc 3 33 43
	movsd	.LC14(%rip), %xmm0
	movsd	%xmm0, -16(%rbp)
	.loc 3 33 37
	movsd	.LC15(%rip), %xmm0
	movsd	%xmm0, -8(%rbp)
	.loc 3 33 46
	leaq	-32(%rbp), %rax
	leaq	-16(%rbp), %rcx
	leaq	-8(%rbp), %rdx
	movq	%rcx, %r8
	movq	%rax, %rcx
	call	_ZSt10make_tupleIJddEESt5tupleIJDpNSt17__decay_and_stripIT_E6__typeEEEDpOS2_
	movq	16(%rbp), %rax
	leaq	72(%rax), %rcx
	leaq	-32(%rbp), %rax
	movq	%rax, %rdx
	call	_ZNSt5tupleIJddEEaSEOS0_
.LBE7:
	.loc 3 34 1
	nop
	addq	$96, %rsp
	popq	%rbp
	.cfi_restore 6
	.cfi_def_cfa 7, 8
	ret
	.cfi_endproc
.LFE1881:
	.seh_endproc
	.globl	_ZN12ConfiguracaoC1Ev
	.def	_ZN12ConfiguracaoC1Ev;	.scl	2;	.type	32;	.endef
	.set	_ZN12ConfiguracaoC1Ev,_ZN12ConfiguracaoC2Ev
	.align 2
	.globl	_ZN12Configuracao11getInstanceEv
	.def	_ZN12Configuracao11getInstanceEv;	.scl	2;	.type	32;	.endef
	.seh_proc	_ZN12Configuracao11getInstanceEv
_ZN12Configuracao11getInstanceEv:
.LFB1883:
	.loc 3 38 1
	.cfi_startproc
	pushq	%rbp
	.seh_pushreg	%rbp
	.cfi_def_cfa_offset 16
	.cfi_offset 6, -16
	pushq	%rsi
	.seh_pushreg	%rsi
	.cfi_def_cfa_offset 24
	.cfi_offset 4, -24
	pushq	%rbx
	.seh_pushreg	%rbx
	.cfi_def_cfa_offset 32
	.cfi_offset 3, -32
	movq	%rsp, %rbp
	.seh_setframe	%rbp, 0
	.cfi_def_cfa_register 6
	subq	$32, %rsp
	.seh_stackalloc	32
	.seh_endprologue
	.loc 3 39 15
	movq	_ZN12Configuracao8instanceE(%rip), %rax
	.loc 3 39 3
	testq	%rax, %rax
	jne	.L16
	.loc 3 41 37
	movl	$192, %ecx
.LEHB0:
	call	_Znwy
.LEHE0:
	movq	%rax, %rbx
	movq	%rbx, %rcx
.LEHB1:
	call	_ZN12ConfiguracaoC1Ev
.LEHE1:
	.loc 3 41 18
	movq	%rbx, _ZN12Configuracao8instanceE(%rip)
.L16:
	.loc 3 44 12
	movq	_ZN12Configuracao8instanceE(%rip), %rax
	jmp	.L20
.L19:
	movq	%rax, %rsi
	.loc 3 41 37
	movq	%rbx, %rcx
	call	_ZdlPv
	movq	%rsi, %rax
	movq	%rax, %rcx
.LEHB2:
	call	_Unwind_Resume
.LEHE2:
.L20:
	.loc 3 45 1
	addq	$32, %rsp
	popq	%rbx
	.cfi_restore 3
	popq	%rsi
	.cfi_restore 4
	popq	%rbp
	.cfi_restore 6
	.cfi_def_cfa 7, 24
	ret
	.cfi_endproc
.LFE1883:
	.def	__gxx_personality_seh0;	.scl	2;	.type	32;	.endef
	.seh_handler	__gxx_personality_seh0, @unwind, @except
	.seh_handlerdata
.LLSDA1883:
	.byte	0xff
	.byte	0xff
	.byte	0x1
	.uleb128 .LLSDACSE1883-.LLSDACSB1883
.LLSDACSB1883:
	.uleb128 .LEHB0-.LFB1883
	.uleb128 .LEHE0-.LEHB0
	.uleb128 0
	.uleb128 0
	.uleb128 .LEHB1-.LFB1883
	.uleb128 .LEHE1-.LEHB1
	.uleb128 .L19-.LFB1883
	.uleb128 0
	.uleb128 .LEHB2-.LFB1883
	.uleb128 .LEHE2-.LEHB2
	.uleb128 0
	.uleb128 0
.LLSDACSE1883:
	.text
	.seh_endproc
	.align 2
	.globl	_ZN12Configuracao33getDeltaVoTemperaturaPropelelenteEi
	.def	_ZN12Configuracao33getDeltaVoTemperaturaPropelelenteEi;	.scl	2;	.type	32;	.endef
	.seh_proc	_ZN12Configuracao33getDeltaVoTemperaturaPropelelenteEi
_ZN12Configuracao33getDeltaVoTemperaturaPropelelenteEi:
.LFB1884:
	.loc 3 49 1
	.cfi_startproc
	pushq	%rbp
	.seh_pushreg	%rbp
	.cfi_def_cfa_offset 16
	.cfi_offset 6, -16
	movq	%rsp, %rbp
	.seh_setframe	%rbp, 0
	.cfi_def_cfa_register 6
	subq	$48, %rsp
	.seh_stackalloc	48
	.seh_endprologue
	movq	%rcx, 16(%rbp)
	movl	%edx, 24(%rbp)
	cmpl	$0, 24(%rbp)
	je	.L22
	cmpl	$1, 24(%rbp)
	je	.L23
	jmp	.L27
.L22:
	.loc 3 54 30
	movq	16(%rbp), %rax
	addq	$72, %rax
	.loc 3 54 48
	movq	%rax, %rcx
	call	_ZSt3getILy0EJddEERNSt13tuple_elementIXT_ESt5tupleIJDpT0_EEE4typeERS4_
	.loc 3 54 21
	movsd	(%rax), %xmm0
	movsd	%xmm0, -8(%rbp)
	.loc 3 55 13
	jmp	.L25
.L23:
	.loc 3 57 30
	movq	16(%rbp), %rax
	addq	$72, %rax
	.loc 3 57 48
	movq	%rax, %rcx
	call	_ZSt3getILy1EJddEERNSt13tuple_elementIXT_ESt5tupleIJDpT0_EEE4typeERS4_
	.loc 3 57 21
	movsd	(%rax), %xmm0
	movsd	%xmm0, -8(%rbp)
	.loc 3 58 13
	jmp	.L25
.L27:
	.loc 3 60 21
	pxor	%xmm0, %xmm0
	movsd	%xmm0, -8(%rbp)
.L25:
	.loc 3 62 12
	movsd	-8(%rbp), %xmm0
	movq	%xmm0, %rax
	.loc 3 64 1
	movq	%rax, %xmm0
	addq	$48, %rsp
	popq	%rbp
	.cfi_restore 6
	.cfi_def_cfa 7, 8
	ret
	.cfi_endproc
.LFE1884:
	.seh_endproc
	.align 2
	.globl	_ZN12Configuracao33setDeltaVoTemperaturaPropelelenteEid
	.def	_ZN12Configuracao33setDeltaVoTemperaturaPropelelenteEid;	.scl	2;	.type	32;	.endef
	.seh_proc	_ZN12Configuracao33setDeltaVoTemperaturaPropelelenteEid
_ZN12Configuracao33setDeltaVoTemperaturaPropelelenteEid:
.LFB1885:
	.loc 3 67 1
	.cfi_startproc
	pushq	%rbp
	.seh_pushreg	%rbp
	.cfi_def_cfa_offset 16
	.cfi_offset 6, -16
	movq	%rsp, %rbp
	.seh_setframe	%rbp, 0
	.cfi_def_cfa_register 6
	subq	$32, %rsp
	.seh_stackalloc	32
	.seh_endprologue
	movq	%rcx, 16(%rbp)
	movl	%edx, 24(%rbp)
	movsd	%xmm2, 32(%rbp)
	cmpl	$0, 24(%rbp)
	je	.L29
	cmpl	$1, 24(%rbp)
	je	.L30
	.loc 3 77 13
	jmp	.L28
.L29:
	.loc 3 71 20
	movq	16(%rbp), %rax
	addq	$72, %rax
	.loc 3 71 38
	movq	%rax, %rcx
	call	_ZSt3getILy0EJddEERNSt13tuple_elementIXT_ESt5tupleIJDpT0_EEE4typeERS4_
	.loc 3 71 40
	movsd	32(%rbp), %xmm0
	movsd	%xmm0, (%rax)
	.loc 3 72 13
	jmp	.L28
.L30:
	.loc 3 74 20
	movq	16(%rbp), %rax
	addq	$72, %rax
	.loc 3 74 38
	movq	%rax, %rcx
	call	_ZSt3getILy1EJddEERNSt13tuple_elementIXT_ESt5tupleIJDpT0_EEE4typeERS4_
	.loc 3 74 40
	movsd	32(%rbp), %xmm0
	movsd	%xmm0, (%rax)
	.loc 3 75 13
	nop
.L28:
	.loc 3 79 1
	addq	$32, %rsp
	popq	%rbp
	.cfi_restore 6
	.cfi_def_cfa 7, 8
	ret
	.cfi_endproc
.LFE1885:
	.seh_endproc
	.align 2
	.globl	_ZN12Configuracao26getTemperaturaPropelelenteEi
	.def	_ZN12Configuracao26getTemperaturaPropelelenteEi;	.scl	2;	.type	32;	.endef
	.seh_proc	_ZN12Configuracao26getTemperaturaPropelelenteEi
_ZN12Configuracao26getTemperaturaPropelelenteEi:
.LFB1886:
	.loc 3 83 1
	.cfi_startproc
	pushq	%rbp
	.seh_pushreg	%rbp
	.cfi_def_cfa_offset 16
	.cfi_offset 6, -16
	movq	%rsp, %rbp
	.seh_setframe	%rbp, 0
	.cfi_def_cfa_register 6
	subq	$48, %rsp
	.seh_stackalloc	48
	.seh_endprologue
	movq	%rcx, 16(%rbp)
	movl	%edx, 24(%rbp)
	cmpl	$0, 24(%rbp)
	je	.L34
	cmpl	$1, 24(%rbp)
	je	.L35
	jmp	.L39
.L34:
	.loc 3 88 30
	movq	16(%rbp), %rax
	addq	$120, %rax
	.loc 3 88 51
	movq	%rax, %rcx
	call	_ZSt3getILy0EJddEERNSt13tuple_elementIXT_ESt5tupleIJDpT0_EEE4typeERS4_
	.loc 3 88 21
	movsd	(%rax), %xmm0
	movsd	%xmm0, -8(%rbp)
	.loc 3 89 13
	jmp	.L37
.L35:
	.loc 3 91 30
	movq	16(%rbp), %rax
	addq	$120, %rax
	.loc 3 91 51
	movq	%rax, %rcx
	call	_ZSt3getILy1EJddEERNSt13tuple_elementIXT_ESt5tupleIJDpT0_EEE4typeERS4_
	.loc 3 91 21
	movsd	(%rax), %xmm0
	movsd	%xmm0, -8(%rbp)
	.loc 3 92 13
	jmp	.L37
.L39:
	.loc 3 94 21
	pxor	%xmm0, %xmm0
	movsd	%xmm0, -8(%rbp)
.L37:
	.loc 3 96 12
	movsd	-8(%rbp), %xmm0
	movq	%xmm0, %rax
	.loc 3 97 1
	movq	%rax, %xmm0
	addq	$48, %rsp
	popq	%rbp
	.cfi_restore 6
	.cfi_def_cfa 7, 8
	ret
	.cfi_endproc
.LFE1886:
	.seh_endproc
	.align 2
	.globl	_ZN12Configuracao26setTemperaturaPropelelenteEid
	.def	_ZN12Configuracao26setTemperaturaPropelelenteEid;	.scl	2;	.type	32;	.endef
	.seh_proc	_ZN12Configuracao26setTemperaturaPropelelenteEid
_ZN12Configuracao26setTemperaturaPropelelenteEid:
.LFB1887:
	.loc 3 100 1
	.cfi_startproc
	pushq	%rbp
	.seh_pushreg	%rbp
	.cfi_def_cfa_offset 16
	.cfi_offset 6, -16
	movq	%rsp, %rbp
	.seh_setframe	%rbp, 0
	.cfi_def_cfa_register 6
	subq	$32, %rsp
	.seh_stackalloc	32
	.seh_endprologue
	movq	%rcx, 16(%rbp)
	movl	%edx, 24(%rbp)
	movsd	%xmm2, 32(%rbp)
	cmpl	$0, 24(%rbp)
	je	.L41
	cmpl	$1, 24(%rbp)
	je	.L42
	.loc 3 110 13
	jmp	.L40
.L41:
	.loc 3 104 20
	movq	16(%rbp), %rax
	addq	$120, %rax
	.loc 3 104 41
	movq	%rax, %rcx
	call	_ZSt3getILy0EJddEERNSt13tuple_elementIXT_ESt5tupleIJDpT0_EEE4typeERS4_
	.loc 3 104 43
	movsd	32(%rbp), %xmm0
	movsd	%xmm0, (%rax)
	.loc 3 105 13
	jmp	.L40
.L42:
	.loc 3 107 20
	movq	16(%rbp), %rax
	addq	$120, %rax
	.loc 3 107 41
	movq	%rax, %rcx
	call	_ZSt3getILy1EJddEERNSt13tuple_elementIXT_ESt5tupleIJDpT0_EEE4typeERS4_
	.loc 3 107 43
	movsd	32(%rbp), %xmm0
	movsd	%xmm0, (%rax)
	.loc 3 108 13
	nop
.L40:
	.loc 3 112 1
	addq	$32, %rsp
	popq	%rbp
	.cfi_restore 6
	.cfi_def_cfa 7, 8
	ret
	.cfi_endproc
.LFE1887:
	.seh_endproc
	.section	.text$_ZNSt5tupleIJddEEC1IddLb1EEEv,"x"
	.linkonce discard
	.align 2
	.globl	_ZNSt5tupleIJddEEC1IddLb1EEEv
	.def	_ZNSt5tupleIJddEEC1IddLb1EEEv;	.scl	2;	.type	32;	.endef
	.seh_proc	_ZNSt5tupleIJddEEC1IddLb1EEEv
_ZNSt5tupleIJddEEC1IddLb1EEEv:
.LFB2079:
	.loc 2 919 17
	.cfi_startproc
	pushq	%rbp
	.seh_pushreg	%rbp
	.cfi_def_cfa_offset 16
	.cfi_offset 6, -16
	movq	%rsp, %rbp
	.seh_setframe	%rbp, 0
	.cfi_def_cfa_register 6
	subq	$32, %rsp
	.seh_stackalloc	32
	.seh_endprologue
	movq	%rcx, 16(%rbp)
.LBB8:
	.loc 2 920 20
	movq	16(%rbp), %rax
	movq	%rax, %rcx
	call	_ZNSt11_Tuple_implILy0EJddEEC2Ev
.LBE8:
	.loc 2 920 24
	nop
	addq	$32, %rsp
	popq	%rbp
	.cfi_restore 6
	.cfi_def_cfa 7, 8
	ret
	.cfi_endproc
.LFE2079:
	.seh_endproc
	.section	.text$_ZNSt11_Tuple_implILy0EJddEE7_M_tailERS0_,"x"
	.linkonce discard
	.globl	_ZNSt11_Tuple_implILy0EJddEE7_M_tailERS0_
	.def	_ZNSt11_Tuple_implILy0EJddEE7_M_tailERS0_;	.scl	2;	.type	32;	.endef
	.seh_proc	_ZNSt11_Tuple_implILy0EJddEE7_M_tailERS0_
_ZNSt11_Tuple_implILy0EJddEE7_M_tailERS0_:
.LFB2081:
	.loc 2 201 7
	.cfi_startproc
	pushq	%rbp
	.seh_pushreg	%rbp
	.cfi_def_cfa_offset 16
	.cfi_offset 6, -16
	movq	%rsp, %rbp
	.seh_setframe	%rbp, 0
	.cfi_def_cfa_register 6
	.seh_endprologue
	movq	%rcx, 16(%rbp)
	.loc 2 201 51
	movq	16(%rbp), %rax
	.loc 2 201 56
	popq	%rbp
	.cfi_restore 6
	.cfi_def_cfa 7, 8
	ret
	.cfi_endproc
.LFE2081:
	.seh_endproc
	.section	.text$_ZNSt11_Tuple_implILy0EJddEE7_M_headERS0_,"x"
	.linkonce discard
	.globl	_ZNSt11_Tuple_implILy0EJddEE7_M_headERS0_
	.def	_ZNSt11_Tuple_implILy0EJddEE7_M_headERS0_;	.scl	2;	.type	32;	.endef
	.seh_proc	_ZNSt11_Tuple_implILy0EJddEE7_M_headERS0_
_ZNSt11_Tuple_implILy0EJddEE7_M_headERS0_:
.LFB2082:
	.loc 2 195 7
	.cfi_startproc
	pushq	%rbp
	.seh_pushreg	%rbp
	.cfi_def_cfa_offset 16
	.cfi_offset 6, -16
	movq	%rsp, %rbp
	.seh_setframe	%rbp, 0
	.cfi_def_cfa_register 6
	subq	$32, %rsp
	.seh_stackalloc	32
	.seh_endprologue
	movq	%rcx, 16(%rbp)
	.loc 2 195 65
	movq	16(%rbp), %rax
	addq	$8, %rax
	movq	%rax, %rcx
	call	_ZNSt10_Head_baseILy0EdLb0EE7_M_headERS0_
	.loc 2 195 72
	addq	$32, %rsp
	popq	%rbp
	.cfi_restore 6
	.cfi_def_cfa 7, 8
	ret
	.cfi_endproc
.LFE2082:
	.seh_endproc
	.section	.text$_ZNSt10_Head_baseILy0EdLb0EE7_M_headERS0_,"x"
	.linkonce discard
	.globl	_ZNSt10_Head_baseILy0EdLb0EE7_M_headERS0_
	.def	_ZNSt10_Head_baseILy0EdLb0EE7_M_headERS0_;	.scl	2;	.type	32;	.endef
	.seh_proc	_ZNSt10_Head_baseILy0EdLb0EE7_M_headERS0_
_ZNSt10_Head_baseILy0EdLb0EE7_M_headERS0_:
.LFB2083:
	.loc 2 160 7
	.cfi_startproc
	pushq	%rbp
	.seh_pushreg	%rbp
	.cfi_def_cfa_offset 16
	.cfi_offset 6, -16
	movq	%rsp, %rbp
	.seh_setframe	%rbp, 0
	.cfi_def_cfa_register 6
	.seh_endprologue
	movq	%rcx, 16(%rbp)
	.loc 2 160 54
	movq	16(%rbp), %rax
	.loc 2 160 68
	popq	%rbp
	.cfi_restore 6
	.cfi_def_cfa 7, 8
	ret
	.cfi_endproc
.LFE2083:
	.seh_endproc
	.section	.text$_ZSt4moveIRSt11_Tuple_implILy1EJdEEEONSt16remove_referenceIT_E4typeEOS4_,"x"
	.linkonce discard
	.globl	_ZSt4moveIRSt11_Tuple_implILy1EJdEEEONSt16remove_referenceIT_E4typeEOS4_
	.def	_ZSt4moveIRSt11_Tuple_implILy1EJdEEEONSt16remove_referenceIT_E4typeEOS4_;	.scl	2;	.type	32;	.endef
	.seh_proc	_ZSt4moveIRSt11_Tuple_implILy1EJdEEEONSt16remove_referenceIT_E4typeEOS4_
_ZSt4moveIRSt11_Tuple_implILy1EJdEEEONSt16remove_referenceIT_E4typeEOS4_:
.LFB2084:
	.loc 1 99 5
	.cfi_startproc
	pushq	%rbp
	.seh_pushreg	%rbp
	.cfi_def_cfa_offset 16
	.cfi_offset 6, -16
	movq	%rsp, %rbp
	.seh_setframe	%rbp, 0
	.cfi_def_cfa_register 6
	.seh_endprologue
	movq	%rcx, 16(%rbp)
	.loc 1 100 74
	movq	16(%rbp), %rax
	.loc 1 100 77
	popq	%rbp
	.cfi_restore 6
	.cfi_def_cfa 7, 8
	ret
	.cfi_endproc
.LFE2084:
	.seh_endproc
	.section	.text$_ZSt4moveIRSt5tupleIJddEEEONSt16remove_referenceIT_E4typeEOS4_,"x"
	.linkonce discard
	.globl	_ZSt4moveIRSt5tupleIJddEEEONSt16remove_referenceIT_E4typeEOS4_
	.def	_ZSt4moveIRSt5tupleIJddEEEONSt16remove_referenceIT_E4typeEOS4_;	.scl	2;	.type	32;	.endef
	.seh_proc	_ZSt4moveIRSt5tupleIJddEEEONSt16remove_referenceIT_E4typeEOS4_
_ZSt4moveIRSt5tupleIJddEEEONSt16remove_referenceIT_E4typeEOS4_:
.LFB2088:
	.loc 1 99 5
	.cfi_startproc
	pushq	%rbp
	.seh_pushreg	%rbp
	.cfi_def_cfa_offset 16
	.cfi_offset 6, -16
	movq	%rsp, %rbp
	.seh_setframe	%rbp, 0
	.cfi_def_cfa_register 6
	.seh_endprologue
	movq	%rcx, 16(%rbp)
	.loc 1 100 74
	movq	16(%rbp), %rax
	.loc 1 100 77
	popq	%rbp
	.cfi_restore 6
	.cfi_def_cfa 7, 8
	ret
	.cfi_endproc
.LFE2088:
	.seh_endproc
	.section	.text$_ZNSt5tupleIJddEEaSEOS0_,"x"
	.linkonce discard
	.align 2
	.globl	_ZNSt5tupleIJddEEaSEOS0_
	.def	_ZNSt5tupleIJddEEaSEOS0_;	.scl	2;	.type	32;	.endef
	.seh_proc	_ZNSt5tupleIJddEEaSEOS0_
_ZNSt5tupleIJddEEaSEOS0_:
.LFB2087:
	.loc 2 1216 7
	.cfi_startproc
	pushq	%rbp
	.seh_pushreg	%rbp
	.cfi_def_cfa_offset 16
	.cfi_offset 6, -16
	movq	%rsp, %rbp
	.seh_setframe	%rbp, 0
	.cfi_def_cfa_register 6
	subq	$32, %rsp
	.seh_stackalloc	32
	.seh_endprologue
	movq	%rcx, 16(%rbp)
	movq	%rdx, 24(%rbp)
	.loc 2 1219 45
	movq	24(%rbp), %rax
	movq	%rax, %rcx
	call	_ZSt4moveIRSt5tupleIJddEEEONSt16remove_referenceIT_E4typeEOS4_
	.loc 2 1219 34
	movq	%rax, %rdx
	movq	16(%rbp), %rax
	movq	%rax, %rcx
	call	_ZNSt11_Tuple_implILy0EJddEEaSEOS0_
	.loc 2 1220 10
	movq	16(%rbp), %rax
	.loc 2 1221 7
	addq	$32, %rsp
	popq	%rbp
	.cfi_restore 6
	.cfi_def_cfa 7, 8
	ret
	.cfi_endproc
.LFE2087:
	.seh_endproc
	.section	.text$_ZSt3getILy0EJddEERNSt13tuple_elementIXT_ESt5tupleIJDpT0_EEE4typeERS4_,"x"
	.linkonce discard
	.globl	_ZSt3getILy0EJddEERNSt13tuple_elementIXT_ESt5tupleIJDpT0_EEE4typeERS4_
	.def	_ZSt3getILy0EJddEERNSt13tuple_elementIXT_ESt5tupleIJDpT0_EEE4typeERS4_;	.scl	2;	.type	32;	.endef
	.seh_proc	_ZSt3getILy0EJddEERNSt13tuple_elementIXT_ESt5tupleIJDpT0_EEE4typeERS4_
_ZSt3getILy0EJddEERNSt13tuple_elementIXT_ESt5tupleIJDpT0_EEE4typeERS4_:
.LFB2089:
	.loc 2 1314 5
	.cfi_startproc
	pushq	%rbp
	.seh_pushreg	%rbp
	.cfi_def_cfa_offset 16
	.cfi_offset 6, -16
	movq	%rsp, %rbp
	.seh_setframe	%rbp, 0
	.cfi_def_cfa_register 6
	subq	$32, %rsp
	.seh_stackalloc	32
	.seh_endprologue
	movq	%rcx, 16(%rbp)
	.loc 2 1315 36
	movq	16(%rbp), %rax
	movq	%rax, %rcx
	call	_ZSt12__get_helperILy0EdJdEERT0_RSt11_Tuple_implIXT_EJS0_DpT1_EE
	.loc 2 1315 43
	addq	$32, %rsp
	popq	%rbp
	.cfi_restore 6
	.cfi_def_cfa 7, 8
	ret
	.cfi_endproc
.LFE2089:
	.seh_endproc
	.section	.text$_ZSt3getILy1EJddEERNSt13tuple_elementIXT_ESt5tupleIJDpT0_EEE4typeERS4_,"x"
	.linkonce discard
	.globl	_ZSt3getILy1EJddEERNSt13tuple_elementIXT_ESt5tupleIJDpT0_EEE4typeERS4_
	.def	_ZSt3getILy1EJddEERNSt13tuple_elementIXT_ESt5tupleIJDpT0_EEE4typeERS4_;	.scl	2;	.type	32;	.endef
	.seh_proc	_ZSt3getILy1EJddEERNSt13tuple_elementIXT_ESt5tupleIJDpT0_EEE4typeERS4_
_ZSt3getILy1EJddEERNSt13tuple_elementIXT_ESt5tupleIJDpT0_EEE4typeERS4_:
.LFB2090:
	.loc 2 1314 5
	.cfi_startproc
	pushq	%rbp
	.seh_pushreg	%rbp
	.cfi_def_cfa_offset 16
	.cfi_offset 6, -16
	movq	%rsp, %rbp
	.seh_setframe	%rbp, 0
	.cfi_def_cfa_register 6
	subq	$32, %rsp
	.seh_stackalloc	32
	.seh_endprologue
	movq	%rcx, 16(%rbp)
	.loc 2 1315 36
	movq	16(%rbp), %rax
	movq	%rax, %rcx
	call	_ZSt12__get_helperILy1EdJEERT0_RSt11_Tuple_implIXT_EJS0_DpT1_EE
	.loc 2 1315 43
	addq	$32, %rsp
	popq	%rbp
	.cfi_restore 6
	.cfi_def_cfa 7, 8
	ret
	.cfi_endproc
.LFE2090:
	.seh_endproc
	.section	.text$_ZNSt11_Tuple_implILy0EJddEEC2Ev,"x"
	.linkonce discard
	.align 2
	.globl	_ZNSt11_Tuple_implILy0EJddEEC2Ev
	.def	_ZNSt11_Tuple_implILy0EJddEEC2Ev;	.scl	2;	.type	32;	.endef
	.seh_proc	_ZNSt11_Tuple_implILy0EJddEEC2Ev
_ZNSt11_Tuple_implILy0EJddEEC2Ev:
.LFB2157:
	.loc 2 206 17
	.cfi_startproc
	pushq	%rbp
	.seh_pushreg	%rbp
	.cfi_def_cfa_offset 16
	.cfi_offset 6, -16
	movq	%rsp, %rbp
	.seh_setframe	%rbp, 0
	.cfi_def_cfa_register 6
	subq	$32, %rsp
	.seh_stackalloc	32
	.seh_endprologue
	movq	%rcx, 16(%rbp)
.LBB9:
	.loc 2 207 29
	movq	16(%rbp), %rax
	movq	%rax, %rcx
	call	_ZNSt11_Tuple_implILy1EJdEEC2Ev
	movq	16(%rbp), %rax
	addq	$8, %rax
	movq	%rax, %rcx
	call	_ZNSt10_Head_baseILy0EdLb0EEC2Ev
.LBE9:
	.loc 2 207 33
	nop
	addq	$32, %rsp
	popq	%rbp
	.cfi_restore 6
	.cfi_def_cfa 7, 8
	ret
	.cfi_endproc
.LFE2157:
	.seh_endproc
	.section	.text$_ZNSt11_Tuple_implILy0EJddEEaSEOS0_,"x"
	.linkonce discard
	.align 2
	.globl	_ZNSt11_Tuple_implILy0EJddEEaSEOS0_
	.def	_ZNSt11_Tuple_implILy0EJddEEaSEOS0_;	.scl	2;	.type	32;	.endef
	.seh_proc	_ZNSt11_Tuple_implILy0EJddEEaSEOS0_
_ZNSt11_Tuple_implILy0EJddEEaSEOS0_:
.LFB2159:
	.loc 2 300 7
	.cfi_startproc
	pushq	%rbp
	.seh_pushreg	%rbp
	.cfi_def_cfa_offset 16
	.cfi_offset 6, -16
	pushq	%rbx
	.seh_pushreg	%rbx
	.cfi_def_cfa_offset 24
	.cfi_offset 3, -24
	subq	$40, %rsp
	.seh_stackalloc	40
	.cfi_def_cfa_offset 64
	leaq	128(%rsp), %rbp
	.seh_setframe	%rbp, 128
	.cfi_def_cfa 6, -64
	.seh_endprologue
	movq	%rcx, -64(%rbp)
	movq	%rdx, -56(%rbp)
	.loc 2 304 46
	movq	-56(%rbp), %rax
	movq	%rax, %rcx
	call	_ZNSt11_Tuple_implILy0EJddEE7_M_headERS0_
	.loc 2 304 38
	movq	%rax, %rcx
	call	_ZSt7forwardIdEOT_RNSt16remove_referenceIS0_E4typeE
	movq	%rax, %rbx
	.loc 2 304 9
	movq	-64(%rbp), %rcx
	call	_ZNSt11_Tuple_implILy0EJddEE7_M_headERS0_
	.loc 2 304 2
	movsd	(%rbx), %xmm0
	movsd	%xmm0, (%rax)
	.loc 2 305 36
	movq	-56(%rbp), %rax
	movq	%rax, %rcx
	call	_ZNSt11_Tuple_implILy0EJddEE7_M_tailERS0_
	.loc 2 305 28
	movq	%rax, %rcx
	call	_ZSt4moveIRSt11_Tuple_implILy1EJdEEEONSt16remove_referenceIT_E4typeEOS4_
	movq	%rax, %rbx
	.loc 2 305 9
	movq	-64(%rbp), %rcx
	call	_ZNSt11_Tuple_implILy0EJddEE7_M_tailERS0_
	.loc 2 305 17
	movq	%rbx, %rdx
	movq	%rax, %rcx
	call	_ZNSt11_Tuple_implILy1EJdEEaSEOS0_
	.loc 2 306 10
	movq	-64(%rbp), %rax
	.loc 2 307 7
	addq	$40, %rsp
	popq	%rbx
	.cfi_restore 3
	popq	%rbp
	.cfi_restore 6
	.cfi_def_cfa 7, -24
	ret
	.cfi_endproc
.LFE2159:
	.seh_endproc
	.section	.text$_ZSt12__get_helperILy0EdJdEERT0_RSt11_Tuple_implIXT_EJS0_DpT1_EE,"x"
	.linkonce discard
	.globl	_ZSt12__get_helperILy0EdJdEERT0_RSt11_Tuple_implIXT_EJS0_DpT1_EE
	.def	_ZSt12__get_helperILy0EdJdEERT0_RSt11_Tuple_implIXT_EJS0_DpT1_EE;	.scl	2;	.type	32;	.endef
	.seh_proc	_ZSt12__get_helperILy0EdJdEERT0_RSt11_Tuple_implIXT_EJS0_DpT1_EE
_ZSt12__get_helperILy0EdJdEERT0_RSt11_Tuple_implIXT_EJS0_DpT1_EE:
.LFB2160:
	.loc 2 1303 5
	.cfi_startproc
	pushq	%rbp
	.seh_pushreg	%rbp
	.cfi_def_cfa_offset 16
	.cfi_offset 6, -16
	movq	%rsp, %rbp
	.seh_setframe	%rbp, 0
	.cfi_def_cfa_register 6
	subq	$32, %rsp
	.seh_stackalloc	32
	.seh_endprologue
	movq	%rcx, 16(%rbp)
	.loc 2 1304 56
	movq	16(%rbp), %rcx
	call	_ZNSt11_Tuple_implILy0EJddEE7_M_headERS0_
	.loc 2 1304 63
	addq	$32, %rsp
	popq	%rbp
	.cfi_restore 6
	.cfi_def_cfa 7, 8
	ret
	.cfi_endproc
.LFE2160:
	.seh_endproc
	.section	.text$_ZSt12__get_helperILy1EdJEERT0_RSt11_Tuple_implIXT_EJS0_DpT1_EE,"x"
	.linkonce discard
	.globl	_ZSt12__get_helperILy1EdJEERT0_RSt11_Tuple_implIXT_EJS0_DpT1_EE
	.def	_ZSt12__get_helperILy1EdJEERT0_RSt11_Tuple_implIXT_EJS0_DpT1_EE;	.scl	2;	.type	32;	.endef
	.seh_proc	_ZSt12__get_helperILy1EdJEERT0_RSt11_Tuple_implIXT_EJS0_DpT1_EE
_ZSt12__get_helperILy1EdJEERT0_RSt11_Tuple_implIXT_EJS0_DpT1_EE:
.LFB2161:
	.loc 2 1303 5
	.cfi_startproc
	pushq	%rbp
	.seh_pushreg	%rbp
	.cfi_def_cfa_offset 16
	.cfi_offset 6, -16
	movq	%rsp, %rbp
	.seh_setframe	%rbp, 0
	.cfi_def_cfa_register 6
	subq	$32, %rsp
	.seh_stackalloc	32
	.seh_endprologue
	movq	%rcx, 16(%rbp)
	.loc 2 1304 56
	movq	16(%rbp), %rcx
	call	_ZNSt11_Tuple_implILy1EJdEE7_M_headERS0_
	.loc 2 1304 63
	addq	$32, %rsp
	popq	%rbp
	.cfi_restore 6
	.cfi_def_cfa 7, 8
	ret
	.cfi_endproc
.LFE2161:
	.seh_endproc
	.section	.text$_ZNSt11_Tuple_implILy1EJdEEC2Ev,"x"
	.linkonce discard
	.align 2
	.globl	_ZNSt11_Tuple_implILy1EJdEEC2Ev
	.def	_ZNSt11_Tuple_implILy1EJdEEC2Ev;	.scl	2;	.type	32;	.endef
	.seh_proc	_ZNSt11_Tuple_implILy1EJdEEC2Ev
_ZNSt11_Tuple_implILy1EJdEEC2Ev:
.LFB2210:
	.loc 2 356 17
	.cfi_startproc
	pushq	%rbp
	.seh_pushreg	%rbp
	.cfi_def_cfa_offset 16
	.cfi_offset 6, -16
	movq	%rsp, %rbp
	.seh_setframe	%rbp, 0
	.cfi_def_cfa_register 6
	subq	$32, %rsp
	.seh_stackalloc	32
	.seh_endprologue
	movq	%rcx, 16(%rbp)
.LBB10:
	.loc 2 357 15
	movq	16(%rbp), %rax
	movq	%rax, %rcx
	call	_ZNSt10_Head_baseILy1EdLb0EEC2Ev
.LBE10:
	.loc 2 357 19
	nop
	addq	$32, %rsp
	popq	%rbp
	.cfi_restore 6
	.cfi_def_cfa 7, 8
	ret
	.cfi_endproc
.LFE2210:
	.seh_endproc
	.section	.text$_ZNSt10_Head_baseILy0EdLb0EEC2Ev,"x"
	.linkonce discard
	.align 2
	.globl	_ZNSt10_Head_baseILy0EdLb0EEC2Ev
	.def	_ZNSt10_Head_baseILy0EdLb0EEC2Ev;	.scl	2;	.type	32;	.endef
	.seh_proc	_ZNSt10_Head_baseILy0EdLb0EEC2Ev
_ZNSt10_Head_baseILy0EdLb0EEC2Ev:
.LFB2213:
	.loc 2 122 17
	.cfi_startproc
	pushq	%rbp
	.seh_pushreg	%rbp
	.cfi_def_cfa_offset 16
	.cfi_offset 6, -16
	movq	%rsp, %rbp
	.seh_setframe	%rbp, 0
	.cfi_def_cfa_register 6
	.seh_endprologue
	movq	%rcx, 16(%rbp)
.LBB11:
	.loc 2 123 22
	movq	16(%rbp), %rax
	pxor	%xmm0, %xmm0
	movsd	%xmm0, (%rax)
.LBE11:
	.loc 2 123 26
	nop
	popq	%rbp
	.cfi_restore 6
	.cfi_def_cfa 7, 8
	ret
	.cfi_endproc
.LFE2213:
	.seh_endproc
	.section	.text$_ZNSt11_Tuple_implILy1EJdEEaSEOS0_,"x"
	.linkonce discard
	.align 2
	.globl	_ZNSt11_Tuple_implILy1EJdEEaSEOS0_
	.def	_ZNSt11_Tuple_implILy1EJdEEaSEOS0_;	.scl	2;	.type	32;	.endef
	.seh_proc	_ZNSt11_Tuple_implILy1EJdEEaSEOS0_
_ZNSt11_Tuple_implILy1EJdEEaSEOS0_:
.LFB2215:
	.loc 2 431 7
	.cfi_startproc
	pushq	%rbp
	.seh_pushreg	%rbp
	.cfi_def_cfa_offset 16
	.cfi_offset 6, -16
	pushq	%rbx
	.seh_pushreg	%rbx
	.cfi_def_cfa_offset 24
	.cfi_offset 3, -24
	subq	$40, %rsp
	.seh_stackalloc	40
	.cfi_def_cfa_offset 64
	leaq	128(%rsp), %rbp
	.seh_setframe	%rbp, 128
	.cfi_def_cfa 6, -64
	.seh_endprologue
	movq	%rcx, -64(%rbp)
	movq	%rdx, -56(%rbp)
	.loc 2 434 46
	movq	-56(%rbp), %rax
	movq	%rax, %rcx
	call	_ZNSt11_Tuple_implILy1EJdEE7_M_headERS0_
	.loc 2 434 38
	movq	%rax, %rcx
	call	_ZSt7forwardIdEOT_RNSt16remove_referenceIS0_E4typeE
	movq	%rax, %rbx
	.loc 2 434 9
	movq	-64(%rbp), %rcx
	call	_ZNSt11_Tuple_implILy1EJdEE7_M_headERS0_
	.loc 2 434 2
	movsd	(%rbx), %xmm0
	movsd	%xmm0, (%rax)
	.loc 2 435 10
	movq	-64(%rbp), %rax
	.loc 2 436 7
	addq	$40, %rsp
	popq	%rbx
	.cfi_restore 3
	popq	%rbp
	.cfi_restore 6
	.cfi_def_cfa 7, -24
	ret
	.cfi_endproc
.LFE2215:
	.seh_endproc
	.section	.text$_ZNSt10_Head_baseILy1EdLb0EEC2Ev,"x"
	.linkonce discard
	.align 2
	.globl	_ZNSt10_Head_baseILy1EdLb0EEC2Ev
	.def	_ZNSt10_Head_baseILy1EdLb0EEC2Ev;	.scl	2;	.type	32;	.endef
	.seh_proc	_ZNSt10_Head_baseILy1EdLb0EEC2Ev
_ZNSt10_Head_baseILy1EdLb0EEC2Ev:
.LFB2243:
	.loc 2 122 17
	.cfi_startproc
	pushq	%rbp
	.seh_pushreg	%rbp
	.cfi_def_cfa_offset 16
	.cfi_offset 6, -16
	movq	%rsp, %rbp
	.seh_setframe	%rbp, 0
	.cfi_def_cfa_register 6
	.seh_endprologue
	movq	%rcx, 16(%rbp)
.LBB12:
	.loc 2 123 22
	movq	16(%rbp), %rax
	pxor	%xmm0, %xmm0
	movsd	%xmm0, (%rax)
.LBE12:
	.loc 2 123 26
	nop
	popq	%rbp
	.cfi_restore 6
	.cfi_def_cfa 7, 8
	ret
	.cfi_endproc
.LFE2243:
	.seh_endproc
	.section .rdata,"dr"
	.align 8
.LC0:
	.long	1202590843
	.long	1065646817
	.align 8
.LC1:
	.long	0
	.long	1072693248
	.align 8
.LC2:
	.long	0
	.long	1079574528
	.align 8
.LC3:
	.long	0
	.long	1081118720
	.align 8
.LC4:
	.long	0
	.long	1082081280
	.align 8
.LC5:
	.long	-1168231105
	.long	1072696393
	.align 8
.LC7:
	.long	858993459
	.long	1070805811
	.align 8
.LC8:
	.long	-858993459
	.long	1071959244
	.align 8
.LC9:
	.long	171798692
	.long	1071686615
	.align 8
.LC10:
	.long	-687194767
	.long	1072525475
	.align 8
.LC11:
	.long	0
	.long	-1069121536
	.align 8
.LC12:
	.long	1717986918
	.long	1078126182
	.align 8
.LC13:
	.long	0
	.long	1076101120
	.align 8
.LC14:
	.long	-1717986918
	.long	1074895257
	.align 8
.LC15:
	.long	-1717986918
	.long	-1073374823
	.text
.Letext0:
	.file 4 "C:/Program Files/CodeBlocks/MinGW/lib/gcc/x86_64-w64-mingw32/8.1.0/include/c++/type_traits"
	.file 5 "C:/Program Files/CodeBlocks/MinGW/lib/gcc/x86_64-w64-mingw32/8.1.0/include/c++/bits/stl_pair.h"
	.file 6 "C:/Program Files/CodeBlocks/MinGW/lib/gcc/x86_64-w64-mingw32/8.1.0/include/c++/new"
	.file 7 "C:/Program Files/CodeBlocks/MinGW/lib/gcc/x86_64-w64-mingw32/8.1.0/include/c++/bits/exception_ptr.h"
	.file 8 "C:/Program Files/CodeBlocks/MinGW/lib/gcc/x86_64-w64-mingw32/8.1.0/include/c++/debug/debug.h"
	.file 9 "C:/Program Files/CodeBlocks/MinGW/lib/gcc/x86_64-w64-mingw32/8.1.0/include/c++/cwchar"
	.file 10 "C:/Program Files/CodeBlocks/MinGW/lib/gcc/x86_64-w64-mingw32/8.1.0/include/c++/x86_64-w64-mingw32/bits/c++config.h"
	.file 11 "C:/Program Files/CodeBlocks/MinGW/lib/gcc/x86_64-w64-mingw32/8.1.0/include/c++/cstdint"
	.file 12 "C:/Program Files/CodeBlocks/MinGW/lib/gcc/x86_64-w64-mingw32/8.1.0/include/c++/clocale"
	.file 13 "C:/Program Files/CodeBlocks/MinGW/lib/gcc/x86_64-w64-mingw32/8.1.0/include/c++/cstdlib"
	.file 14 "C:/Program Files/CodeBlocks/MinGW/lib/gcc/x86_64-w64-mingw32/8.1.0/include/c++/cstdio"
	.file 15 "C:/Program Files/CodeBlocks/MinGW/lib/gcc/x86_64-w64-mingw32/8.1.0/include/c++/bits/uses_allocator.h"
	.file 16 "C:/Program Files/CodeBlocks/MinGW/lib/gcc/x86_64-w64-mingw32/8.1.0/include/c++/bits/stl_list.h"
	.file 17 "C:/Program Files/CodeBlocks/MinGW/lib/gcc/x86_64-w64-mingw32/8.1.0/include/c++/utility"
	.file 18 "C:/Program Files/CodeBlocks/MinGW/lib/gcc/x86_64-w64-mingw32/8.1.0/include/c++/bits/predefined_ops.h"
	.file 19 "C:/Program Files/CodeBlocks/MinGW/lib/gcc/x86_64-w64-mingw32/8.1.0/include/c++/ext/new_allocator.h"
	.file 20 "C:/Program Files/CodeBlocks/MinGW/lib/gcc/x86_64-w64-mingw32/8.1.0/include/c++/ext/numeric_traits.h"
	.file 21 "C:/Program Files/CodeBlocks/MinGW/x86_64-w64-mingw32/include/crtdefs.h"
	.file 22 "C:/Program Files/CodeBlocks/MinGW/x86_64-w64-mingw32/include/locale.h"
	.file 23 "C:/Program Files/CodeBlocks/MinGW/x86_64-w64-mingw32/include/wchar.h"
	.file 24 "C:/Program Files/CodeBlocks/MinGW/x86_64-w64-mingw32/include/swprintf.inl"
	.file 25 "C:/Program Files/CodeBlocks/MinGW/x86_64-w64-mingw32/include/stdint.h"
	.file 26 "C:/Program Files/CodeBlocks/MinGW/x86_64-w64-mingw32/include/stdio.h"
	.file 27 "C:/Program Files/CodeBlocks/MinGW/x86_64-w64-mingw32/include/ctype.h"
	.file 28 "C:/Program Files/CodeBlocks/MinGW/x86_64-w64-mingw32/include/process.h"
	.file 29 "C:/Program Files/CodeBlocks/MinGW/x86_64-w64-mingw32/include/pthread.h"
	.file 30 "C:/Program Files/CodeBlocks/MinGW/x86_64-w64-mingw32/include/stdlib.h"
	.file 31 "C:/Program Files/CodeBlocks/MinGW/x86_64-w64-mingw32/include/malloc.h"
	.file 32 "../../CalculadorNumerico/calculador/../padroes/observable.h"
	.file 33 "../../CalculadorNumerico/calculador/calculador.h"
	.file 34 "C:/temp/ballisticKernelCpp/interfaceGrafica/calculadorBalisiticaGraficoWindows/configuracao.h"
	.file 35 "<built-in>"