	.file	"deletarFatoresDialog.cpp"
	.text
.Ltext0:
	.cfi_sections	.debug_frame
	.def	_ZL8snprintfPcyPKcz;	.scl	3;	.type	32;	.endef
	.seh_proc	_ZL8snprintfPcyPKcz
_ZL8snprintfPcyPKcz:
.LFB101:
	.file 1 "C:/Program Files/CodeBlocks/MinGW/x86_64-w64-mingw32/include/stdio.h"
	.loc 1 389 1
	.cfi_startproc
	pushq	%rbp
	.seh_pushreg	%rbp
	.cfi_def_cfa_offset 16
	.cfi_offset 6, -16
	movq	%rsp, %rbp
	.seh_setframe	%rbp, 0
	.cfi_def_cfa_register 6
	subq	$48, %rsp
	.seh_stackalloc	48
	.seh_endprologue
	movq	%rcx, 16(%rbp)
	movq	%rdx, 24(%rbp)
	movq	%r8, 32(%rbp)
	movq	%r9, 40(%rbp)
	.loc 1 391 53
	leaq	40(%rbp), %rax
	movq	%rax, -16(%rbp)
	.loc 1 392 31
	movq	-16(%rbp), %rcx
	movq	32(%rbp), %rdx
	movq	24(%rbp), %rax
	movq	%rcx, %r9
	movq	%rdx, %r8
	movq	%rax, %rdx
	movq	16(%rbp), %rcx
	call	__mingw_vsnprintf
	movl	%eax, -4(%rbp)
	.loc 1 394 10
	movl	-4(%rbp), %eax
	.loc 1 395 1
	addq	$48, %rsp
	popq	%rbp
	.cfi_restore 6
	.cfi_def_cfa 7, 8
	ret
	.cfi_endproc
.LFE101:
	.seh_endproc
	.section	.text$_ZN9wxPrivate17UntypedBufferDataD2Ev,"x"
	.linkonce discard
	.align 2
	.globl	_ZN9wxPrivate17UntypedBufferDataD2Ev
	.def	_ZN9wxPrivate17UntypedBufferDataD2Ev;	.scl	2;	.type	32;	.endef
	.seh_proc	_ZN9wxPrivate17UntypedBufferDataD2Ev
_ZN9wxPrivate17UntypedBufferDataD2Ev:
.LFB122:
	.file 2 "../wxMSW-3.0.5_gcc810_x64_Dev/include/wx/buffer.h"
	.loc 2 41 5
	.cfi_startproc
	pushq	%rbp
	.seh_pushreg	%rbp
	.cfi_def_cfa_offset 16
	.cfi_offset 6, -16
	movq	%rsp, %rbp
	.seh_setframe	%rbp, 0
	.cfi_def_cfa_register 6
	subq	$32, %rsp
	.seh_stackalloc	32
	.seh_endprologue
	movq	%rcx, 16(%rbp)
.LBB2:
	.loc 2 43 14
	movq	16(%rbp), %rax
	movzbl	18(%rax), %eax
	.loc 2 43 9
	testb	%al, %al
	je	.L5
	.loc 2 44 17
	movq	16(%rbp), %rax
	movq	(%rax), %rax
	movq	%rax, %rcx
	call	free
.L5:
.LBE2:
	.loc 2 45 5
	nop
	addq	$32, %rsp
	popq	%rbp
	.cfi_restore 6
	.cfi_def_cfa 7, 8
	ret
	.cfi_endproc
.LFE122:
	.seh_endproc
	.section	.text$_Z16wxGet_wxConvLibcv,"x"
	.linkonce discard
	.globl	_Z16wxGet_wxConvLibcv
	.def	_Z16wxGet_wxConvLibcv;	.scl	2;	.type	32;	.endef
	.seh_proc	_Z16wxGet_wxConvLibcv
_Z16wxGet_wxConvLibcv:
.LFB310:
	.file 3 "../wxMSW-3.0.5_gcc810_x64_Dev/include/wx/strconv.h"
	.loc 3 576 109
	.cfi_startproc
	pushq	%rbp
	.seh_pushreg	%rbp
	.cfi_def_cfa_offset 16
	.cfi_offset 6, -16
	movq	%rsp, %rbp
	.seh_setframe	%rbp, 0
	.cfi_def_cfa_register 6
	subq	$32, %rsp
	.seh_stackalloc	32
	.seh_endprologue
	.loc 3 576 116
	movq	.refptr.wxConvLibcPtr(%rip), %rax
	movq	(%rax), %rax
	.loc 3 576 111
	testq	%rax, %rax
	jne	.L7
	.loc 3 576 168 discriminator 1
	call	_Z19wxGet_wxConvLibcPtrv
	movq	%rax, %rdx
	.loc 3 576 147 discriminator 1
	movq	.refptr.wxConvLibcPtr(%rip), %rax
	movq	%rdx, (%rax)
.L7:
	.loc 3 576 180 discriminator 3
	movq	.refptr.wxConvLibcPtr(%rip), %rax
	movq	(%rax), %rax
	.loc 3 576 195 discriminator 3
	addq	$32, %rsp
	popq	%rbp
	.cfi_restore 6
	.cfi_def_cfa 7, 8
	ret
	.cfi_endproc
.LFE310:
	.seh_endproc
	.section .rdata,"dr"
_ZStL19piecewise_construct:
	.space 1
	.section	.text$_ZNKSt9type_info4nameEv,"x"
	.linkonce discard
	.align 2
	.globl	_ZNKSt9type_info4nameEv
	.def	_ZNKSt9type_info4nameEv;	.scl	2;	.type	32;	.endef
	.seh_proc	_ZNKSt9type_info4nameEv
_ZNKSt9type_info4nameEv:
.LFB711:
	.file 4 "C:/Program Files/CodeBlocks/MinGW/lib/gcc/x86_64-w64-mingw32/8.1.0/include/c++/typeinfo"
	.loc 4 99 17
	.cfi_startproc
	pushq	%rbp
	.seh_pushreg	%rbp
	.cfi_def_cfa_offset 16
	.cfi_offset 6, -16
	movq	%rsp, %rbp
	.seh_setframe	%rbp, 0
	.cfi_def_cfa_register 6
	.seh_endprologue
	movq	%rcx, 16(%rbp)
	.loc 4 100 14
	movq	16(%rbp), %rax
	movq	8(%rax), %rax
	.loc 4 100 22
	movzbl	(%rax), %eax
	.loc 4 100 31
	cmpb	$42, %al
	jne	.L10
	.loc 4 100 33 discriminator 1
	movq	16(%rbp), %rax
	movq	8(%rax), %rax
	.loc 4 100 31 discriminator 1
	addq	$1, %rax
	.loc 4 100 46 discriminator 1
	jmp	.L12
.L10:
	.loc 4 100 31 discriminator 2
	movq	16(%rbp), %rax
	movq	8(%rax), %rax
.L12:
	.loc 4 100 54 discriminator 5
	popq	%rbp
	.cfi_restore 6
	.cfi_def_cfa 7, 8
	ret
	.cfi_endproc
.LFE711:
	.seh_endproc
	.section .rdata,"dr"
	.align 2
.LC0:
	.ascii "\0\0"
	.section	.text$_ZN8wxString7ImplStrEPKw,"x"
	.linkonce discard
	.globl	_ZN8wxString7ImplStrEPKw
	.def	_ZN8wxString7ImplStrEPKw;	.scl	2;	.type	32;	.endef
	.seh_proc	_ZN8wxString7ImplStrEPKw
_ZN8wxString7ImplStrEPKw:
.LFB1709:
	.file 5 "../wxMSW-3.0.5_gcc810_x64_Dev/include/wx/string.h"
	.loc 5 471 25
	.cfi_startproc
	pushq	%rbp
	.seh_pushreg	%rbp
	.cfi_def_cfa_offset 16
	.cfi_offset 6, -16
	movq	%rsp, %rbp
	.seh_setframe	%rbp, 0
	.cfi_def_cfa_register 6
	.seh_endprologue
	movq	%rcx, 16(%rbp)
	.loc 5 472 18
	cmpq	$0, 16(%rbp)
	je	.L14
	.loc 5 472 18 is_stmt 0 discriminator 1
	movq	16(%rbp), %rax
	.loc 5 472 26 is_stmt 1 discriminator 1
	jmp	.L16
.L14:
	.loc 5 472 18 discriminator 2
	leaq	.LC0(%rip), %rax
.L16:
	.loc 5 472 31 discriminator 5
	popq	%rbp
	.cfi_restore 6
	.cfi_def_cfa 7, 8
	ret
	.cfi_endproc
.LFE1709:
	.seh_endproc
	.section	.text$_ZN8wxString17SubstrBufFromTypeI22wxScopedCharTypeBufferIwEED1Ev,"x"
	.linkonce discard
	.align 2
	.globl	_ZN8wxString17SubstrBufFromTypeI22wxScopedCharTypeBufferIwEED1Ev
	.def	_ZN8wxString17SubstrBufFromTypeI22wxScopedCharTypeBufferIwEED1Ev;	.scl	2;	.type	32;	.endef
	.seh_proc	_ZN8wxString17SubstrBufFromTypeI22wxScopedCharTypeBufferIwEED1Ev
_ZN8wxString17SubstrBufFromTypeI22wxScopedCharTypeBufferIwEED1Ev:
.LFB1714:
	.loc 5 425 10
	.cfi_startproc
	pushq	%rbp
	.seh_pushreg	%rbp
	.cfi_def_cfa_offset 16
	.cfi_offset 6, -16
	movq	%rsp, %rbp
	.seh_setframe	%rbp, 0
	.cfi_def_cfa_register 6
	subq	$32, %rsp
	.seh_stackalloc	32
	.seh_endprologue
	movq	%rcx, 16(%rbp)
.LBB3:
	.loc 5 425 10
	movq	16(%rbp), %rax
	movq	%rax, %rcx
	call	_ZN22wxScopedCharTypeBufferIwED1Ev
.LBE3:
	nop
	addq	$32, %rsp
	popq	%rbp
	.cfi_restore 6
	.cfi_def_cfa 7, 8
	ret
	.cfi_endproc
.LFE1714:
	.seh_endproc
	.section	.text$_ZN8wxString7ImplStrEPKcRK8wxMBConv,"x"
	.linkonce discard
	.globl	_ZN8wxString7ImplStrEPKcRK8wxMBConv
	.def	_ZN8wxString7ImplStrEPKcRK8wxMBConv;	.scl	2;	.type	32;	.endef
	.seh_proc	_ZN8wxString7ImplStrEPKcRK8wxMBConv
_ZN8wxString7ImplStrEPKcRK8wxMBConv:
.LFB1711:
	.loc 5 475 30
	.cfi_startproc
	pushq	%rbp
	.seh_pushreg	%rbp
	.cfi_def_cfa_offset 16
	.cfi_offset 6, -16
	pushq	%rbx
	.seh_pushreg	%rbx
	.cfi_def_cfa_offset 24
	.cfi_offset 3, -24
	subq	$56, %rsp
	.seh_stackalloc	56
	.cfi_def_cfa_offset 80
	leaq	128(%rsp), %rbp
	.seh_setframe	%rbp, 128
	.cfi_def_cfa 6, -48
	.seh_endprologue
	movq	%rcx, -48(%rbp)
	movq	%rdx, -40(%rbp)
	movq	%r8, -32(%rbp)
	.loc 5 477 24
	movq	.refptr._ZN8wxString4nposE(%rip), %rax
	movq	(%rax), %rcx
	leaq	-96(%rbp), %rax
	movq	-32(%rbp), %r8
	movq	-40(%rbp), %rdx
	movq	%r8, %r9
	movq	%rcx, %r8
	movq	%rax, %rcx
.LEHB0:
	call	_ZN8wxString10ConvertStrEPKcyRK8wxMBConv
.LEHE0:
	.loc 5 477 42
	leaq	-96(%rbp), %rax
	movq	%rax, %rdx
	movq	-48(%rbp), %rcx
.LEHB1:
	call	_ZN22wxScopedCharTypeBufferIwEC1ERKS0_
.LEHE1:
	nop
	.loc 5 477 24
	leaq	-96(%rbp), %rax
	movq	%rax, %rcx
	call	_ZN8wxString17SubstrBufFromTypeI22wxScopedCharTypeBufferIwEED1Ev
	.loc 5 477 42
	jmp	.L22
.L21:
	movq	%rax, %rbx
	.loc 5 477 24
	leaq	-96(%rbp), %rax
	movq	%rax, %rcx
	call	_ZN8wxString17SubstrBufFromTypeI22wxScopedCharTypeBufferIwEED1Ev
	movq	%rbx, %rax
	movq	%rax, %rcx
.LEHB2:
	call	_Unwind_Resume
.LEHE2:
.L22:
	.loc 5 477 48
	movq	-48(%rbp), %rax
	addq	$56, %rsp
	popq	%rbx
	.cfi_restore 3
	popq	%rbp
	.cfi_restore 6
	.cfi_def_cfa 7, -40
	ret
	.cfi_endproc
.LFE1711:
	.def	__gxx_personality_seh0;	.scl	2;	.type	32;	.endef
	.seh_handler	__gxx_personality_seh0, @unwind, @except
	.seh_handlerdata
.LLSDA1711:
	.byte	0xff
	.byte	0xff
	.byte	0x1
	.uleb128 .LLSDACSE1711-.LLSDACSB1711
.LLSDACSB1711:
	.uleb128 .LEHB0-.LFB1711
	.uleb128 .LEHE0-.LEHB0
	.uleb128 0
	.uleb128 0
	.uleb128 .LEHB1-.LFB1711
	.uleb128 .LEHE1-.LEHB1
	.uleb128 .L21-.LFB1711
	.uleb128 0
	.uleb128 .LEHB2-.LFB1711
	.uleb128 .LEHE2-.LEHB2
	.uleb128 0
	.uleb128 0
.LLSDACSE1711:
	.section	.text$_ZN8wxString7ImplStrEPKcRK8wxMBConv,"x"
	.linkonce discard
	.seh_endproc
	.section	.text$_ZN8wxString7ImplStrEPKcyRK8wxMBConv,"x"
	.linkonce discard
	.globl	_ZN8wxString7ImplStrEPKcyRK8wxMBConv
	.def	_ZN8wxString7ImplStrEPKcyRK8wxMBConv;	.scl	2;	.type	32;	.endef
	.seh_proc	_ZN8wxString7ImplStrEPKcyRK8wxMBConv
_ZN8wxString7ImplStrEPKcyRK8wxMBConv:
.LFB1715:
	.loc 5 478 26
	.cfi_startproc
	pushq	%rbp
	.seh_pushreg	%rbp
	.cfi_def_cfa_offset 16
	.cfi_offset 6, -16
	movq	%rsp, %rbp
	.seh_setframe	%rbp, 0
	.cfi_def_cfa_register 6
	subq	$32, %rsp
	.seh_stackalloc	32
	.seh_endprologue
	movq	%rcx, 16(%rbp)
	movq	%rdx, 24(%rbp)
	movq	%r8, 32(%rbp)
	movq	%r9, 40(%rbp)
	.loc 5 480 37
	movq	16(%rbp), %rax
	movq	40(%rbp), %r8
	movq	32(%rbp), %rcx
	movq	24(%rbp), %rdx
	movq	%r8, %r9
	movq	%rcx, %r8
	movq	%rax, %rcx
	call	_ZN8wxString10ConvertStrEPKcyRK8wxMBConv
	.loc 5 480 40
	movq	16(%rbp), %rax
	addq	$32, %rsp
	popq	%rbp
	.cfi_restore 6
	.cfi_def_cfa 7, 8
	ret
	.cfi_endproc
.LFE1715:
	.seh_endproc
	.section	.text$_ZN8wxStringD1Ev,"x"
	.linkonce discard
	.align 2
	.globl	_ZN8wxStringD1Ev
	.def	_ZN8wxStringD1Ev;	.scl	2;	.type	32;	.endef
	.seh_proc	_ZN8wxStringD1Ev
_ZN8wxStringD1Ev:
.LFB1791:
	.loc 5 393 7
	.cfi_startproc
	pushq	%rbp
	.seh_pushreg	%rbp
	.cfi_def_cfa_offset 16
	.cfi_offset 6, -16
	movq	%rsp, %rbp
	.seh_setframe	%rbp, 0
	.cfi_def_cfa_register 6
	subq	$32, %rsp
	.seh_stackalloc	32
	.seh_endprologue
	movq	%rcx, 16(%rbp)
.LBB4:
	.loc 5 393 7
	movq	16(%rbp), %rax
	addq	$32, %rax
	movq	%rax, %rcx
	call	_ZN8wxString15ConvertedBufferIcED1Ev
	movq	16(%rbp), %rax
	movq	%rax, %rcx
	call	_ZNSt7__cxx1112basic_stringIwSt11char_traitsIwESaIwEED1Ev
.LBE4:
	nop
	addq	$32, %rsp
	popq	%rbp
	.cfi_restore 6
	.cfi_def_cfa 7, 8
	ret
	.cfi_endproc
.LFE1791:
	.seh_endproc
	.section	.text$_ZN8wxStringC1Ev,"x"
	.linkonce discard
	.align 2
	.globl	_ZN8wxStringC1Ev
	.def	_ZN8wxStringC1Ev;	.scl	2;	.type	32;	.endef
	.seh_proc	_ZN8wxStringC1Ev
_ZN8wxStringC1Ev:
.LFB1817:
	.loc 5 1217 3
	.cfi_startproc
	pushq	%rbp
	.seh_pushreg	%rbp
	.cfi_def_cfa_offset 16
	.cfi_offset 6, -16
	movq	%rsp, %rbp
	.seh_setframe	%rbp, 0
	.cfi_def_cfa_register 6
	subq	$32, %rsp
	.seh_stackalloc	32
	.seh_endprologue
	movq	%rcx, 16(%rbp)
.LBB5:
	.loc 5 1217 14
	movq	16(%rbp), %rax
	movq	%rax, %rcx
	call	_ZNSt7__cxx1112basic_stringIwSt11char_traitsIwESaIwEEC1Ev
	movq	16(%rbp), %rax
	addq	$32, %rax
	movq	%rax, %rcx
	call	_ZN8wxString15ConvertedBufferIcEC1Ev
.LBE5:
	.loc 5 1217 15
	nop
	addq	$32, %rsp
	popq	%rbp
	.cfi_restore 6
	.cfi_def_cfa 7, 8
	ret
	.cfi_endproc
.LFE1817:
	.seh_endproc
	.section	.text$_ZN8wxStringC1ERKS_,"x"
	.linkonce discard
	.align 2
	.globl	_ZN8wxStringC1ERKS_
	.def	_ZN8wxStringC1ERKS_;	.scl	2;	.type	32;	.endef
	.seh_proc	_ZN8wxStringC1ERKS_
_ZN8wxStringC1ERKS_:
.LFB1820:
	.loc 5 1220 3
	.cfi_startproc
	pushq	%rbp
	.seh_pushreg	%rbp
	.cfi_def_cfa_offset 16
	.cfi_offset 6, -16
	movq	%rsp, %rbp
	.seh_setframe	%rbp, 0
	.cfi_def_cfa_register 6
	subq	$32, %rsp
	.seh_stackalloc	32
	.seh_endprologue
	movq	%rcx, 16(%rbp)
	movq	%rdx, 24(%rbp)
.LBB6:
	.loc 5 1220 64
	movq	16(%rbp), %rax
	.loc 5 1220 58
	movq	24(%rbp), %rdx
	.loc 5 1220 64
	movq	%rax, %rcx
	call	_ZNSt7__cxx1112basic_stringIwSt11char_traitsIwESaIwEEC1ERKS4_
	movq	16(%rbp), %rax
	addq	$32, %rax
	movq	%rax, %rcx
	call	_ZN8wxString15ConvertedBufferIcEC1Ev
.LBE6:
	.loc 5 1220 68
	nop
	addq	$32, %rsp
	popq	%rbp
	.cfi_restore 6
	.cfi_def_cfa 7, 8
	ret
	.cfi_endproc
.LFE1820:
	.seh_endproc
	.section	.text$_ZN8wxStringC1EPKc,"x"
	.linkonce discard
	.align 2
	.globl	_ZN8wxStringC1EPKc
	.def	_ZN8wxStringC1EPKc;	.scl	2;	.type	32;	.endef
	.seh_proc	_ZN8wxStringC1EPKc
_ZN8wxStringC1EPKc:
.LFB1847:
	.loc 5 1241 3
	.cfi_startproc
	pushq	%rbp
	.seh_pushreg	%rbp
	.cfi_def_cfa_offset 16
	.cfi_offset 6, -16
	pushq	%rbx
	.seh_pushreg	%rbx
	.cfi_def_cfa_offset 24
	.cfi_offset 3, -24
	subq	$56, %rsp
	.seh_stackalloc	56
	.cfi_def_cfa_offset 80
	leaq	128(%rsp), %rbp
	.seh_setframe	%rbp, 128
	.cfi_def_cfa 6, -48
	.seh_endprologue
	movq	%rcx, -48(%rbp)
	movq	%rdx, -40(%rbp)
.LBB7:
	.loc 5 1242 26
	movq	-48(%rbp), %rbx
	leaq	-89(%rbp), %rax
	movq	%rax, %rcx
	call	_ZNSaIwEC1Ev
.LEHB3:
	.loc 5 1242 25
	call	_Z16wxGet_wxConvLibcv
	movq	%rax, %rcx
	.loc 5 1242 21
	leaq	-88(%rbp), %rax
	movq	-40(%rbp), %rdx
	movq	%rcx, %r8
	movq	%rax, %rcx
	call	_ZN8wxString7ImplStrEPKcRK8wxMBConv
.LEHE3:
	.loc 5 1242 26 discriminator 4
	leaq	-88(%rbp), %rax
	movq	%rax, %rcx
.LEHB4:
	call	_ZNK22wxScopedCharTypeBufferIwEcvPKwEv
	movq	%rax, %rdx
	leaq	-89(%rbp), %rax
	movq	%rax, %r8
	movq	%rbx, %rcx
	call	_ZNSt7__cxx1112basic_stringIwSt11char_traitsIwESaIwEEC1EPKwRKS3_
.LEHE4:
	.loc 5 1242 21 discriminator 8
	leaq	-88(%rbp), %rax
	movq	%rax, %rcx
	call	_ZN22wxScopedCharTypeBufferIwED1Ev
	.loc 5 1242 26 discriminator 8
	leaq	-89(%rbp), %rax
	movq	%rax, %rcx
	call	_ZNSaIwED1Ev
	movq	-48(%rbp), %rax
	addq	$32, %rax
	movq	%rax, %rcx
	call	_ZN8wxString15ConvertedBufferIcEC1Ev
.LBE7:
	.loc 5 1242 29 discriminator 8
	jmp	.L33
.L32:
	movq	%rax, %rbx
.LBB8:
	.loc 5 1242 21
	leaq	-88(%rbp), %rax
	movq	%rax, %rcx
	call	_ZN22wxScopedCharTypeBufferIwED1Ev
	jmp	.L30
.L31:
	movq	%rax, %rbx
.L30:
	.loc 5 1242 26 discriminator 3
	leaq	-89(%rbp), %rax
	movq	%rax, %rcx
	call	_ZNSaIwED1Ev
	movq	%rbx, %rax
	movq	%rax, %rcx
.LEHB5:
	call	_Unwind_Resume
	nop
.LEHE5:
.L33:
.LBE8:
	.loc 5 1242 29
	addq	$56, %rsp
	popq	%rbx
	.cfi_restore 3
	popq	%rbp
	.cfi_restore 6
	.cfi_def_cfa 7, -40
	ret
	.cfi_endproc
.LFE1847:
	.seh_handler	__gxx_personality_seh0, @unwind, @except
	.seh_handlerdata
.LLSDA1847:
	.byte	0xff
	.byte	0xff
	.byte	0x1
	.uleb128 .LLSDACSE1847-.LLSDACSB1847
.LLSDACSB1847:
	.uleb128 .LEHB3-.LFB1847
	.uleb128 .LEHE3-.LEHB3
	.uleb128 .L31-.LFB1847
	.uleb128 0
	.uleb128 .LEHB4-.LFB1847
	.uleb128 .LEHE4-.LEHB4
	.uleb128 .L32-.LFB1847
	.uleb128 0
	.uleb128 .LEHB5-.LFB1847
	.uleb128 .LEHE5-.LEHB5
	.uleb128 0
	.uleb128 0
.LLSDACSE1847:
	.section	.text$_ZN8wxStringC1EPKc,"x"
	.linkonce discard
	.seh_endproc
	.section	.text$_ZN8wxStringC1EPKw,"x"
	.linkonce discard
	.align 2
	.globl	_ZN8wxStringC1EPKw
	.def	_ZN8wxStringC1EPKw;	.scl	2;	.type	32;	.endef
	.seh_proc	_ZN8wxStringC1EPKw
_ZN8wxStringC1EPKw:
.LFB1871:
	.loc 5 1267 3
	.cfi_startproc
	pushq	%rbp
	.seh_pushreg	%rbp
	.cfi_def_cfa_offset 16
	.cfi_offset 6, -16
	pushq	%rbx
	.seh_pushreg	%rbx
	.cfi_def_cfa_offset 24
	.cfi_offset 3, -24
	subq	$56, %rsp
	.seh_stackalloc	56
	.cfi_def_cfa_offset 80
	leaq	128(%rsp), %rbp
	.seh_setframe	%rbp, 128
	.cfi_def_cfa 6, -48
	.seh_endprologue
	movq	%rcx, -48(%rbp)
	movq	%rdx, -40(%rbp)
.LBB9:
	.loc 5 1268 26
	movq	-48(%rbp), %rbx
	leaq	-81(%rbp), %rax
	movq	%rax, %rcx
	call	_ZNSaIwEC1Ev
	movq	-40(%rbp), %rax
	movq	%rax, %rcx
	call	_ZN8wxString7ImplStrEPKw
	movq	%rax, %rdx
	leaq	-81(%rbp), %rax
	movq	%rax, %r8
	movq	%rbx, %rcx
.LEHB6:
	call	_ZNSt7__cxx1112basic_stringIwSt11char_traitsIwESaIwEEC1EPKwRKS3_
.LEHE6:
	.loc 5 1268 26 is_stmt 0 discriminator 2
	leaq	-81(%rbp), %rax
	movq	%rax, %rcx
	call	_ZNSaIwED1Ev
	movq	-48(%rbp), %rax
	addq	$32, %rax
	movq	%rax, %rcx
	call	_ZN8wxString15ConvertedBufferIcEC1Ev
.LBE9:
	.loc 5 1268 29 is_stmt 1 discriminator 2
	jmp	.L37
.L36:
	movq	%rax, %rbx
.LBB10:
	.loc 5 1268 26
	leaq	-81(%rbp), %rax
	movq	%rax, %rcx
	call	_ZNSaIwED1Ev
	movq	%rbx, %rax
	movq	%rax, %rcx
.LEHB7:
	call	_Unwind_Resume
	nop
.LEHE7:
.L37:
.LBE10:
	.loc 5 1268 29
	addq	$56, %rsp
	popq	%rbx
	.cfi_restore 3
	popq	%rbp
	.cfi_restore 6
	.cfi_def_cfa 7, -40
	ret
	.cfi_endproc
.LFE1871:
	.seh_handler	__gxx_personality_seh0, @unwind, @except
	.seh_handlerdata
.LLSDA1871:
	.byte	0xff
	.byte	0xff
	.byte	0x1
	.uleb128 .LLSDACSE1871-.LLSDACSB1871
.LLSDACSB1871:
	.uleb128 .LEHB6-.LFB1871
	.uleb128 .LEHE6-.LEHB6
	.uleb128 .L36-.LFB1871
	.uleb128 0
	.uleb128 .LEHB7-.LFB1871
	.uleb128 .LEHE7-.LEHB7
	.uleb128 0
	.uleb128 0
.LLSDACSE1871:
	.section	.text$_ZN8wxStringC1EPKw,"x"
	.linkonce discard
	.seh_endproc
	.section	.text$_ZN8wxStringC1ERKNSt7__cxx1112basic_stringIcSt11char_traitsIcESaIcEEE,"x"
	.linkonce discard
	.align 2
	.globl	_ZN8wxStringC1ERKNSt7__cxx1112basic_stringIcSt11char_traitsIcESaIcEEE
	.def	_ZN8wxStringC1ERKNSt7__cxx1112basic_stringIcSt11char_traitsIcESaIcEEE;	.scl	2;	.type	32;	.endef
	.seh_proc	_ZN8wxStringC1ERKNSt7__cxx1112basic_stringIcSt11char_traitsIcESaIcEEE
_ZN8wxStringC1ERKNSt7__cxx1112basic_stringIcSt11char_traitsIcESaIcEEE:
.LFB1901:
	.loc 5 1327 5
	.cfi_startproc
	pushq	%rbp
	.seh_pushreg	%rbp
	.cfi_def_cfa_offset 16
	.cfi_offset 6, -16
	pushq	%rbx
	.seh_pushreg	%rbx
	.cfi_def_cfa_offset 24
	.cfi_offset 3, -24
	subq	$40, %rsp
	.seh_stackalloc	40
	.cfi_def_cfa_offset 64
	leaq	128(%rsp), %rbp
	.seh_setframe	%rbp, 128
	.cfi_def_cfa 6, -64
	.seh_endprologue
	movq	%rcx, -64(%rbp)
	movq	%rdx, -56(%rbp)
.LBB11:
	.loc 5 1328 9
	movq	-64(%rbp), %rax
	movq	%rax, %rcx
	call	_ZNSt7__cxx1112basic_stringIwSt11char_traitsIwESaIwEEC1Ev
	movq	-64(%rbp), %rax
	addq	$32, %rax
	movq	%rax, %rcx
	call	_ZN8wxString15ConvertedBufferIcEC1Ev
	.loc 5 1328 43
	movq	-56(%rbp), %rax
	movq	%rax, %rcx
	call	_ZNKSt7__cxx1112basic_stringIcSt11char_traitsIcESaIcEE6lengthEv
	movq	%rax, %rbx
	movq	-56(%rbp), %rax
	movq	%rax, %rcx
	call	_ZNKSt7__cxx1112basic_stringIcSt11char_traitsIcESaIcEE5c_strEv
	movq	%rbx, %r8
	movq	%rax, %rdx
	movq	-64(%rbp), %rcx
.LEHB8:
	call	_ZN8wxString6assignEPKcy
.LEHE8:
.LBE11:
	.loc 5 1328 46
	jmp	.L41
.L40:
	movq	%rax, %rbx
.LBB12:
	.loc 5 1328 9
	movq	-64(%rbp), %rax
	addq	$32, %rax
	movq	%rax, %rcx
	call	_ZN8wxString15ConvertedBufferIcED1Ev
	movq	-64(%rbp), %rax
	movq	%rax, %rcx
	call	_ZNSt7__cxx1112basic_stringIwSt11char_traitsIwESaIwEED1Ev
	movq	%rbx, %rax
	movq	%rax, %rcx
.LEHB9:
	call	_Unwind_Resume
	nop
.LEHE9:
.L41:
.LBE12:
	.loc 5 1328 46
	addq	$40, %rsp
	popq	%rbx
	.cfi_restore 3
	popq	%rbp
	.cfi_restore 6
	.cfi_def_cfa 7, -24
	ret
	.cfi_endproc
.LFE1901:
	.seh_handler	__gxx_personality_seh0, @unwind, @except
	.seh_handlerdata
.LLSDA1901:
	.byte	0xff
	.byte	0xff
	.byte	0x1
	.uleb128 .LLSDACSE1901-.LLSDACSB1901
.LLSDACSB1901:
	.uleb128 .LEHB8-.LFB1901
	.uleb128 .LEHE8-.LEHB8
	.uleb128 .L40-.LFB1901
	.uleb128 0
	.uleb128 .LEHB9-.LFB1901
	.uleb128 .LEHE9-.LEHB9
	.uleb128 0
	.uleb128 0
.LLSDACSE1901:
	.section	.text$_ZN8wxStringC1ERKNSt7__cxx1112basic_stringIcSt11char_traitsIcESaIcEEE,"x"
	.linkonce discard
	.seh_endproc
	.section	.text$_ZN8wxStringaSERKS_,"x"
	.linkonce discard
	.align 2
	.globl	_ZN8wxStringaSERKS_
	.def	_ZN8wxStringaSERKS_;	.scl	2;	.type	32;	.endef
	.seh_proc	_ZN8wxStringaSERKS_
_ZN8wxStringaSERKS_:
.LFB1982:
	.loc 5 1877 13
	.cfi_startproc
	pushq	%rbp
	.seh_pushreg	%rbp
	.cfi_def_cfa_offset 16
	.cfi_offset 6, -16
	movq	%rsp, %rbp
	.seh_setframe	%rbp, 0
	.cfi_def_cfa_register 6
	subq	$32, %rsp
	.seh_stackalloc	32
	.seh_endprologue
	movq	%rcx, 16(%rbp)
	movq	%rdx, 24(%rbp)
	.loc 5 1879 5
	movq	16(%rbp), %rax
	cmpq	24(%rbp), %rax
	je	.L43
	.loc 5 1883 28
	movq	24(%rbp), %rdx
	movq	16(%rbp), %rax
	movq	%rax, %rcx
	call	_ZNSt7__cxx1112basic_stringIwSt11char_traitsIwESaIwEEaSERKS4_
.L43:
	.loc 5 1886 13
	movq	16(%rbp), %rax
	.loc 5 1887 3
	addq	$32, %rsp
	popq	%rbp
	.cfi_restore 6
	.cfi_def_cfa 7, 8
	ret
	.cfi_endproc
.LFE1982:
	.seh_endproc
	.section	.text$_ZN8wxString6assignEPKcy,"x"
	.linkonce discard
	.align 2
	.globl	_ZN8wxString6assignEPKcy
	.def	_ZN8wxString6assignEPKcy;	.scl	2;	.type	32;	.endef
	.seh_proc	_ZN8wxString6assignEPKcy
_ZN8wxString6assignEPKcy:
.LFB2220:
	.loc 5 2633 13
	.cfi_startproc
	pushq	%rbp
	.seh_pushreg	%rbp
	.cfi_def_cfa_offset 16
	.cfi_offset 6, -16
	pushq	%rsi
	.seh_pushreg	%rsi
	.cfi_def_cfa_offset 24
	.cfi_offset 4, -24
	pushq	%rbx
	.seh_pushreg	%rbx
	.cfi_def_cfa_offset 32
	.cfi_offset 3, -32
	movq	%rsp, %rbp
	.seh_setframe	%rbp, 0
	.cfi_def_cfa_register 6
	subq	$48, %rsp
	.seh_stackalloc	48
	.seh_endprologue
	movq	%rcx, 32(%rbp)
	movq	%rdx, 40(%rbp)
	movq	%r8, 48(%rbp)
.LEHB10:
	.loc 5 2637 40
	call	_Z16wxGet_wxConvLibcv
	movq	%rax, %r8
	.loc 5 2637 41
	leaq	-16(%rbp), %rax
	movq	48(%rbp), %rcx
	movq	40(%rbp), %rdx
	movq	%r8, %r9
	movq	%rcx, %r8
	movq	%rax, %rcx
	call	_ZN8wxString7ImplStrEPKcyRK8wxMBConv
.LEHE10:
	.loc 5 2638 38
	movq	32(%rbp), %rbx
	movq	-8(%rbp), %rsi
	leaq	-16(%rbp), %rax
	movq	%rax, %rcx
.LEHB11:
	call	_ZNK22wxScopedCharTypeBufferIwEcvPKwEv
	movq	%rsi, %r8
	movq	%rax, %rdx
	movq	%rbx, %rcx
	call	_ZNSt7__cxx1112basic_stringIwSt11char_traitsIwESaIwEE6assignEPKwy
.LEHE11:
	.loc 5 2640 15
	movq	32(%rbp), %rbx
	.loc 5 2637 41
	leaq	-16(%rbp), %rax
	movq	%rax, %rcx
	call	_ZN8wxString17SubstrBufFromTypeI22wxScopedCharTypeBufferIwEED1Ev
	.loc 5 2640 15
	movq	%rbx, %rax
	jmp	.L49
.L48:
	movq	%rax, %rbx
	.loc 5 2637 41
	leaq	-16(%rbp), %rax
	movq	%rax, %rcx
	call	_ZN8wxString17SubstrBufFromTypeI22wxScopedCharTypeBufferIwEED1Ev
	movq	%rbx, %rax
	movq	%rax, %rcx
.LEHB12:
	call	_Unwind_Resume
.LEHE12:
.L49:
	.loc 5 2641 3
	addq	$48, %rsp
	popq	%rbx
	.cfi_restore 3
	popq	%rsi
	.cfi_restore 4
	popq	%rbp
	.cfi_restore 6
	.cfi_def_cfa 7, 24
	ret
	.cfi_endproc
.LFE2220:
	.seh_handler	__gxx_personality_seh0, @unwind, @except
	.seh_handlerdata
.LLSDA2220:
	.byte	0xff
	.byte	0xff
	.byte	0x1
	.uleb128 .LLSDACSE2220-.LLSDACSB2220
.LLSDACSB2220:
	.uleb128 .LEHB10-.LFB2220
	.uleb128 .LEHE10-.LEHB10
	.uleb128 0
	.uleb128 0
	.uleb128 .LEHB11-.LFB2220
	.uleb128 .LEHE11-.LEHB11
	.uleb128 .L48-.LFB2220
	.uleb128 0
	.uleb128 .LEHB12-.LFB2220
	.uleb128 .LEHE12-.LEHB12
	.uleb128 0
	.uleb128 0
.LLSDACSE2220:
	.section	.text$_ZN8wxString6assignEPKcy,"x"
	.linkonce discard
	.seh_endproc
	.section	.text$_ZN8wxObjectC2Ev,"x"
	.linkonce discard
	.align 2
	.globl	_ZN8wxObjectC2Ev
	.def	_ZN8wxObjectC2Ev;	.scl	2;	.type	32;	.endef
	.seh_proc	_ZN8wxObjectC2Ev
_ZN8wxObjectC2Ev:
.LFB3705:
	.file 6 "../wxMSW-3.0.5_gcc810_x64_Dev/include/wx/object.h"
	.loc 6 360 5
	.cfi_startproc
	pushq	%rbp
	.seh_pushreg	%rbp
	.cfi_def_cfa_offset 16
	.cfi_offset 6, -16
	movq	%rsp, %rbp
	.seh_setframe	%rbp, 0
	.cfi_def_cfa_register 6
	.seh_endprologue
	movq	%rcx, 16(%rbp)
.LBB13:
	.loc 6 360 16
	movq	.refptr._ZTV8wxObject(%rip), %rax
	leaq	16(%rax), %rdx
	movq	16(%rbp), %rax
	movq	%rdx, (%rax)
	.loc 6 360 28
	movq	16(%rbp), %rax
	movq	$0, 8(%rax)
.LBE13:
	.loc 6 360 35
	nop
	popq	%rbp
	.cfi_restore 6
	.cfi_def_cfa 7, 8
	ret
	.cfi_endproc
.LFE3705:
	.seh_endproc
	.section	.text$_ZN8wxObjectD2Ev,"x"
	.linkonce discard
	.align 2
	.globl	_ZN8wxObjectD2Ev
	.def	_ZN8wxObjectD2Ev;	.scl	2;	.type	32;	.endef
	.seh_proc	_ZN8wxObjectD2Ev
_ZN8wxObjectD2Ev:
.LFB3708:
	.loc 6 361 13
	.cfi_startproc
	pushq	%rbp
	.seh_pushreg	%rbp
	.cfi_def_cfa_offset 16
	.cfi_offset 6, -16
	movq	%rsp, %rbp
	.seh_setframe	%rbp, 0
	.cfi_def_cfa_register 6
	subq	$32, %rsp
	.seh_stackalloc	32
	.seh_endprologue
	movq	%rcx, 16(%rbp)
.LBB14:
	.loc 6 361 25
	movq	.refptr._ZTV8wxObject(%rip), %rax
	leaq	16(%rax), %rdx
	movq	16(%rbp), %rax
	movq	%rdx, (%rax)
	.loc 6 361 32
	movq	16(%rbp), %rcx
	call	_ZN8wxObject5UnRefEv
.LBE14:
	.loc 6 361 36
	nop
	addq	$32, %rsp
	popq	%rbp
	.cfi_restore 6
	.cfi_def_cfa 7, 8
	ret
	.cfi_endproc
.LFE3708:
	.seh_handler	__gxx_personality_seh0, @unwind, @except
	.seh_handlerdata
.LLSDA3708:
	.byte	0xff
	.byte	0xff
	.byte	0x1
	.uleb128 .LLSDACSE3708-.LLSDACSB3708
.LLSDACSB3708:
.LLSDACSE3708:
	.section	.text$_ZN8wxObjectD2Ev,"x"
	.linkonce discard
	.seh_endproc
	.section	.text$_ZN8wxObjectaSERKS_,"x"
	.linkonce discard
	.align 2
	.globl	_ZN8wxObjectaSERKS_
	.def	_ZN8wxObjectaSERKS_;	.scl	2;	.type	32;	.endef
	.seh_proc	_ZN8wxObjectaSERKS_
_ZN8wxObjectaSERKS_:
.LFB3714:
	.loc 6 370 15
	.cfi_startproc
	pushq	%rbp
	.seh_pushreg	%rbp
	.cfi_def_cfa_offset 16
	.cfi_offset 6, -16
	movq	%rsp, %rbp
	.seh_setframe	%rbp, 0
	.cfi_def_cfa_register 6
	subq	$32, %rsp
	.seh_stackalloc	32
	.seh_endprologue
	movq	%rcx, 16(%rbp)
	movq	%rdx, 24(%rbp)
	.loc 6 372 9
	movq	16(%rbp), %rax
	cmpq	24(%rbp), %rax
	je	.L53
	.loc 6 374 16
	movq	24(%rbp), %rax
	movq	%rax, %rdx
	movq	16(%rbp), %rcx
	call	_ZN8wxObject3RefERKS_
.L53:
	.loc 6 376 17
	movq	16(%rbp), %rax
	.loc 6 377 5
	addq	$32, %rsp
	popq	%rbp
	.cfi_restore 6
	.cfi_def_cfa 7, 8
	ret
	.cfi_endproc
.LFE3714:
	.seh_endproc
	.section	.text$_ZN6wxSizeC1Ev,"x"
	.linkonce discard
	.align 2
	.globl	_ZN6wxSizeC1Ev
	.def	_ZN6wxSizeC1Ev;	.scl	2;	.type	32;	.endef
	.seh_proc	_ZN6wxSizeC1Ev
_ZN6wxSizeC1Ev:
.LFB4792:
	.file 7 "../wxMSW-3.0.5_gcc810_x64_Dev/include/wx/gdicmn.h"
	.loc 7 257 5
	.cfi_startproc
	pushq	%rbp
	.seh_pushreg	%rbp
	.cfi_def_cfa_offset 16
	.cfi_offset 6, -16
	movq	%rsp, %rbp
	.seh_setframe	%rbp, 0
	.cfi_def_cfa_register 6
	.seh_endprologue
	movq	%rcx, 16(%rbp)
.LBB15:
	.loc 7 257 25
	movq	16(%rbp), %rax
	movl	$0, (%rax)
	movq	16(%rbp), %rax
	movl	$0, 4(%rax)
.LBE15:
	.loc 7 257 29
	nop
	popq	%rbp
	.cfi_restore 6
	.cfi_def_cfa 7, 8
	ret
	.cfi_endproc
.LFE4792:
	.seh_endproc
	.section	.text$_ZN6wxSizeC1Eii,"x"
	.linkonce discard
	.align 2
	.globl	_ZN6wxSizeC1Eii
	.def	_ZN6wxSizeC1Eii;	.scl	2;	.type	32;	.endef
	.seh_proc	_ZN6wxSizeC1Eii
_ZN6wxSizeC1Eii:
.LFB4795:
	.loc 7 258 5
	.cfi_startproc
	pushq	%rbp
	.seh_pushreg	%rbp
	.cfi_def_cfa_offset 16
	.cfi_offset 6, -16
	movq	%rsp, %rbp
	.seh_setframe	%rbp, 0
	.cfi_def_cfa_register 6
	.seh_endprologue
	movq	%rcx, 16(%rbp)
	movl	%edx, 24(%rbp)
	movl	%r8d, 32(%rbp)
.LBB16:
	.loc 7 258 41
	movq	16(%rbp), %rax
	movl	24(%rbp), %edx
	movl	%edx, (%rax)
	movq	16(%rbp), %rax
	movl	32(%rbp), %edx
	movl	%edx, 4(%rax)
.LBE16:
	.loc 7 258 45
	nop
	popq	%rbp
	.cfi_restore 6
	.cfi_def_cfa 7, 8
	ret
	.cfi_endproc
.LFE4795:
	.seh_endproc
	.section	.text$_ZN7wxPointC1Ev,"x"
	.linkonce discard
	.align 2
	.globl	_ZN7wxPointC1Ev
	.def	_ZN7wxPointC1Ev;	.scl	2;	.type	32;	.endef
	.seh_proc	_ZN7wxPointC1Ev
_ZN7wxPointC1Ev:
.LFB4875:
	.loc 7 545 5
	.cfi_startproc
	pushq	%rbp
	.seh_pushreg	%rbp
	.cfi_def_cfa_offset 16
	.cfi_offset 6, -16
	movq	%rsp, %rbp
	.seh_setframe	%rbp, 0
	.cfi_def_cfa_register 6
	.seh_endprologue
	movq	%rcx, 16(%rbp)
.LBB17:
	.loc 7 545 26
	movq	16(%rbp), %rax
	movl	$0, (%rax)
	movq	16(%rbp), %rax
	movl	$0, 4(%rax)
.LBE17:
	.loc 7 545 30
	nop
	popq	%rbp
	.cfi_restore 6
	.cfi_def_cfa 7, 8
	ret
	.cfi_endproc
.LFE4875:
	.seh_endproc
	.section	.text$_ZN7wxPointC1Eii,"x"
	.linkonce discard
	.align 2
	.globl	_ZN7wxPointC1Eii
	.def	_ZN7wxPointC1Eii;	.scl	2;	.type	32;	.endef
	.seh_proc	_ZN7wxPointC1Eii
_ZN7wxPointC1Eii:
.LFB4878:
	.loc 7 546 5
	.cfi_startproc
	pushq	%rbp
	.seh_pushreg	%rbp
	.cfi_def_cfa_offset 16
	.cfi_offset 6, -16
	movq	%rsp, %rbp
	.seh_setframe	%rbp, 0
	.cfi_def_cfa_register 6
	.seh_endprologue
	movq	%rcx, 16(%rbp)
	movl	%edx, 24(%rbp)
	movl	%r8d, 32(%rbp)
.LBB18:
	.loc 7 546 42
	movq	16(%rbp), %rax
	movl	24(%rbp), %edx
	movl	%edx, (%rax)
	movq	16(%rbp), %rax
	movl	32(%rbp), %edx
	movl	%edx, 4(%rax)
.LBE18:
	.loc 7 546 46
	nop
	popq	%rbp
	.cfi_restore 6
	.cfi_def_cfa 7, 8
	ret
	.cfi_endproc
.LFE4878:
	.seh_endproc
	.section .rdata,"dr"
_ZL19wxALPHA_TRANSPARENT:
	.space 1
_ZL14wxALPHA_OPAQUE:
	.byte	-1
	.section	.text$_ZN10wxArrayIntD1Ev,"x"
	.linkonce discard
	.align 2
	.globl	_ZN10wxArrayIntD1Ev
	.def	_ZN10wxArrayIntD1Ev;	.scl	2;	.type	32;	.endef
	.seh_proc	_ZN10wxArrayIntD1Ev
_ZN10wxArrayIntD1Ev:
.LFB6489:
	.file 8 "../wxMSW-3.0.5_gcc810_x64_Dev/include/wx/dynarray.h"
	.loc 8 1022 348
	.cfi_startproc
	pushq	%rbp
	.seh_pushreg	%rbp
	.cfi_def_cfa_offset 16
	.cfi_offset 6, -16
	movq	%rsp, %rbp
	.seh_setframe	%rbp, 0
	.cfi_def_cfa_register 6
	subq	$32, %rsp
	.seh_stackalloc	32
	.seh_endprologue
	movq	%rcx, 16(%rbp)
.LBB19:
	.loc 8 1022 362
	movq	16(%rbp), %rax
	movq	%rax, %rcx
	call	_ZN14wxBaseArrayIntD2Ev
.LBE19:
	.loc 8 1022 364
	nop
	addq	$32, %rsp
	popq	%rbp
	.cfi_restore 6
	.cfi_def_cfa 7, 8
	ret
	.cfi_endproc
.LFE6489:
	.seh_endproc
	.section	.text$_ZN11wxArrayLongC1Ev,"x"
	.linkonce discard
	.align 2
	.globl	_ZN11wxArrayLongC1Ev
	.def	_ZN11wxArrayLongC1Ev;	.scl	2;	.type	32;	.endef
	.seh_proc	_ZN11wxArrayLongC1Ev
_ZN11wxArrayLongC1Ev:
.LFB6666:
	.loc 8 1024 342
	.cfi_startproc
	pushq	%rbp
	.seh_pushreg	%rbp
	.cfi_def_cfa_offset 16
	.cfi_offset 6, -16
	movq	%rsp, %rbp
	.seh_setframe	%rbp, 0
	.cfi_def_cfa_register 6
	subq	$32, %rsp
	.seh_stackalloc	32
	.seh_endprologue
	movq	%rcx, 16(%rbp)
.LBB20:
	.loc 8 1024 356
	movq	16(%rbp), %rax
	movq	%rax, %rcx
	call	_ZN15wxBaseArrayLongC2Ev
.LBE20:
	.loc 8 1024 358
	nop
	addq	$32, %rsp
	popq	%rbp
	.cfi_restore 6
	.cfi_def_cfa 7, 8
	ret
	.cfi_endproc
.LFE6666:
	.seh_endproc
	.section	.text$_ZN11wxArrayLongD1Ev,"x"
	.linkonce discard
	.align 2
	.globl	_ZN11wxArrayLongD1Ev
	.def	_ZN11wxArrayLongD1Ev;	.scl	2;	.type	32;	.endef
	.seh_proc	_ZN11wxArrayLongD1Ev
_ZN11wxArrayLongD1Ev:
.LFB6669:
	.loc 8 1024 360
	.cfi_startproc
	pushq	%rbp
	.seh_pushreg	%rbp
	.cfi_def_cfa_offset 16
	.cfi_offset 6, -16
	movq	%rsp, %rbp
	.seh_setframe	%rbp, 0
	.cfi_def_cfa_register 6
	subq	$32, %rsp
	.seh_stackalloc	32
	.seh_endprologue
	movq	%rcx, 16(%rbp)
.LBB21:
	.loc 8 1024 375
	movq	16(%rbp), %rax
	movq	%rax, %rcx
	call	_ZN15wxBaseArrayLongD2Ev
.LBE21:
	.loc 8 1024 377
	nop
	addq	$32, %rsp
	popq	%rbp
	.cfi_restore 6
	.cfi_def_cfa 7, 8
	ret
	.cfi_endproc
.LFE6669:
	.seh_endproc
	.section	.text$_ZN16wxTypeIdentifierC1EPKc,"x"
	.linkonce discard
	.align 2
	.globl	_ZN16wxTypeIdentifierC1EPKc
	.def	_ZN16wxTypeIdentifierC1EPKc;	.scl	2;	.type	32;	.endef
	.seh_proc	_ZN16wxTypeIdentifierC1EPKc
_ZN16wxTypeIdentifierC1EPKc:
.LFB7378:
	.file 9 "../wxMSW-3.0.5_gcc810_x64_Dev/include/wx/typeinfo.h"
	.loc 9 66 5
	.cfi_startproc
	pushq	%rbp
	.seh_pushreg	%rbp
	.cfi_def_cfa_offset 16
	.cfi_offset 6, -16
	movq	%rsp, %rbp
	.seh_setframe	%rbp, 0
	.cfi_def_cfa_register 6
	.seh_endprologue
	movq	%rcx, 16(%rbp)
	movq	%rdx, 24(%rbp)
.LBB22:
	.loc 9 68 21
	movq	16(%rbp), %rax
	movq	24(%rbp), %rdx
	movq	%rdx, (%rax)
.LBE22:
	.loc 9 69 5
	nop
	popq	%rbp
	.cfi_restore 6
	.cfi_def_cfa 7, 8
	ret
	.cfi_endproc
.LFE7378:
	.seh_endproc
	.section	.text$_ZN16wxTypeIdentifiereqERKS_,"x"
	.linkonce discard
	.align 2
	.globl	_ZN16wxTypeIdentifiereqERKS_
	.def	_ZN16wxTypeIdentifiereqERKS_;	.scl	2;	.type	32;	.endef
	.seh_proc	_ZN16wxTypeIdentifiereqERKS_
_ZN16wxTypeIdentifiereqERKS_:
.LFB7379:
	.loc 9 71 10
	.cfi_startproc
	pushq	%rbp
	.seh_pushreg	%rbp
	.cfi_def_cfa_offset 16
	.cfi_offset 6, -16
	movq	%rsp, %rbp
	.seh_setframe	%rbp, 0
	.cfi_def_cfa_register 6
	subq	$32, %rsp
	.seh_stackalloc	32
	.seh_endprologue
	movq	%rcx, 16(%rbp)
	movq	%rdx, 24(%rbp)
	.loc 9 73 42
	movq	24(%rbp), %rax
	movq	(%rax), %rdx
	.loc 9 73 22
	movq	16(%rbp), %rax
	movq	(%rax), %rax
	movq	%rax, %rcx
	call	strcmp
	.loc 9 73 58
	testl	%eax, %eax
	sete	%al
	.loc 9 74 5
	addq	$32, %rsp
	popq	%rbp
	.cfi_restore 6
	.cfi_def_cfa 7, 8
	ret
	.cfi_endproc
.LFE7379:
	.seh_endproc
	.section	.text$_ZN12wxColourBaseC2Ev,"x"
	.linkonce discard
	.align 2
	.globl	_ZN12wxColourBaseC2Ev
	.def	_ZN12wxColourBaseC2Ev;	.scl	2;	.type	32;	.endef
	.seh_proc	_ZN12wxColourBaseC2Ev
_ZN12wxColourBaseC2Ev:
.LFB7858:
	.file 10 "../wxMSW-3.0.5_gcc810_x64_Dev/include/wx/colour.h"
	.loc 10 85 5
	.cfi_startproc
	pushq	%rbp
	.seh_pushreg	%rbp
	.cfi_def_cfa_offset 16
	.cfi_offset 6, -16
	movq	%rsp, %rbp
	.seh_setframe	%rbp, 0
	.cfi_def_cfa_register 6
	subq	$32, %rsp
	.seh_stackalloc	32
	.seh_endprologue
	movq	%rcx, 16(%rbp)
.LBB23:
	.loc 10 85 20
	movq	16(%rbp), %rax
	movq	%rax, %rcx
	call	_ZN8wxObjectC2Ev
	movq	.refptr._ZTV12wxColourBase(%rip), %rax
	leaq	16(%rax), %rdx
	movq	16(%rbp), %rax
	movq	%rdx, (%rax)
.LBE23:
	.loc 10 85 21
	nop
	addq	$32, %rsp
	popq	%rbp
	.cfi_restore 6
	.cfi_def_cfa 7, 8
	ret
	.cfi_endproc
.LFE7858:
	.seh_endproc
	.section	.text$_ZN12wxColourBaseD2Ev,"x"
	.linkonce discard
	.align 2
	.globl	_ZN12wxColourBaseD2Ev
	.def	_ZN12wxColourBaseD2Ev;	.scl	2;	.type	32;	.endef
	.seh_proc	_ZN12wxColourBaseD2Ev
_ZN12wxColourBaseD2Ev:
.LFB7861:
	.loc 10 86 13
	.cfi_startproc
	pushq	%rbp
	.seh_pushreg	%rbp
	.cfi_def_cfa_offset 16
	.cfi_offset 6, -16
	movq	%rsp, %rbp
	.seh_setframe	%rbp, 0
	.cfi_def_cfa_register 6
	subq	$32, %rsp
	.seh_stackalloc	32
	.seh_endprologue
	movq	%rcx, 16(%rbp)
.LBB24:
	.loc 10 86 29
	movq	.refptr._ZTV12wxColourBase(%rip), %rax
	leaq	16(%rax), %rdx
	movq	16(%rbp), %rax
	movq	%rdx, (%rax)
	movq	16(%rbp), %rax
	movq	%rax, %rcx
	call	_ZN8wxObjectD2Ev
.LBE24:
	.loc 10 86 30
	nop
	addq	$32, %rsp
	popq	%rbp
	.cfi_restore 6
	.cfi_def_cfa 7, 8
	ret
	.cfi_endproc
.LFE7861:
	.seh_endproc
	.section	.text$_ZN8wxColourC1Ev,"x"
	.linkonce discard
	.align 2
	.globl	_ZN8wxColourC1Ev
	.def	_ZN8wxColourC1Ev;	.scl	2;	.type	32;	.endef
	.seh_proc	_ZN8wxColourC1Ev
_ZN8wxColourC1Ev:
.LFB7876:
	.file 11 "../wxMSW-3.0.5_gcc810_x64_Dev/include/wx/msw/colour.h"
	.loc 11 25 5
	.cfi_startproc
	pushq	%rbp
	.seh_pushreg	%rbp
	.cfi_def_cfa_offset 16
	.cfi_offset 6, -16
	pushq	%rbx
	.seh_pushreg	%rbx
	.cfi_def_cfa_offset 24
	.cfi_offset 3, -24
	subq	$40, %rsp
	.seh_stackalloc	40
	.cfi_def_cfa_offset 64
	leaq	128(%rsp), %rbp
	.seh_setframe	%rbp, 128
	.cfi_def_cfa 6, -64
	.seh_endprologue
	movq	%rcx, -64(%rbp)
.LBB25:
	.loc 11 25 16
	movq	-64(%rbp), %rax
	movq	%rax, %rcx
	call	_ZN12wxColourBaseC2Ev
	movq	.refptr._ZTV8wxColour(%rip), %rax
	leaq	16(%rax), %rdx
	movq	-64(%rbp), %rax
	movq	%rdx, (%rax)
	.loc 11 25 22
	movq	-64(%rbp), %rcx
.LEHB13:
	call	_ZN8wxColour4InitEv
.LEHE13:
.LBE25:
	.loc 11 25 26
	jmp	.L70
.L69:
	movq	%rax, %rbx
.LBB26:
	.loc 11 25 16
	movq	-64(%rbp), %rax
	movq	%rax, %rcx
	call	_ZN12wxColourBaseD2Ev
	movq	%rbx, %rax
	movq	%rax, %rcx
.LEHB14:
	call	_Unwind_Resume
	nop
.LEHE14:
.L70:
.LBE26:
	.loc 11 25 26
	addq	$40, %rsp
	popq	%rbx
	.cfi_restore 3
	popq	%rbp
	.cfi_restore 6
	.cfi_def_cfa 7, -24
	ret
	.cfi_endproc
.LFE7876:
	.seh_handler	__gxx_personality_seh0, @unwind, @except
	.seh_handlerdata
.LLSDA7876:
	.byte	0xff
	.byte	0xff
	.byte	0x1
	.uleb128 .LLSDACSE7876-.LLSDACSB7876
.LLSDACSB7876:
	.uleb128 .LEHB13-.LFB7876
	.uleb128 .LEHE13-.LEHB13
	.uleb128 .L69-.LFB7876
	.uleb128 0
	.uleb128 .LEHB14-.LFB7876
	.uleb128 .LEHE14-.LEHB14
	.uleb128 0
	.uleb128 0
.LLSDACSE7876:
	.section	.text$_ZN8wxColourC1Ev,"x"
	.linkonce discard
	.seh_endproc
	.section .rdata,"dr"
	.align 4
_ZL15wxInvalidOffset:
	.long	-1
	.align 4
_ZL5wxEOF:
	.long	-1
_ZL25wxIMAGE_ALPHA_TRANSPARENT:
	.space 1
_ZL23wxIMAGE_ALPHA_THRESHOLD:
	.byte	-128
_ZL20wxIMAGE_ALPHA_OPAQUE:
	.byte	-1
	.section	.text$_ZN11wxGDIObjectC2Ev,"x"
	.linkonce discard
	.align 2
	.globl	_ZN11wxGDIObjectC2Ev
	.def	_ZN11wxGDIObjectC2Ev;	.scl	2;	.type	32;	.endef
	.seh_proc	_ZN11wxGDIObjectC2Ev
_ZN11wxGDIObjectC2Ev:
.LFB8415:
	.file 12 "../wxMSW-3.0.5_gcc810_x64_Dev/include/wx/gdiobj.h"
	.loc 12 41 7
	.cfi_startproc
	pushq	%rbp
	.seh_pushreg	%rbp
	.cfi_def_cfa_offset 16
	.cfi_offset 6, -16
	movq	%rsp, %rbp
	.seh_setframe	%rbp, 0
	.cfi_def_cfa_register 6
	subq	$32, %rsp
	.seh_stackalloc	32
	.seh_endprologue
	movq	%rcx, 16(%rbp)
.LBB27:
	.loc 12 41 7
	movq	16(%rbp), %rax
	movq	%rax, %rcx
	call	_ZN8wxObjectC2Ev
	movq	.refptr._ZTV11wxGDIObject(%rip), %rax
	leaq	16(%rax), %rdx
	movq	16(%rbp), %rax
	movq	%rdx, (%rax)
.LBE27:
	nop
	addq	$32, %rsp
	popq	%rbp
	.cfi_restore 6
	.cfi_def_cfa 7, 8
	ret
	.cfi_endproc
.LFE8415:
	.seh_endproc
	.section	.text$_ZN10wxGDIImageC2Ev,"x"
	.linkonce discard
	.align 2
	.globl	_ZN10wxGDIImageC2Ev
	.def	_ZN10wxGDIImageC2Ev;	.scl	2;	.type	32;	.endef
	.seh_proc	_ZN10wxGDIImageC2Ev
_ZN10wxGDIImageC2Ev:
.LFB8426:
	.file 13 "../wxMSW-3.0.5_gcc810_x64_Dev/include/wx/msw/gdiimage.h"
	.loc 13 84 7
	.cfi_startproc
	pushq	%rbp
	.seh_pushreg	%rbp
	.cfi_def_cfa_offset 16
	.cfi_offset 6, -16
	movq	%rsp, %rbp
	.seh_setframe	%rbp, 0
	.cfi_def_cfa_register 6
	subq	$32, %rsp
	.seh_stackalloc	32
	.seh_endprologue
	movq	%rcx, 16(%rbp)
.LBB28:
	.loc 13 84 7
	movq	16(%rbp), %rax
	movq	%rax, %rcx
	call	_ZN11wxGDIObjectC2Ev
	movq	.refptr._ZTV10wxGDIImage(%rip), %rax
	leaq	16(%rax), %rdx
	movq	16(%rbp), %rax
	movq	%rdx, (%rax)
.LBE28:
	nop
	addq	$32, %rsp
	popq	%rbp
	.cfi_restore 6
	.cfi_def_cfa 7, 8
	ret
	.cfi_endproc
.LFE8426:
	.seh_endproc
	.section	.text$_ZN8wxBitmapC1Ev,"x"
	.linkonce discard
	.align 2
	.globl	_ZN8wxBitmapC1Ev
	.def	_ZN8wxBitmapC1Ev;	.scl	2;	.type	32;	.endef
	.seh_proc	_ZN8wxBitmapC1Ev
_ZN8wxBitmapC1Ev:
.LFB8433:
	.file 14 "../wxMSW-3.0.5_gcc810_x64_Dev/include/wx/msw/bitmap.h"
	.loc 14 51 5
	.cfi_startproc
	pushq	%rbp
	.seh_pushreg	%rbp
	.cfi_def_cfa_offset 16
	.cfi_offset 6, -16
	movq	%rsp, %rbp
	.seh_setframe	%rbp, 0
	.cfi_def_cfa_register 6
	subq	$32, %rsp
	.seh_stackalloc	32
	.seh_endprologue
	movq	%rcx, 16(%rbp)
.LBB29:
	.loc 14 51 16
	movq	16(%rbp), %rax
	movq	%rax, %rcx
	call	_ZN10wxGDIImageC2Ev
	movq	.refptr._ZTV8wxBitmap(%rip), %rax
	leaq	16(%rax), %rdx
	movq	16(%rbp), %rax
	movq	%rdx, (%rax)
.LBE29:
	.loc 14 51 18
	nop
	addq	$32, %rsp
	popq	%rbp
	.cfi_restore 6
	.cfi_def_cfa 7, 8
	ret
	.cfi_endproc
.LFE8433:
	.seh_endproc
	.section	.text$_ZN23wxCriticalSectionLockerC1ER17wxCriticalSection,"x"
	.linkonce discard
	.align 2
	.globl	_ZN23wxCriticalSectionLockerC1ER17wxCriticalSection
	.def	_ZN23wxCriticalSectionLockerC1ER17wxCriticalSection;	.scl	2;	.type	32;	.endef
	.seh_proc	_ZN23wxCriticalSectionLockerC1ER17wxCriticalSection
_ZN23wxCriticalSectionLockerC1ER17wxCriticalSection:
.LFB8880:
	.file 15 "../wxMSW-3.0.5_gcc810_x64_Dev/include/wx/thread.h"
	.loc 15 304 5
	.cfi_startproc
	pushq	%rbp
	.seh_pushreg	%rbp
	.cfi_def_cfa_offset 16
	.cfi_offset 6, -16
	movq	%rsp, %rbp
	.seh_setframe	%rbp, 0
	.cfi_def_cfa_register 6
	subq	$32, %rsp
	.seh_stackalloc	32
	.seh_endprologue
	movq	%rcx, 16(%rbp)
	movq	%rdx, 24(%rbp)
.LBB30:
	.loc 15 305 24
	movq	16(%rbp), %rax
	movq	24(%rbp), %rdx
	movq	%rdx, (%rax)
	.loc 15 307 9
	movq	16(%rbp), %rax
	movq	(%rax), %rax
	.loc 15 307 25
	movq	%rax, %rcx
	call	_ZN17wxCriticalSection5EnterEv
.LBE30:
	.loc 15 308 5
	nop
	addq	$32, %rsp
	popq	%rbp
	.cfi_restore 6
	.cfi_def_cfa 7, 8
	ret
	.cfi_endproc
.LFE8880:
	.seh_endproc
	.section	.text$_ZN23wxCriticalSectionLockerD1Ev,"x"
	.linkonce discard
	.align 2
	.globl	_ZN23wxCriticalSectionLockerD1Ev
	.def	_ZN23wxCriticalSectionLockerD1Ev;	.scl	2;	.type	32;	.endef
	.seh_proc	_ZN23wxCriticalSectionLockerD1Ev
_ZN23wxCriticalSectionLockerD1Ev:
.LFB8883:
	.loc 15 310 5
	.cfi_startproc
	pushq	%rbp
	.seh_pushreg	%rbp
	.cfi_def_cfa_offset 16
	.cfi_offset 6, -16
	movq	%rsp, %rbp
	.seh_setframe	%rbp, 0
	.cfi_def_cfa_register 6
	subq	$32, %rsp
	.seh_stackalloc	32
	.seh_endprologue
	movq	%rcx, 16(%rbp)
.LBB31:
	.loc 15 312 9
	movq	16(%rbp), %rax
	movq	(%rax), %rax
	.loc 15 312 25
	movq	%rax, %rcx
	call	_ZN17wxCriticalSection5LeaveEv
.LBE31:
	.loc 15 313 5
	nop
	addq	$32, %rsp
	popq	%rbp
	.cfi_restore 6
	.cfi_def_cfa 7, 8
	ret
	.cfi_endproc
.LFE8883:
	.seh_handler	__gxx_personality_seh0, @unwind, @except
	.seh_handlerdata
.LLSDA8883:
	.byte	0xff
	.byte	0xff
	.byte	0x1
	.uleb128 .LLSDACSE8883-.LLSDACSB8883
.LLSDACSB8883:
.LLSDACSE8883:
	.section	.text$_ZN23wxCriticalSectionLockerD1Ev,"x"
	.linkonce discard
	.seh_endproc
	.section	.text$_ZN8wxThread8OnDeleteEv,"x"
	.linkonce discard
	.align 2
	.globl	_ZN8wxThread8OnDeleteEv
	.def	_ZN8wxThread8OnDeleteEv;	.scl	2;	.type	32;	.endef
	.seh_proc	_ZN8wxThread8OnDeleteEv
_ZN8wxThread8OnDeleteEv:
.LFB8889:
	.loc 15 627 18
	.cfi_startproc
	pushq	%rbp
	.seh_pushreg	%rbp
	.cfi_def_cfa_offset 16
	.cfi_offset 6, -16
	movq	%rsp, %rbp
	.seh_setframe	%rbp, 0
	.cfi_def_cfa_register 6
	.seh_endprologue
	movq	%rcx, 16(%rbp)
	.loc 15 627 30
	nop
	popq	%rbp
	.cfi_restore 6
	.cfi_def_cfa 7, 8
	ret
	.cfi_endproc
.LFE8889:
	.seh_endproc
	.section	.text$_ZN8wxThread6OnKillEv,"x"
	.linkonce discard
	.align 2
	.globl	_ZN8wxThread6OnKillEv
	.def	_ZN8wxThread6OnKillEv;	.scl	2;	.type	32;	.endef
	.seh_proc	_ZN8wxThread6OnKillEv
_ZN8wxThread6OnKillEv:
.LFB8890:
	.loc 15 631 18
	.cfi_startproc
	pushq	%rbp
	.seh_pushreg	%rbp
	.cfi_def_cfa_offset 16
	.cfi_offset 6, -16
	movq	%rsp, %rbp
	.seh_setframe	%rbp, 0
	.cfi_def_cfa_register 6
	.seh_endprologue
	movq	%rcx, 16(%rbp)
	.loc 15 631 28
	nop
	popq	%rbp
	.cfi_restore 6
	.cfi_def_cfa 7, 8
	ret
	.cfi_endproc
.LFE8890:
	.seh_endproc
	.section	.text$_ZN8wxThread6OnExitEv,"x"
	.linkonce discard
	.align 2
	.globl	_ZN8wxThread6OnExitEv
	.def	_ZN8wxThread6OnExitEv;	.scl	2;	.type	32;	.endef
	.seh_proc	_ZN8wxThread6OnExitEv
_ZN8wxThread6OnExitEv:
.LFB8891:
	.loc 15 641 18
	.cfi_startproc
	pushq	%rbp
	.seh_pushreg	%rbp
	.cfi_def_cfa_offset 16
	.cfi_offset 6, -16
	movq	%rsp, %rbp
	.seh_setframe	%rbp, 0
	.cfi_def_cfa_register 6
	.seh_endprologue
	movq	%rcx, 16(%rbp)
	.loc 15 641 29
	nop
	popq	%rbp
	.cfi_restore 6
	.cfi_def_cfa 7, 8
	ret
	.cfi_endproc
.LFE8891:
	.seh_endproc
	.section	.text$_ZN20wxThreadHelperThread5EntryEv,"x"
	.linkonce discard
	.align 2
	.globl	_ZN20wxThreadHelperThread5EntryEv
	.def	_ZN20wxThreadHelperThread5EntryEv;	.scl	2;	.type	32;	.endef
	.seh_proc	_ZN20wxThreadHelperThread5EntryEv
_ZN20wxThreadHelperThread5EntryEv:
.LFB8906:
	.loc 15 767 1
	.cfi_startproc
	pushq	%rbp
	.seh_pushreg	%rbp
	.cfi_def_cfa_offset 16
	.cfi_offset 6, -16
	pushq	%rbx
	.seh_pushreg	%rbx
	.cfi_def_cfa_offset 24
	.cfi_offset 3, -24
	subq	$56, %rsp
	.seh_stackalloc	56
	.cfi_def_cfa_offset 80
	leaq	128(%rsp), %rbp
	.seh_setframe	%rbp, 128
	.cfi_def_cfa 6, -48
	.seh_endprologue
	movq	%rcx, -48(%rbp)
	.loc 15 768 27
	movq	-48(%rbp), %rax
	movq	64(%rax), %rdx
	movq	-48(%rbp), %rax
	movq	64(%rax), %rax
	.loc 15 768 41
	movq	(%rax), %rax
	addq	$16, %rax
	movq	(%rax), %rax
	.loc 15 768 40
	movq	%rdx, %rcx
	call	*%rax
.LVL0:
	movq	%rax, -88(%rbp)
	.loc 15 770 36
	movq	-48(%rbp), %rax
	movq	64(%rax), %rax
	.loc 15 770 44
	leaq	24(%rax), %rdx
	.loc 15 770 57
	leaq	-96(%rbp), %rax
	movq	%rax, %rcx
	call	_ZN23wxCriticalSectionLockerC1ER17wxCriticalSection
	.loc 15 776 10
	movq	-48(%rbp), %rax
	movq	64(%rax), %rax
	.loc 15 776 18
	movl	16(%rax), %eax
	.loc 15 776 5
	testl	%eax, %eax
	jne	.L80
	.loc 15 777 9
	movq	-48(%rbp), %rax
	movq	64(%rax), %rax
	.loc 15 777 26
	movq	$0, 8(%rax)
.L80:
	.loc 15 779 12
	movq	-88(%rbp), %rbx
	.loc 15 770 57
	leaq	-96(%rbp), %rax
	movq	%rax, %rcx
	call	_ZN23wxCriticalSectionLockerD1Ev
	.loc 15 779 12
	movq	%rbx, %rax
	.loc 15 780 1
	addq	$56, %rsp
	popq	%rbx
	.cfi_restore 3
	popq	%rbp
	.cfi_restore 6
	.cfi_def_cfa 7, -40
	ret
	.cfi_endproc
.LFE8906:
	.seh_endproc
	.section	.text$_ZN14wxEventFunctorC2Ev,"x"
	.linkonce discard
	.align 2
	.globl	_ZN14wxEventFunctorC2Ev
	.def	_ZN14wxEventFunctorC2Ev;	.scl	2;	.type	32;	.endef
	.seh_proc	_ZN14wxEventFunctorC2Ev
_ZN14wxEventFunctorC2Ev:
.LFB8942:
	.file 16 "../wxMSW-3.0.5_gcc810_x64_Dev/include/wx/event.h"
	.loc 16 211 7
	.cfi_startproc
	pushq	%rbp
	.seh_pushreg	%rbp
	.cfi_def_cfa_offset 16
	.cfi_offset 6, -16
	movq	%rsp, %rbp
	.seh_setframe	%rbp, 0
	.cfi_def_cfa_register 6
	.seh_endprologue
	movq	%rcx, 16(%rbp)
.LBB32:
	.loc 16 211 7
	movq	.refptr._ZTV14wxEventFunctor(%rip), %rax
	leaq	16(%rax), %rdx
	movq	16(%rbp), %rax
	movq	%rdx, (%rax)
.LBE32:
	nop
	popq	%rbp
	.cfi_restore 6
	.cfi_def_cfa 7, 8
	ret
	.cfi_endproc
.LFE8942:
	.seh_endproc
	.section	.text$_ZN20wxObjectEventFunctorC1EM12wxEvtHandlerFvR7wxEventEPS0_,"x"
	.linkonce discard
	.align 2
	.globl	_ZN20wxObjectEventFunctorC1EM12wxEvtHandlerFvR7wxEventEPS0_
	.def	_ZN20wxObjectEventFunctorC1EM12wxEvtHandlerFvR7wxEventEPS0_;	.scl	2;	.type	32;	.endef
	.seh_proc	_ZN20wxObjectEventFunctorC1EM12wxEvtHandlerFvR7wxEventEPS0_
_ZN20wxObjectEventFunctorC1EM12wxEvtHandlerFvR7wxEventEPS0_:
.LFB8945:
	.loc 16 243 5
	.cfi_startproc
	pushq	%rbp
	.seh_pushreg	%rbp
	.cfi_def_cfa_offset 16
	.cfi_offset 6, -16
	pushq	%rbx
	.seh_pushreg	%rbx
	.cfi_def_cfa_offset 24
	.cfi_offset 3, -24
	subq	$56, %rsp
	.seh_stackalloc	56
	.cfi_def_cfa_offset 80
	leaq	128(%rsp), %rbp
	.seh_setframe	%rbp, 128
	.cfi_def_cfa 6, -48
	.seh_endprologue
	movq	%rcx, -48(%rbp)
	movq	%rdx, %rbx
	movq	(%rbx), %rax
	movq	8(%rbx), %rdx
	movq	%rax, -96(%rbp)
	movq	%rdx, -88(%rbp)
	movq	%r8, -32(%rbp)
.LBB33:
	.loc 16 244 50
	movq	-48(%rbp), %rax
	movq	%rax, %rcx
	call	_ZN14wxEventFunctorC2Ev
	leaq	16+_ZTV20wxObjectEventFunctor(%rip), %rdx
	movq	-48(%rbp), %rax
	movq	%rdx, (%rax)
	movq	-48(%rbp), %rax
	movq	-32(%rbp), %rdx
	movq	%rdx, 8(%rax)
	movq	-48(%rbp), %rcx
	movq	-96(%rbp), %rax
	movq	-88(%rbp), %rdx
	movq	%rax, 16(%rcx)
	movq	%rdx, 24(%rcx)
.LBE33:
	.loc 16 245 11
	nop
	addq	$56, %rsp
	popq	%rbx
	.cfi_restore 3
	popq	%rbp
	.cfi_restore 6
	.cfi_def_cfa 7, -40
	ret
	.cfi_endproc
.LFE8945:
	.seh_endproc
	.section	.text$_ZNK20wxObjectEventFunctor10IsMatchingERK14wxEventFunctor,"x"
	.linkonce discard
	.align 2
	.globl	_ZNK20wxObjectEventFunctor10IsMatchingERK14wxEventFunctor
	.def	_ZNK20wxObjectEventFunctor10IsMatchingERK14wxEventFunctor;	.scl	2;	.type	32;	.endef
	.seh_proc	_ZNK20wxObjectEventFunctor10IsMatchingERK14wxEventFunctor
_ZNK20wxObjectEventFunctor10IsMatchingERK14wxEventFunctor:
.LFB8946:
	.loc 16 249 18
	.cfi_startproc
	pushq	%rbp
	.seh_pushreg	%rbp
	.cfi_def_cfa_offset 16
	.cfi_offset 6, -16
	movq	%rsp, %rbp
	.seh_setframe	%rbp, 0
	.cfi_def_cfa_register 6
	subq	$64, %rsp
	.seh_stackalloc	64
	.seh_endprologue
	movq	%rcx, 16(%rbp)
	movq	%rdx, 24(%rbp)
.LBB34:
	.loc 16 251 83
	movq	16(%rbp), %rax
	movq	(%rax), %rax
	subq	$8, %rax
	.loc 16 251 58
	movq	(%rax), %rax
	movq	%rax, %rcx
	call	_ZNKSt9type_info4nameEv
	movq	%rax, %rdx
	leaq	-24(%rbp), %rax
	movq	%rax, %rcx
	call	_ZN16wxTypeIdentifierC1EPKc
	.loc 16 251 38
	movq	24(%rbp), %rax
	movq	(%rax), %rax
	subq	$8, %rax
	.loc 16 251 14
	movq	(%rax), %rax
	movq	%rax, %rcx
	call	_ZNKSt9type_info4nameEv
	movq	%rax, %rdx
	leaq	-16(%rbp), %rax
	movq	%rax, %rcx
	call	_ZN16wxTypeIdentifierC1EPKc
	.loc 16 251 55
	leaq	-24(%rbp), %rdx
	leaq	-16(%rbp), %rax
	movq	%rax, %rcx
	call	_ZN16wxTypeIdentifiereqERKS_
	.loc 16 251 9
	testb	%al, %al
	je	.L85
.LBB35:
	.loc 16 253 41
	movq	24(%rbp), %rax
	movq	%rax, -8(%rbp)
	.loc 16 262 40
	movq	16(%rbp), %rax
	movq	16(%rax), %rdx
	movq	-8(%rbp), %rax
	movq	16(%rax), %rax
	.loc 16 262 74
	cmpq	%rax, %rdx
	jne	.L86
	.loc 16 262 40 discriminator 1
	movq	16(%rbp), %rax
	movq	24(%rax), %rdx
	movq	-8(%rbp), %rax
	movq	24(%rax), %rax
	.loc 16 262 31 discriminator 1
	cmpq	%rax, %rdx
	je	.L87
	.loc 16 262 40 discriminator 4
	movq	16(%rbp), %rax
	movq	16(%rax), %rax
	.loc 16 262 31 discriminator 4
	testq	%rax, %rax
	je	.L87
.L86:
	.loc 16 262 70 discriminator 6
	movq	-8(%rbp), %rax
	movq	16(%rax), %rax
	.loc 16 262 49 discriminator 6
	testq	%rax, %rax
	jne	.L88
.L87:
	.loc 16 263 22 discriminator 7
	movq	16(%rbp), %rax
	movq	8(%rax), %rdx
	.loc 16 263 41 discriminator 7
	movq	-8(%rbp), %rax
	movq	8(%rax), %rax
	.loc 16 262 74 discriminator 7
	cmpq	%rax, %rdx
	je	.L89
	.loc 16 263 60
	movq	-8(%rbp), %rax
	movq	8(%rax), %rax
	.loc 16 263 51
	testq	%rax, %rax
	jne	.L88
.L89:
	.loc 16 262 74 discriminator 9
	movl	$1, %eax
	.loc 16 263 77 discriminator 9
	jmp	.L91
.L88:
	.loc 16 262 74 discriminator 8
	movl	$0, %eax
	.loc 16 263 77 discriminator 8
	jmp	.L91
.L85:
.LBE35:
	.loc 16 266 20
	movl	$0, %eax
.L91:
.LBE34:
	.loc 16 267 5
	addq	$64, %rsp
	popq	%rbp
	.cfi_restore 6
	.cfi_def_cfa 7, 8
	ret
	.cfi_endproc
.LFE8946:
	.seh_endproc
	.section	.text$_ZNK20wxObjectEventFunctor13GetEvtHandlerEv,"x"
	.linkonce discard
	.align 2
	.globl	_ZNK20wxObjectEventFunctor13GetEvtHandlerEv
	.def	_ZNK20wxObjectEventFunctor13GetEvtHandlerEv;	.scl	2;	.type	32;	.endef
	.seh_proc	_ZNK20wxObjectEventFunctor13GetEvtHandlerEv
_ZNK20wxObjectEventFunctor13GetEvtHandlerEv:
.LFB8947:
	.loc 16 269 27
	.cfi_startproc
	pushq	%rbp
	.seh_pushreg	%rbp
	.cfi_def_cfa_offset 16
	.cfi_offset 6, -16
	movq	%rsp, %rbp
	.seh_setframe	%rbp, 0
	.cfi_def_cfa_register 6
	.seh_endprologue
	movq	%rcx, 16(%rbp)
	.loc 16 270 18
	movq	16(%rbp), %rax
	movq	8(%rax), %rax
	.loc 16 270 29
	popq	%rbp
	.cfi_restore 6
	.cfi_def_cfa 7, 8
	ret
	.cfi_endproc
.LFE8947:
	.seh_endproc
	.section	.text$_ZNK20wxObjectEventFunctor12GetEvtMethodEv,"x"
	.linkonce discard
	.align 2
	.globl	_ZNK20wxObjectEventFunctor12GetEvtMethodEv
	.def	_ZNK20wxObjectEventFunctor12GetEvtMethodEv;	.scl	2;	.type	32;	.endef
	.seh_proc	_ZNK20wxObjectEventFunctor12GetEvtMethodEv
_ZNK20wxObjectEventFunctor12GetEvtMethodEv:
.LFB8948:
	.loc 16 272 29
	.cfi_startproc
	pushq	%rbp
	.seh_pushreg	%rbp
	.cfi_def_cfa_offset 16
	.cfi_offset 6, -16
	movq	%rsp, %rbp
	.seh_setframe	%rbp, 0
	.cfi_def_cfa_register 6
	.seh_endprologue
	movq	%rcx, 16(%rbp)
	movq	%rdx, 24(%rbp)
	.loc 16 273 18
	movq	16(%rbp), %rcx
	movq	24(%rbp), %rax
	movq	24(%rax), %rdx
	movq	16(%rax), %rax
	movq	%rax, (%rcx)
	movq	%rdx, 8(%rcx)
	.loc 16 273 28
	movq	16(%rbp), %rax
	popq	%rbp
	.cfi_restore 6
	.cfi_def_cfa 7, 8
	ret
	.cfi_endproc
.LFE8948:
	.seh_endproc
	.section	.text$_Z17wxNewEventFunctorRKiM12wxEvtHandlerFvR7wxEventEPS1_,"x"
	.linkonce discard
	.globl	_Z17wxNewEventFunctorRKiM12wxEvtHandlerFvR7wxEventEPS1_
	.def	_Z17wxNewEventFunctorRKiM12wxEvtHandlerFvR7wxEventEPS1_;	.scl	2;	.type	32;	.endef
	.seh_proc	_Z17wxNewEventFunctorRKiM12wxEvtHandlerFvR7wxEventEPS1_
_Z17wxNewEventFunctorRKiM12wxEvtHandlerFvR7wxEventEPS1_:
.LFB8952:
	.loc 16 290 1
	.cfi_startproc
	pushq	%rbp
	.seh_pushreg	%rbp
	.cfi_def_cfa_offset 16
	.cfi_offset 6, -16
	pushq	%rbx
	.seh_pushreg	%rbx
	.cfi_def_cfa_offset 24
	.cfi_offset 3, -24
	subq	$72, %rsp
	.seh_stackalloc	72
	.cfi_def_cfa_offset 96
	leaq	128(%rsp), %rbp
	.seh_setframe	%rbp, 128
	.cfi_def_cfa 6, -32
	.seh_endprologue
	movq	%rcx, -32(%rbp)
	movq	%rdx, %rbx
	movq	(%rbx), %rax
	movq	8(%rbx), %rdx
	movq	%rax, -80(%rbp)
	movq	%rdx, -72(%rbp)
	movq	%r8, -16(%rbp)
	.loc 16 291 52
	movl	$32, %ecx
	call	_Znwy
	movq	%rax, %rbx
	movq	-80(%rbp), %rax
	movq	-72(%rbp), %rdx
	movq	%rax, -96(%rbp)
	movq	%rdx, -88(%rbp)
	movq	-16(%rbp), %rdx
	leaq	-96(%rbp), %rax
	movq	%rdx, %r8
	movq	%rax, %rdx
	movq	%rbx, %rcx
	call	_ZN20wxObjectEventFunctorC1EM12wxEvtHandlerFvR7wxEventEPS0_
	movq	%rbx, %rax
	.loc 16 292 1
	addq	$72, %rsp
	popq	%rbx
	.cfi_restore 3
	popq	%rbp
	.cfi_restore 6
	.cfi_def_cfa 7, -56
	ret
	.cfi_endproc
.LFE8952:
	.seh_endproc
	.section .rdata,"dr"
	.align 8
.LC1:
	.ascii "idLast == wxID_ANY || winid <= idLast\0"
	.align 8
.LC2:
	.ascii "..\\wxMSW-3.0.5_gcc810_x64_Dev\\include/wx/event.h\0"
	.align 8
.LC3:
	.ascii "invalid IDs range: lower bound > upper bound\0"
	.section	.text$_ZN21wxEventTableEntryBaseC2EiiP14wxEventFunctorP8wxObject,"x"
	.linkonce discard
	.align 2
	.globl	_ZN21wxEventTableEntryBaseC2EiiP14wxEventFunctorP8wxObject
	.def	_ZN21wxEventTableEntryBaseC2EiiP14wxEventFunctorP8wxObject;	.scl	2;	.type	32;	.endef
	.seh_proc	_ZN21wxEventTableEntryBaseC2EiiP14wxEventFunctorP8wxObject
_ZN21wxEventTableEntryBaseC2EiiP14wxEventFunctorP8wxObject:
.LFB9514:
	.loc 16 3170 5
	.cfi_startproc
	pushq	%rbp
	.seh_pushreg	%rbp
	.cfi_def_cfa_offset 16
	.cfi_offset 6, -16
	movq	%rsp, %rbp
	.seh_setframe	%rbp, 0
	.cfi_def_cfa_register 6
	subq	$48, %rsp
	.seh_stackalloc	48
	.seh_endprologue
	movq	%rcx, 16(%rbp)
	movl	%edx, 24(%rbp)
	movl	%r8d, 32(%rbp)
	movq	%r9, 40(%rbp)
.LBB36:
	.loc 16 3175 34
	movq	16(%rbp), %rax
	movl	24(%rbp), %edx
	movl	%edx, (%rax)
	movq	16(%rbp), %rax
	movl	32(%rbp), %edx
	movl	%edx, 4(%rax)
	movq	16(%rbp), %rax
	movq	40(%rbp), %rdx
	movq	%rdx, 8(%rax)
	movq	16(%rbp), %rax
	movq	48(%rbp), %rdx
	movq	%rdx, 16(%rax)
	.loc 16 3177 80
	movq	.refptr.wxTheAssertHandler(%rip), %rax
	movq	(%rax), %rax
	.loc 16 3177 82
	testq	%rax, %rax
	je	.L99
	.loc 16 3177 38 discriminator 1
	cmpl	$-1, 32(%rbp)
	je	.L99
	.loc 16 3177 41 discriminator 3
	movl	24(%rbp), %eax
	cmpl	32(%rbp), %eax
	jle	.L99
	.loc 16 3177 96 discriminator 5
	leaq	.LC3(%rip), %rax
	movq	%rax, 32(%rsp)
	leaq	.LC1(%rip), %r9
	leaq	_ZZN21wxEventTableEntryBaseC4EiiP14wxEventFunctorP8wxObjectE12__FUNCTION__(%rip), %r8
	movl	$3178, %edx
	leaq	.LC2(%rip), %rcx
	call	_Z10wxOnAssertPKciS0_S0_S0_
	.loc 16 3177 82 discriminator 5
	movq	.refptr.wxTrapInAssert(%rip), %rax
	movzbl	(%rax), %eax
	testb	%al, %al
	je	.L99
	.loc 16 3177 82 is_stmt 0 discriminator 7
	movl	$1, %eax
	jmp	.L100
.L99:
	.loc 16 3177 82 discriminator 8
	movl	$0, %eax
.L100:
	.loc 16 3177 14 is_stmt 1 discriminator 10
	testb	%al, %al
	je	.L102
	.loc 16 3177 150 discriminator 11
	movq	.refptr.wxTrapInAssert(%rip), %rax
	movb	$0, (%rax)
	.loc 16 3177 165 discriminator 11
	call	_Z6wxTrapv
.L102:
.LBE36:
	.loc 16 3179 5
	nop
	addq	$48, %rsp
	popq	%rbp
	.cfi_restore 6
	.cfi_def_cfa 7, 8
	ret
	.cfi_endproc
.LFE9514:
	.seh_endproc
	.section	.text$_ZN21wxEventTableEntryBaseD2Ev,"x"
	.linkonce discard
	.align 2
	.globl	_ZN21wxEventTableEntryBaseD2Ev
	.def	_ZN21wxEventTableEntryBaseD2Ev;	.scl	2;	.type	32;	.endef
	.seh_proc	_ZN21wxEventTableEntryBaseD2Ev
_ZN21wxEventTableEntryBaseD2Ev:
.LFB9520:
	.loc 16 3196 5
	.cfi_startproc
	pushq	%rbp
	.seh_pushreg	%rbp
	.cfi_def_cfa_offset 16
	.cfi_offset 6, -16
	movq	%rsp, %rbp
	.seh_setframe	%rbp, 0
	.cfi_def_cfa_register 6
	subq	$32, %rsp
	.seh_stackalloc	32
	.seh_endprologue
	movq	%rcx, 16(%rbp)
.LBB37:
	.loc 16 3198 16
	movq	16(%rbp), %rax
	movq	8(%rax), %rax
	.loc 16 3198 20
	testq	%rax, %rax
	je	.L105
	.loc 16 3198 16 discriminator 1
	movq	16(%rbp), %rax
	movq	8(%rax), %rdx
	movq	16(%rbp), %rax
	movq	8(%rax), %rax
	movq	(%rax), %rax
	addq	$8, %rax
	movq	(%rax), %rax
	movq	%rdx, %rcx
	call	*%rax
.LVL1:
.L105:
.LBE37:
	.loc 16 3199 5
	nop
	addq	$32, %rsp
	popq	%rbp
	.cfi_restore 6
	.cfi_def_cfa 7, 8
	ret
	.cfi_endproc
.LFE9520:
	.seh_endproc
	.section	.text$_ZN17wxEventTableEntryC1ERKiiiP14wxEventFunctorP8wxObject,"x"
	.linkonce discard
	.align 2
	.globl	_ZN17wxEventTableEntryC1ERKiiiP14wxEventFunctorP8wxObject
	.def	_ZN17wxEventTableEntryC1ERKiiiP14wxEventFunctorP8wxObject;	.scl	2;	.type	32;	.endef
	.seh_proc	_ZN17wxEventTableEntryC1ERKiiiP14wxEventFunctorP8wxObject
_ZN17wxEventTableEntryC1ERKiiiP14wxEventFunctorP8wxObject:
.LFB9524:
	.loc 16 3219 5
	.cfi_startproc
	pushq	%rbp
	.seh_pushreg	%rbp
	.cfi_def_cfa_offset 16
	.cfi_offset 6, -16
	movq	%rsp, %rbp
	.seh_setframe	%rbp, 0
	.cfi_def_cfa_register 6
	subq	$48, %rsp
	.seh_stackalloc	48
	.seh_endprologue
	movq	%rcx, 16(%rbp)
	movq	%rdx, 24(%rbp)
	movl	%r8d, 32(%rbp)
	movl	%r9d, 40(%rbp)
.LBB38:
	.loc 16 3222 27
	movq	16(%rbp), %rax
	movq	48(%rbp), %r9
	movl	40(%rbp), %r8d
	movl	32(%rbp), %edx
	movq	56(%rbp), %rcx
	movq	%rcx, 32(%rsp)
	movq	%rax, %rcx
	call	_ZN21wxEventTableEntryBaseC2EiiP14wxEventFunctorP8wxObject
	movq	16(%rbp), %rax
	movq	24(%rbp), %rdx
	movq	%rdx, 24(%rax)
.LBE38:
	.loc 16 3223 7
	nop
	addq	$48, %rsp
	popq	%rbp
	.cfi_restore 6
	.cfi_def_cfa 7, 8
	ret
	.cfi_endproc
.LFE9524:
	.seh_endproc
	.section	.text$_ZN12wxEvtHandler15AddPendingEventERK7wxEvent,"x"
	.linkonce discard
	.align 2
	.globl	_ZN12wxEvtHandler15AddPendingEventERK7wxEvent
	.def	_ZN12wxEvtHandler15AddPendingEventERK7wxEvent;	.scl	2;	.type	32;	.endef
	.seh_proc	_ZN12wxEvtHandler15AddPendingEventERK7wxEvent
_ZN12wxEvtHandler15AddPendingEventERK7wxEvent:
.LFB9624:
	.loc 16 3408 18
	.cfi_startproc
	pushq	%rbp
	.seh_pushreg	%rbp
	.cfi_def_cfa_offset 16
	.cfi_offset 6, -16
	pushq	%rbx
	.seh_pushreg	%rbx
	.cfi_def_cfa_offset 24
	.cfi_offset 3, -24
	subq	$40, %rsp
	.seh_stackalloc	40
	.cfi_def_cfa_offset 64
	leaq	128(%rsp), %rbp
	.seh_setframe	%rbp, 128
	.cfi_def_cfa 6, -64
	.seh_endprologue
	movq	%rcx, -64(%rbp)
	movq	%rdx, -56(%rbp)
	.loc 16 3416 33
	movq	-64(%rbp), %rax
	movq	(%rax), %rax
	addq	$64, %rax
	movq	(%rax), %rbx
	.loc 16 3416 32
	movq	-56(%rbp), %rax
	movq	(%rax), %rax
	addq	$40, %rax
	movq	(%rax), %rax
	.loc 16 3416 19
	movq	-56(%rbp), %rdx
	movq	%rdx, %rcx
	call	*%rax
.LVL2:
	movq	%rax, %rdx
	movq	-64(%rbp), %rcx
	call	*%rbx
.LVL3:
	.loc 16 3417 5
	nop
	addq	$40, %rsp
	popq	%rbx
	.cfi_restore 3
	popq	%rbp
	.cfi_restore 6
	.cfi_def_cfa 7, -24
	ret
	.cfi_endproc
.LFE9624:
	.seh_endproc
	.section	.text$_ZN12wxEvtHandler7ConnectEiiiMS_FvR7wxEventEP8wxObjectPS_,"x"
	.linkonce discard
	.align 2
	.globl	_ZN12wxEvtHandler7ConnectEiiiMS_FvR7wxEventEP8wxObjectPS_
	.def	_ZN12wxEvtHandler7ConnectEiiiMS_FvR7wxEventEP8wxObjectPS_;	.scl	2;	.type	32;	.endef
	.seh_proc	_ZN12wxEvtHandler7ConnectEiiiMS_FvR7wxEventEP8wxObjectPS_
_ZN12wxEvtHandler7ConnectEiiiMS_FvR7wxEventEP8wxObjectPS_:
.LFB9629:
	.loc 16 3490 10
	.cfi_startproc
	pushq	%rbp
	.seh_pushreg	%rbp
	.cfi_def_cfa_offset 16
	.cfi_offset 6, -16
	pushq	%rbx
	.seh_pushreg	%rbx
	.cfi_def_cfa_offset 24
	.cfi_offset 3, -24
	subq	$88, %rsp
	.seh_stackalloc	88
	.cfi_def_cfa_offset 112
	leaq	128(%rsp), %rbp
	.seh_setframe	%rbp, 128
	.cfi_def_cfa 6, -16
	.seh_endprologue
	movq	%rcx, -16(%rbp)
	movl	%edx, -8(%rbp)
	movl	%r8d, 0(%rbp)
	movl	%r9d, 8(%rbp)
	movq	16(%rbp), %rbx
	movq	(%rbx), %rax
	movq	8(%rbx), %rdx
	movq	%rax, -64(%rbp)
	movq	%rdx, -56(%rbp)
	.loc 16 3498 36
	movq	-64(%rbp), %rax
	movq	-56(%rbp), %rdx
	movq	%rax, -80(%rbp)
	movq	%rdx, -72(%rbp)
	movq	32(%rbp), %rcx
	leaq	-80(%rbp), %rdx
	leaq	8(%rbp), %rax
	movq	%rcx, %r8
	movq	%rax, %rcx
	call	_Z17wxNewEventFunctorRKiM12wxEvtHandlerFvR7wxEventEPS1_
	movq	%rax, %r9
	.loc 16 3497 15
	movl	8(%rbp), %r8d
	movl	0(%rbp), %ecx
	movl	-8(%rbp), %eax
	movq	24(%rbp), %rdx
	movq	%rdx, 40(%rsp)
	movq	%r9, 32(%rsp)
	movl	%r8d, %r9d
	movl	%ecx, %r8d
	movl	%eax, %edx
	movq	-16(%rbp), %rcx
	call	_ZN12wxEvtHandler6DoBindEiiiP14wxEventFunctorP8wxObject
	.loc 16 3500 5
	nop
	addq	$88, %rsp
	popq	%rbx
	.cfi_restore 3
	popq	%rbp
	.cfi_restore 6
	.cfi_def_cfa 7, -72
	ret
	.cfi_endproc
.LFE9629:
	.seh_endproc
	.section	.text$_ZN12wxEvtHandler7ConnectEiiMS_FvR7wxEventEP8wxObjectPS_,"x"
	.linkonce discard
	.align 2
	.globl	_ZN12wxEvtHandler7ConnectEiiMS_FvR7wxEventEP8wxObjectPS_
	.def	_ZN12wxEvtHandler7ConnectEiiMS_FvR7wxEventEP8wxObjectPS_;	.scl	2;	.type	32;	.endef
	.seh_proc	_ZN12wxEvtHandler7ConnectEiiMS_FvR7wxEventEP8wxObjectPS_
_ZN12wxEvtHandler7ConnectEiiMS_FvR7wxEventEP8wxObjectPS_:
.LFB9630:
	.loc 16 3503 10
	.cfi_startproc
	pushq	%rbp
	.seh_pushreg	%rbp
	.cfi_def_cfa_offset 16
	.cfi_offset 6, -16
	pushq	%rbx
	.seh_pushreg	%rbx
	.cfi_def_cfa_offset 24
	.cfi_offset 3, -24
	subq	$104, %rsp
	.seh_stackalloc	104
	.cfi_def_cfa_offset 128
	leaq	128(%rsp), %rbp
	.seh_setframe	%rbp, 128
	.cfi_def_cfa 6, 0
	.seh_endprologue
	movq	%rcx, 0(%rbp)
	movl	%edx, 8(%rbp)
	movl	%r8d, 16(%rbp)
	movq	%r9, %rbx
	movq	(%rbx), %rax
	movq	8(%rbx), %rdx
	movq	%rax, -48(%rbp)
	movq	%rdx, -40(%rbp)
	.loc 16 3508 18
	movq	-48(%rbp), %rax
	movq	-40(%rbp), %rdx
	movq	%rax, -64(%rbp)
	movq	%rdx, -56(%rbp)
	movl	16(%rbp), %ecx
	movl	8(%rbp), %edx
	movq	40(%rbp), %rax
	movq	%rax, 48(%rsp)
	movq	32(%rbp), %rax
	movq	%rax, 40(%rsp)
	leaq	-64(%rbp), %rax
	movq	%rax, 32(%rsp)
	movl	%ecx, %r9d
	movl	$-1, %r8d
	movq	0(%rbp), %rcx
	call	_ZN12wxEvtHandler7ConnectEiiiMS_FvR7wxEventEP8wxObjectPS_
	.loc 16 3508 75
	nop
	addq	$104, %rsp
	popq	%rbx
	.cfi_restore 3
	popq	%rbp
	.cfi_restore 6
	.cfi_def_cfa 7, -88
	ret
	.cfi_endproc
.LFE9630:
	.seh_endproc
	.section	.text$_ZN12wxEvtHandler12TryValidatorER7wxEvent,"x"
	.linkonce discard
	.align 2
	.globl	_ZN12wxEvtHandler12TryValidatorER7wxEvent
	.def	_ZN12wxEvtHandler12TryValidatorER7wxEvent;	.scl	2;	.type	32;	.endef
	.seh_proc	_ZN12wxEvtHandler12TryValidatorER7wxEvent
_ZN12wxEvtHandler12TryValidatorER7wxEvent:
.LFB9648:
	.loc 16 3703 46
	.cfi_startproc
	pushq	%rbp
	.seh_pushreg	%rbp
	.cfi_def_cfa_offset 16
	.cfi_offset 6, -16
	movq	%rsp, %rbp
	.seh_setframe	%rbp, 0
	.cfi_def_cfa_register 6
	.seh_endprologue
	movq	%rcx, 16(%rbp)
	movq	%rdx, 24(%rbp)
	.loc 16 3703 79
	movl	$0, %eax
	.loc 16 3703 86
	popq	%rbp
	.cfi_restore 6
	.cfi_def_cfa 7, 8
	ret
	.cfi_endproc
.LFE9648:
	.seh_endproc
	.section	.text$_ZN12wxEvtHandler9TryParentER7wxEvent,"x"
	.linkonce discard
	.align 2
	.globl	_ZN12wxEvtHandler9TryParentER7wxEvent
	.def	_ZN12wxEvtHandler9TryParentER7wxEvent;	.scl	2;	.type	32;	.endef
	.seh_proc	_ZN12wxEvtHandler9TryParentER7wxEvent
_ZN12wxEvtHandler9TryParentER7wxEvent:
.LFB9649:
	.loc 16 3706 46
	.cfi_startproc
	pushq	%rbp
	.seh_pushreg	%rbp
	.cfi_def_cfa_offset 16
	.cfi_offset 6, -16
	movq	%rsp, %rbp
	.seh_setframe	%rbp, 0
	.cfi_def_cfa_register 6
	subq	$32, %rsp
	.seh_stackalloc	32
	.seh_endprologue
	movq	%rcx, 16(%rbp)
	movq	%rdx, 24(%rbp)
	.loc 16 3706 89
	movq	24(%rbp), %rax
	movq	%rax, %rdx
	movq	16(%rbp), %rcx
	call	_ZN12wxEvtHandler8DoTryAppER7wxEvent
	.loc 16 3706 98
	addq	$32, %rsp
	popq	%rbp
	.cfi_restore 6
	.cfi_def_cfa 7, 8
	ret
	.cfi_endproc
.LFE9649:
	.seh_endproc
	.section	.text$_ZN20wxObjectEventFunctorclEP12wxEvtHandlerR7wxEvent,"x"
	.linkonce discard
	.align 2
	.globl	_ZN20wxObjectEventFunctorclEP12wxEvtHandlerR7wxEvent
	.def	_ZN20wxObjectEventFunctorclEP12wxEvtHandlerR7wxEvent;	.scl	2;	.type	32;	.endef
	.seh_proc	_ZN20wxObjectEventFunctorclEP12wxEvtHandlerR7wxEvent
_ZN20wxObjectEventFunctorclEP12wxEvtHandlerR7wxEvent:
.LFB9740:
	.loc 16 3775 1
	.cfi_startproc
	pushq	%rbp
	.seh_pushreg	%rbp
	.cfi_def_cfa_offset 16
	.cfi_offset 6, -16
	movq	%rsp, %rbp
	.seh_setframe	%rbp, 0
	.cfi_def_cfa_register 6
	subq	$48, %rsp
	.seh_stackalloc	48
	.seh_endprologue
	movq	%rcx, 16(%rbp)
	movq	%rdx, 24(%rbp)
	movq	%r8, 32(%rbp)
	.loc 16 3776 40
	movq	16(%rbp), %rax
	movq	8(%rax), %rax
	.loc 16 3776 50
	testq	%rax, %rax
	je	.L115
	.loc 16 3776 50 is_stmt 0 discriminator 1
	movq	16(%rbp), %rax
	movq	8(%rax), %rax
	jmp	.L116
.L115:
	.loc 16 3776 50 discriminator 2
	movq	24(%rbp), %rax
.L116:
	.loc 16 3776 26 is_stmt 1 discriminator 4
	movq	%rax, -8(%rbp)
	.loc 16 3778 35 discriminator 4
	movq	16(%rbp), %rax
	movq	24(%rax), %rax
	.loc 16 3778 29 discriminator 4
	movq	%rax, %rdx
	movq	-8(%rbp), %rax
	leaq	(%rdx,%rax), %rcx
	.loc 16 3778 35 discriminator 4
	movq	16(%rbp), %rax
	movq	16(%rax), %rax
	andl	$1, %eax
	testq	%rax, %rax
	je	.L117
	.loc 16 3778 35 is_stmt 0 discriminator 1
	movq	16(%rbp), %rax
	movq	24(%rax), %rax
	movq	%rax, %rdx
	movq	-8(%rbp), %rax
	addq	%rdx, %rax
	movq	(%rax), %rdx
	movq	16(%rbp), %rax
	movq	16(%rax), %rax
	subq	$1, %rax
	addq	%rdx, %rax
	movq	(%rax), %rax
	jmp	.L118
.L117:
	.loc 16 3778 35 discriminator 2
	movq	16(%rbp), %rax
	movq	16(%rax), %rax
.L118:
	.loc 16 3778 29 is_stmt 1 discriminator 4
	movq	32(%rbp), %rdx
	call	*%rax
.LVL4:
	.loc 16 3779 1 discriminator 4
	nop
	addq	$48, %rsp
	popq	%rbp
	.cfi_restore 6
	.cfi_def_cfa 7, 8
	ret
	.cfi_endproc
.LFE9740:
	.seh_endproc
	.section	.text$_ZN10wxFontBaseC2Ev,"x"
	.linkonce discard
	.align 2
	.globl	_ZN10wxFontBaseC2Ev
	.def	_ZN10wxFontBaseC2Ev;	.scl	2;	.type	32;	.endef
	.seh_proc	_ZN10wxFontBaseC2Ev
_ZN10wxFontBaseC2Ev:
.LFB9804:
	.file 17 "../wxMSW-3.0.5_gcc810_x64_Dev/include/wx/font.h"
	.loc 17 258 7
	.cfi_startproc
	pushq	%rbp
	.seh_pushreg	%rbp
	.cfi_def_cfa_offset 16
	.cfi_offset 6, -16
	movq	%rsp, %rbp
	.seh_setframe	%rbp, 0
	.cfi_def_cfa_register 6
	subq	$32, %rsp
	.seh_stackalloc	32
	.seh_endprologue
	movq	%rcx, 16(%rbp)
.LBB39:
	.loc 17 258 7
	movq	16(%rbp), %rax
	movq	%rax, %rcx
	call	_ZN11wxGDIObjectC2Ev
	movq	.refptr._ZTV10wxFontBase(%rip), %rax
	leaq	16(%rax), %rdx
	movq	16(%rbp), %rax
	movq	%rdx, (%rax)
.LBE39:
	nop
	addq	$32, %rsp
	popq	%rbp
	.cfi_restore 6
	.cfi_def_cfa 7, 8
	ret
	.cfi_endproc
.LFE9804:
	.seh_endproc
	.section	.text$_ZN6wxFontC1Ev,"x"
	.linkonce discard
	.align 2
	.globl	_ZN6wxFontC1Ev
	.def	_ZN6wxFontC1Ev;	.scl	2;	.type	32;	.endef
	.seh_proc	_ZN6wxFontC1Ev
_ZN6wxFontC1Ev:
.LFB9807:
	.file 18 "../wxMSW-3.0.5_gcc810_x64_Dev/include/wx/msw/font.h"
	.loc 18 24 5
	.cfi_startproc
	pushq	%rbp
	.seh_pushreg	%rbp
	.cfi_def_cfa_offset 16
	.cfi_offset 6, -16
	movq	%rsp, %rbp
	.seh_setframe	%rbp, 0
	.cfi_def_cfa_register 6
	subq	$32, %rsp
	.seh_stackalloc	32
	.seh_endprologue
	movq	%rcx, 16(%rbp)
.LBB40:
	.loc 18 24 14
	movq	16(%rbp), %rax
	movq	%rax, %rcx
	call	_ZN10wxFontBaseC2Ev
	movq	.refptr._ZTV6wxFont(%rip), %rax
	leaq	16(%rax), %rdx
	movq	16(%rbp), %rax
	movq	%rdx, (%rax)
.LBE40:
	.loc 18 24 16
	nop
	addq	$32, %rsp
	popq	%rbp
	.cfi_restore 6
	.cfi_def_cfa 7, 8
	ret
	.cfi_endproc
.LFE9807:
	.seh_endproc
	.section	.text$_ZN6wxFontC1Ei12wxFontFamily11wxFontStyle12wxFontWeightbRK8wxString14wxFontEncoding,"x"
	.linkonce discard
	.align 2
	.globl	_ZN6wxFontC1Ei12wxFontFamily11wxFontStyle12wxFontWeightbRK8wxString14wxFontEncoding
	.def	_ZN6wxFontC1Ei12wxFontFamily11wxFontStyle12wxFontWeightbRK8wxString14wxFontEncoding;	.scl	2;	.type	32;	.endef
	.seh_proc	_ZN6wxFontC1Ei12wxFontFamily11wxFontStyle12wxFontWeightbRK8wxString14wxFontEncoding
_ZN6wxFontC1Ei12wxFontFamily11wxFontStyle12wxFontWeightbRK8wxString14wxFontEncoding:
.LFB9813:
	.loc 18 41 5
	.cfi_startproc
	pushq	%rbp
	.seh_pushreg	%rbp
	.cfi_def_cfa_offset 16
	.cfi_offset 6, -16
	pushq	%rbx
	.seh_pushreg	%rbx
	.cfi_def_cfa_offset 24
	.cfi_offset 3, -24
	subq	$88, %rsp
	.seh_stackalloc	88
	.cfi_def_cfa_offset 112
	leaq	128(%rsp), %rbp
	.seh_setframe	%rbp, 128
	.cfi_def_cfa 6, -16
	.seh_endprologue
	movq	%rcx, -16(%rbp)
	movl	%edx, -8(%rbp)
	movl	%r8d, 0(%rbp)
	movl	%r9d, 8(%rbp)
	movl	24(%rbp), %eax
	movb	%al, -52(%rbp)
.LBB41:
	.loc 18 48 5
	movq	-16(%rbp), %rax
	movq	%rax, %rcx
	call	_ZN10wxFontBaseC2Ev
	movq	.refptr._ZTV6wxFont(%rip), %rax
	leaq	16(%rax), %rdx
	movq	-16(%rbp), %rax
	movq	%rdx, (%rax)
	.loc 18 49 15
	movzbl	-52(%rbp), %eax
	movl	8(%rbp), %r9d
	movl	0(%rbp), %r8d
	movl	-8(%rbp), %edx
	movl	40(%rbp), %ecx
	movl	%ecx, 56(%rsp)
	movq	32(%rbp), %rcx
	movq	%rcx, 48(%rsp)
	movl	%eax, 40(%rsp)
	movl	16(%rbp), %eax
	movl	%eax, 32(%rsp)
	movq	-16(%rbp), %rcx
.LEHB15:
	call	_ZN6wxFont6CreateEi12wxFontFamily11wxFontStyle12wxFontWeightbRK8wxString14wxFontEncoding
.LEHE15:
.LBE41:
	.loc 18 50 5
	jmp	.L124
.L123:
	movq	%rax, %rbx
.LBB42:
	.loc 18 48 5
	movq	-16(%rbp), %rax
	movq	%rax, %rcx
	call	_ZN10wxFontBaseD2Ev
	movq	%rbx, %rax
	movq	%rax, %rcx
.LEHB16:
	call	_Unwind_Resume
	nop
.LEHE16:
.L124:
.LBE42:
	.loc 18 50 5
	addq	$88, %rsp
	popq	%rbx
	.cfi_restore 3
	popq	%rbp
	.cfi_restore 6
	.cfi_def_cfa 7, -72
	ret
	.cfi_endproc
.LFE9813:
	.seh_handler	__gxx_personality_seh0, @unwind, @except
	.seh_handlerdata
.LLSDA9813:
	.byte	0xff
	.byte	0xff
	.byte	0x1
	.uleb128 .LLSDACSE9813-.LLSDACSB9813
.LLSDACSB9813:
	.uleb128 .LEHB15-.LFB9813
	.uleb128 .LEHE15-.LEHB15
	.uleb128 .L123-.LFB9813
	.uleb128 0
	.uleb128 .LEHB16-.LFB9813
	.uleb128 .LEHE16-.LEHB16
	.uleb128 0
	.uleb128 0
.LLSDACSE9813:
	.section	.text$_ZN6wxFontC1Ei12wxFontFamily11wxFontStyle12wxFontWeightbRK8wxString14wxFontEncoding,"x"
	.linkonce discard
	.seh_endproc
	.section	.text$_ZN6wxFont6CreateEi12wxFontFamily11wxFontStyle12wxFontWeightbRK8wxString14wxFontEncoding,"x"
	.linkonce discard
	.align 2
	.globl	_ZN6wxFont6CreateEi12wxFontFamily11wxFontStyle12wxFontWeightbRK8wxString14wxFontEncoding
	.def	_ZN6wxFont6CreateEi12wxFontFamily11wxFontStyle12wxFontWeightbRK8wxString14wxFontEncoding;	.scl	2;	.type	32;	.endef
	.seh_proc	_ZN6wxFont6CreateEi12wxFontFamily11wxFontStyle12wxFontWeightbRK8wxString14wxFontEncoding
_ZN6wxFont6CreateEi12wxFontFamily11wxFontStyle12wxFontWeightbRK8wxString14wxFontEncoding:
.LFB9814:
	.loc 18 52 10
	.cfi_startproc
	pushq	%rbp
	.seh_pushreg	%rbp
	.cfi_def_cfa_offset 16
	.cfi_offset 6, -16
	movq	%rsp, %rbp
	.seh_setframe	%rbp, 0
	.cfi_def_cfa_register 6
	subq	$96, %rsp
	.seh_stackalloc	96
	.seh_endprologue
	movq	%rcx, 16(%rbp)
	movl	%edx, 24(%rbp)
	movl	%r8d, 32(%rbp)
	movl	%r9d, 40(%rbp)
	movl	56(%rbp), %eax
	movb	%al, -4(%rbp)
	.loc 18 60 24
	movzbl	-4(%rbp), %eax
	movl	24(%rbp), %edx
	movl	72(%rbp), %ecx
	movl	%ecx, 72(%rsp)
	movq	64(%rbp), %rcx
	movq	%rcx, 64(%rsp)
	movl	%eax, 56(%rsp)
	movl	48(%rbp), %eax
	movl	%eax, 48(%rsp)
	movl	40(%rbp), %eax
	movl	%eax, 40(%rsp)
	movl	32(%rbp), %eax
	movl	%eax, 32(%rsp)
	movl	$0, %r9d
	movq	.refptr.wxDefaultSize(%rip), %r8
	movq	16(%rbp), %rcx
	call	_ZN6wxFont8DoCreateEiRK6wxSizeb12wxFontFamily11wxFontStyle12wxFontWeightbRK8wxString14wxFontEncoding
	.loc 18 62 5
	addq	$96, %rsp
	popq	%rbp
	.cfi_restore 6
	.cfi_def_cfa 7, 8
	ret
	.cfi_endproc
.LFE9814:
	.seh_endproc
	.section	.text$_Z16wxGetTranslationRK8wxStringS1_,"x"
	.linkonce discard
	.globl	_Z16wxGetTranslationRK8wxStringS1_
	.def	_Z16wxGetTranslationRK8wxStringS1_;	.scl	2;	.type	32;	.endef
	.seh_proc	_Z16wxGetTranslationRK8wxStringS1_
_Z16wxGetTranslationRK8wxStringS1_:
.LFB9939:
	.file 19 "../wxMSW-3.0.5_gcc810_x64_Dev/include/wx/translation.h"
	.loc 19 245 1
	.cfi_startproc
	pushq	%rbp
	.seh_pushreg	%rbp
	.cfi_def_cfa_offset 16
	.cfi_offset 6, -16
	movq	%rsp, %rbp
	.seh_setframe	%rbp, 0
	.cfi_def_cfa_register 6
	subq	$48, %rsp
	.seh_stackalloc	48
	.seh_endprologue
	movq	%rcx, 16(%rbp)
	movq	%rdx, 24(%rbp)
	.loc 19 246 48
	call	_ZN14wxTranslations3GetEv
	movq	%rax, -8(%rbp)
	.loc 19 247 38
	cmpq	$0, -8(%rbp)
	je	.L128
	.loc 19 247 66 discriminator 1
	movq	24(%rbp), %rdx
	movq	-8(%rbp), %rax
	movq	%rdx, %r8
	movq	16(%rbp), %rdx
	movq	%rax, %rcx
	call	_ZNK14wxTranslations19GetTranslatedStringERK8wxStringS2_
	jmp	.L129
.L128:
	.loc 19 247 38 discriminator 2
	movl	$0, %eax
.L129:
	.loc 19 248 39
	movq	%rax, -16(%rbp)
	.loc 19 249 5
	cmpq	$0, -16(%rbp)
	je	.L130
	.loc 19 250 17
	movq	-16(%rbp), %rax
	jmp	.L131
.L130:
	.loc 19 254 57
	movq	16(%rbp), %rcx
	call	_ZN14wxTranslations21GetUntranslatedStringERK8wxString
.L131:
	.loc 19 255 1
	addq	$48, %rsp
	popq	%rbp
	.cfi_restore 6
	.cfi_def_cfa 7, 8
	ret
	.cfi_endproc
.LFE9939:
	.seh_endproc
	.section	.text$_ZN12wxWindowBase7SetNameERK8wxString,"x"
	.linkonce discard
	.align 2
	.globl	_ZN12wxWindowBase7SetNameERK8wxString
	.def	_ZN12wxWindowBase7SetNameERK8wxString;	.scl	2;	.type	32;	.endef
	.seh_proc	_ZN12wxWindowBase7SetNameERK8wxString
_ZN12wxWindowBase7SetNameERK8wxString:
.LFB10133:
	.file 20 "../wxMSW-3.0.5_gcc810_x64_Dev/include/wx/window.h"
	.loc 20 215 18
	.cfi_startproc
	pushq	%rbp
	.seh_pushreg	%rbp
	.cfi_def_cfa_offset 16
	.cfi_offset 6, -16
	movq	%rsp, %rbp
	.seh_setframe	%rbp, 0
	.cfi_def_cfa_register 6
	subq	$32, %rsp
	.seh_stackalloc	32
	.seh_endprologue
	movq	%rcx, 16(%rbp)
	movq	%rdx, 24(%rbp)
	.loc 20 215 67
	movq	16(%rbp), %rax
	addq	$408, %rax
	movq	24(%rbp), %rdx
	movq	%rax, %rcx
	call	_ZN8wxStringaSERKS_
	.loc 20 215 73
	nop
	addq	$32, %rsp
	popq	%rbp
	.cfi_restore 6
	.cfi_def_cfa 7, 8
	ret
	.cfi_endproc
.LFE10133:
	.seh_endproc
	.section	.text$_ZNK12wxWindowBase7GetNameEv,"x"
	.linkonce discard
	.align 2
	.globl	_ZNK12wxWindowBase7GetNameEv
	.def	_ZNK12wxWindowBase7GetNameEv;	.scl	2;	.type	32;	.endef
	.seh_proc	_ZNK12wxWindowBase7GetNameEv
_ZNK12wxWindowBase7GetNameEv:
.LFB10134:
	.loc 20 216 22
	.cfi_startproc
	pushq	%rbp
	.seh_pushreg	%rbp
	.cfi_def_cfa_offset 16
	.cfi_offset 6, -16
	movq	%rsp, %rbp
	.seh_setframe	%rbp, 0
	.cfi_def_cfa_register 6
	subq	$32, %rsp
	.seh_stackalloc	32
	.seh_endprologue
	movq	%rcx, 16(%rbp)
	movq	%rdx, 24(%rbp)
	.loc 20 216 47
	movq	24(%rbp), %rax
	addq	$408, %rax
	movq	%rax, %rdx
	movq	16(%rbp), %rcx
	call	_ZN8wxStringC1ERKS_
	.loc 20 216 61
	movq	16(%rbp), %rax
	addq	$32, %rsp
	popq	%rbp
	.cfi_restore 6
	.cfi_def_cfa 7, 8
	ret
	.cfi_endproc
.LFE10134:
	.seh_endproc
	.section	.text$_ZNK12wxWindowBase16GetWindowVariantEv,"x"
	.linkonce discard
	.align 2
	.globl	_ZNK12wxWindowBase16GetWindowVariantEv
	.def	_ZNK12wxWindowBase16GetWindowVariantEv;	.scl	2;	.type	32;	.endef
	.seh_proc	_ZNK12wxWindowBase16GetWindowVariantEv
_ZNK12wxWindowBase16GetWindowVariantEv:
.LFB10135:
	.loc 20 221 21
	.cfi_startproc
	pushq	%rbp
	.seh_pushreg	%rbp
	.cfi_def_cfa_offset 16
	.cfi_offset 6, -16
	movq	%rsp, %rbp
	.seh_setframe	%rbp, 0
	.cfi_def_cfa_register 6
	.seh_endprologue
	movq	%rcx, 16(%rbp)
	.loc 20 221 55
	movq	16(%rbp), %rax
	movl	504(%rax), %eax
	.loc 20 221 72
	popq	%rbp
	.cfi_restore 6
	.cfi_def_cfa 7, 8
	ret
	.cfi_endproc
.LFE10135:
	.seh_endproc
	.section	.text$_ZN12wxWindowBase13SetClientSizeERK6wxSize,"x"
	.linkonce discard
	.align 2
	.globl	_ZN12wxWindowBase13SetClientSizeERK6wxSize
	.def	_ZN12wxWindowBase13SetClientSizeERK6wxSize;	.scl	2;	.type	32;	.endef
	.seh_proc	_ZN12wxWindowBase13SetClientSizeERK6wxSize
_ZN12wxWindowBase13SetClientSizeERK6wxSize:
.LFB10150:
	.loc 20 293 10
	.cfi_startproc
	pushq	%rbp
	.seh_pushreg	%rbp
	.cfi_def_cfa_offset 16
	.cfi_offset 6, -16
	movq	%rsp, %rbp
	.seh_setframe	%rbp, 0
	.cfi_def_cfa_register 6
	subq	$32, %rsp
	.seh_stackalloc	32
	.seh_endprologue
	movq	%rcx, 16(%rbp)
	movq	%rdx, 24(%rbp)
	.loc 20 294 41
	movq	16(%rbp), %rax
	movq	(%rax), %rax
	addq	$1376, %rax
	movq	(%rax), %rax
	.loc 20 294 40
	movq	24(%rbp), %rdx
	movl	4(%rdx), %ecx
	.loc 20 294 32
	movq	24(%rbp), %rdx
	movl	(%rdx), %edx
	.loc 20 294 26
	movl	%ecx, %r8d
	movq	16(%rbp), %rcx
	call	*%rax
.LVL5:
	.loc 20 294 44
	nop
	addq	$32, %rsp
	popq	%rbp
	.cfi_restore 6
	.cfi_def_cfa 7, 8
	ret
	.cfi_endproc
.LFE10150:
	.seh_endproc
	.section	.text$_ZNK12wxWindowBase13GetClientSizeEv,"x"
	.linkonce discard
	.align 2
	.globl	_ZNK12wxWindowBase13GetClientSizeEv
	.def	_ZNK12wxWindowBase13GetClientSizeEv;	.scl	2;	.type	32;	.endef
	.seh_proc	_ZNK12wxWindowBase13GetClientSizeEv
_ZNK12wxWindowBase13GetClientSizeEv:
.LFB10159:
	.loc 20 332 12
	.cfi_startproc
	pushq	%rbp
	.seh_pushreg	%rbp
	.cfi_def_cfa_offset 16
	.cfi_offset 6, -16
	movq	%rsp, %rbp
	.seh_setframe	%rbp, 0
	.cfi_def_cfa_register 6
	subq	$48, %rsp
	.seh_stackalloc	48
	.seh_endprologue
	movq	%rcx, 16(%rbp)
	.loc 20 335 31
	movq	16(%rbp), %rax
	movq	(%rax), %rax
	addq	$1328, %rax
	movq	(%rax), %r9
	.loc 20 335 24
	leaq	-16(%rbp), %rdx
	leaq	-12(%rbp), %rax
	movq	%rdx, %r8
	movq	%rax, %rdx
	movq	16(%rbp), %rcx
	call	*%r9
.LVL6:
	.loc 20 337 16
	movl	-16(%rbp), %ecx
	movl	-12(%rbp), %edx
	leaq	-8(%rbp), %rax
	movl	%ecx, %r8d
	movq	%rax, %rcx
	call	_ZN6wxSizeC1Eii
	.loc 20 337 27
	movq	-8(%rbp), %rax
	.loc 20 338 5
	addq	$48, %rsp
	popq	%rbp
	.cfi_restore 6
	.cfi_def_cfa 7, 8
	ret
	.cfi_endproc
.LFE10159:
	.seh_endproc
	.section	.text$_ZN12wxWindowBase6CenterEi,"x"
	.linkonce discard
	.align 2
	.globl	_ZN12wxWindowBase6CenterEi
	.def	_ZN12wxWindowBase6CenterEi;	.scl	2;	.type	32;	.endef
	.seh_proc	_ZN12wxWindowBase6CenterEi
_ZN12wxWindowBase6CenterEi:
.LFB10168:
	.loc 20 427 10
	.cfi_startproc
	pushq	%rbp
	.seh_pushreg	%rbp
	.cfi_def_cfa_offset 16
	.cfi_offset 6, -16
	movq	%rsp, %rbp
	.seh_setframe	%rbp, 0
	.cfi_def_cfa_register 6
	subq	$32, %rsp
	.seh_stackalloc	32
	.seh_endprologue
	movq	%rcx, 16(%rbp)
	movl	%edx, 24(%rbp)
	.loc 20 427 49
	movq	16(%rbp), %rax
	movq	(%rax), %rax
	addq	$1408, %rax
	movq	(%rax), %rax
	.loc 20 427 45
	movl	24(%rbp), %edx
	movq	16(%rbp), %rcx
	call	*%rax
.LVL7:
	.loc 20 427 52
	nop
	addq	$32, %rsp
	popq	%rbp
	.cfi_restore 6
	.cfi_def_cfa 7, 8
	ret
	.cfi_endproc
.LFE10168:
	.seh_endproc
	.section	.text$_ZN12wxWindowBase12SetSizeHintsEiiiiii,"x"
	.linkonce discard
	.align 2
	.globl	_ZN12wxWindowBase12SetSizeHintsEiiiiii
	.def	_ZN12wxWindowBase12SetSizeHintsEiiiiii;	.scl	2;	.type	32;	.endef
	.seh_proc	_ZN12wxWindowBase12SetSizeHintsEiiiiii
_ZN12wxWindowBase12SetSizeHintsEiiiiii:
.LFB10171:
	.loc 20 446 18
	.cfi_startproc
	pushq	%rbp
	.seh_pushreg	%rbp
	.cfi_def_cfa_offset 16
	.cfi_offset 6, -16
	movq	%rsp, %rbp
	.seh_setframe	%rbp, 0
	.cfi_def_cfa_register 6
	subq	$64, %rsp
	.seh_stackalloc	64
	.seh_endprologue
	movq	%rcx, 16(%rbp)
	movl	%edx, 24(%rbp)
	movl	%r8d, 32(%rbp)
	movl	%r9d, 40(%rbp)
	.loc 20 449 56
	movq	16(%rbp), %rax
	movq	(%rax), %rax
	addq	$1384, %rax
	movq	(%rax), %rax
	.loc 20 449 21
	movl	40(%rbp), %r9d
	movl	32(%rbp), %r8d
	movl	24(%rbp), %edx
	movl	64(%rbp), %ecx
	movl	%ecx, 48(%rsp)
	movl	56(%rbp), %ecx
	movl	%ecx, 40(%rsp)
	movl	48(%rbp), %ecx
	movl	%ecx, 32(%rsp)
	movq	16(%rbp), %rcx
	call	*%rax
.LVL8:
	.loc 20 449 59
	nop
	addq	$64, %rsp
	popq	%rbp
	.cfi_restore 6
	.cfi_def_cfa 7, 8
	ret
	.cfi_endproc
.LFE10171:
	.seh_endproc
	.section	.text$_ZN12wxWindowBase16SetMinClientSizeERK6wxSize,"x"
	.linkonce discard
	.align 2
	.globl	_ZN12wxWindowBase16SetMinClientSizeERK6wxSize
	.def	_ZN12wxWindowBase16SetMinClientSizeERK6wxSize;	.scl	2;	.type	32;	.endef
	.seh_proc	_ZN12wxWindowBase16SetMinClientSizeERK6wxSize
_ZN12wxWindowBase16SetMinClientSizeERK6wxSize:
.LFB10173:
	.loc 20 473 18
	.cfi_startproc
	pushq	%rbp
	.seh_pushreg	%rbp
	.cfi_def_cfa_offset 16
	.cfi_offset 6, -16
	pushq	%rbx
	.seh_pushreg	%rbx
	.cfi_def_cfa_offset 24
	.cfi_offset 3, -24
	subq	$56, %rsp
	.seh_stackalloc	56
	.cfi_def_cfa_offset 80
	leaq	128(%rsp), %rbp
	.seh_setframe	%rbp, 128
	.cfi_def_cfa 6, -48
	.seh_endprologue
	movq	%rcx, -48(%rbp)
	movq	%rdx, -40(%rbp)
	.loc 20 474 46
	movq	-48(%rbp), %rax
	movq	(%rax), %rax
	addq	$312, %rax
	movq	(%rax), %rbx
	.loc 20 474 45
	movq	-48(%rbp), %rax
	movq	(%rax), %rax
	addq	$256, %rax
	movq	(%rax), %rax
	movq	-40(%rbp), %rdx
	movq	-48(%rbp), %rcx
	call	*%rax
.LVL9:
	movq	%rax, -88(%rbp)
	.loc 20 474 21
	leaq	-88(%rbp), %rax
	movq	%rax, %rdx
	movq	-48(%rbp), %rcx
	call	*%rbx
.LVL10:
	.loc 20 474 49
	nop
	addq	$56, %rsp
	popq	%rbx
	.cfi_restore 3
	popq	%rbp
	.cfi_restore 6
	.cfi_def_cfa 7, -40
	ret
	.cfi_endproc
.LFE10173:
	.seh_endproc
	.section	.text$_ZN12wxWindowBase16SetMaxClientSizeERK6wxSize,"x"
	.linkonce discard
	.align 2
	.globl	_ZN12wxWindowBase16SetMaxClientSizeERK6wxSize
	.def	_ZN12wxWindowBase16SetMaxClientSizeERK6wxSize;	.scl	2;	.type	32;	.endef
	.seh_proc	_ZN12wxWindowBase16SetMaxClientSizeERK6wxSize
_ZN12wxWindowBase16SetMaxClientSizeERK6wxSize:
.LFB10174:
	.loc 20 475 18
	.cfi_startproc
	pushq	%rbp
	.seh_pushreg	%rbp
	.cfi_def_cfa_offset 16
	.cfi_offset 6, -16
	pushq	%rbx
	.seh_pushreg	%rbx
	.cfi_def_cfa_offset 24
	.cfi_offset 3, -24
	subq	$56, %rsp
	.seh_stackalloc	56
	.cfi_def_cfa_offset 80
	leaq	128(%rsp), %rbp
	.seh_setframe	%rbp, 128
	.cfi_def_cfa 6, -48
	.seh_endprologue
	movq	%rcx, -48(%rbp)
	movq	%rdx, -40(%rbp)
	.loc 20 476 46
	movq	-48(%rbp), %rax
	movq	(%rax), %rax
	addq	$320, %rax
	movq	(%rax), %rbx
	.loc 20 476 45
	movq	-48(%rbp), %rax
	movq	(%rax), %rax
	addq	$256, %rax
	movq	(%rax), %rax
	movq	-40(%rbp), %rdx
	movq	-48(%rbp), %rcx
	call	*%rax
.LVL11:
	movq	%rax, -88(%rbp)
	.loc 20 476 21
	leaq	-88(%rbp), %rax
	movq	%rax, %rdx
	movq	-48(%rbp), %rcx
	call	*%rbx
.LVL12:
	.loc 20 476 49
	nop
	addq	$56, %rsp
	popq	%rbx
	.cfi_restore 3
	popq	%rbp
	.cfi_restore 6
	.cfi_def_cfa 7, -40
	ret
	.cfi_endproc
.LFE10174:
	.seh_endproc
	.section	.text$_ZNK12wxWindowBase10GetMinSizeEv,"x"
	.linkonce discard
	.align 2
	.globl	_ZNK12wxWindowBase10GetMinSizeEv
	.def	_ZNK12wxWindowBase10GetMinSizeEv;	.scl	2;	.type	32;	.endef
	.seh_proc	_ZNK12wxWindowBase10GetMinSizeEv
_ZNK12wxWindowBase10GetMinSizeEv:
.LFB10175:
	.loc 20 481 20
	.cfi_startproc
	pushq	%rbp
	.seh_pushreg	%rbp
	.cfi_def_cfa_offset 16
	.cfi_offset 6, -16
	movq	%rsp, %rbp
	.seh_setframe	%rbp, 0
	.cfi_def_cfa_register 6
	subq	$48, %rsp
	.seh_stackalloc	48
	.seh_endprologue
	movq	%rcx, 16(%rbp)
	.loc 20 481 67
	movq	16(%rbp), %rax
	movl	180(%rax), %ecx
	.loc 20 481 55
	movq	16(%rbp), %rax
	movl	176(%rax), %edx
	.loc 20 481 48
	leaq	-8(%rbp), %rax
	movl	%ecx, %r8d
	movq	%rax, %rcx
	call	_ZN6wxSizeC1Eii
	.loc 20 481 78
	movq	-8(%rbp), %rax
	.loc 20 481 81
	addq	$48, %rsp
	popq	%rbp
	.cfi_restore 6
	.cfi_def_cfa 7, 8
	ret
	.cfi_endproc
.LFE10175:
	.seh_endproc
	.section	.text$_ZNK12wxWindowBase10GetMaxSizeEv,"x"
	.linkonce discard
	.align 2
	.globl	_ZNK12wxWindowBase10GetMaxSizeEv
	.def	_ZNK12wxWindowBase10GetMaxSizeEv;	.scl	2;	.type	32;	.endef
	.seh_proc	_ZNK12wxWindowBase10GetMaxSizeEv
_ZNK12wxWindowBase10GetMaxSizeEv:
.LFB10176:
	.loc 20 482 20
	.cfi_startproc
	pushq	%rbp
	.seh_pushreg	%rbp
	.cfi_def_cfa_offset 16
	.cfi_offset 6, -16
	movq	%rsp, %rbp
	.seh_setframe	%rbp, 0
	.cfi_def_cfa_register 6
	subq	$48, %rsp
	.seh_stackalloc	48
	.seh_endprologue
	movq	%rcx, 16(%rbp)
	.loc 20 482 67
	movq	16(%rbp), %rax
	movl	188(%rax), %ecx
	.loc 20 482 55
	movq	16(%rbp), %rax
	movl	184(%rax), %edx
	.loc 20 482 48
	leaq	-8(%rbp), %rax
	movl	%ecx, %r8d
	movq	%rax, %rcx
	call	_ZN6wxSizeC1Eii
	.loc 20 482 78
	movq	-8(%rbp), %rax
	.loc 20 482 81
	addq	$48, %rsp
	popq	%rbp
	.cfi_restore 6
	.cfi_def_cfa 7, 8
	ret
	.cfi_endproc
.LFE10176:
	.seh_endproc
	.section	.text$_ZNK12wxWindowBase16GetMinClientSizeEv,"x"
	.linkonce discard
	.align 2
	.globl	_ZNK12wxWindowBase16GetMinClientSizeEv
	.def	_ZNK12wxWindowBase16GetMinClientSizeEv;	.scl	2;	.type	32;	.endef
	.seh_proc	_ZNK12wxWindowBase16GetMinClientSizeEv
_ZNK12wxWindowBase16GetMinClientSizeEv:
.LFB10177:
	.loc 20 485 20
	.cfi_startproc
	pushq	%rbp
	.seh_pushreg	%rbp
	.cfi_def_cfa_offset 16
	.cfi_offset 6, -16
	pushq	%rbx
	.seh_pushreg	%rbx
	.cfi_def_cfa_offset 24
	.cfi_offset 3, -24
	subq	$56, %rsp
	.seh_stackalloc	56
	.cfi_def_cfa_offset 80
	leaq	128(%rsp), %rbp
	.seh_setframe	%rbp, 128
	.cfi_def_cfa 6, -48
	.seh_endprologue
	movq	%rcx, -48(%rbp)
	.loc 20 486 49
	movq	-48(%rbp), %rax
	movq	(%rax), %rax
	addq	$264, %rax
	movq	(%rax), %rbx
	.loc 20 486 48
	movq	-48(%rbp), %rax
	movq	(%rax), %rax
	addq	$344, %rax
	movq	(%rax), %rax
	movq	-48(%rbp), %rcx
	call	*%rax
.LVL13:
	movq	%rax, -88(%rbp)
	.loc 20 486 49
	leaq	-88(%rbp), %rax
	movq	%rax, %rdx
	movq	-48(%rbp), %rcx
	call	*%rbx
.LVL14:
	.loc 20 486 52
	addq	$56, %rsp
	popq	%rbx
	.cfi_restore 3
	popq	%rbp
	.cfi_restore 6
	.cfi_def_cfa 7, -40
	ret
	.cfi_endproc
.LFE10177:
	.seh_endproc
	.section	.text$_ZNK12wxWindowBase16GetMaxClientSizeEv,"x"
	.linkonce discard
	.align 2
	.globl	_ZNK12wxWindowBase16GetMaxClientSizeEv
	.def	_ZNK12wxWindowBase16GetMaxClientSizeEv;	.scl	2;	.type	32;	.endef
	.seh_proc	_ZNK12wxWindowBase16GetMaxClientSizeEv
_ZNK12wxWindowBase16GetMaxClientSizeEv:
.LFB10178:
	.loc 20 487 20
	.cfi_startproc
	pushq	%rbp
	.seh_pushreg	%rbp
	.cfi_def_cfa_offset 16
	.cfi_offset 6, -16
	pushq	%rbx
	.seh_pushreg	%rbx
	.cfi_def_cfa_offset 24
	.cfi_offset 3, -24
	subq	$56, %rsp
	.seh_stackalloc	56
	.cfi_def_cfa_offset 80
	leaq	128(%rsp), %rbp
	.seh_setframe	%rbp, 128
	.cfi_def_cfa 6, -48
	.seh_endprologue
	movq	%rcx, -48(%rbp)
	.loc 20 488 49
	movq	-48(%rbp), %rax
	movq	(%rax), %rax
	addq	$264, %rax
	movq	(%rax), %rbx
	.loc 20 488 48
	movq	-48(%rbp), %rax
	movq	(%rax), %rax
	addq	$352, %rax
	movq	(%rax), %rax
	movq	-48(%rbp), %rcx
	call	*%rax
.LVL15:
	movq	%rax, -88(%rbp)
	.loc 20 488 49
	leaq	-88(%rbp), %rax
	movq	%rax, %rdx
	movq	-48(%rbp), %rcx
	call	*%rbx
.LVL16:
	.loc 20 488 52
	addq	$56, %rsp
	popq	%rbx
	.cfi_restore 3
	popq	%rbp
	.cfi_restore 6
	.cfi_def_cfa 7, -40
	ret
	.cfi_endproc
.LFE10178:
	.seh_endproc
	.section	.text$_ZNK12wxWindowBase18GetBestVirtualSizeEv,"x"
	.linkonce discard
	.align 2
	.globl	_ZNK12wxWindowBase18GetBestVirtualSizeEv
	.def	_ZNK12wxWindowBase18GetBestVirtualSizeEv;	.scl	2;	.type	32;	.endef
	.seh_proc	_ZNK12wxWindowBase18GetBestVirtualSizeEv
_ZNK12wxWindowBase18GetBestVirtualSizeEv:
.LFB10187:
	.loc 20 527 20
	.cfi_startproc
	pushq	%rbp
	.seh_pushreg	%rbp
	.cfi_def_cfa_offset 16
	.cfi_offset 6, -16
	pushq	%rbx
	.seh_pushreg	%rbx
	.cfi_def_cfa_offset 24
	.cfi_offset 3, -24
	subq	$72, %rsp
	.seh_stackalloc	72
	.cfi_def_cfa_offset 96
	leaq	128(%rsp), %rbp
	.seh_setframe	%rbp, 128
	.cfi_def_cfa 6, -32
	.seh_endprologue
	movq	%rcx, -32(%rbp)
	.loc 20 529 38
	movq	-32(%rbp), %rcx
	call	_ZNK12wxWindowBase13GetClientSizeEv
	movq	%rax, -80(%rbp)
	.loc 20 530 34
	movq	-32(%rbp), %rcx
	call	_ZNK12wxWindowBase11GetBestSizeEv
	movq	%rax, -88(%rbp)
	.loc 20 532 16
	movl	-84(%rbp), %edx
	movl	-76(%rbp), %eax
	movl	%eax, %ecx
	call	_Z5wxMaxIiiEN24wxImplicitConversionTypeIT_T0_E5valueES1_S2_
	movl	%eax, %ebx
	movl	-88(%rbp), %edx
	movl	-80(%rbp), %eax
	movl	%eax, %ecx
	call	_Z5wxMaxIiiEN24wxImplicitConversionTypeIT_T0_E5valueES1_S2_
	movl	%eax, %edx
	leaq	-72(%rbp), %rax
	movl	%ebx, %r8d
	movq	%rax, %rcx
	call	_ZN6wxSizeC1Eii
	.loc 20 532 77
	movq	-72(%rbp), %rax
	.loc 20 533 5
	addq	$72, %rsp
	popq	%rbx
	.cfi_restore 3
	popq	%rbp
	.cfi_restore 6
	.cfi_def_cfa 7, -56
	ret
	.cfi_endproc
.LFE10187:
	.seh_endproc
	.section	.text$_ZNK12wxWindowBase21GetContentScaleFactorEv,"x"
	.linkonce discard
	.align 2
	.globl	_ZNK12wxWindowBase21GetContentScaleFactorEv
	.def	_ZNK12wxWindowBase21GetContentScaleFactorEv;	.scl	2;	.type	32;	.endef
	.seh_proc	_ZNK12wxWindowBase21GetContentScaleFactorEv
_ZNK12wxWindowBase21GetContentScaleFactorEv:
.LFB10188:
	.loc 20 537 20
	.cfi_startproc
	pushq	%rbp
	.seh_pushreg	%rbp
	.cfi_def_cfa_offset 16
	.cfi_offset 6, -16
	movq	%rsp, %rbp
	.seh_setframe	%rbp, 0
	.cfi_def_cfa_register 6
	.seh_endprologue
	movq	%rcx, 16(%rbp)
	.loc 20 538 14
	movsd	.LC4(%rip), %xmm0
	movq	%xmm0, %rax
	.loc 20 538 19
	movq	%rax, %xmm0
	popq	%rbp
	.cfi_restore 6
	.cfi_def_cfa 7, 8
	ret
	.cfi_endproc
.LFE10188:
	.seh_endproc
	.section	.text$_ZNK12wxWindowBase7IsShownEv,"x"
	.linkonce discard
	.align 2
	.globl	_ZNK12wxWindowBase7IsShownEv
	.def	_ZNK12wxWindowBase7IsShownEv;	.scl	2;	.type	32;	.endef
	.seh_proc	_ZNK12wxWindowBase7IsShownEv
_ZNK12wxWindowBase7IsShownEv:
.LFB10203:
	.loc 20 641 18
	.cfi_startproc
	pushq	%rbp
	.seh_pushreg	%rbp
	.cfi_def_cfa_offset 16
	.cfi_offset 6, -16
	movq	%rsp, %rbp
	.seh_setframe	%rbp, 0
	.cfi_def_cfa_register 6
	.seh_endprologue
	movq	%rcx, 16(%rbp)
	.loc 20 641 43
	movq	16(%rbp), %rax
	movzbl	392(%rax), %eax
	shrb	%al
	andl	$1, %eax
	.loc 20 641 54
	popq	%rbp
	.cfi_restore 6
	.cfi_def_cfa 7, 8
	ret
	.cfi_endproc
.LFE10203:
	.seh_endproc
	.section	.text$_ZNK12wxWindowBase18GetWindowStyleFlagEv,"x"
	.linkonce discard
	.align 2
	.globl	_ZNK12wxWindowBase18GetWindowStyleFlagEv
	.def	_ZNK12wxWindowBase18GetWindowStyleFlagEv;	.scl	2;	.type	32;	.endef
	.seh_proc	_ZNK12wxWindowBase18GetWindowStyleFlagEv
_ZNK12wxWindowBase18GetWindowStyleFlagEv:
.LFB10206:
	.loc 20 665 18
	.cfi_startproc
	pushq	%rbp
	.seh_pushreg	%rbp
	.cfi_def_cfa_offset 16
	.cfi_offset 6, -16
	movq	%rsp, %rbp
	.seh_setframe	%rbp, 0
	.cfi_def_cfa_register 6
	.seh_endprologue
	movq	%rcx, 16(%rbp)
	.loc 20 665 54
	movq	16(%rbp), %rax
	movl	396(%rax), %eax
	.loc 20 665 69
	popq	%rbp
	.cfi_restore 6
	.cfi_def_cfa 7, 8
	ret
	.cfi_endproc
.LFE10206:
	.seh_endproc
	.section	.text$_ZNK12wxWindowBase7HasFlagEi,"x"
	.linkonce discard
	.align 2
	.globl	_ZNK12wxWindowBase7HasFlagEi
	.def	_ZNK12wxWindowBase7HasFlagEi;	.scl	2;	.type	32;	.endef
	.seh_proc	_ZNK12wxWindowBase7HasFlagEi
_ZNK12wxWindowBase7HasFlagEi:
.LFB10209:
	.loc 20 672 10
	.cfi_startproc
	pushq	%rbp
	.seh_pushreg	%rbp
	.cfi_def_cfa_offset 16
	.cfi_offset 6, -16
	movq	%rsp, %rbp
	.seh_setframe	%rbp, 0
	.cfi_def_cfa_register 6
	.seh_endprologue
	movq	%rcx, 16(%rbp)
	movl	%edx, 24(%rbp)
	.loc 20 672 44
	movq	16(%rbp), %rax
	movl	396(%rax), %eax
	.loc 20 672 58
	andl	24(%rbp), %eax
	.loc 20 672 69
	testl	%eax, %eax
	setne	%al
	.loc 20 672 72
	popq	%rbp
	.cfi_restore 6
	.cfi_def_cfa 7, 8
	ret
	.cfi_endproc
.LFE10209:
	.seh_endproc
	.section	.text$_ZNK12wxWindowBase10IsRetainedEv,"x"
	.linkonce discard
	.align 2
	.globl	_ZNK12wxWindowBase10IsRetainedEv
	.def	_ZNK12wxWindowBase10IsRetainedEv;	.scl	2;	.type	32;	.endef
	.seh_proc	_ZNK12wxWindowBase10IsRetainedEv
_ZNK12wxWindowBase10IsRetainedEv:
.LFB10210:
	.loc 20 673 18
	.cfi_startproc
	pushq	%rbp
	.seh_pushreg	%rbp
	.cfi_def_cfa_offset 16
	.cfi_offset 6, -16
	movq	%rsp, %rbp
	.seh_setframe	%rbp, 0
	.cfi_def_cfa_register 6
	subq	$32, %rsp
	.seh_stackalloc	32
	.seh_endprologue
	movq	%rcx, 16(%rbp)
	.loc 20 673 53
	movl	$0, %edx
	movq	16(%rbp), %rcx
	call	_ZNK12wxWindowBase7HasFlagEi
	.loc 20 673 67
	addq	$32, %rsp
	popq	%rbp
	.cfi_restore 6
	.cfi_def_cfa 7, 8
	ret
	.cfi_endproc
.LFE10210:
	.seh_endproc
	.section	.text$_ZN12wxWindowBase15SetThemeEnabledEb,"x"
	.linkonce discard
	.align 2
	.globl	_ZN12wxWindowBase15SetThemeEnabledEb
	.def	_ZN12wxWindowBase15SetThemeEnabledEb;	.scl	2;	.type	32;	.endef
	.seh_proc	_ZN12wxWindowBase15SetThemeEnabledEb
_ZN12wxWindowBase15SetThemeEnabledEb:
.LFB10214:
	.loc 20 694 18
	.cfi_startproc
	pushq	%rbp
	.seh_pushreg	%rbp
	.cfi_def_cfa_offset 16
	.cfi_offset 6, -16
	movq	%rsp, %rbp
	.seh_setframe	%rbp, 0
	.cfi_def_cfa_register 6
	.seh_endprologue
	movq	%rcx, 16(%rbp)
	movl	%edx, %eax
	movb	%al, 24(%rbp)
	.loc 20 694 69
	movq	16(%rbp), %rdx
	movzbl	24(%rbp), %eax
	movb	%al, 456(%rdx)
	.loc 20 694 84
	nop
	popq	%rbp
	.cfi_restore 6
	.cfi_def_cfa 7, 8
	ret
	.cfi_endproc
.LFE10214:
	.seh_endproc
	.section	.text$_ZNK12wxWindowBase15GetThemeEnabledEv,"x"
	.linkonce discard
	.align 2
	.globl	_ZNK12wxWindowBase15GetThemeEnabledEv
	.def	_ZNK12wxWindowBase15GetThemeEnabledEv;	.scl	2;	.type	32;	.endef
	.seh_proc	_ZNK12wxWindowBase15GetThemeEnabledEv
_ZNK12wxWindowBase15GetThemeEnabledEv:
.LFB10215:
	.loc 20 695 18
	.cfi_startproc
	pushq	%rbp
	.seh_pushreg	%rbp
	.cfi_def_cfa_offset 16
	.cfi_offset 6, -16
	movq	%rsp, %rbp
	.seh_setframe	%rbp, 0
	.cfi_def_cfa_register 6
	.seh_endprologue
	movq	%rcx, 16(%rbp)
	.loc 20 695 51
	movq	16(%rbp), %rax
	movzbl	456(%rax), %eax
	.loc 20 695 67
	popq	%rbp
	.cfi_restore 6
	.cfi_def_cfa 7, 8
	ret
	.cfi_endproc
.LFE10215:
	.seh_endproc
	.section	.text$_ZNK12wxWindowBase12AcceptsFocusEv,"x"
	.linkonce discard
	.align 2
	.globl	_ZNK12wxWindowBase12AcceptsFocusEv
	.def	_ZNK12wxWindowBase12AcceptsFocusEv;	.scl	2;	.type	32;	.endef
	.seh_proc	_ZNK12wxWindowBase12AcceptsFocusEv
_ZNK12wxWindowBase12AcceptsFocusEv:
.LFB10217:
	.loc 20 724 18
	.cfi_startproc
	pushq	%rbp
	.seh_pushreg	%rbp
	.cfi_def_cfa_offset 16
	.cfi_offset 6, -16
	movq	%rsp, %rbp
	.seh_setframe	%rbp, 0
	.cfi_def_cfa_register 6
	.seh_endprologue
	movq	%rcx, 16(%rbp)
	.loc 20 724 48
	movl	$1, %eax
	.loc 20 724 54
	popq	%rbp
	.cfi_restore 6
	.cfi_def_cfa 7, 8
	ret
	.cfi_endproc
.LFE10217:
	.seh_endproc
	.section	.text$_ZNK12wxWindowBase23AcceptsFocusRecursivelyEv,"x"
	.linkonce discard
	.align 2
	.globl	_ZNK12wxWindowBase23AcceptsFocusRecursivelyEv
	.def	_ZNK12wxWindowBase23AcceptsFocusRecursivelyEv;	.scl	2;	.type	32;	.endef
	.seh_proc	_ZNK12wxWindowBase23AcceptsFocusRecursivelyEv
_ZNK12wxWindowBase23AcceptsFocusRecursivelyEv:
.LFB10218:
	.loc 20 730 18
	.cfi_startproc
	pushq	%rbp
	.seh_pushreg	%rbp
	.cfi_def_cfa_offset 16
	.cfi_offset 6, -16
	movq	%rsp, %rbp
	.seh_setframe	%rbp, 0
	.cfi_def_cfa_register 6
	subq	$32, %rsp
	.seh_stackalloc	32
	.seh_endprologue
	movq	%rcx, 16(%rbp)
	.loc 20 730 72
	movq	16(%rbp), %rax
	movq	(%rax), %rax
	addq	$576, %rax
	movq	(%rax), %rax
	.loc 20 730 71
	movq	16(%rbp), %rcx
	call	*%rax
.LVL17:
	.loc 20 730 75
	addq	$32, %rsp
	popq	%rbp
	.cfi_restore 6
	.cfi_def_cfa 7, 8
	ret
	.cfi_endproc
.LFE10218:
	.seh_endproc
	.section	.text$_ZNK12wxWindowBase24AcceptsFocusFromKeyboardEv,"x"
	.linkonce discard
	.align 2
	.globl	_ZNK12wxWindowBase24AcceptsFocusFromKeyboardEv
	.def	_ZNK12wxWindowBase24AcceptsFocusFromKeyboardEv;	.scl	2;	.type	32;	.endef
	.seh_proc	_ZNK12wxWindowBase24AcceptsFocusFromKeyboardEv
_ZNK12wxWindowBase24AcceptsFocusFromKeyboardEv:
.LFB10219:
	.loc 20 735 18
	.cfi_startproc
	pushq	%rbp
	.seh_pushreg	%rbp
	.cfi_def_cfa_offset 16
	.cfi_offset 6, -16
	movq	%rsp, %rbp
	.seh_setframe	%rbp, 0
	.cfi_def_cfa_register 6
	subq	$32, %rsp
	.seh_stackalloc	32
	.seh_endprologue
	movq	%rcx, 16(%rbp)
	.loc 20 735 73
	movq	16(%rbp), %rax
	movq	(%rax), %rax
	addq	$576, %rax
	movq	(%rax), %rax
	.loc 20 735 72
	movq	16(%rbp), %rcx
	call	*%rax
.LVL18:
	.loc 20 735 76
	addq	$32, %rsp
	popq	%rbp
	.cfi_restore 6
	.cfi_def_cfa 7, 8
	ret
	.cfi_endproc
.LFE10219:
	.seh_endproc
	.section	.text$_ZNK12wxWindowBase12CanBeFocusedEv,"x"
	.linkonce discard
	.align 2
	.globl	_ZNK12wxWindowBase12CanBeFocusedEv
	.def	_ZNK12wxWindowBase12CanBeFocusedEv;	.scl	2;	.type	32;	.endef
	.seh_proc	_ZNK12wxWindowBase12CanBeFocusedEv
_ZNK12wxWindowBase12CanBeFocusedEv:
.LFB10220:
	.loc 20 744 18
	.cfi_startproc
	pushq	%rbp
	.seh_pushreg	%rbp
	.cfi_def_cfa_offset 16
	.cfi_offset 6, -16
	movq	%rsp, %rbp
	.seh_setframe	%rbp, 0
	.cfi_def_cfa_register 6
	subq	$32, %rsp
	.seh_stackalloc	32
	.seh_endprologue
	movq	%rcx, 16(%rbp)
	.loc 20 744 56
	movq	16(%rbp), %rax
	movq	(%rax), %rax
	addq	$480, %rax
	movq	(%rax), %rax
	.loc 20 744 55
	movq	16(%rbp), %rcx
	call	*%rax
.LVL19:
	.loc 20 744 58
	testb	%al, %al
	je	.L174
	.loc 20 744 70 discriminator 1
	movq	16(%rbp), %rcx
	call	_ZNK12wxWindowBase9IsEnabledEv
	.loc 20 744 58 discriminator 1
	testb	%al, %al
	je	.L174
	.loc 20 744 58 is_stmt 0 discriminator 3
	movl	$1, %eax
	jmp	.L175
.L174:
	.loc 20 744 58 discriminator 4
	movl	$0, %eax
.L175:
	.loc 20 744 74 is_stmt 1 discriminator 6
	addq	$32, %rsp
	popq	%rbp
	.cfi_restore 6
	.cfi_def_cfa 7, 8
	ret
	.cfi_endproc
.LFE10220:
	.seh_endproc
	.section	.text$_ZN12wxWindowBase11SetCanFocusEb,"x"
	.linkonce discard
	.align 2
	.globl	_ZN12wxWindowBase11SetCanFocusEb
	.def	_ZN12wxWindowBase11SetCanFocusEb;	.scl	2;	.type	32;	.endef
	.seh_proc	_ZN12wxWindowBase11SetCanFocusEb
_ZN12wxWindowBase11SetCanFocusEb:
.LFB10224:
	.loc 20 762 18
	.cfi_startproc
	pushq	%rbp
	.seh_pushreg	%rbp
	.cfi_def_cfa_offset 16
	.cfi_offset 6, -16
	movq	%rsp, %rbp
	.seh_setframe	%rbp, 0
	.cfi_def_cfa_register 6
	.seh_endprologue
	movq	%rcx, 16(%rbp)
	movl	%edx, %eax
	movb	%al, 24(%rbp)
	.loc 20 762 39
	nop
	popq	%rbp
	.cfi_restore 6
	.cfi_def_cfa 7, 8
	ret
	.cfi_endproc
.LFE10224:
	.seh_endproc
	.section	.text$_ZNK12wxWindowBase17IsClientAreaChildEPK8wxWindow,"x"
	.linkonce discard
	.align 2
	.globl	_ZNK12wxWindowBase17IsClientAreaChildEPK8wxWindow
	.def	_ZNK12wxWindowBase17IsClientAreaChildEPK8wxWindow;	.scl	2;	.type	32;	.endef
	.seh_proc	_ZNK12wxWindowBase17IsClientAreaChildEPK8wxWindow
_ZNK12wxWindowBase17IsClientAreaChildEPK8wxWindow:
.LFB10235:
	.loc 20 824 18
	.cfi_startproc
	pushq	%rbp
	.seh_pushreg	%rbp
	.cfi_def_cfa_offset 16
	.cfi_offset 6, -16
	movq	%rsp, %rbp
	.seh_setframe	%rbp, 0
	.cfi_def_cfa_register 6
	.seh_endprologue
	movq	%rcx, 16(%rbp)
	movq	%rdx, 24(%rbp)
	.loc 20 825 18
	movl	$1, %eax
	.loc 20 825 24
	popq	%rbp
	.cfi_restore 6
	.cfi_def_cfa 7, 8
	ret
	.cfi_endproc
.LFE10235:
	.seh_endproc
	.section	.text$_ZN12wxWindowBase12GetValidatorEv,"x"
	.linkonce discard
	.align 2
	.globl	_ZN12wxWindowBase12GetValidatorEv
	.def	_ZN12wxWindowBase12GetValidatorEv;	.scl	2;	.type	32;	.endef
	.seh_proc	_ZN12wxWindowBase12GetValidatorEv
_ZN12wxWindowBase12GetValidatorEv:
.LFB10239:
	.loc 20 924 26
	.cfi_startproc
	pushq	%rbp
	.seh_pushreg	%rbp
	.cfi_def_cfa_offset 16
	.cfi_offset 6, -16
	movq	%rsp, %rbp
	.seh_setframe	%rbp, 0
	.cfi_def_cfa_register 6
	.seh_endprologue
	movq	%rcx, 16(%rbp)
	.loc 20 924 50
	movq	16(%rbp), %rax
	movq	200(%rax), %rax
	.loc 20 924 69
	popq	%rbp
	.cfi_restore 6
	.cfi_def_cfa 7, 8
	ret
	.cfi_endproc
.LFE10239:
	.seh_endproc
	.section	.text$_ZN18wxAcceleratorTableaSERKS_,"x"
	.linkonce discard
	.align 2
	.globl	_ZN18wxAcceleratorTableaSERKS_
	.def	_ZN18wxAcceleratorTableaSERKS_;	.scl	2;	.type	32;	.endef
	.seh_proc	_ZN18wxAcceleratorTableaSERKS_
_ZN18wxAcceleratorTableaSERKS_:
.LFB10241:
	.file 21 "../wxMSW-3.0.5_gcc810_x64_Dev/include/wx/msw/accel.h"
	.loc 21 20 7
	.cfi_startproc
	pushq	%rbp
	.seh_pushreg	%rbp
	.cfi_def_cfa_offset 16
	.cfi_offset 6, -16
	movq	%rsp, %rbp
	.seh_setframe	%rbp, 0
	.cfi_def_cfa_register 6
	subq	$32, %rsp
	.seh_stackalloc	32
	.seh_endprologue
	movq	%rcx, 16(%rbp)
	movq	%rdx, 24(%rbp)
	.loc 21 20 7
	movq	16(%rbp), %rax
	movq	24(%rbp), %rdx
	movq	%rax, %rcx
	call	_ZN8wxObjectaSERKS_
	movq	16(%rbp), %rax
	addq	$32, %rsp
	popq	%rbp
	.cfi_restore 6
	.cfi_def_cfa 7, 8
	ret
	.cfi_endproc
.LFE10241:
	.seh_endproc
	.section	.text$_ZN12wxWindowBase19SetAcceleratorTableERK18wxAcceleratorTable,"x"
	.linkonce discard
	.align 2
	.globl	_ZN12wxWindowBase19SetAcceleratorTableERK18wxAcceleratorTable
	.def	_ZN12wxWindowBase19SetAcceleratorTableERK18wxAcceleratorTable;	.scl	2;	.type	32;	.endef
	.seh_proc	_ZN12wxWindowBase19SetAcceleratorTableERK18wxAcceleratorTable
_ZN12wxWindowBase19SetAcceleratorTableERK18wxAcceleratorTable:
.LFB10240:
	.loc 20 943 18
	.cfi_startproc
	pushq	%rbp
	.seh_pushreg	%rbp
	.cfi_def_cfa_offset 16
	.cfi_offset 6, -16
	movq	%rsp, %rbp
	.seh_setframe	%rbp, 0
	.cfi_def_cfa_register 6
	subq	$32, %rsp
	.seh_stackalloc	32
	.seh_endprologue
	movq	%rcx, 16(%rbp)
	movq	%rdx, 24(%rbp)
	.loc 20 944 32
	movq	16(%rbp), %rax
	addq	$336, %rax
	movq	24(%rbp), %rdx
	movq	%rax, %rcx
	call	_ZN18wxAcceleratorTableaSERKS_
	.loc 20 944 39
	nop
	addq	$32, %rsp
	popq	%rbp
	.cfi_restore 6
	.cfi_def_cfa 7, 8
	ret
	.cfi_endproc
.LFE10240:
	.seh_endproc
	.section	.text$_ZNK12wxWindowBase10HasCaptureEv,"x"
	.linkonce discard
	.align 2
	.globl	_ZNK12wxWindowBase10HasCaptureEv
	.def	_ZNK12wxWindowBase10HasCaptureEv;	.scl	2;	.type	32;	.endef
	.seh_proc	_ZNK12wxWindowBase10HasCaptureEv
_ZNK12wxWindowBase10HasCaptureEv:
.LFB10245:
	.loc 20 995 18
	.cfi_startproc
	pushq	%rbp
	.seh_pushreg	%rbp
	.cfi_def_cfa_offset 16
	.cfi_offset 6, -16
	movq	%rsp, %rbp
	.seh_setframe	%rbp, 0
	.cfi_def_cfa_register 6
	subq	$32, %rsp
	.seh_stackalloc	32
	.seh_endprologue
	movq	%rcx, 16(%rbp)
	.loc 20 996 48
	call	_ZN12wxWindowBase10GetCaptureEv
	.loc 20 996 49
	cmpq	%rax, 16(%rbp)
	sete	%al
	.loc 20 996 52
	addq	$32, %rsp
	popq	%rbp
	.cfi_restore 6
	.cfi_def_cfa 7, 8
	ret
	.cfi_endproc
.LFE10245:
	.seh_endproc
	.section	.text$_ZN12wxWindowBase9PrepareDCER4wxDC,"x"
	.linkonce discard
	.align 2
	.globl	_ZN12wxWindowBase9PrepareDCER4wxDC
	.def	_ZN12wxWindowBase9PrepareDCER4wxDC;	.scl	2;	.type	32;	.endef
	.seh_proc	_ZN12wxWindowBase9PrepareDCER4wxDC
_ZN12wxWindowBase9PrepareDCER4wxDC:
.LFB10249:
	.loc 20 1028 18
	.cfi_startproc
	pushq	%rbp
	.seh_pushreg	%rbp
	.cfi_def_cfa_offset 16
	.cfi_offset 6, -16
	movq	%rsp, %rbp
	.seh_setframe	%rbp, 0
	.cfi_def_cfa_register 6
	.seh_endprologue
	movq	%rcx, 16(%rbp)
	movq	%rdx, 24(%rbp)
	.loc 20 1028 40
	nop
	popq	%rbp
	.cfi_restore 6
	.cfi_def_cfa 7, 8
	ret
	.cfi_endproc
.LFE10249:
	.seh_endproc
	.section	.text$_ZNK12wxWindowBase20GetDefaultAttributesEv,"x"
	.linkonce discard
	.align 2
	.globl	_ZNK12wxWindowBase20GetDefaultAttributesEv
	.def	_ZNK12wxWindowBase20GetDefaultAttributesEv;	.scl	2;	.type	32;	.endef
	.seh_proc	_ZNK12wxWindowBase20GetDefaultAttributesEv
_ZNK12wxWindowBase20GetDefaultAttributesEv:
.LFB10257:
	.loc 20 1065 32
	.cfi_startproc
	pushq	%rbp
	.seh_pushreg	%rbp
	.cfi_def_cfa_offset 16
	.cfi_offset 6, -16
	movq	%rsp, %rbp
	.seh_setframe	%rbp, 0
	.cfi_def_cfa_register 6
	subq	$32, %rsp
	.seh_stackalloc	32
	.seh_endprologue
	movq	%rcx, 16(%rbp)
	movq	%rdx, 24(%rbp)
	.loc 20 1067 60
	movq	24(%rbp), %rax
	movq	%rax, %rcx
	call	_ZNK12wxWindowBase16GetWindowVariantEv
	movl	%eax, %edx
	movq	16(%rbp), %rax
	movq	%rax, %rcx
	call	_ZN12wxWindowBase25GetClassDefaultAttributesE15wxWindowVariant
	.loc 20 1068 5
	movq	16(%rbp), %rax
	addq	$32, %rsp
	popq	%rbp
	.cfi_restore 6
	.cfi_def_cfa 7, 8
	ret
	.cfi_endproc
.LFE10257:
	.seh_endproc
	.section	.text$_ZNK12wxWindowBase24InheritsBackgroundColourEv,"x"
	.linkonce discard
	.align 2
	.globl	_ZNK12wxWindowBase24InheritsBackgroundColourEv
	.def	_ZNK12wxWindowBase24InheritsBackgroundColourEv;	.scl	2;	.type	32;	.endef
	.seh_proc	_ZNK12wxWindowBase24InheritsBackgroundColourEv
_ZNK12wxWindowBase24InheritsBackgroundColourEv:
.LFB10271:
	.loc 20 1084 10
	.cfi_startproc
	pushq	%rbp
	.seh_pushreg	%rbp
	.cfi_def_cfa_offset 16
	.cfi_offset 6, -16
	movq	%rsp, %rbp
	.seh_setframe	%rbp, 0
	.cfi_def_cfa_register 6
	.seh_endprologue
	movq	%rcx, 16(%rbp)
	.loc 20 1086 16
	movq	16(%rbp), %rax
	movzbl	392(%rax), %eax
	shrb	$7, %al
	.loc 20 1087 5
	popq	%rbp
	.cfi_restore 6
	.cfi_def_cfa 7, 8
	ret
	.cfi_endproc
.LFE10271:
	.seh_endproc
	.section	.text$_ZN12wxWindowBase24HasTransparentBackgroundEv,"x"
	.linkonce discard
	.align 2
	.globl	_ZN12wxWindowBase24HasTransparentBackgroundEv
	.def	_ZN12wxWindowBase24HasTransparentBackgroundEv;	.scl	2;	.type	32;	.endef
	.seh_proc	_ZN12wxWindowBase24HasTransparentBackgroundEv
_ZN12wxWindowBase24HasTransparentBackgroundEv:
.LFB10275:
	.loc 20 1109 18
	.cfi_startproc
	pushq	%rbp
	.seh_pushreg	%rbp
	.cfi_def_cfa_offset 16
	.cfi_offset 6, -16
	movq	%rsp, %rbp
	.seh_setframe	%rbp, 0
	.cfi_def_cfa_register 6
	.seh_endprologue
	movq	%rcx, 16(%rbp)
	.loc 20 1109 54
	movl	$0, %eax
	.loc 20 1109 61
	popq	%rbp
	.cfi_restore 6
	.cfi_def_cfa 7, 8
	ret
	.cfi_endproc
.LFE10275:
	.seh_endproc
	.section	.text$_ZNK12wxWindowBase16HasMultiplePagesEv,"x"
	.linkonce discard
	.align 2
	.globl	_ZNK12wxWindowBase16HasMultiplePagesEv
	.def	_ZNK12wxWindowBase16HasMultiplePagesEv;	.scl	2;	.type	32;	.endef
	.seh_proc	_ZNK12wxWindowBase16HasMultiplePagesEv
_ZNK12wxWindowBase16HasMultiplePagesEv:
.LFB10291:
	.loc 20 1229 18
	.cfi_startproc
	pushq	%rbp
	.seh_pushreg	%rbp
	.cfi_def_cfa_offset 16
	.cfi_offset 6, -16
	movq	%rsp, %rbp
	.seh_setframe	%rbp, 0
	.cfi_def_cfa_register 6
	.seh_endprologue
	movq	%rcx, 16(%rbp)
	.loc 20 1229 52
	movl	$0, %eax
	.loc 20 1229 59
	popq	%rbp
	.cfi_restore 6
	.cfi_def_cfa 7, 8
	ret
	.cfi_endproc
.LFE10291:
	.seh_endproc
	.section	.text$_ZN12wxWindowBase20AlwaysShowScrollbarsEbb,"x"
	.linkonce discard
	.align 2
	.globl	_ZN12wxWindowBase20AlwaysShowScrollbarsEbb
	.def	_ZN12wxWindowBase20AlwaysShowScrollbarsEbb;	.scl	2;	.type	32;	.endef
	.seh_proc	_ZN12wxWindowBase20AlwaysShowScrollbarsEbb
_ZN12wxWindowBase20AlwaysShowScrollbarsEbb:
.LFB10298:
	.loc 20 1270 18
	.cfi_startproc
	pushq	%rbp
	.seh_pushreg	%rbp
	.cfi_def_cfa_offset 16
	.cfi_offset 6, -16
	movq	%rsp, %rbp
	.seh_setframe	%rbp, 0
	.cfi_def_cfa_register 6
	.seh_endprologue
	movq	%rcx, 16(%rbp)
	movl	%edx, %eax
	movl	%r8d, %edx
	movb	%al, 24(%rbp)
	movl	%edx, %eax
	movb	%al, 32(%rbp)
	.loc 20 1273 5
	nop
	popq	%rbp
	.cfi_restore 6
	.cfi_def_cfa 7, 8
	ret
	.cfi_endproc
.LFE10298:
	.seh_endproc
	.section	.text$_ZNK12wxWindowBase22IsScrollbarAlwaysShownEi,"x"
	.linkonce discard
	.align 2
	.globl	_ZNK12wxWindowBase22IsScrollbarAlwaysShownEi
	.def	_ZNK12wxWindowBase22IsScrollbarAlwaysShownEi;	.scl	2;	.type	32;	.endef
	.seh_proc	_ZNK12wxWindowBase22IsScrollbarAlwaysShownEi
_ZNK12wxWindowBase22IsScrollbarAlwaysShownEi:
.LFB10299:
	.loc 20 1277 18
	.cfi_startproc
	pushq	%rbp
	.seh_pushreg	%rbp
	.cfi_def_cfa_offset 16
	.cfi_offset 6, -16
	movq	%rsp, %rbp
	.seh_setframe	%rbp, 0
	.cfi_def_cfa_register 6
	.seh_endprologue
	movq	%rcx, 16(%rbp)
	movl	%edx, 24(%rbp)
	.loc 20 1279 16
	movl	$0, %eax
	.loc 20 1280 5
	popq	%rbp
	.cfi_restore 6
	.cfi_def_cfa 7, 8
	ret
	.cfi_endproc
.LFE10299:
	.seh_endproc
	.section	.text$_ZNK12wxWindowBase10GetToolTipEv,"x"
	.linkonce discard
	.align 2
	.globl	_ZNK12wxWindowBase10GetToolTipEv
	.def	_ZNK12wxWindowBase10GetToolTipEv;	.scl	2;	.type	32;	.endef
	.seh_proc	_ZNK12wxWindowBase10GetToolTipEv
_ZNK12wxWindowBase10GetToolTipEv:
.LFB10303:
	.loc 20 1327 16
	.cfi_startproc
	pushq	%rbp
	.seh_pushreg	%rbp
	.cfi_def_cfa_offset 16
	.cfi_offset 6, -16
	movq	%rsp, %rbp
	.seh_setframe	%rbp, 0
	.cfi_def_cfa_register 6
	.seh_endprologue
	movq	%rcx, 16(%rbp)
	.loc 20 1327 44
	movq	16(%rbp), %rax
	movq	352(%rax), %rax
	.loc 20 1327 55
	popq	%rbp
	.cfi_restore 6
	.cfi_def_cfa 7, 8
	ret
	.cfi_endproc
.LFE10303:
	.seh_endproc
	.section	.text$_ZNK12wxWindowBase13GetDropTargetEv,"x"
	.linkonce discard
	.align 2
	.globl	_ZNK12wxWindowBase13GetDropTargetEv
	.def	_ZNK12wxWindowBase13GetDropTargetEv;	.scl	2;	.type	32;	.endef
	.seh_proc	_ZNK12wxWindowBase13GetDropTargetEv
_ZNK12wxWindowBase13GetDropTargetEv:
.LFB10304:
	.loc 20 1351 27
	.cfi_startproc
	pushq	%rbp
	.seh_pushreg	%rbp
	.cfi_def_cfa_offset 16
	.cfi_offset 6, -16
	movq	%rsp, %rbp
	.seh_setframe	%rbp, 0
	.cfi_def_cfa_register 6
	.seh_endprologue
	movq	%rcx, 16(%rbp)
	.loc 20 1351 58
	movq	16(%rbp), %rax
	movq	208(%rax), %rax
	.loc 20 1351 72
	popq	%rbp
	.cfi_restore 6
	.cfi_def_cfa 7, 8
	ret
	.cfi_endproc
.LFE10304:
	.seh_endproc
	.section	.text$_ZN12wxWindowBase14SetTransparentEh,"x"
	.linkonce discard
	.align 2
	.globl	_ZN12wxWindowBase14SetTransparentEh
	.def	_ZN12wxWindowBase14SetTransparentEh;	.scl	2;	.type	32;	.endef
	.seh_proc	_ZN12wxWindowBase14SetTransparentEh
_ZN12wxWindowBase14SetTransparentEh:
.LFB10311:
	.loc 20 1432 18
	.cfi_startproc
	pushq	%rbp
	.seh_pushreg	%rbp
	.cfi_def_cfa_offset 16
	.cfi_offset 6, -16
	movq	%rsp, %rbp
	.seh_setframe	%rbp, 0
	.cfi_def_cfa_register 6
	.seh_endprologue
	movq	%rcx, 16(%rbp)
	movl	%edx, %eax
	movb	%al, 24(%rbp)
	.loc 20 1432 51
	movl	$0, %eax
	.loc 20 1432 58
	popq	%rbp
	.cfi_restore 6
	.cfi_def_cfa 7, 8
	ret
	.cfi_endproc
.LFE10311:
	.seh_endproc
	.section	.text$_ZN12wxWindowBase17CanSetTransparentEv,"x"
	.linkonce discard
	.align 2
	.globl	_ZN12wxWindowBase17CanSetTransparentEv
	.def	_ZN12wxWindowBase17CanSetTransparentEv;	.scl	2;	.type	32;	.endef
	.seh_proc	_ZN12wxWindowBase17CanSetTransparentEv
_ZN12wxWindowBase17CanSetTransparentEv:
.LFB10312:
	.loc 20 1433 18
	.cfi_startproc
	pushq	%rbp
	.seh_pushreg	%rbp
	.cfi_def_cfa_offset 16
	.cfi_offset 6, -16
	movq	%rsp, %rbp
	.seh_setframe	%rbp, 0
	.cfi_def_cfa_register 6
	.seh_endprologue
	movq	%rcx, 16(%rbp)
	.loc 20 1433 47
	movl	$0, %eax
	.loc 20 1433 54
	popq	%rbp
	.cfi_restore 6
	.cfi_def_cfa 7, 8
	ret
	.cfi_endproc
.LFE10312:
	.seh_endproc
	.section	.text$_ZNK12wxWindowBase20ShouldInheritColoursEv,"x"
	.linkonce discard
	.align 2
	.globl	_ZNK12wxWindowBase20ShouldInheritColoursEv
	.def	_ZNK12wxWindowBase20ShouldInheritColoursEv;	.scl	2;	.type	32;	.endef
	.seh_proc	_ZNK12wxWindowBase20ShouldInheritColoursEv
_ZNK12wxWindowBase20ShouldInheritColoursEv:
.LFB10323:
	.loc 20 1490 18
	.cfi_startproc
	pushq	%rbp
	.seh_pushreg	%rbp
	.cfi_def_cfa_offset 16
	.cfi_offset 6, -16
	movq	%rsp, %rbp
	.seh_setframe	%rbp, 0
	.cfi_def_cfa_register 6
	.seh_endprologue
	movq	%rcx, 16(%rbp)
	.loc 20 1490 56
	movl	$0, %eax
	.loc 20 1490 63
	popq	%rbp
	.cfi_restore 6
	.cfi_def_cfa 7, 8
	ret
	.cfi_endproc
.LFE10323:
	.seh_endproc
	.section	.text$_ZNK12wxWindowBase22CanBeOutsideClientAreaEv,"x"
	.linkonce discard
	.align 2
	.globl	_ZNK12wxWindowBase22CanBeOutsideClientAreaEv
	.def	_ZNK12wxWindowBase22CanBeOutsideClientAreaEv;	.scl	2;	.type	32;	.endef
	.seh_proc	_ZNK12wxWindowBase22CanBeOutsideClientAreaEv
_ZNK12wxWindowBase22CanBeOutsideClientAreaEv:
.LFB10324:
	.loc 20 1494 18
	.cfi_startproc
	pushq	%rbp
	.seh_pushreg	%rbp
	.cfi_def_cfa_offset 16
	.cfi_offset 6, -16
	movq	%rsp, %rbp
	.seh_setframe	%rbp, 0
	.cfi_def_cfa_register 6
	.seh_endprologue
	movq	%rcx, 16(%rbp)
	.loc 20 1494 58
	movl	$0, %eax
	.loc 20 1494 65
	popq	%rbp
	.cfi_restore 6
	.cfi_def_cfa 7, 8
	ret
	.cfi_endproc
.LFE10324:
	.seh_endproc
	.section	.text$_ZNK12wxWindowBase19CanApplyThemeBorderEv,"x"
	.linkonce discard
	.align 2
	.globl	_ZNK12wxWindowBase19CanApplyThemeBorderEv
	.def	_ZNK12wxWindowBase19CanApplyThemeBorderEv;	.scl	2;	.type	32;	.endef
	.seh_proc	_ZNK12wxWindowBase19CanApplyThemeBorderEv
_ZNK12wxWindowBase19CanApplyThemeBorderEv:
.LFB10325:
	.loc 20 1498 18
	.cfi_startproc
	pushq	%rbp
	.seh_pushreg	%rbp
	.cfi_def_cfa_offset 16
	.cfi_offset 6, -16
	movq	%rsp, %rbp
	.seh_setframe	%rbp, 0
	.cfi_def_cfa_register 6
	.seh_endprologue
	movq	%rcx, 16(%rbp)
	.loc 20 1498 55
	movl	$1, %eax
	.loc 20 1498 61
	popq	%rbp
	.cfi_restore 6
	.cfi_def_cfa 7, 8
	ret
	.cfi_endproc
.LFE10325:
	.seh_endproc
	.section	.text$_ZN12wxWindowBase31GetMainWindowOfCompositeControlEv,"x"
	.linkonce discard
	.align 2
	.globl	_ZN12wxWindowBase31GetMainWindowOfCompositeControlEv
	.def	_ZN12wxWindowBase31GetMainWindowOfCompositeControlEv;	.scl	2;	.type	32;	.endef
	.seh_proc	_ZN12wxWindowBase31GetMainWindowOfCompositeControlEv
_ZN12wxWindowBase31GetMainWindowOfCompositeControlEv:
.LFB10326:
	.loc 20 1503 23
	.cfi_startproc
	pushq	%rbp
	.seh_pushreg	%rbp
	.cfi_def_cfa_offset 16
	.cfi_offset 6, -16
	movq	%rsp, %rbp
	.seh_setframe	%rbp, 0
	.cfi_def_cfa_register 6
	.seh_endprologue
	movq	%rcx, 16(%rbp)
	.loc 20 1504 29
	movq	16(%rbp), %rax
	.loc 20 1504 35
	popq	%rbp
	.cfi_restore 6
	.cfi_def_cfa 7, 8
	ret
	.cfi_endproc
.LFE10326:
	.seh_endproc
	.section	.text$_ZNK12wxWindowBase21IsTopNavigationDomainEv,"x"
	.linkonce discard
	.align 2
	.globl	_ZNK12wxWindowBase21IsTopNavigationDomainEv
	.def	_ZNK12wxWindowBase21IsTopNavigationDomainEv;	.scl	2;	.type	32;	.endef
	.seh_proc	_ZNK12wxWindowBase21IsTopNavigationDomainEv
_ZNK12wxWindowBase21IsTopNavigationDomainEv:
.LFB10327:
	.loc 20 1512 18
	.cfi_startproc
	pushq	%rbp
	.seh_pushreg	%rbp
	.cfi_def_cfa_offset 16
	.cfi_offset 6, -16
	movq	%rsp, %rbp
	.seh_setframe	%rbp, 0
	.cfi_def_cfa_register 6
	.seh_endprologue
	movq	%rcx, 16(%rbp)
	.loc 20 1512 57
	movl	$0, %eax
	.loc 20 1512 64
	popq	%rbp
	.cfi_restore 6
	.cfi_def_cfa 7, 8
	ret
	.cfi_endproc
.LFE10327:
	.seh_endproc
	.section	.text$_ZNK12wxWindowBase19DoGetBestClientSizeEv,"x"
	.linkonce discard
	.align 2
	.globl	_ZNK12wxWindowBase19DoGetBestClientSizeEv
	.def	_ZNK12wxWindowBase19DoGetBestClientSizeEv;	.scl	2;	.type	32;	.endef
	.seh_proc	_ZNK12wxWindowBase19DoGetBestClientSizeEv
_ZNK12wxWindowBase19DoGetBestClientSizeEv:
.LFB10332:
	.loc 20 1746 20
	.cfi_startproc
	pushq	%rbp
	.seh_pushreg	%rbp
	.cfi_def_cfa_offset 16
	.cfi_offset 6, -16
	movq	%rsp, %rbp
	.seh_setframe	%rbp, 0
	.cfi_def_cfa_register 6
	.seh_endprologue
	movq	%rcx, 16(%rbp)
	.loc 20 1746 57
	movq	.refptr.wxDefaultSize(%rip), %rax
	movq	(%rax), %rax
	.loc 20 1746 72
	popq	%rbp
	.cfi_restore 6
	.cfi_def_cfa 7, 8
	ret
	.cfi_endproc
.LFE10332:
	.seh_endproc
	.section	.text$_ZNK12wxWindowBase21DoGetBestClientHeightEi,"x"
	.linkonce discard
	.align 2
	.globl	_ZNK12wxWindowBase21DoGetBestClientHeightEi
	.def	_ZNK12wxWindowBase21DoGetBestClientHeightEi;	.scl	2;	.type	32;	.endef
	.seh_proc	_ZNK12wxWindowBase21DoGetBestClientHeightEi
_ZNK12wxWindowBase21DoGetBestClientHeightEi:
.LFB10333:
	.loc 20 1751 17
	.cfi_startproc
	pushq	%rbp
	.seh_pushreg	%rbp
	.cfi_def_cfa_offset 16
	.cfi_offset 6, -16
	movq	%rsp, %rbp
	.seh_setframe	%rbp, 0
	.cfi_def_cfa_register 6
	.seh_endprologue
	movq	%rcx, 16(%rbp)
	movl	%edx, 24(%rbp)
	.loc 20 1752 18
	movl	$-1, %eax
	.loc 20 1752 34
	popq	%rbp
	.cfi_restore 6
	.cfi_def_cfa 7, 8
	ret
	.cfi_endproc
.LFE10333:
	.seh_endproc
	.section	.text$_ZNK12wxWindowBase20DoGetBestClientWidthEi,"x"
	.linkonce discard
	.align 2
	.globl	_ZNK12wxWindowBase20DoGetBestClientWidthEi
	.def	_ZNK12wxWindowBase20DoGetBestClientWidthEi;	.scl	2;	.type	32;	.endef
	.seh_proc	_ZNK12wxWindowBase20DoGetBestClientWidthEi
_ZNK12wxWindowBase20DoGetBestClientWidthEi:
.LFB10334:
	.loc 20 1753 17
	.cfi_startproc
	pushq	%rbp
	.seh_pushreg	%rbp
	.cfi_def_cfa_offset 16
	.cfi_offset 6, -16
	movq	%rsp, %rbp
	.seh_setframe	%rbp, 0
	.cfi_def_cfa_register 6
	.seh_endprologue
	movq	%rcx, 16(%rbp)
	movl	%edx, 24(%rbp)
	.loc 20 1754 18
	movl	$-1, %eax
	.loc 20 1754 34
	popq	%rbp
	.cfi_restore 6
	.cfi_def_cfa 7, 8
	ret
	.cfi_endproc
.LFE10334:
	.seh_endproc
	.section	.text$_ZN12wxWindowBase18SetInitialBestSizeERK6wxSize,"x"
	.linkonce discard
	.align 2
	.globl	_ZN12wxWindowBase18SetInitialBestSizeERK6wxSize
	.def	_ZN12wxWindowBase18SetInitialBestSizeERK6wxSize;	.scl	2;	.type	32;	.endef
	.seh_proc	_ZN12wxWindowBase18SetInitialBestSizeERK6wxSize
_ZN12wxWindowBase18SetInitialBestSizeERK6wxSize:
.LFB10340:
	.loc 20 1873 1
	.cfi_startproc
	pushq	%rbp
	.seh_pushreg	%rbp
	.cfi_def_cfa_offset 16
	.cfi_offset 6, -16
	movq	%rsp, %rbp
	.seh_setframe	%rbp, 0
	.cfi_def_cfa_register 6
	subq	$32, %rsp
	.seh_stackalloc	32
	.seh_endprologue
	movq	%rcx, 16(%rbp)
	movq	%rdx, 24(%rbp)
	.loc 20 1874 19
	movq	24(%rbp), %rax
	movq	%rax, %rdx
	movq	16(%rbp), %rcx
	call	_ZN12wxWindowBase14SetInitialSizeERK6wxSize
	.loc 20 1875 1
	nop
	addq	$32, %rsp
	popq	%rbp
	.cfi_restore 6
	.cfi_def_cfa 7, 8
	ret
	.cfi_endproc
.LFE10340:
	.seh_endproc
	.section	.text$_ZN8wxWindowC2Ev,"x"
	.linkonce discard
	.align 2
	.globl	_ZN8wxWindowC2Ev
	.def	_ZN8wxWindowC2Ev;	.scl	2;	.type	32;	.endef
	.seh_proc	_ZN8wxWindowC2Ev
_ZN8wxWindowC2Ev:
.LFB10342:
	.file 22 "../wxMSW-3.0.5_gcc810_x64_Dev/include/wx/msw/window.h"
	.loc 22 40 5
	.cfi_startproc
	pushq	%rbp
	.seh_pushreg	%rbp
	.cfi_def_cfa_offset 16
	.cfi_offset 6, -16
	pushq	%rbx
	.seh_pushreg	%rbx
	.cfi_def_cfa_offset 24
	.cfi_offset 3, -24
	subq	$40, %rsp
	.seh_stackalloc	40
	.cfi_def_cfa_offset 64
	leaq	128(%rsp), %rbp
	.seh_setframe	%rbp, 128
	.cfi_def_cfa 6, -64
	.seh_endprologue
	movq	%rcx, -64(%rbp)
.LBB43:
	.loc 22 40 16
	movq	-64(%rbp), %rax
	movq	%rax, %rcx
.LEHB17:
	call	_ZN12wxWindowBaseC2Ev
.LEHE17:
	movq	.refptr._ZTV8wxWindow(%rip), %rax
	leaq	16(%rax), %rdx
	movq	-64(%rbp), %rax
	movq	%rdx, (%rax)
	movq	-64(%rbp), %rax
	addq	$560, %rax
	movq	%rax, %rcx
	call	_ZN7wxPointC1Ev
	movq	-64(%rbp), %rax
	addq	$568, %rax
	movq	%rax, %rcx
	call	_ZN6wxSizeC1Ev
	.loc 22 40 22
	movq	-64(%rbp), %rcx
.LEHB18:
	call	_ZN8wxWindow4InitEv
.LEHE18:
.LBE43:
	.loc 22 40 26
	jmp	.L227
.L226:
	movq	%rax, %rbx
.LBB44:
	.loc 22 40 16
	movq	-64(%rbp), %rax
	movq	%rax, %rcx
	call	_ZN12wxWindowBaseD2Ev
	movq	%rbx, %rax
	movq	%rax, %rcx
.LEHB19:
	call	_Unwind_Resume
	nop
.LEHE19:
.L227:
.LBE44:
	.loc 22 40 26
	addq	$40, %rsp
	popq	%rbx
	.cfi_restore 3
	popq	%rbp
	.cfi_restore 6
	.cfi_def_cfa 7, -24
	ret
	.cfi_endproc
.LFE10342:
	.seh_handler	__gxx_personality_seh0, @unwind, @except
	.seh_handlerdata
.LLSDA10342:
	.byte	0xff
	.byte	0xff
	.byte	0x1
	.uleb128 .LLSDACSE10342-.LLSDACSB10342
.LLSDACSB10342:
	.uleb128 .LEHB17-.LFB10342
	.uleb128 .LEHE17-.LEHB17
	.uleb128 0
	.uleb128 0
	.uleb128 .LEHB18-.LFB10342
	.uleb128 .LEHE18-.LEHB18
	.uleb128 .L226-.LFB10342
	.uleb128 0
	.uleb128 .LEHB19-.LFB10342
	.uleb128 .LEHE19-.LEHB19
	.uleb128 0
	.uleb128 0
.LLSDACSE10342:
	.section	.text$_ZN8wxWindowC2Ev,"x"
	.linkonce discard
	.seh_endproc
	.section	.text$_ZN8wxWindow14ShowWithEffectE12wxShowEffectj,"x"
	.linkonce discard
	.align 2
	.globl	_ZN8wxWindow14ShowWithEffectE12wxShowEffectj
	.def	_ZN8wxWindow14ShowWithEffectE12wxShowEffectj;	.scl	2;	.type	32;	.endef
	.seh_proc	_ZN8wxWindow14ShowWithEffectE12wxShowEffectj
_ZN8wxWindow14ShowWithEffectE12wxShowEffectj:
.LFB10347:
	.loc 22 73 18
	.cfi_startproc
	pushq	%rbp
	.seh_pushreg	%rbp
	.cfi_def_cfa_offset 16
	.cfi_offset 6, -16
	movq	%rsp, %rbp
	.seh_setframe	%rbp, 0
	.cfi_def_cfa_register 6
	subq	$32, %rsp
	.seh_stackalloc	32
	.seh_endprologue
	movq	%rcx, 16(%rbp)
	movl	%edx, 24(%rbp)
	movl	%r8d, 32(%rbp)
	.loc 22 76 33
	movl	32(%rbp), %edx
	movl	24(%rbp), %eax
	movl	%edx, %r9d
	movl	%eax, %r8d
	movl	$1, %edx
	movq	16(%rbp), %rcx
	call	_ZN8wxWindow17MSWShowWithEffectEb12wxShowEffectj
	.loc 22 77 5
	addq	$32, %rsp
	popq	%rbp
	.cfi_restore 6
	.cfi_def_cfa 7, 8
	ret
	.cfi_endproc
.LFE10347:
	.seh_endproc
	.section	.text$_ZN8wxWindow14HideWithEffectE12wxShowEffectj,"x"
	.linkonce discard
	.align 2
	.globl	_ZN8wxWindow14HideWithEffectE12wxShowEffectj
	.def	_ZN8wxWindow14HideWithEffectE12wxShowEffectj;	.scl	2;	.type	32;	.endef
	.seh_proc	_ZN8wxWindow14HideWithEffectE12wxShowEffectj
_ZN8wxWindow14HideWithEffectE12wxShowEffectj:
.LFB10348:
	.loc 22 78 18
	.cfi_startproc
	pushq	%rbp
	.seh_pushreg	%rbp
	.cfi_def_cfa_offset 16
	.cfi_offset 6, -16
	movq	%rsp, %rbp
	.seh_setframe	%rbp, 0
	.cfi_def_cfa_register 6
	subq	$32, %rsp
	.seh_stackalloc	32
	.seh_endprologue
	movq	%rcx, 16(%rbp)
	movl	%edx, 24(%rbp)
	movl	%r8d, 32(%rbp)
	.loc 22 81 33
	movl	32(%rbp), %edx
	movl	24(%rbp), %eax
	movl	%edx, %r9d
	movl	%eax, %r8d
	movl	$0, %edx
	movq	16(%rbp), %rcx
	call	_ZN8wxWindow17MSWShowWithEffectEb12wxShowEffectj
	.loc 22 82 5
	addq	$32, %rsp
	popq	%rbp
	.cfi_restore 6
	.cfi_def_cfa 7, 8
	ret
	.cfi_endproc
.LFE10348:
	.seh_endproc
	.section	.text$_ZNK8wxWindow7GetHWNDEv,"x"
	.linkonce discard
	.align 2
	.globl	_ZNK8wxWindow7GetHWNDEv
	.def	_ZNK8wxWindow7GetHWNDEv;	.scl	2;	.type	32;	.endef
	.seh_proc	_ZNK8wxWindow7GetHWNDEv
_ZNK8wxWindow7GetHWNDEv:
.LFB10349:
	.loc 22 151 12
	.cfi_startproc
	pushq	%rbp
	.seh_pushreg	%rbp
	.cfi_def_cfa_offset 16
	.cfi_offset 6, -16
	movq	%rsp, %rbp
	.seh_setframe	%rbp, 0
	.cfi_def_cfa_register 6
	.seh_endprologue
	movq	%rcx, 16(%rbp)
	.loc 22 151 37
	movq	16(%rbp), %rax
	movq	520(%rax), %rax
	.loc 22 151 45
	popq	%rbp
	.cfi_restore 6
	.cfi_def_cfa 7, 8
	ret
	.cfi_endproc
.LFE10349:
	.seh_endproc
	.section	.text$_ZNK8wxWindow9GetHandleEv,"x"
	.linkonce discard
	.align 2
	.globl	_ZNK8wxWindow9GetHandleEv
	.def	_ZNK8wxWindow9GetHandleEv;	.scl	2;	.type	32;	.endef
	.seh_proc	_ZNK8wxWindow9GetHandleEv
_ZNK8wxWindow9GetHandleEv:
.LFB10351:
	.loc 22 153 22
	.cfi_startproc
	pushq	%rbp
	.seh_pushreg	%rbp
	.cfi_def_cfa_offset 16
	.cfi_offset 6, -16
	movq	%rsp, %rbp
	.seh_setframe	%rbp, 0
	.cfi_def_cfa_register 6
	subq	$32, %rsp
	.seh_stackalloc	32
	.seh_endprologue
	movq	%rcx, 16(%rbp)
	.loc 22 153 56
	movq	16(%rbp), %rcx
	call	_ZNK8wxWindow7GetHWNDEv
	.loc 22 153 60
	addq	$32, %rsp
	popq	%rbp
	.cfi_restore 6
	.cfi_def_cfa 7, 8
	ret
	.cfi_endproc
.LFE10351:
	.seh_endproc
	.section	.text$_ZNK8wxWindow12ContainsHWNDEP6HWND__,"x"
	.linkonce discard
	.align 2
	.globl	_ZNK8wxWindow12ContainsHWNDEP6HWND__
	.def	_ZNK8wxWindow12ContainsHWNDEP6HWND__;	.scl	2;	.type	32;	.endef
	.seh_proc	_ZNK8wxWindow12ContainsHWNDEP6HWND__
_ZNK8wxWindow12ContainsHWNDEP6HWND__:
.LFB10355:
	.loc 22 213 18
	.cfi_startproc
	pushq	%rbp
	.seh_pushreg	%rbp
	.cfi_def_cfa_offset 16
	.cfi_offset 6, -16
	movq	%rsp, %rbp
	.seh_setframe	%rbp, 0
	.cfi_def_cfa_register 6
	.seh_endprologue
	movq	%rcx, 16(%rbp)
	movq	%rdx, 24(%rbp)
	.loc 22 213 55
	movl	$0, %eax
	.loc 22 213 62
	popq	%rbp
	.cfi_restore 6
	.cfi_def_cfa 7, 8
	ret
	.cfi_endproc
.LFE10355:
	.seh_endproc
	.section	.text$_ZNK8wxWindow11HasToolTipsEv,"x"
	.linkonce discard
	.align 2
	.globl	_ZNK8wxWindow11HasToolTipsEv
	.def	_ZNK8wxWindow11HasToolTipsEv;	.scl	2;	.type	32;	.endef
	.seh_proc	_ZNK8wxWindow11HasToolTipsEv
_ZNK8wxWindow11HasToolTipsEv:
.LFB10356:
	.loc 22 217 18
	.cfi_startproc
	pushq	%rbp
	.seh_pushreg	%rbp
	.cfi_def_cfa_offset 16
	.cfi_offset 6, -16
	movq	%rsp, %rbp
	.seh_setframe	%rbp, 0
	.cfi_def_cfa_register 6
	subq	$32, %rsp
	.seh_stackalloc	32
	.seh_endprologue
	movq	%rcx, 16(%rbp)
	.loc 22 217 57
	movq	16(%rbp), %rax
	movq	%rax, %rcx
	call	_ZNK12wxWindowBase10GetToolTipEv
	.loc 22 217 62
	testq	%rax, %rax
	setne	%al
	.loc 22 217 68
	addq	$32, %rsp
	popq	%rbp
	.cfi_restore 6
	.cfi_def_cfa 7, 8
	ret
	.cfi_endproc
.LFE10356:
	.seh_endproc
	.section	.text$_ZNK8wxWindow17MSWAdjustBrushOrgEPiS0_,"x"
	.linkonce discard
	.align 2
	.globl	_ZNK8wxWindow17MSWAdjustBrushOrgEPiS0_
	.def	_ZNK8wxWindow17MSWAdjustBrushOrgEPiS0_;	.scl	2;	.type	32;	.endef
	.seh_proc	_ZNK8wxWindow17MSWAdjustBrushOrgEPiS0_
_ZNK8wxWindow17MSWAdjustBrushOrgEPiS0_:
.LFB10358:
	.loc 22 421 18
	.cfi_startproc
	pushq	%rbp
	.seh_pushreg	%rbp
	.cfi_def_cfa_offset 16
	.cfi_offset 6, -16
	movq	%rsp, %rbp
	.seh_setframe	%rbp, 0
	.cfi_def_cfa_register 6
	.seh_endprologue
	movq	%rcx, 16(%rbp)
	movq	%rdx, 24(%rbp)
	movq	%r8, 32(%rbp)
	.loc 22 424 5
	nop
	popq	%rbp
	.cfi_restore 6
	.cfi_def_cfa 7, 8
	ret
	.cfi_endproc
.LFE10358:
	.seh_endproc
	.section	.text$_ZN8wxWindow19MSWGetCustomBgBrushEv,"x"
	.linkonce discard
	.align 2
	.globl	_ZN8wxWindow19MSWGetCustomBgBrushEv
	.def	_ZN8wxWindow19MSWGetCustomBgBrushEv;	.scl	2;	.type	32;	.endef
	.seh_proc	_ZN8wxWindow19MSWGetCustomBgBrushEv
_ZN8wxWindow19MSWGetCustomBgBrushEv:
.LFB10359:
	.loc 22 429 22
	.cfi_startproc
	pushq	%rbp
	.seh_pushreg	%rbp
	.cfi_def_cfa_offset 16
	.cfi_offset 6, -16
	movq	%rsp, %rbp
	.seh_setframe	%rbp, 0
	.cfi_def_cfa_register 6
	.seh_endprologue
	movq	%rcx, 16(%rbp)
	.loc 22 429 53
	movl	$0, %eax
	.loc 22 429 56
	popq	%rbp
	.cfi_restore 6
	.cfi_def_cfa 7, 8
	ret
	.cfi_endproc
.LFE10359:
	.seh_endproc
	.section	.text$_ZN8wxWindow13MSWPrintChildEP5HDC__PS_,"x"
	.linkonce discard
	.align 2
	.globl	_ZN8wxWindow13MSWPrintChildEP5HDC__PS_
	.def	_ZN8wxWindow13MSWPrintChildEP5HDC__PS_;	.scl	2;	.type	32;	.endef
	.seh_proc	_ZN8wxWindow13MSWPrintChildEP5HDC__PS_
_ZN8wxWindow13MSWPrintChildEP5HDC__PS_:
.LFB10360:
	.loc 22 468 18
	.cfi_startproc
	pushq	%rbp
	.seh_pushreg	%rbp
	.cfi_def_cfa_offset 16
	.cfi_offset 6, -16
	movq	%rsp, %rbp
	.seh_setframe	%rbp, 0
	.cfi_def_cfa_register 6
	.seh_endprologue
	movq	%rcx, 16(%rbp)
	movq	%rdx, 24(%rbp)
	movq	%r8, 32(%rbp)
	.loc 22 470 16
	movl	$0, %eax
	.loc 22 471 5
	popq	%rbp
	.cfi_restore 6
	.cfi_def_cfa 7, 8
	ret
	.cfi_endproc
.LFE10360:
	.seh_endproc
	.section	.text$_ZN8wxWindow28MSWShouldPropagatePrintChildEv,"x"
	.linkonce discard
	.align 2
	.globl	_ZN8wxWindow28MSWShouldPropagatePrintChildEv
	.def	_ZN8wxWindow28MSWShouldPropagatePrintChildEv;	.scl	2;	.type	32;	.endef
	.seh_proc	_ZN8wxWindow28MSWShouldPropagatePrintChildEv
_ZN8wxWindow28MSWShouldPropagatePrintChildEv:
.LFB10361:
	.loc 22 476 18
	.cfi_startproc
	pushq	%rbp
	.seh_pushreg	%rbp
	.cfi_def_cfa_offset 16
	.cfi_offset 6, -16
	movq	%rsp, %rbp
	.seh_setframe	%rbp, 0
	.cfi_def_cfa_register 6
	.seh_endprologue
	movq	%rcx, 16(%rbp)
	.loc 22 478 16
	movl	$1, %eax
	.loc 22 479 5
	popq	%rbp
	.cfi_restore 6
	.cfi_def_cfa 7, 8
	ret
	.cfi_endproc
.LFE10361:
	.seh_endproc
	.section	.text$_ZNK8wxWindow27MSWHasInheritableBackgroundEv,"x"
	.linkonce discard
	.align 2
	.globl	_ZNK8wxWindow27MSWHasInheritableBackgroundEv
	.def	_ZNK8wxWindow27MSWHasInheritableBackgroundEv;	.scl	2;	.type	32;	.endef
	.seh_proc	_ZNK8wxWindow27MSWHasInheritableBackgroundEv
_ZNK8wxWindow27MSWHasInheritableBackgroundEv:
.LFB10362:
	.loc 22 487 18
	.cfi_startproc
	pushq	%rbp
	.seh_pushreg	%rbp
	.cfi_def_cfa_offset 16
	.cfi_offset 6, -16
	movq	%rsp, %rbp
	.seh_setframe	%rbp, 0
	.cfi_def_cfa_register 6
	subq	$32, %rsp
	.seh_stackalloc	32
	.seh_endprologue
	movq	%rcx, 16(%rbp)
	.loc 22 489 40
	movq	16(%rbp), %rax
	movq	%rax, %rcx
	call	_ZNK12wxWindowBase24InheritsBackgroundColourEv
	.loc 22 490 5
	addq	$32, %rsp
	popq	%rbp
	.cfi_restore 6
	.cfi_def_cfa 7, 8
	ret
	.cfi_endproc
.LFE10362:
	.seh_endproc
	.section	.text$_ZN8wxWindow14MSWEraseBgHookEP5HDC__,"x"
	.linkonce discard
	.align 2
	.globl	_ZN8wxWindow14MSWEraseBgHookEP5HDC__
	.def	_ZN8wxWindow14MSWEraseBgHookEP5HDC__;	.scl	2;	.type	32;	.endef
	.seh_proc	_ZN8wxWindow14MSWEraseBgHookEP5HDC__
_ZN8wxWindow14MSWEraseBgHookEP5HDC__:
.LFB10363:
	.loc 22 510 18
	.cfi_startproc
	pushq	%rbp
	.seh_pushreg	%rbp
	.cfi_def_cfa_offset 16
	.cfi_offset 6, -16
	movq	%rsp, %rbp
	.seh_setframe	%rbp, 0
	.cfi_def_cfa_register 6
	.seh_endprologue
	movq	%rcx, 16(%rbp)
	movq	%rdx, 24(%rbp)
	.loc 22 510 50
	movl	$0, %eax
	.loc 22 510 57
	popq	%rbp
	.cfi_restore 6
	.cfi_def_cfa 7, 8
	ret
	.cfi_endproc
.LFE10363:
	.seh_endproc
	.section	.text$_ZNK8wxWindow11MSWFindItemElP6HWND__,"x"
	.linkonce discard
	.align 2
	.globl	_ZNK8wxWindow11MSWFindItemElP6HWND__
	.def	_ZNK8wxWindow11MSWFindItemElP6HWND__;	.scl	2;	.type	32;	.endef
	.seh_proc	_ZNK8wxWindow11MSWFindItemElP6HWND__
_ZNK8wxWindow11MSWFindItemElP6HWND__:
.LFB10364:
	.loc 22 670 23
	.cfi_startproc
	pushq	%rbp
	.seh_pushreg	%rbp
	.cfi_def_cfa_offset 16
	.cfi_offset 6, -16
	movq	%rsp, %rbp
	.seh_setframe	%rbp, 0
	.cfi_def_cfa_register 6
	.seh_endprologue
	movq	%rcx, 16(%rbp)
	movl	%edx, 24(%rbp)
	movq	%r8, 32(%rbp)
	.loc 22 672 15
	movl	$0, %eax
	.loc 22 673 5
	popq	%rbp
	.cfi_restore 6
	.cfi_def_cfa 7, 8
	ret
	.cfi_endproc
.LFE10364:
	.seh_endproc
	.section	.text$_ZN8wxWindow20MSWEndDeferWindowPosEv,"x"
	.linkonce discard
	.align 2
	.globl	_ZN8wxWindow20MSWEndDeferWindowPosEv
	.def	_ZN8wxWindow20MSWEndDeferWindowPosEv;	.scl	2;	.type	32;	.endef
	.seh_proc	_ZN8wxWindow20MSWEndDeferWindowPosEv
_ZN8wxWindow20MSWEndDeferWindowPosEv:
.LFB10365:
	.loc 22 695 18
	.cfi_startproc
	pushq	%rbp
	.seh_pushreg	%rbp
	.cfi_def_cfa_offset 16
	.cfi_offset 6, -16
	movq	%rsp, %rbp
	.seh_setframe	%rbp, 0
	.cfi_def_cfa_register 6
	.seh_endprologue
	movq	%rcx, 16(%rbp)
	.loc 22 697 27
	movq	16(%rbp), %rax
	movq	.refptr.wxDefaultPosition(%rip), %rdx
	movq	(%rdx), %rdx
	movq	%rdx, 560(%rax)
	.loc 22 698 23
	movq	16(%rbp), %rax
	movq	.refptr.wxDefaultSize(%rip), %rdx
	movq	(%rdx), %rdx
	movq	%rdx, 568(%rax)
	.loc 22 699 5
	nop
	popq	%rbp
	.cfi_restore 6
	.cfi_def_cfa 7, 8
	ret
	.cfi_endproc
.LFE10365:
	.seh_endproc
	.section	.text$_ZN13wxControlBaseC2Ev,"x"
	.linkonce discard
	.align 2
	.globl	_ZN13wxControlBaseC2Ev
	.def	_ZN13wxControlBaseC2Ev;	.scl	2;	.type	32;	.endef
	.seh_proc	_ZN13wxControlBaseC2Ev
_ZN13wxControlBaseC2Ev:
.LFB10368:
	.file 23 "../wxMSW-3.0.5_gcc810_x64_Dev/include/wx/control.h"
	.loc 23 58 5
	.cfi_startproc
	pushq	%rbp
	.seh_pushreg	%rbp
	.cfi_def_cfa_offset 16
	.cfi_offset 6, -16
	movq	%rsp, %rbp
	.seh_setframe	%rbp, 0
	.cfi_def_cfa_register 6
	subq	$32, %rsp
	.seh_stackalloc	32
	.seh_endprologue
	movq	%rcx, 16(%rbp)
.LBB45:
	.loc 23 58 21
	movq	16(%rbp), %rax
	movq	%rax, %rcx
	call	_ZN8wxWindowC2Ev
	movq	.refptr._ZTV13wxControlBase(%rip), %rax
	leaq	16(%rax), %rdx
	movq	16(%rbp), %rax
	movq	%rdx, (%rax)
	movq	16(%rbp), %rax
	addq	$576, %rax
	movq	%rax, %rcx
	call	_ZN8wxStringC1Ev
.LBE45:
	.loc 23 58 23
	nop
	addq	$32, %rsp
	popq	%rbp
	.cfi_restore 6
	.cfi_def_cfa 7, 8
	ret
	.cfi_endproc
.LFE10368:
	.seh_endproc
	.section	.text$_ZN13wxControlBase8SetLabelERK8wxString,"x"
	.linkonce discard
	.align 2
	.globl	_ZN13wxControlBase8SetLabelERK8wxString
	.def	_ZN13wxControlBase8SetLabelERK8wxString;	.scl	2;	.type	32;	.endef
	.seh_proc	_ZN13wxControlBase8SetLabelERK8wxString
_ZN13wxControlBase8SetLabelERK8wxString:
.LFB10371:
	.loc 23 74 18
	.cfi_startproc
	pushq	%rbp
	.seh_pushreg	%rbp
	.cfi_def_cfa_offset 16
	.cfi_offset 6, -16
	movq	%rsp, %rbp
	.seh_setframe	%rbp, 0
	.cfi_def_cfa_register 6
	subq	$32, %rsp
	.seh_stackalloc	32
	.seh_endprologue
	movq	%rcx, 16(%rbp)
	movq	%rdx, 24(%rbp)
	.loc 23 76 23
	movq	16(%rbp), %rax
	addq	$576, %rax
	movq	24(%rbp), %rdx
	movq	%rax, %rcx
	call	_ZN8wxStringaSERKS_
	.loc 23 78 27
	movq	16(%rbp), %rax
	movq	%rax, %rcx
	call	_ZN12wxWindowBase18InvalidateBestSizeEv
	.loc 23 80 27
	movq	16(%rbp), %rax
	movq	24(%rbp), %rdx
	movq	%rax, %rcx
	call	_ZN8wxWindow8SetLabelERK8wxString
	.loc 23 81 5
	nop
	addq	$32, %rsp
	popq	%rbp
	.cfi_restore 6
	.cfi_def_cfa 7, 8
	ret
	.cfi_endproc
.LFE10371:
	.seh_endproc
	.section	.text$_ZNK13wxControlBase8GetLabelEv,"x"
	.linkonce discard
	.align 2
	.globl	_ZNK13wxControlBase8GetLabelEv
	.def	_ZNK13wxControlBase8GetLabelEv;	.scl	2;	.type	32;	.endef
	.seh_proc	_ZNK13wxControlBase8GetLabelEv
_ZNK13wxControlBase8GetLabelEv:
.LFB10372:
	.loc 23 85 22
	.cfi_startproc
	pushq	%rbp
	.seh_pushreg	%rbp
	.cfi_def_cfa_offset 16
	.cfi_offset 6, -16
	movq	%rsp, %rbp
	.seh_setframe	%rbp, 0
	.cfi_def_cfa_register 6
	subq	$32, %rsp
	.seh_stackalloc	32
	.seh_endprologue
	movq	%rcx, 16(%rbp)
	movq	%rdx, 24(%rbp)
	.loc 23 85 48
	movq	24(%rbp), %rax
	addq	$576, %rax
	movq	%rax, %rdx
	movq	16(%rbp), %rcx
	call	_ZN8wxStringC1ERKS_
	.loc 23 85 61
	movq	16(%rbp), %rax
	addq	$32, %rsp
	popq	%rbp
	.cfi_restore 6
	.cfi_def_cfa 7, 8
	ret
	.cfi_endproc
.LFE10372:
	.seh_endproc
	.section	.text$_ZN13wxControlBase12SetLabelTextERK8wxString,"x"
	.linkonce discard
	.align 2
	.globl	_ZN13wxControlBase12SetLabelTextERK8wxString
	.def	_ZN13wxControlBase12SetLabelTextERK8wxString;	.scl	2;	.type	32;	.endef
	.seh_proc	_ZN13wxControlBase12SetLabelTextERK8wxString
_ZN13wxControlBase12SetLabelTextERK8wxString:
.LFB10373:
	.loc 23 88 18
	.cfi_startproc
	pushq	%rbp
	.seh_pushreg	%rbp
	.cfi_def_cfa_offset 16
	.cfi_offset 6, -16
	pushq	%rbx
	.seh_pushreg	%rbx
	.cfi_def_cfa_offset 24
	.cfi_offset 3, -24
	subq	$88, %rsp
	.seh_stackalloc	88
	.cfi_def_cfa_offset 112
	leaq	128(%rsp), %rbp
	.seh_setframe	%rbp, 128
	.cfi_def_cfa 6, -16
	.seh_endprologue
	movq	%rcx, -16(%rbp)
	movq	%rdx, -8(%rbp)
	.loc 23 90 39
	movq	-16(%rbp), %rax
	movq	(%rax), %rax
	addq	$176, %rax
	movq	(%rax), %rbx
	.loc 23 90 33
	leaq	-96(%rbp), %rax
	movq	-8(%rbp), %rdx
	movq	%rax, %rcx
.LEHB20:
	call	_ZN13wxControlBase15EscapeMnemonicsERK8wxString
.LEHE20:
	.loc 23 90 17
	leaq	-96(%rbp), %rax
	movq	%rax, %rdx
	movq	-16(%rbp), %rcx
.LEHB21:
	call	*%rbx
.LVL20:
.LEHE21:
	.loc 23 90 33 discriminator 2
	leaq	-96(%rbp), %rax
	movq	%rax, %rcx
	call	_ZN8wxStringD1Ev
	.loc 23 91 5 discriminator 2
	jmp	.L261
.L260:
	movq	%rax, %rbx
	.loc 23 90 33
	leaq	-96(%rbp), %rax
	movq	%rax, %rcx
	call	_ZN8wxStringD1Ev
	movq	%rbx, %rax
	movq	%rax, %rcx
.LEHB22:
	call	_Unwind_Resume
	nop
.LEHE22:
.L261:
	.loc 23 91 5
	addq	$88, %rsp
	popq	%rbx
	.cfi_restore 3
	popq	%rbp
	.cfi_restore 6
	.cfi_def_cfa 7, -72
	ret
	.cfi_endproc
.LFE10373:
	.seh_handler	__gxx_personality_seh0, @unwind, @except
	.seh_handlerdata
.LLSDA10373:
	.byte	0xff
	.byte	0xff
	.byte	0x1
	.uleb128 .LLSDACSE10373-.LLSDACSB10373
.LLSDACSB10373:
	.uleb128 .LEHB20-.LFB10373
	.uleb128 .LEHE20-.LEHB20
	.uleb128 0
	.uleb128 0
	.uleb128 .LEHB21-.LFB10373
	.uleb128 .LEHE21-.LEHB21
	.uleb128 .L260-.LFB10373
	.uleb128 0
	.uleb128 .LEHB22-.LFB10373
	.uleb128 .LEHE22-.LEHB22
	.uleb128 0
	.uleb128 0
.LLSDACSE10373:
	.section	.text$_ZN13wxControlBase12SetLabelTextERK8wxString,"x"
	.linkonce discard
	.seh_endproc
	.section	.text$_ZNK13wxControlBase12GetLabelTextEv,"x"
	.linkonce discard
	.align 2
	.globl	_ZNK13wxControlBase12GetLabelTextEv
	.def	_ZNK13wxControlBase12GetLabelTextEv;	.scl	2;	.type	32;	.endef
	.seh_proc	_ZNK13wxControlBase12GetLabelTextEv
_ZNK13wxControlBase12GetLabelTextEv:
.LFB10374:
	.loc 23 94 22
	.cfi_startproc
	pushq	%rbp
	.seh_pushreg	%rbp
	.cfi_def_cfa_offset 16
	.cfi_offset 6, -16
	pushq	%rbx
	.seh_pushreg	%rbx
	.cfi_def_cfa_offset 24
	.cfi_offset 3, -24
	subq	$88, %rsp
	.seh_stackalloc	88
	.cfi_def_cfa_offset 112
	leaq	128(%rsp), %rbp
	.seh_setframe	%rbp, 128
	.cfi_def_cfa 6, -16
	.seh_endprologue
	movq	%rcx, -16(%rbp)
	movq	%rdx, -8(%rbp)
	.loc 23 94 74
	movq	-8(%rbp), %rax
	movq	(%rax), %rax
	addq	$184, %rax
	movq	(%rax), %r8
	.loc 23 94 73
	leaq	-96(%rbp), %rax
	movq	-8(%rbp), %rdx
	movq	%rax, %rcx
.LEHB23:
	call	*%r8
.LVL21:
.LEHE23:
	.loc 23 94 75
	movq	-16(%rbp), %rcx
	leaq	-96(%rbp), %rax
	movq	%rax, %rdx
.LEHB24:
	call	_ZN13wxControlBase12GetLabelTextERK8wxString
.LEHE24:
	nop
	.loc 23 94 73
	leaq	-96(%rbp), %rax
	movq	%rax, %rcx
	call	_ZN8wxStringD1Ev
	.loc 23 94 75
	jmp	.L266
.L265:
	movq	%rax, %rbx
	.loc 23 94 73
	leaq	-96(%rbp), %rax
	movq	%rax, %rcx
	call	_ZN8wxStringD1Ev
	movq	%rbx, %rax
	movq	%rax, %rcx
.LEHB25:
	call	_Unwind_Resume
.LEHE25:
.L266:
	.loc 23 94 78
	movq	-16(%rbp), %rax
	addq	$88, %rsp
	popq	%rbx
	.cfi_restore 3
	popq	%rbp
	.cfi_restore 6
	.cfi_def_cfa 7, -72
	ret
	.cfi_endproc
.LFE10374:
	.seh_handler	__gxx_personality_seh0, @unwind, @except
	.seh_handlerdata
.LLSDA10374:
	.byte	0xff
	.byte	0xff
	.byte	0x1
	.uleb128 .LLSDACSE10374-.LLSDACSB10374
.LLSDACSB10374:
	.uleb128 .LEHB23-.LFB10374
	.uleb128 .LEHE23-.LEHB23
	.uleb128 0
	.uleb128 0
	.uleb128 .LEHB24-.LFB10374
	.uleb128 .LEHE24-.LEHB24
	.uleb128 .L265-.LFB10374
	.uleb128 0
	.uleb128 .LEHB25-.LFB10374
	.uleb128 .LEHE25-.LEHB25
	.uleb128 0
	.uleb128 0
.LLSDACSE10374:
	.section	.text$_ZNK13wxControlBase12GetLabelTextEv,"x"
	.linkonce discard
	.seh_endproc
	.section	.text$_ZN9wxControlC2Ev,"x"
	.linkonce discard
	.align 2
	.globl	_ZN9wxControlC2Ev
	.def	_ZN9wxControlC2Ev;	.scl	2;	.type	32;	.endef
	.seh_proc	_ZN9wxControlC2Ev
_ZN9wxControlC2Ev:
.LFB10380:
	.file 24 "../wxMSW-3.0.5_gcc810_x64_Dev/include/wx/msw/control.h"
	.loc 24 20 5
	.cfi_startproc
	pushq	%rbp
	.seh_pushreg	%rbp
	.cfi_def_cfa_offset 16
	.cfi_offset 6, -16
	pushq	%rbx
	.seh_pushreg	%rbx
	.cfi_def_cfa_offset 24
	.cfi_offset 3, -24
	subq	$40, %rsp
	.seh_stackalloc	40
	.cfi_def_cfa_offset 64
	leaq	128(%rsp), %rbp
	.seh_setframe	%rbp, 128
	.cfi_def_cfa 6, -64
	.seh_endprologue
	movq	%rcx, -64(%rbp)
.LBB46:
	.loc 24 20 17
	movq	-64(%rbp), %rax
	movq	%rax, %rcx
.LEHB26:
	call	_ZN13wxControlBaseC2Ev
.LEHE26:
	movq	.refptr._ZTV9wxControl(%rip), %rax
	leaq	16(%rax), %rdx
	movq	-64(%rbp), %rax
	movq	%rdx, (%rax)
	movq	-64(%rbp), %rax
	addq	$624, %rax
	movq	%rax, %rcx
.LEHB27:
	call	_ZN11wxArrayLongC1Ev
.LEHE27:
.LBE46:
	.loc 24 20 19
	jmp	.L270
.L269:
	movq	%rax, %rbx
.LBB47:
	.loc 24 20 17
	movq	-64(%rbp), %rax
	movq	%rax, %rcx
	call	_ZN13wxControlBaseD2Ev
	movq	%rbx, %rax
	movq	%rax, %rcx
.LEHB28:
	call	_Unwind_Resume
	nop
.LEHE28:
.L270:
.LBE47:
	.loc 24 20 19
	addq	$40, %rsp
	popq	%rbx
	.cfi_restore 3
	popq	%rbp
	.cfi_restore 6
	.cfi_def_cfa 7, -24
	ret
	.cfi_endproc
.LFE10380:
	.seh_handler	__gxx_personality_seh0, @unwind, @except
	.seh_handlerdata
.LLSDA10380:
	.byte	0xff
	.byte	0xff
	.byte	0x1
	.uleb128 .LLSDACSE10380-.LLSDACSB10380
.LLSDACSB10380:
	.uleb128 .LEHB26-.LFB10380
	.uleb128 .LEHE26-.LEHB26
	.uleb128 0
	.uleb128 0
	.uleb128 .LEHB27-.LFB10380
	.uleb128 .LEHE27-.LEHB27
	.uleb128 .L269-.LFB10380
	.uleb128 0
	.uleb128 .LEHB28-.LFB10380
	.uleb128 .LEHE28-.LEHB28
	.uleb128 0
	.uleb128 0
.LLSDACSE10380:
	.section	.text$_ZN9wxControlC2Ev,"x"
	.linkonce discard
	.seh_endproc
	.section	.text$_ZN9wxControl7CommandER14wxCommandEvent,"x"
	.linkonce discard
	.align 2
	.globl	_ZN9wxControl7CommandER14wxCommandEvent
	.def	_ZN9wxControl7CommandER14wxCommandEvent;	.scl	2;	.type	32;	.endef
	.seh_proc	_ZN9wxControl7CommandER14wxCommandEvent
_ZN9wxControl7CommandER14wxCommandEvent:
.LFB10385:
	.loc 24 39 18
	.cfi_startproc
	pushq	%rbp
	.seh_pushreg	%rbp
	.cfi_def_cfa_offset 16
	.cfi_offset 6, -16
	movq	%rsp, %rbp
	.seh_setframe	%rbp, 0
	.cfi_def_cfa_register 6
	subq	$32, %rsp
	.seh_stackalloc	32
	.seh_endprologue
	movq	%rcx, 16(%rbp)
	movq	%rdx, 24(%rbp)
	.loc 24 39 65
	movq	24(%rbp), %rax
	movq	%rax, %rdx
	movq	16(%rbp), %rcx
	call	_ZN9wxControl14ProcessCommandER14wxCommandEvent
	.loc 24 39 74
	nop
	addq	$32, %rsp
	popq	%rbp
	.cfi_restore 6
	.cfi_def_cfa 7, 8
	ret
	.cfi_endproc
.LFE10385:
	.seh_endproc
	.section	.text$_ZNK9wxControl20GetDefaultAttributesEv,"x"
	.linkonce discard
	.align 2
	.globl	_ZNK9wxControl20GetDefaultAttributesEv
	.def	_ZNK9wxControl20GetDefaultAttributesEv;	.scl	2;	.type	32;	.endef
	.seh_proc	_ZNK9wxControl20GetDefaultAttributesEv
_ZNK9wxControl20GetDefaultAttributesEv:
.LFB10386:
	.loc 24 45 32
	.cfi_startproc
	pushq	%rbp
	.seh_pushreg	%rbp
	.cfi_def_cfa_offset 16
	.cfi_offset 6, -16
	movq	%rsp, %rbp
	.seh_setframe	%rbp, 0
	.cfi_def_cfa_register 6
	subq	$32, %rsp
	.seh_stackalloc	32
	.seh_endprologue
	movq	%rcx, 16(%rbp)
	movq	%rdx, 24(%rbp)
	.loc 24 47 60
	movq	24(%rbp), %rax
	movq	%rax, %rcx
	call	_ZNK12wxWindowBase16GetWindowVariantEv
	movl	%eax, %edx
	movq	16(%rbp), %rax
	movq	%rax, %rcx
	call	_ZN9wxControl25GetClassDefaultAttributesE15wxWindowVariant
	.loc 24 48 5
	movq	16(%rbp), %rax
	addq	$32, %rsp
	popq	%rbp
	.cfi_restore 6
	.cfi_def_cfa 7, 8
	ret
	.cfi_endproc
.LFE10386:
	.seh_endproc
	.section	.text$_ZN9wxControl9MSWOnDrawEPPv,"x"
	.linkonce discard
	.align 2
	.globl	_ZN9wxControl9MSWOnDrawEPPv
	.def	_ZN9wxControl9MSWOnDrawEPPv;	.scl	2;	.type	32;	.endef
	.seh_proc	_ZN9wxControl9MSWOnDrawEPPv
_ZN9wxControl9MSWOnDrawEPPv:
.LFB10387:
	.loc 24 60 18
	.cfi_startproc
	pushq	%rbp
	.seh_pushreg	%rbp
	.cfi_def_cfa_offset 16
	.cfi_offset 6, -16
	movq	%rsp, %rbp
	.seh_setframe	%rbp, 0
	.cfi_def_cfa_register 6
	.seh_endprologue
	movq	%rcx, 16(%rbp)
	movq	%rdx, 24(%rbp)
	.loc 24 60 57
	movl	$0, %eax
	.loc 24 60 64
	popq	%rbp
	.cfi_restore 6
	.cfi_def_cfa 7, 8
	ret
	.cfi_endproc
.LFE10387:
	.seh_endproc
	.section	.text$_ZN9wxControl12MSWOnMeasureEPPv,"x"
	.linkonce discard
	.align 2
	.globl	_ZN9wxControl12MSWOnMeasureEPPv
	.def	_ZN9wxControl12MSWOnMeasureEPPv;	.scl	2;	.type	32;	.endef
	.seh_proc	_ZN9wxControl12MSWOnMeasureEPPv
_ZN9wxControl12MSWOnMeasureEPPv:
.LFB10388:
	.loc 24 61 18
	.cfi_startproc
	pushq	%rbp
	.seh_pushreg	%rbp
	.cfi_def_cfa_offset 16
	.cfi_offset 6, -16
	movq	%rsp, %rbp
	.seh_setframe	%rbp, 0
	.cfi_def_cfa_register 6
	.seh_endprologue
	movq	%rcx, 16(%rbp)
	movq	%rdx, 24(%rbp)
	.loc 24 61 63
	movl	$0, %eax
	.loc 24 61 70
	popq	%rbp
	.cfi_restore 6
	.cfi_def_cfa 7, 8
	ret
	.cfi_endproc
.LFE10388:
	.seh_endproc
	.section	.text$_ZN9wxControlD2Ev,"x"
	.linkonce discard
	.align 2
	.globl	_ZN9wxControlD2Ev
	.def	_ZN9wxControlD2Ev;	.scl	2;	.type	32;	.endef
	.seh_proc	_ZN9wxControlD2Ev
_ZN9wxControlD2Ev:
.LFB10392:
	.loc 24 17 7
	.cfi_startproc
	pushq	%rbp
	.seh_pushreg	%rbp
	.cfi_def_cfa_offset 16
	.cfi_offset 6, -16
	movq	%rsp, %rbp
	.seh_setframe	%rbp, 0
	.cfi_def_cfa_register 6
	subq	$32, %rsp
	.seh_stackalloc	32
	.seh_endprologue
	movq	%rcx, 16(%rbp)
.LBB48:
	.loc 24 17 7
	movq	.refptr._ZTV9wxControl(%rip), %rax
	leaq	16(%rax), %rdx
	movq	16(%rbp), %rax
	movq	%rdx, (%rax)
	movq	16(%rbp), %rax
	addq	$624, %rax
	movq	%rax, %rcx
	call	_ZN11wxArrayLongD1Ev
	movq	16(%rbp), %rax
	movq	%rax, %rcx
	call	_ZN13wxControlBaseD2Ev
.LBE48:
	nop
	addq	$32, %rsp
	popq	%rbp
	.cfi_restore 6
	.cfi_def_cfa 7, 8
	ret
	.cfi_endproc
.LFE10392:
	.seh_endproc
	.section	.text$_ZN15wxAnyButtonBaseC2Ev,"x"
	.linkonce discard
	.align 2
	.globl	_ZN15wxAnyButtonBaseC2Ev
	.def	_ZN15wxAnyButtonBaseC2Ev;	.scl	2;	.type	32;	.endef
	.seh_proc	_ZN15wxAnyButtonBaseC2Ev
_ZN15wxAnyButtonBaseC2Ev:
.LFB10395:
	.file 25 "../wxMSW-3.0.5_gcc810_x64_Dev/include/wx/anybutton.h"
	.loc 25 54 5
	.cfi_startproc
	pushq	%rbp
	.seh_pushreg	%rbp
	.cfi_def_cfa_offset 16
	.cfi_offset 6, -16
	movq	%rsp, %rbp
	.seh_setframe	%rbp, 0
	.cfi_def_cfa_register 6
	subq	$32, %rsp
	.seh_stackalloc	32
	.seh_endprologue
	movq	%rcx, 16(%rbp)
.LBB49:
	.loc 25 54 23
	movq	16(%rbp), %rax
	movq	%rax, %rcx
	call	_ZN9wxControlC2Ev
	leaq	16+_ZTV15wxAnyButtonBase(%rip), %rdx
	movq	16(%rbp), %rax
	movq	%rdx, (%rax)
.LBE49:
	.loc 25 54 25
	nop
	addq	$32, %rsp
	popq	%rbp
	.cfi_restore 6
	.cfi_def_cfa 7, 8
	ret
	.cfi_endproc
.LFE10395:
	.seh_endproc
	.section	.text$_ZNK15wxAnyButtonBase20ShouldInheritColoursEv,"x"
	.linkonce discard
	.align 2
	.globl	_ZNK15wxAnyButtonBase20ShouldInheritColoursEv
	.def	_ZNK15wxAnyButtonBase20ShouldInheritColoursEv;	.scl	2;	.type	32;	.endef
	.seh_proc	_ZNK15wxAnyButtonBase20ShouldInheritColoursEv
_ZNK15wxAnyButtonBase20ShouldInheritColoursEv:
.LFB10412:
	.loc 25 105 18
	.cfi_startproc
	pushq	%rbp
	.seh_pushreg	%rbp
	.cfi_def_cfa_offset 16
	.cfi_offset 6, -16
	movq	%rsp, %rbp
	.seh_setframe	%rbp, 0
	.cfi_def_cfa_register 6
	.seh_endprologue
	movq	%rcx, 16(%rbp)
	.loc 25 105 56
	movl	$0, %eax
	.loc 25 105 63
	popq	%rbp
	.cfi_restore 6
	.cfi_def_cfa 7, 8
	ret
	.cfi_endproc
.LFE10412:
	.seh_endproc
	.section	.text$_ZNK15wxAnyButtonBase16GetDefaultBorderEv,"x"
	.linkonce discard
	.align 2
	.globl	_ZNK15wxAnyButtonBase16GetDefaultBorderEv
	.def	_ZNK15wxAnyButtonBase16GetDefaultBorderEv;	.scl	2;	.type	32;	.endef
	.seh_proc	_ZNK15wxAnyButtonBase16GetDefaultBorderEv
_ZNK15wxAnyButtonBase16GetDefaultBorderEv:
.LFB10421:
	.loc 25 153 22
	.cfi_startproc
	pushq	%rbp
	.seh_pushreg	%rbp
	.cfi_def_cfa_offset 16
	.cfi_offset 6, -16
	movq	%rsp, %rbp
	.seh_setframe	%rbp, 0
	.cfi_def_cfa_register 6
	.seh_endprologue
	movq	%rcx, 16(%rbp)
	.loc 25 153 56
	movl	$2097152, %eax
	.loc 25 153 71
	popq	%rbp
	.cfi_restore 6
	.cfi_def_cfa 7, 8
	ret
	.cfi_endproc
.LFE10421:
	.seh_endproc
	.section	.text$_ZNK15wxAnyButtonBase11DoGetBitmapENS_5StateE,"x"
	.linkonce discard
	.align 2
	.globl	_ZNK15wxAnyButtonBase11DoGetBitmapENS_5StateE
	.def	_ZNK15wxAnyButtonBase11DoGetBitmapENS_5StateE;	.scl	2;	.type	32;	.endef
	.seh_proc	_ZNK15wxAnyButtonBase11DoGetBitmapENS_5StateE
_ZNK15wxAnyButtonBase11DoGetBitmapENS_5StateE:
.LFB10422:
	.loc 25 155 22
	.cfi_startproc
	pushq	%rbp
	.seh_pushreg	%rbp
	.cfi_def_cfa_offset 16
	.cfi_offset 6, -16
	movq	%rsp, %rbp
	.seh_setframe	%rbp, 0
	.cfi_def_cfa_register 6
	subq	$32, %rsp
	.seh_stackalloc	32
	.seh_endprologue
	movq	%rcx, 16(%rbp)
	movq	%rdx, 24(%rbp)
	movl	%r8d, 32(%rbp)
	.loc 25 156 27
	movq	16(%rbp), %rcx
	call	_ZN8wxBitmapC1Ev
	.loc 25 156 30
	movq	16(%rbp), %rax
	addq	$32, %rsp
	popq	%rbp
	.cfi_restore 6
	.cfi_def_cfa 7, 8
	ret
	.cfi_endproc
.LFE10422:
	.seh_endproc
	.section	.text$_ZN15wxAnyButtonBase11DoSetBitmapERK8wxBitmapNS_5StateE,"x"
	.linkonce discard
	.align 2
	.globl	_ZN15wxAnyButtonBase11DoSetBitmapERK8wxBitmapNS_5StateE
	.def	_ZN15wxAnyButtonBase11DoSetBitmapERK8wxBitmapNS_5StateE;	.scl	2;	.type	32;	.endef
	.seh_proc	_ZN15wxAnyButtonBase11DoSetBitmapERK8wxBitmapNS_5StateE
_ZN15wxAnyButtonBase11DoSetBitmapERK8wxBitmapNS_5StateE:
.LFB10423:
	.loc 25 157 18
	.cfi_startproc
	pushq	%rbp
	.seh_pushreg	%rbp
	.cfi_def_cfa_offset 16
	.cfi_offset 6, -16
	movq	%rsp, %rbp
	.seh_setframe	%rbp, 0
	.cfi_def_cfa_register 6
	.seh_endprologue
	movq	%rcx, 16(%rbp)
	movq	%rdx, 24(%rbp)
	movl	%r8d, 32(%rbp)
	.loc 25 159 11
	nop
	popq	%rbp
	.cfi_restore 6
	.cfi_def_cfa 7, 8
	ret
	.cfi_endproc
.LFE10423:
	.seh_endproc
	.section	.text$_ZNK15wxAnyButtonBase18DoGetBitmapMarginsEv,"x"
	.linkonce discard
	.align 2
	.globl	_ZNK15wxAnyButtonBase18DoGetBitmapMarginsEv
	.def	_ZNK15wxAnyButtonBase18DoGetBitmapMarginsEv;	.scl	2;	.type	32;	.endef
	.seh_proc	_ZNK15wxAnyButtonBase18DoGetBitmapMarginsEv
_ZNK15wxAnyButtonBase18DoGetBitmapMarginsEv:
.LFB10424:
	.loc 25 161 20
	.cfi_startproc
	pushq	%rbp
	.seh_pushreg	%rbp
	.cfi_def_cfa_offset 16
	.cfi_offset 6, -16
	movq	%rsp, %rbp
	.seh_setframe	%rbp, 0
	.cfi_def_cfa_register 6
	subq	$48, %rsp
	.seh_stackalloc	48
	.seh_endprologue
	movq	%rcx, 16(%rbp)
	.loc 25 162 18
	leaq	-8(%rbp), %rax
	movl	$0, %r8d
	movl	$0, %edx
	movq	%rax, %rcx
	call	_ZN6wxSizeC1Eii
	.loc 25 162 29
	movq	-8(%rbp), %rax
	.loc 25 162 32
	addq	$48, %rsp
	popq	%rbp
	.cfi_restore 6
	.cfi_def_cfa 7, 8
	ret
	.cfi_endproc
.LFE10424:
	.seh_endproc
	.section	.text$_ZN15wxAnyButtonBase18DoSetBitmapMarginsEii,"x"
	.linkonce discard
	.align 2
	.globl	_ZN15wxAnyButtonBase18DoSetBitmapMarginsEii
	.def	_ZN15wxAnyButtonBase18DoSetBitmapMarginsEii;	.scl	2;	.type	32;	.endef
	.seh_proc	_ZN15wxAnyButtonBase18DoSetBitmapMarginsEii
_ZN15wxAnyButtonBase18DoSetBitmapMarginsEii:
.LFB10425:
	.loc 25 164 18
	.cfi_startproc
	pushq	%rbp
	.seh_pushreg	%rbp
	.cfi_def_cfa_offset 16
	.cfi_offset 6, -16
	movq	%rsp, %rbp
	.seh_setframe	%rbp, 0
	.cfi_def_cfa_register 6
	.seh_endprologue
	movq	%rcx, 16(%rbp)
	movl	%edx, 24(%rbp)
	movl	%r8d, 32(%rbp)
	.loc 25 165 11
	nop
	popq	%rbp
	.cfi_restore 6
	.cfi_def_cfa 7, 8
	ret
	.cfi_endproc
.LFE10425:
	.seh_endproc
	.section	.text$_ZN15wxAnyButtonBase19DoSetBitmapPositionE11wxDirection,"x"
	.linkonce discard
	.align 2
	.globl	_ZN15wxAnyButtonBase19DoSetBitmapPositionE11wxDirection
	.def	_ZN15wxAnyButtonBase19DoSetBitmapPositionE11wxDirection;	.scl	2;	.type	32;	.endef
	.seh_proc	_ZN15wxAnyButtonBase19DoSetBitmapPositionE11wxDirection
_ZN15wxAnyButtonBase19DoSetBitmapPositionE11wxDirection:
.LFB10426:
	.loc 25 167 18
	.cfi_startproc
	pushq	%rbp
	.seh_pushreg	%rbp
	.cfi_def_cfa_offset 16
	.cfi_offset 6, -16
	movq	%rsp, %rbp
	.seh_setframe	%rbp, 0
	.cfi_def_cfa_register 6
	.seh_endprologue
	movq	%rcx, 16(%rbp)
	movl	%edx, 24(%rbp)
	.loc 25 168 11
	nop
	popq	%rbp
	.cfi_restore 6
	.cfi_def_cfa 7, 8
	ret
	.cfi_endproc
.LFE10426:
	.seh_endproc
	.section	.text$_ZNK15wxAnyButtonBase15DoGetAuthNeededEv,"x"
	.linkonce discard
	.align 2
	.globl	_ZNK15wxAnyButtonBase15DoGetAuthNeededEv
	.def	_ZNK15wxAnyButtonBase15DoGetAuthNeededEv;	.scl	2;	.type	32;	.endef
	.seh_proc	_ZNK15wxAnyButtonBase15DoGetAuthNeededEv
_ZNK15wxAnyButtonBase15DoGetAuthNeededEv:
.LFB10427:
	.loc 25 170 18
	.cfi_startproc
	pushq	%rbp
	.seh_pushreg	%rbp
	.cfi_def_cfa_offset 16
	.cfi_offset 6, -16
	movq	%rsp, %rbp
	.seh_setframe	%rbp, 0
	.cfi_def_cfa_register 6
	.seh_endprologue
	movq	%rcx, 16(%rbp)
	.loc 25 170 51
	movl	$0, %eax
	.loc 25 170 58
	popq	%rbp
	.cfi_restore 6
	.cfi_def_cfa 7, 8
	ret
	.cfi_endproc
.LFE10427:
	.seh_endproc
	.section	.text$_ZN15wxAnyButtonBase15DoSetAuthNeededEb,"x"
	.linkonce discard
	.align 2
	.globl	_ZN15wxAnyButtonBase15DoSetAuthNeededEb
	.def	_ZN15wxAnyButtonBase15DoSetAuthNeededEb;	.scl	2;	.type	32;	.endef
	.seh_proc	_ZN15wxAnyButtonBase15DoSetAuthNeededEb
_ZN15wxAnyButtonBase15DoSetAuthNeededEb:
.LFB10428:
	.loc 25 171 18
	.cfi_startproc
	pushq	%rbp
	.seh_pushreg	%rbp
	.cfi_def_cfa_offset 16
	.cfi_offset 6, -16
	movq	%rsp, %rbp
	.seh_setframe	%rbp, 0
	.cfi_def_cfa_register 6
	.seh_endprologue
	movq	%rcx, 16(%rbp)
	movl	%edx, %eax
	movb	%al, 24(%rbp)
	.loc 25 171 43
	nop
	popq	%rbp
	.cfi_restore 6
	.cfi_def_cfa 7, 8
	ret
	.cfi_endproc
.LFE10428:
	.seh_endproc
	.section	.text$_ZN15wxAnyButtonBaseD1Ev,"x"
	.linkonce discard
	.align 2
	.globl	_ZN15wxAnyButtonBaseD1Ev
	.def	_ZN15wxAnyButtonBaseD1Ev;	.scl	2;	.type	32;	.endef
	.seh_proc	_ZN15wxAnyButtonBaseD1Ev
_ZN15wxAnyButtonBaseD1Ev:
.LFB10432:
	.loc 25 51 7
	.cfi_startproc
	pushq	%rbp
	.seh_pushreg	%rbp
	.cfi_def_cfa_offset 16
	.cfi_offset 6, -16
	movq	%rsp, %rbp
	.seh_setframe	%rbp, 0
	.cfi_def_cfa_register 6
	subq	$32, %rsp
	.seh_stackalloc	32
	.seh_endprologue
	movq	%rcx, 16(%rbp)
.LBB50:
	.loc 25 51 7
	leaq	16+_ZTV15wxAnyButtonBase(%rip), %rdx
	movq	16(%rbp), %rax
	movq	%rdx, (%rax)
	movq	16(%rbp), %rax
	movq	%rax, %rcx
	call	_ZN9wxControlD2Ev
.LBE50:
	nop
	addq	$32, %rsp
	popq	%rbp
	.cfi_restore 6
	.cfi_def_cfa 7, 8
	ret
	.cfi_endproc
.LFE10432:
	.seh_endproc
	.section	.text$_ZN15wxAnyButtonBaseD0Ev,"x"
	.linkonce discard
	.align 2
	.globl	_ZN15wxAnyButtonBaseD0Ev
	.def	_ZN15wxAnyButtonBaseD0Ev;	.scl	2;	.type	32;	.endef
	.seh_proc	_ZN15wxAnyButtonBaseD0Ev
_ZN15wxAnyButtonBaseD0Ev:
.LFB10433:
	.loc 25 51 7
	.cfi_startproc
	pushq	%rbp
	.seh_pushreg	%rbp
	.cfi_def_cfa_offset 16
	.cfi_offset 6, -16
	movq	%rsp, %rbp
	.seh_setframe	%rbp, 0
	.cfi_def_cfa_register 6
	subq	$32, %rsp
	.seh_stackalloc	32
	.seh_endprologue
	movq	%rcx, 16(%rbp)
	.loc 25 51 7
	movq	16(%rbp), %rcx
	call	_ZN15wxAnyButtonBaseD1Ev
	movq	16(%rbp), %rcx
	call	_ZdlPv
	nop
	addq	$32, %rsp
	popq	%rbp
	.cfi_restore 6
	.cfi_def_cfa 7, 8
	ret
	.cfi_endproc
.LFE10433:
	.seh_endproc
	.section	.text$_ZN11wxAnyButtonC2Ev,"x"
	.linkonce discard
	.align 2
	.globl	_ZN11wxAnyButtonC2Ev
	.def	_ZN11wxAnyButtonC2Ev;	.scl	2;	.type	32;	.endef
	.seh_proc	_ZN11wxAnyButtonC2Ev
_ZN11wxAnyButtonC2Ev:
.LFB10434:
	.file 26 "../wxMSW-3.0.5_gcc810_x64_Dev/include/wx/msw/anybutton.h"
	.loc 26 20 5
	.cfi_startproc
	pushq	%rbp
	.seh_pushreg	%rbp
	.cfi_def_cfa_offset 16
	.cfi_offset 6, -16
	movq	%rsp, %rbp
	.seh_setframe	%rbp, 0
	.cfi_def_cfa_register 6
	subq	$32, %rsp
	.seh_stackalloc	32
	.seh_endprologue
	movq	%rcx, 16(%rbp)
.LBB51:
	.loc 26 21 5
	movq	16(%rbp), %rax
	movq	%rax, %rcx
	call	_ZN15wxAnyButtonBaseC2Ev
	movq	.refptr._ZTV11wxAnyButton(%rip), %rax
	leaq	16(%rax), %rdx
	movq	16(%rbp), %rax
	movq	%rdx, (%rax)
	.loc 26 22 21
	movq	16(%rbp), %rax
	movq	$0, 648(%rax)
	.loc 26 24 22
	movq	16(%rbp), %rax
	movq	$0, 656(%rax)
.LBE51:
	.loc 26 26 5
	nop
	addq	$32, %rsp
	popq	%rbp
	.cfi_restore 6
	.cfi_def_cfa 7, 8
	ret
	.cfi_endproc
.LFE10434:
	.seh_endproc
	.section	.text$_ZN12wxButtonBaseC2Ev,"x"
	.linkonce discard
	.align 2
	.globl	_ZN12wxButtonBaseC2Ev
	.def	_ZN12wxButtonBaseC2Ev;	.scl	2;	.type	32;	.endef
	.seh_proc	_ZN12wxButtonBaseC2Ev
_ZN12wxButtonBaseC2Ev:
.LFB10439:
	.file 27 "../wxMSW-3.0.5_gcc810_x64_Dev/include/wx/button.h"
	.loc 27 29 5
	.cfi_startproc
	pushq	%rbp
	.seh_pushreg	%rbp
	.cfi_def_cfa_offset 16
	.cfi_offset 6, -16
	movq	%rsp, %rbp
	.seh_setframe	%rbp, 0
	.cfi_def_cfa_register 6
	subq	$32, %rsp
	.seh_stackalloc	32
	.seh_endprologue
	movq	%rcx, 16(%rbp)
.LBB52:
	.loc 27 29 20
	movq	16(%rbp), %rax
	movq	%rax, %rcx
	call	_ZN11wxAnyButtonC2Ev
	movq	.refptr._ZTV12wxButtonBase(%rip), %rax
	leaq	16(%rax), %rdx
	movq	16(%rbp), %rax
	movq	%rdx, (%rax)
.LBE52:
	.loc 27 29 22
	nop
	addq	$32, %rsp
	popq	%rbp
	.cfi_restore 6
	.cfi_def_cfa 7, 8
	ret
	.cfi_endproc
.LFE10439:
	.seh_endproc
	.section	.text$_ZN12wxButtonBaseD2Ev,"x"
	.linkonce discard
	.align 2
	.globl	_ZN12wxButtonBaseD2Ev
	.def	_ZN12wxButtonBaseD2Ev;	.scl	2;	.type	32;	.endef
	.seh_proc	_ZN12wxButtonBaseD2Ev
_ZN12wxButtonBaseD2Ev:
.LFB10445:
	.loc 27 26 7
	.cfi_startproc
	pushq	%rbp
	.seh_pushreg	%rbp
	.cfi_def_cfa_offset 16
	.cfi_offset 6, -16
	movq	%rsp, %rbp
	.seh_setframe	%rbp, 0
	.cfi_def_cfa_register 6
	subq	$32, %rsp
	.seh_stackalloc	32
	.seh_endprologue
	movq	%rcx, 16(%rbp)
.LBB53:
	.loc 27 26 7
	movq	.refptr._ZTV12wxButtonBase(%rip), %rax
	leaq	16(%rax), %rdx
	movq	16(%rbp), %rax
	movq	%rdx, (%rax)
	movq	16(%rbp), %rax
	movq	%rax, %rcx
	call	_ZN11wxAnyButtonD2Ev
.LBE53:
	nop
	addq	$32, %rsp
	popq	%rbp
	.cfi_restore 6
	.cfi_def_cfa 7, 8
	ret
	.cfi_endproc
.LFE10445:
	.seh_endproc
	.section	.text$_ZN8wxButtonC1EP8wxWindowiRK8wxStringRK7wxPointRK6wxSizelRK11wxValidatorS4_,"x"
	.linkonce discard
	.align 2
	.globl	_ZN8wxButtonC1EP8wxWindowiRK8wxStringRK7wxPointRK6wxSizelRK11wxValidatorS4_
	.def	_ZN8wxButtonC1EP8wxWindowiRK8wxStringRK7wxPointRK6wxSizelRK11wxValidatorS4_;	.scl	2;	.type	32;	.endef
	.seh_proc	_ZN8wxButtonC1EP8wxWindowiRK8wxStringRK7wxPointRK6wxSizelRK11wxValidatorS4_
_ZN8wxButtonC1EP8wxWindowiRK8wxStringRK7wxPointRK6wxSizelRK11wxValidatorS4_:
.LFB10452:
	.file 28 "../wxMSW-3.0.5_gcc810_x64_Dev/include/wx/msw/button.h"
	.loc 28 22 5
	.cfi_startproc
	pushq	%rbp
	.seh_pushreg	%rbp
	.cfi_def_cfa_offset 16
	.cfi_offset 6, -16
	pushq	%rbx
	.seh_pushreg	%rbx
	.cfi_def_cfa_offset 24
	.cfi_offset 3, -24
	subq	$88, %rsp
	.seh_stackalloc	88
	.cfi_def_cfa_offset 112
	leaq	128(%rsp), %rbp
	.seh_setframe	%rbp, 128
	.cfi_def_cfa 6, -16
	.seh_endprologue
	movq	%rcx, -16(%rbp)
	movq	%rdx, -8(%rbp)
	movl	%r8d, 0(%rbp)
	movq	%r9, 8(%rbp)
.LBB54:
	.loc 28 30 5
	movq	-16(%rbp), %rax
	movq	%rax, %rcx
.LEHB29:
	call	_ZN12wxButtonBaseC2Ev
.LEHE29:
	movq	.refptr._ZTV8wxButton(%rip), %rax
	leaq	16(%rax), %rdx
	movq	-16(%rbp), %rax
	movq	%rdx, (%rax)
	.loc 28 31 13
	movq	-16(%rbp), %rcx
	call	_ZN8wxButton4InitEv
	.loc 28 33 15
	movq	8(%rbp), %r8
	movl	0(%rbp), %ecx
	movq	-8(%rbp), %rax
	movq	48(%rbp), %rdx
	movq	%rdx, 64(%rsp)
	movq	40(%rbp), %rdx
	movq	%rdx, 56(%rsp)
	movl	32(%rbp), %edx
	movl	%edx, 48(%rsp)
	movq	24(%rbp), %rdx
	movq	%rdx, 40(%rsp)
	movq	16(%rbp), %rdx
	movq	%rdx, 32(%rsp)
	movq	%r8, %r9
	movl	%ecx, %r8d
	movq	%rax, %rdx
	movq	-16(%rbp), %rcx
.LEHB30:
	call	_ZN8wxButton6CreateEP8wxWindowiRK8wxStringRK7wxPointRK6wxSizelRK11wxValidatorS4_
.LEHE30:
.LBE54:
	.loc 28 34 5
	jmp	.L302
.L301:
	movq	%rax, %rbx
.LBB55:
	.loc 28 30 5
	movq	-16(%rbp), %rax
	movq	%rax, %rcx
	call	_ZN12wxButtonBaseD2Ev
	movq	%rbx, %rax
	movq	%rax, %rcx
.LEHB31:
	call	_Unwind_Resume
	nop
.LEHE31:
.L302:
.LBE55:
	.loc 28 34 5
	addq	$88, %rsp
	popq	%rbx
	.cfi_restore 3
	popq	%rbp
	.cfi_restore 6
	.cfi_def_cfa 7, -72
	ret
	.cfi_endproc
.LFE10452:
	.seh_handler	__gxx_personality_seh0, @unwind, @except
	.seh_handlerdata
.LLSDA10452:
	.byte	0xff
	.byte	0xff
	.byte	0x1
	.uleb128 .LLSDACSE10452-.LLSDACSB10452
.LLSDACSB10452:
	.uleb128 .LEHB29-.LFB10452
	.uleb128 .LEHE29-.LEHB29
	.uleb128 0
	.uleb128 0
	.uleb128 .LEHB30-.LFB10452
	.uleb128 .LEHE30-.LEHB30
	.uleb128 .L301-.LFB10452
	.uleb128 0
	.uleb128 .LEHB31-.LFB10452
	.uleb128 .LEHE31-.LEHB31
	.uleb128 0
	.uleb128 0
.LLSDACSE10452:
	.section	.text$_ZN8wxButtonC1EP8wxWindowiRK8wxStringRK7wxPointRK6wxSizelRK11wxValidatorS4_,"x"
	.linkonce discard
	.seh_endproc
	.section	.text$_ZN8wxButton4InitEv,"x"
	.linkonce discard
	.align 2
	.globl	_ZN8wxButton4InitEv
	.def	_ZN8wxButton4InitEv;	.scl	2;	.type	32;	.endef
	.seh_proc	_ZN8wxButton4InitEv
_ZN8wxButton4InitEv:
.LFB10453:
	.loc 28 74 10
	.cfi_startproc
	pushq	%rbp
	.seh_pushreg	%rbp
	.cfi_def_cfa_offset 16
	.cfi_offset 6, -16
	movq	%rsp, %rbp
	.seh_setframe	%rbp, 0
	.cfi_def_cfa_register 6
	.seh_endprologue
	movq	%rcx, 16(%rbp)
	.loc 28 76 22
	movq	16(%rbp), %rax
	movb	$0, 664(%rax)
	.loc 28 77 5
	nop
	popq	%rbp
	.cfi_restore 6
	.cfi_def_cfa 7, 8
	ret
	.cfi_endproc
.LFE10453:
	.seh_endproc
	.section	.text$_ZNK20wxNonOwnedWindowBase27AdjustForParentClientOriginERiS0_i,"x"
	.linkonce discard
	.align 2
	.globl	_ZNK20wxNonOwnedWindowBase27AdjustForParentClientOriginERiS0_i
	.def	_ZNK20wxNonOwnedWindowBase27AdjustForParentClientOriginERiS0_i;	.scl	2;	.type	32;	.endef
	.seh_proc	_ZNK20wxNonOwnedWindowBase27AdjustForParentClientOriginERiS0_i
_ZNK20wxNonOwnedWindowBase27AdjustForParentClientOriginERiS0_i:
.LFB10455:
	.file 29 "../wxMSW-3.0.5_gcc810_x64_Dev/include/wx/nonownedwnd.h"
	.loc 29 64 18
	.cfi_startproc
	pushq	%rbp
	.seh_pushreg	%rbp
	.cfi_def_cfa_offset 16
	.cfi_offset 6, -16
	movq	%rsp, %rbp
	.seh_setframe	%rbp, 0
	.cfi_def_cfa_register 6
	.seh_endprologue
	movq	%rcx, 16(%rbp)
	movq	%rdx, 24(%rbp)
	movq	%r8, 32(%rbp)
	movl	%r9d, 40(%rbp)
	.loc 29 69 5
	nop
	popq	%rbp
	.cfi_restore 6
	.cfi_def_cfa 7, 8
	ret
	.cfi_endproc
.LFE10455:
	.seh_endproc
	.section	.text$_ZN20wxNonOwnedWindowBase17InheritAttributesEv,"x"
	.linkonce discard
	.align 2
	.globl	_ZN20wxNonOwnedWindowBase17InheritAttributesEv
	.def	_ZN20wxNonOwnedWindowBase17InheritAttributesEv;	.scl	2;	.type	32;	.endef
	.seh_proc	_ZN20wxNonOwnedWindowBase17InheritAttributesEv
_ZN20wxNonOwnedWindowBase17InheritAttributesEv:
.LFB10456:
	.loc 29 71 18
	.cfi_startproc
	pushq	%rbp
	.seh_pushreg	%rbp
	.cfi_def_cfa_offset 16
	.cfi_offset 6, -16
	movq	%rsp, %rbp
	.seh_setframe	%rbp, 0
	.cfi_def_cfa_register 6
	.seh_endprologue
	movq	%rcx, 16(%rbp)
	.loc 29 76 5
	nop
	popq	%rbp
	.cfi_restore 6
	.cfi_def_cfa 7, 8
	ret
	.cfi_endproc
.LFE10456:
	.seh_endproc
	.section	.text$_ZN20wxTopLevelWindowBase8IsActiveEv,"x"
	.linkonce discard
	.align 2
	.globl	_ZN20wxTopLevelWindowBase8IsActiveEv
	.def	_ZN20wxTopLevelWindowBase8IsActiveEv;	.scl	2;	.type	32;	.endef
	.seh_proc	_ZN20wxTopLevelWindowBase8IsActiveEv
_ZN20wxTopLevelWindowBase8IsActiveEv:
.LFB10567:
	.file 30 "../wxMSW-3.0.5_gcc810_x64_Dev/include/wx/toplevel.h"
	.loc 30 226 18
	.cfi_startproc
	pushq	%rbp
	.seh_pushreg	%rbp
	.cfi_def_cfa_offset 16
	.cfi_offset 6, -16
	pushq	%rbx
	.seh_pushreg	%rbx
	.cfi_def_cfa_offset 24
	.cfi_offset 3, -24
	subq	$40, %rsp
	.seh_stackalloc	40
	.cfi_def_cfa_offset 64
	leaq	128(%rsp), %rbp
	.seh_setframe	%rbp, 128
	.cfi_def_cfa 6, -64
	.seh_endprologue
	movq	%rcx, -64(%rbp)
	.loc 30 226 50
	movq	-64(%rbp), %rbx
	.loc 30 226 60
	call	_ZN12wxWindowBase9FindFocusEv
	.loc 30 226 50
	movq	%rax, %rdx
	movq	%rbx, %rcx
	call	_ZNK12wxWindowBase12IsDescendantEPS_
	.loc 30 226 65
	addq	$40, %rsp
	popq	%rbx
	.cfi_restore 3
	popq	%rbp
	.cfi_restore 6
	.cfi_def_cfa 7, -24
	ret
	.cfi_endproc
.LFE10567:
	.seh_endproc
	.section	.text$_ZNK20wxTopLevelWindowBase20ShouldPreventAppExitEv,"x"
	.linkonce discard
	.align 2
	.globl	_ZNK20wxTopLevelWindowBase20ShouldPreventAppExitEv
	.def	_ZNK20wxTopLevelWindowBase20ShouldPreventAppExitEv;	.scl	2;	.type	32;	.endef
	.seh_proc	_ZNK20wxTopLevelWindowBase20ShouldPreventAppExitEv
_ZNK20wxTopLevelWindowBase20ShouldPreventAppExitEv:
.LFB10568:
	.loc 30 233 18
	.cfi_startproc
	pushq	%rbp
	.seh_pushreg	%rbp
	.cfi_def_cfa_offset 16
	.cfi_offset 6, -16
	movq	%rsp, %rbp
	.seh_setframe	%rbp, 0
	.cfi_def_cfa_register 6
	.seh_endprologue
	movq	%rcx, 16(%rbp)
	.loc 30 233 56
	movl	$1, %eax
	.loc 30 233 62
	popq	%rbp
	.cfi_restore 6
	.cfi_def_cfa 7, 8
	ret
	.cfi_endproc
.LFE10568:
	.seh_endproc
	.section	.text$_ZNK20wxTopLevelWindowBase10IsTopLevelEv,"x"
	.linkonce discard
	.align 2
	.globl	_ZNK20wxTopLevelWindowBase10IsTopLevelEv
	.def	_ZNK20wxTopLevelWindowBase10IsTopLevelEv;	.scl	2;	.type	32;	.endef
	.seh_proc	_ZNK20wxTopLevelWindowBase10IsTopLevelEv
_ZNK20wxTopLevelWindowBase10IsTopLevelEv:
.LFB10575:
	.loc 30 277 18
	.cfi_startproc
	pushq	%rbp
	.seh_pushreg	%rbp
	.cfi_def_cfa_offset 16
	.cfi_offset 6, -16
	movq	%rsp, %rbp
	.seh_setframe	%rbp, 0
	.cfi_def_cfa_register 6
	.seh_endprologue
	movq	%rcx, 16(%rbp)
	.loc 30 277 46
	movl	$1, %eax
	.loc 30 277 52
	popq	%rbp
	.cfi_restore 6
	.cfi_def_cfa 7, 8
	ret
	.cfi_endproc
.LFE10575:
	.seh_endproc
	.section	.text$_ZNK20wxTopLevelWindowBase21IsTopNavigationDomainEv,"x"
	.linkonce discard
	.align 2
	.globl	_ZNK20wxTopLevelWindowBase21IsTopNavigationDomainEv
	.def	_ZNK20wxTopLevelWindowBase21IsTopNavigationDomainEv;	.scl	2;	.type	32;	.endef
	.seh_proc	_ZNK20wxTopLevelWindowBase21IsTopNavigationDomainEv
_ZNK20wxTopLevelWindowBase21IsTopNavigationDomainEv:
.LFB10576:
	.loc 30 278 18
	.cfi_startproc
	pushq	%rbp
	.seh_pushreg	%rbp
	.cfi_def_cfa_offset 16
	.cfi_offset 6, -16
	movq	%rsp, %rbp
	.seh_setframe	%rbp, 0
	.cfi_def_cfa_register 6
	.seh_endprologue
	movq	%rcx, 16(%rbp)
	.loc 30 278 57
	movl	$1, %eax
	.loc 30 278 63
	popq	%rbp
	.cfi_restore 6
	.cfi_def_cfa 7, 8
	ret
	.cfi_endproc
.LFE10576:
	.seh_endproc
	.section	.text$_ZNK20wxTopLevelWindowBase9IsVisibleEv,"x"
	.linkonce discard
	.align 2
	.globl	_ZNK20wxTopLevelWindowBase9IsVisibleEv
	.def	_ZNK20wxTopLevelWindowBase9IsVisibleEv;	.scl	2;	.type	32;	.endef
	.seh_proc	_ZNK20wxTopLevelWindowBase9IsVisibleEv
_ZNK20wxTopLevelWindowBase9IsVisibleEv:
.LFB10577:
	.loc 30 279 18
	.cfi_startproc
	pushq	%rbp
	.seh_pushreg	%rbp
	.cfi_def_cfa_offset 16
	.cfi_offset 6, -16
	movq	%rsp, %rbp
	.seh_setframe	%rbp, 0
	.cfi_def_cfa_register 6
	subq	$32, %rsp
	.seh_stackalloc	32
	.seh_endprologue
	movq	%rcx, 16(%rbp)
	.loc 30 279 52
	movq	16(%rbp), %rdx
	.loc 30 279 53
	movq	16(%rbp), %rax
	movq	(%rax), %rax
	addq	$480, %rax
	movq	(%rax), %rax
	.loc 30 279 52
	movq	%rdx, %rcx
	call	*%rax
.LVL22:
	.loc 30 279 56
	addq	$32, %rsp
	popq	%rbp
	.cfi_restore 6
	.cfi_def_cfa 7, 8
	ret
	.cfi_endproc
.LFE10577:
	.seh_endproc
	.section	.text$_ZN20wxTopLevelWindowBase14OSXSetModifiedEb,"x"
	.linkonce discard
	.align 2
	.globl	_ZN20wxTopLevelWindowBase14OSXSetModifiedEb
	.def	_ZN20wxTopLevelWindowBase14OSXSetModifiedEb;	.scl	2;	.type	32;	.endef
	.seh_proc	_ZN20wxTopLevelWindowBase14OSXSetModifiedEb
_ZN20wxTopLevelWindowBase14OSXSetModifiedEb:
.LFB10580:
	.loc 30 299 18
	.cfi_startproc
	pushq	%rbp
	.seh_pushreg	%rbp
	.cfi_def_cfa_offset 16
	.cfi_offset 6, -16
	movq	%rsp, %rbp
	.seh_setframe	%rbp, 0
	.cfi_def_cfa_register 6
	.seh_endprologue
	movq	%rcx, 16(%rbp)
	movl	%edx, %eax
	movb	%al, 24(%rbp)
	.loc 30 299 61
	movq	16(%rbp), %rdx
	movzbl	24(%rbp), %eax
	movb	%al, 640(%rdx)
	.loc 30 299 73
	nop
	popq	%rbp
	.cfi_restore 6
	.cfi_def_cfa 7, 8
	ret
	.cfi_endproc
.LFE10580:
	.seh_endproc
	.section	.text$_ZNK20wxTopLevelWindowBase13OSXIsModifiedEv,"x"
	.linkonce discard
	.align 2
	.globl	_ZNK20wxTopLevelWindowBase13OSXIsModifiedEv
	.def	_ZNK20wxTopLevelWindowBase13OSXIsModifiedEv;	.scl	2;	.type	32;	.endef
	.seh_proc	_ZNK20wxTopLevelWindowBase13OSXIsModifiedEv
_ZNK20wxTopLevelWindowBase13OSXIsModifiedEv:
.LFB10581:
	.loc 30 300 18
	.cfi_startproc
	pushq	%rbp
	.seh_pushreg	%rbp
	.cfi_def_cfa_offset 16
	.cfi_offset 6, -16
	movq	%rsp, %rbp
	.seh_setframe	%rbp, 0
	.cfi_def_cfa_register 6
	.seh_endprologue
	movq	%rcx, 16(%rbp)
	.loc 30 300 49
	movq	16(%rbp), %rax
	movzbl	640(%rax), %eax
	.loc 30 300 61
	popq	%rbp
	.cfi_restore 6
	.cfi_def_cfa 7, 8
	ret
	.cfi_endproc
.LFE10581:
	.seh_endproc
	.section	.text$_ZN20wxTopLevelWindowBase22SetRepresentedFilenameERK8wxString,"x"
	.linkonce discard
	.align 2
	.globl	_ZN20wxTopLevelWindowBase22SetRepresentedFilenameERK8wxString
	.def	_ZN20wxTopLevelWindowBase22SetRepresentedFilenameERK8wxString;	.scl	2;	.type	32;	.endef
	.seh_proc	_ZN20wxTopLevelWindowBase22SetRepresentedFilenameERK8wxString
_ZN20wxTopLevelWindowBase22SetRepresentedFilenameERK8wxString:
.LFB10582:
	.loc 30 302 18
	.cfi_startproc
	pushq	%rbp
	.seh_pushreg	%rbp
	.cfi_def_cfa_offset 16
	.cfi_offset 6, -16
	movq	%rsp, %rbp
	.seh_setframe	%rbp, 0
	.cfi_def_cfa_register 6
	.seh_endprologue
	movq	%rcx, 16(%rbp)
	movq	%rdx, 24(%rbp)
	.loc 30 302 61
	nop
	popq	%rbp
	.cfi_restore 6
	.cfi_def_cfa 7, 8
	ret
	.cfi_endproc
.LFE10582:
	.seh_endproc
	.section	.text$_ZN20wxTopLevelWindowBase10DoGiveHelpERK8wxStringb,"x"
	.linkonce discard
	.align 2
	.globl	_ZN20wxTopLevelWindowBase10DoGiveHelpERK8wxStringb
	.def	_ZN20wxTopLevelWindowBase10DoGiveHelpERK8wxStringb;	.scl	2;	.type	32;	.endef
	.seh_proc	_ZN20wxTopLevelWindowBase10DoGiveHelpERK8wxStringb
_ZN20wxTopLevelWindowBase10DoGiveHelpERK8wxStringb:
.LFB10583:
	.loc 30 308 18
	.cfi_startproc
	pushq	%rbp
	.seh_pushreg	%rbp
	.cfi_def_cfa_offset 16
	.cfi_offset 6, -16
	movq	%rsp, %rbp
	.seh_setframe	%rbp, 0
	.cfi_def_cfa_register 6
	.seh_endprologue
	movq	%rcx, 16(%rbp)
	movq	%rdx, 24(%rbp)
	movl	%r8d, %eax
	movb	%al, 32(%rbp)
	.loc 30 308 55
	nop
	popq	%rbp
	.cfi_restore 6
	.cfi_def_cfa 7, 8
	ret
	.cfi_endproc
.LFE10583:
	.seh_endproc
	.section	.text$_ZNK20wxTopLevelWindowBase19DoGetScreenPositionEPiS0_,"x"
	.linkonce discard
	.align 2
	.globl	_ZNK20wxTopLevelWindowBase19DoGetScreenPositionEPiS0_
	.def	_ZNK20wxTopLevelWindowBase19DoGetScreenPositionEPiS0_;	.scl	2;	.type	32;	.endef
	.seh_proc	_ZNK20wxTopLevelWindowBase19DoGetScreenPositionEPiS0_
_ZNK20wxTopLevelWindowBase19DoGetScreenPositionEPiS0_:
.LFB10584:
	.loc 30 322 18
	.cfi_startproc
	pushq	%rbp
	.seh_pushreg	%rbp
	.cfi_def_cfa_offset 16
	.cfi_offset 6, -16
	movq	%rsp, %rbp
	.seh_setframe	%rbp, 0
	.cfi_def_cfa_register 6
	subq	$32, %rsp
	.seh_stackalloc	32
	.seh_endprologue
	movq	%rcx, 16(%rbp)
	movq	%rdx, 24(%rbp)
	movq	%r8, 32(%rbp)
	.loc 30 324 22
	movq	16(%rbp), %rcx
	.loc 30 324 27
	movq	16(%rbp), %rax
	movq	(%rax), %rax
	addq	$1304, %rax
	movq	(%rax), %rax
	.loc 30 324 22
	movq	32(%rbp), %r8
	movq	24(%rbp), %rdx
	call	*%rax
.LVL23:
	.loc 30 325 5
	nop
	addq	$32, %rsp
	popq	%rbp
	.cfi_restore 6
	.cfi_def_cfa 7, 8
	ret
	.cfi_endproc
.LFE10584:
	.seh_endproc
	.section	.text$_ZNK20wxTopLevelWindowBase11IsOneOfBarsEPK8wxWindow,"x"
	.linkonce discard
	.align 2
	.globl	_ZNK20wxTopLevelWindowBase11IsOneOfBarsEPK8wxWindow
	.def	_ZNK20wxTopLevelWindowBase11IsOneOfBarsEPK8wxWindow;	.scl	2;	.type	32;	.endef
	.seh_proc	_ZNK20wxTopLevelWindowBase11IsOneOfBarsEPK8wxWindow
_ZNK20wxTopLevelWindowBase11IsOneOfBarsEPK8wxWindow:
.LFB10585:
	.loc 30 329 18
	.cfi_startproc
	pushq	%rbp
	.seh_pushreg	%rbp
	.cfi_def_cfa_offset 16
	.cfi_offset 6, -16
	movq	%rsp, %rbp
	.seh_setframe	%rbp, 0
	.cfi_def_cfa_register 6
	.seh_endprologue
	movq	%rcx, 16(%rbp)
	movq	%rdx, 24(%rbp)
	.loc 30 330 18
	movl	$0, %eax
	.loc 30 330 25
	popq	%rbp
	.cfi_restore 6
	.cfi_def_cfa 7, 8
	ret
	.cfi_endproc
.LFE10585:
	.seh_endproc
	.section	.text$_ZNK19wxTopLevelWindowMSW12IsFullScreenEv,"x"
	.linkonce discard
	.align 2
	.globl	_ZNK19wxTopLevelWindowMSW12IsFullScreenEv
	.def	_ZNK19wxTopLevelWindowMSW12IsFullScreenEv;	.scl	2;	.type	32;	.endef
	.seh_proc	_ZNK19wxTopLevelWindowMSW12IsFullScreenEv
_ZNK19wxTopLevelWindowMSW12IsFullScreenEv:
.LFB10594:
	.file 31 "../wxMSW-3.0.5_gcc810_x64_Dev/include/wx/msw/toplevel.h"
	.loc 31 66 18
	.cfi_startproc
	pushq	%rbp
	.seh_pushreg	%rbp
	.cfi_def_cfa_offset 16
	.cfi_offset 6, -16
	movq	%rsp, %rbp
	.seh_setframe	%rbp, 0
	.cfi_def_cfa_register 6
	.seh_endprologue
	movq	%rcx, 16(%rbp)
	.loc 31 66 48
	movq	16(%rbp), %rax
	movzbl	669(%rax), %eax
	.loc 31 66 63
	popq	%rbp
	.cfi_restore 6
	.cfi_def_cfa 7, 8
	ret
	.cfi_endproc
.LFE10594:
	.seh_endproc
	.section	.text$_ZNK19wxTopLevelWindowMSW19CanApplyThemeBorderEv,"x"
	.linkonce discard
	.align 2
	.globl	_ZNK19wxTopLevelWindowMSW19CanApplyThemeBorderEv
	.def	_ZNK19wxTopLevelWindowMSW19CanApplyThemeBorderEv;	.scl	2;	.type	32;	.endef
	.seh_proc	_ZNK19wxTopLevelWindowMSW19CanApplyThemeBorderEv
_ZNK19wxTopLevelWindowMSW19CanApplyThemeBorderEv:
.LFB10597:
	.loc 31 122 18
	.cfi_startproc
	pushq	%rbp
	.seh_pushreg	%rbp
	.cfi_def_cfa_offset 16
	.cfi_offset 6, -16
	movq	%rsp, %rbp
	.seh_setframe	%rbp, 0
	.cfi_def_cfa_register 6
	.seh_endprologue
	movq	%rcx, 16(%rbp)
	.loc 31 122 55
	movl	$0, %eax
	.loc 31 122 62
	popq	%rbp
	.cfi_restore 6
	.cfi_def_cfa 7, 8
	ret
	.cfi_endproc
.LFE10597:
	.seh_endproc
	.section	.text$_ZN22wxControlContainerBaseD2Ev,"x"
	.linkonce discard
	.align 2
	.globl	_ZN22wxControlContainerBaseD2Ev
	.def	_ZN22wxControlContainerBaseD2Ev;	.scl	2;	.type	32;	.endef
	.seh_proc	_ZN22wxControlContainerBaseD2Ev
_ZN22wxControlContainerBaseD2Ev:
.LFB10608:
	.file 32 "../wxMSW-3.0.5_gcc810_x64_Dev/include/wx/containr.h"
	.loc 32 53 13
	.cfi_startproc
	pushq	%rbp
	.seh_pushreg	%rbp
	.cfi_def_cfa_offset 16
	.cfi_offset 6, -16
	movq	%rsp, %rbp
	.seh_setframe	%rbp, 0
	.cfi_def_cfa_register 6
	.seh_endprologue
	movq	%rcx, 16(%rbp)
.LBB56:
	.loc 32 53 39
	movq	.refptr._ZTV22wxControlContainerBase(%rip), %rax
	leaq	16(%rax), %rdx
	movq	16(%rbp), %rax
	movq	%rdx, (%rax)
.LBE56:
	.loc 32 53 40
	nop
	popq	%rbp
	.cfi_restore 6
	.cfi_def_cfa 7, 8
	ret
	.cfi_endproc
.LFE10608:
	.seh_endproc
	.section	.text$_ZNK22wxControlContainerBase23AcceptsFocusRecursivelyEv,"x"
	.linkonce discard
	.align 2
	.globl	_ZNK22wxControlContainerBase23AcceptsFocusRecursivelyEv
	.def	_ZNK22wxControlContainerBase23AcceptsFocusRecursivelyEv;	.scl	2;	.type	32;	.endef
	.seh_proc	_ZNK22wxControlContainerBase23AcceptsFocusRecursivelyEv
_ZNK22wxControlContainerBase23AcceptsFocusRecursivelyEv:
.LFB10614:
	.loc 32 81 10
	.cfi_startproc
	pushq	%rbp
	.seh_pushreg	%rbp
	.cfi_def_cfa_offset 16
	.cfi_offset 6, -16
	movq	%rsp, %rbp
	.seh_setframe	%rbp, 0
	.cfi_def_cfa_register 6
	subq	$32, %rsp
	.seh_stackalloc	32
	.seh_endprologue
	movq	%rcx, 16(%rbp)
	.loc 32 82 30
	movq	16(%rbp), %rcx
	call	_ZNK22wxControlContainerBase12AcceptsFocusEv
	.loc 32 82 33
	testb	%al, %al
	jne	.L330
	.loc 32 83 14 discriminator 2
	movq	16(%rbp), %rax
	movzbl	25(%rax), %eax
	.loc 32 82 33 discriminator 2
	testb	%al, %al
	je	.L331
	.loc 32 83 68
	movq	16(%rbp), %rcx
	call	_ZNK22wxControlContainerBase28HasAnyChildrenAcceptingFocusEv
	.loc 32 83 37
	testb	%al, %al
	je	.L331
.L330:
	.loc 32 82 33 discriminator 1
	movl	$1, %eax
	jmp	.L332
.L331:
	.loc 32 82 33 is_stmt 0 discriminator 3
	movl	$0, %eax
.L332:
	.loc 32 83 73 is_stmt 1
	addq	$32, %rsp
	popq	%rbp
	.cfi_restore 6
	.cfi_def_cfa 7, 8
	ret
	.cfi_endproc
.LFE10614:
	.seh_endproc
	.section	.text$_ZNK22wxControlContainerBase24AcceptsFocusFromKeyboardEv,"x"
	.linkonce discard
	.align 2
	.globl	_ZNK22wxControlContainerBase24AcceptsFocusFromKeyboardEv
	.def	_ZNK22wxControlContainerBase24AcceptsFocusFromKeyboardEv;	.scl	2;	.type	32;	.endef
	.seh_proc	_ZNK22wxControlContainerBase24AcceptsFocusFromKeyboardEv
_ZNK22wxControlContainerBase24AcceptsFocusFromKeyboardEv:
.LFB10615:
	.loc 32 86 10
	.cfi_startproc
	pushq	%rbp
	.seh_pushreg	%rbp
	.cfi_def_cfa_offset 16
	.cfi_offset 6, -16
	movq	%rsp, %rbp
	.seh_setframe	%rbp, 0
	.cfi_def_cfa_register 6
	subq	$32, %rsp
	.seh_stackalloc	32
	.seh_endprologue
	movq	%rcx, 16(%rbp)
	.loc 32 86 75
	movq	16(%rbp), %rcx
	call	_ZNK22wxControlContainerBase23AcceptsFocusRecursivelyEv
	.loc 32 86 79
	addq	$32, %rsp
	popq	%rbp
	.cfi_restore 6
	.cfi_def_cfa 7, 8
	ret
	.cfi_endproc
.LFE10615:
	.seh_endproc
	.section	.text$_ZN16wxTopLevelWindowD2Ev,"x"
	.linkonce discard
	.align 2
	.globl	_ZN16wxTopLevelWindowD2Ev
	.def	_ZN16wxTopLevelWindowD2Ev;	.scl	2;	.type	32;	.endef
	.seh_proc	_ZN16wxTopLevelWindowD2Ev
_ZN16wxTopLevelWindowD2Ev:
.LFB15360:
	.loc 30 395 11
	.cfi_startproc
	pushq	%rbp
	.seh_pushreg	%rbp
	.cfi_def_cfa_offset 16
	.cfi_offset 6, -16
	movq	%rsp, %rbp
	.seh_setframe	%rbp, 0
	.cfi_def_cfa_register 6
	subq	$32, %rsp
	.seh_stackalloc	32
	.seh_endprologue
	movq	%rcx, 16(%rbp)
.LBB57:
	.loc 30 395 11
	movq	.refptr._ZTV16wxTopLevelWindow(%rip), %rax
	leaq	16(%rax), %rdx
	movq	16(%rbp), %rax
	movq	%rdx, (%rax)
	movq	16(%rbp), %rax
	movq	%rax, %rcx
	call	_ZN19wxTopLevelWindowMSWD2Ev
.LBE57:
	nop
	addq	$32, %rsp
	popq	%rbp
	.cfi_restore 6
	.cfi_def_cfa 7, 8
	ret
	.cfi_endproc
.LFE15360:
	.seh_endproc
	.section	.text$_ZN19wxNavigationEnabledI16wxTopLevelWindowED2Ev,"x"
	.linkonce discard
	.align 2
	.globl	_ZN19wxNavigationEnabledI16wxTopLevelWindowED2Ev
	.def	_ZN19wxNavigationEnabledI16wxTopLevelWindowED2Ev;	.scl	2;	.type	32;	.endef
	.seh_proc	_ZN19wxNavigationEnabledI16wxTopLevelWindowED2Ev
_ZN19wxNavigationEnabledI16wxTopLevelWindowED2Ev:
.LFB15363:
	.loc 32 182 7
	.cfi_startproc
	pushq	%rbp
	.seh_pushreg	%rbp
	.cfi_def_cfa_offset 16
	.cfi_offset 6, -16
	movq	%rsp, %rbp
	.seh_setframe	%rbp, 0
	.cfi_def_cfa_register 6
	subq	$32, %rsp
	.seh_stackalloc	32
	.seh_endprologue
	movq	%rcx, 16(%rbp)
.LBB58:
	.loc 32 182 7
	leaq	16+_ZTV19wxNavigationEnabledI16wxTopLevelWindowE(%rip), %rdx
	movq	16(%rbp), %rax
	movq	%rdx, (%rax)
	movq	16(%rbp), %rax
	addq	$696, %rax
	movq	%rax, %rcx
	call	_ZN18wxControlContainerD1Ev
	movq	16(%rbp), %rax
	movq	%rax, %rcx
	call	_ZN16wxTopLevelWindowD2Ev
.LBE58:
	nop
	addq	$32, %rsp
	popq	%rbp
	.cfi_restore 6
	.cfi_def_cfa 7, 8
	ret
	.cfi_endproc
.LFE15363:
	.seh_endproc
	.section	.text$_ZN19wxNavigationEnabledI16wxTopLevelWindowED1Ev,"x"
	.linkonce discard
	.align 2
	.globl	_ZN19wxNavigationEnabledI16wxTopLevelWindowED1Ev
	.def	_ZN19wxNavigationEnabledI16wxTopLevelWindowED1Ev;	.scl	2;	.type	32;	.endef
	.seh_proc	_ZN19wxNavigationEnabledI16wxTopLevelWindowED1Ev
_ZN19wxNavigationEnabledI16wxTopLevelWindowED1Ev:
.LFB15364:
	.loc 32 182 7
	.cfi_startproc
	pushq	%rbp
	.seh_pushreg	%rbp
	.cfi_def_cfa_offset 16
	.cfi_offset 6, -16
	movq	%rsp, %rbp
	.seh_setframe	%rbp, 0
	.cfi_def_cfa_register 6
	subq	$32, %rsp
	.seh_stackalloc	32
	.seh_endprologue
	movq	%rcx, 16(%rbp)
.LBB59:
	.loc 32 182 7
	leaq	16+_ZTV19wxNavigationEnabledI16wxTopLevelWindowE(%rip), %rdx
	movq	16(%rbp), %rax
	movq	%rdx, (%rax)
	movq	16(%rbp), %rax
	addq	$696, %rax
	movq	%rax, %rcx
	call	_ZN18wxControlContainerD1Ev
	movq	16(%rbp), %rax
	movq	%rax, %rcx
	call	_ZN16wxTopLevelWindowD2Ev
.LBE59:
	nop
	addq	$32, %rsp
	popq	%rbp
	.cfi_restore 6
	.cfi_def_cfa 7, 8
	ret
	.cfi_endproc
.LFE15364:
	.seh_endproc
	.section	.text$_ZN19wxNavigationEnabledI16wxTopLevelWindowED0Ev,"x"
	.linkonce discard
	.align 2
	.globl	_ZN19wxNavigationEnabledI16wxTopLevelWindowED0Ev
	.def	_ZN19wxNavigationEnabledI16wxTopLevelWindowED0Ev;	.scl	2;	.type	32;	.endef
	.seh_proc	_ZN19wxNavigationEnabledI16wxTopLevelWindowED0Ev
_ZN19wxNavigationEnabledI16wxTopLevelWindowED0Ev:
.LFB15365:
	.loc 32 182 7
	.cfi_startproc
	pushq	%rbp
	.seh_pushreg	%rbp
	.cfi_def_cfa_offset 16
	.cfi_offset 6, -16
	movq	%rsp, %rbp
	.seh_setframe	%rbp, 0
	.cfi_def_cfa_register 6
	subq	$32, %rsp
	.seh_stackalloc	32
	.seh_endprologue
	movq	%rcx, 16(%rbp)
	.loc 32 182 7
	movq	16(%rbp), %rcx
	call	_ZN19wxNavigationEnabledI16wxTopLevelWindowED1Ev
	movq	16(%rbp), %rcx
	call	_ZdlPv
	nop
	addq	$32, %rsp
	popq	%rbp
	.cfi_restore 6
	.cfi_def_cfa 7, 8
	ret
	.cfi_endproc
.LFE15365:
	.seh_endproc
	.section	.text$_ZN12wxDialogBaseD2Ev,"x"
	.linkonce discard
	.align 2
	.globl	_ZN12wxDialogBaseD2Ev
	.def	_ZN12wxDialogBaseD2Ev;	.scl	2;	.type	32;	.endef
	.seh_proc	_ZN12wxDialogBaseD2Ev
_ZN12wxDialogBaseD2Ev:
.LFB15366:
	.file 33 "../wxMSW-3.0.5_gcc810_x64_Dev/include/wx/dialog.h"
	.loc 33 72 13
	.cfi_startproc
	pushq	%rbp
	.seh_pushreg	%rbp
	.cfi_def_cfa_offset 16
	.cfi_offset 6, -16
	movq	%rsp, %rbp
	.seh_setframe	%rbp, 0
	.cfi_def_cfa_register 6
	subq	$32, %rsp
	.seh_stackalloc	32
	.seh_endprologue
	movq	%rcx, 16(%rbp)
.LBB60:
	.loc 33 72 29
	movq	.refptr._ZTV12wxDialogBase(%rip), %rax
	leaq	16(%rax), %rdx
	movq	16(%rbp), %rax
	movq	%rdx, (%rax)
	movq	16(%rbp), %rax
	addq	$744, %rax
	movq	%rax, %rcx
	call	_ZN10wxArrayIntD1Ev
	movq	16(%rbp), %rax
	movq	%rax, %rcx
	call	_ZN19wxNavigationEnabledI16wxTopLevelWindowED2Ev
.LBE60:
	.loc 33 72 31
	nop
	addq	$32, %rsp
	popq	%rbp
	.cfi_restore 6
	.cfi_def_cfa 7, 8
	ret
	.cfi_endproc
.LFE15366:
	.seh_endproc
	.section	.text$_ZNK12wxDialogBase16GetContentWindowEv,"x"
	.linkonce discard
	.align 2
	.globl	_ZNK12wxDialogBase16GetContentWindowEv
	.def	_ZNK12wxDialogBase16GetContentWindowEv;	.scl	2;	.type	32;	.endef
	.seh_proc	_ZNK12wxDialogBase16GetContentWindowEv
_ZNK12wxDialogBase16GetContentWindowEv:
.LFB15374:
	.loc 33 165 23
	.cfi_startproc
	pushq	%rbp
	.seh_pushreg	%rbp
	.cfi_def_cfa_offset 16
	.cfi_offset 6, -16
	movq	%rsp, %rbp
	.seh_setframe	%rbp, 0
	.cfi_def_cfa_register 6
	.seh_endprologue
	movq	%rcx, 16(%rbp)
	.loc 33 165 56
	movl	$0, %eax
	.loc 33 165 62
	popq	%rbp
	.cfi_restore 6
	.cfi_def_cfa 7, 8
	ret
	.cfi_endproc
.LFE15374:
	.seh_endproc
	.section	.text$_ZN8wxDialogC2Ev,"x"
	.linkonce discard
	.align 2
	.globl	_ZN8wxDialogC2Ev
	.def	_ZN8wxDialogC2Ev;	.scl	2;	.type	32;	.endef
	.seh_proc	_ZN8wxDialogC2Ev
_ZN8wxDialogC2Ev:
.LFB15418:
	.file 34 "../wxMSW-3.0.5_gcc810_x64_Dev/include/wx/msw/dialog.h"
	.loc 34 38 5
	.cfi_startproc
	pushq	%rbp
	.seh_pushreg	%rbp
	.cfi_def_cfa_offset 16
	.cfi_offset 6, -16
	pushq	%rbx
	.seh_pushreg	%rbx
	.cfi_def_cfa_offset 24
	.cfi_offset 3, -24
	subq	$40, %rsp
	.seh_stackalloc	40
	.cfi_def_cfa_offset 64
	leaq	128(%rsp), %rbp
	.seh_setframe	%rbp, 128
	.cfi_def_cfa 6, -64
	.seh_endprologue
	movq	%rcx, -64(%rbp)
.LBB61:
	.loc 34 38 16
	movq	-64(%rbp), %rax
	movq	%rax, %rcx
.LEHB32:
	call	_ZN12wxDialogBaseC2Ev
.LEHE32:
	movq	.refptr._ZTV8wxDialog(%rip), %rax
	leaq	16(%rax), %rdx
	movq	-64(%rbp), %rax
	movq	%rdx, (%rax)
	.loc 34 38 22
	movq	-64(%rbp), %rcx
.LEHB33:
	call	_ZN8wxDialog4InitEv
.LEHE33:
.LBE61:
	.loc 34 38 26
	jmp	.L346
.L345:
	movq	%rax, %rbx
.LBB62:
	.loc 34 38 16
	movq	-64(%rbp), %rax
	movq	%rax, %rcx
	call	_ZN12wxDialogBaseD2Ev
	movq	%rbx, %rax
	movq	%rax, %rcx
.LEHB34:
	call	_Unwind_Resume
	nop
.LEHE34:
.L346:
.LBE62:
	.loc 34 38 26
	addq	$40, %rsp
	popq	%rbx
	.cfi_restore 3
	popq	%rbp
	.cfi_restore 6
	.cfi_def_cfa 7, -24
	ret
	.cfi_endproc
.LFE15418:
	.seh_handler	__gxx_personality_seh0, @unwind, @except
	.seh_handlerdata
.LLSDA15418:
	.byte	0xff
	.byte	0xff
	.byte	0x1
	.uleb128 .LLSDACSE15418-.LLSDACSB15418
.LLSDACSB15418:
	.uleb128 .LEHB32-.LFB15418
	.uleb128 .LEHE32-.LEHB32
	.uleb128 0
	.uleb128 0
	.uleb128 .LEHB33-.LFB15418
	.uleb128 .LEHE33-.LEHB33
	.uleb128 .L345-.LFB15418
	.uleb128 0
	.uleb128 .LEHB34-.LFB15418
	.uleb128 .LEHE34-.LEHB34
	.uleb128 0
	.uleb128 0
.LLSDACSE15418:
	.section	.text$_ZN8wxDialogC2Ev,"x"
	.linkonce discard
	.seh_endproc
	.section	.text$_ZNK8wxDialog7IsModalEv,"x"
	.linkonce discard
	.align 2
	.globl	_ZNK8wxDialog7IsModalEv
	.def	_ZNK8wxDialog7IsModalEv;	.scl	2;	.type	32;	.endef
	.seh_proc	_ZNK8wxDialog7IsModalEv
_ZNK8wxDialog7IsModalEv:
.LFB15423:
	.loc 34 63 18
	.cfi_startproc
	pushq	%rbp
	.seh_pushreg	%rbp
	.cfi_def_cfa_offset 16
	.cfi_offset 6, -16
	movq	%rsp, %rbp
	.seh_setframe	%rbp, 0
	.cfi_def_cfa_register 6
	.seh_endprologue
	movq	%rcx, 16(%rbp)
	.loc 34 63 43
	movq	16(%rbp), %rax
	movq	784(%rax), %rax
	.loc 34 63 57
	testq	%rax, %rax
	setne	%al
	.loc 34 63 63
	popq	%rbp
	.cfi_restore 6
	.cfi_def_cfa 7, 8
	ret
	.cfi_endproc
.LFE15423:
	.seh_endproc
	.section	.text$_ZN14wxListItemAttrC1Ev,"x"
	.linkonce discard
	.align 2
	.globl	_ZN14wxListItemAttrC1Ev
	.def	_ZN14wxListItemAttrC1Ev;	.scl	2;	.type	32;	.endef
	.seh_proc	_ZN14wxListItemAttrC1Ev
_ZN14wxListItemAttrC1Ev:
.LFB15438:
	.file 35 "../wxMSW-3.0.5_gcc810_x64_Dev/include/wx/listbase.h"
	.loc 35 171 5
	.cfi_startproc
	pushq	%rbp
	.seh_pushreg	%rbp
	.cfi_def_cfa_offset 16
	.cfi_offset 6, -16
	pushq	%rbx
	.seh_pushreg	%rbx
	.cfi_def_cfa_offset 24
	.cfi_offset 3, -24
	subq	$40, %rsp
	.seh_stackalloc	40
	.cfi_def_cfa_offset 64
	leaq	128(%rsp), %rbp
	.seh_setframe	%rbp, 128
	.cfi_def_cfa 6, -64
	.seh_endprologue
	movq	%rcx, -64(%rbp)
.LBB63:
	.loc 35 171 22
	movq	-64(%rbp), %rax
	movq	%rax, %rcx
.LEHB35:
	call	_ZN8wxColourC1Ev
.LEHE35:
	movq	-64(%rbp), %rax
	addq	$32, %rax
	movq	%rax, %rcx
.LEHB36:
	call	_ZN8wxColourC1Ev
.LEHE36:
	.loc 35 171 22 is_stmt 0 discriminator 2
	movq	-64(%rbp), %rax
	addq	$64, %rax
	movq	%rax, %rcx
	call	_ZN6wxFontC1Ev
.LBE63:
	.loc 35 171 24 is_stmt 1 discriminator 2
	jmp	.L352
.L351:
	movq	%rax, %rbx
.LBB64:
	.loc 35 171 22
	movq	-64(%rbp), %rax
	movq	%rax, %rcx
	call	_ZN8wxColourD1Ev
	movq	%rbx, %rax
	movq	%rax, %rcx
.LEHB37:
	call	_Unwind_Resume
	nop
.LEHE37:
.L352:
.LBE64:
	.loc 35 171 24
	addq	$40, %rsp
	popq	%rbx
	.cfi_restore 3
	popq	%rbp
	.cfi_restore 6
	.cfi_def_cfa 7, -24
	ret
	.cfi_endproc
.LFE15438:
	.seh_handler	__gxx_personality_seh0, @unwind, @except
	.seh_handlerdata
.LLSDA15438:
	.byte	0xff
	.byte	0xff
	.byte	0x1
	.uleb128 .LLSDACSE15438-.LLSDACSB15438
.LLSDACSB15438:
	.uleb128 .LEHB35-.LFB15438
	.uleb128 .LEHE35-.LEHB35
	.uleb128 0
	.uleb128 0
	.uleb128 .LEHB36-.LFB15438
	.uleb128 .LEHE36-.LEHB36
	.uleb128 .L351-.LFB15438
	.uleb128 0
	.uleb128 .LEHB37-.LFB15438
	.uleb128 .LEHE37-.LEHB37
	.uleb128 0
	.uleb128 0
.LLSDACSE15438:
	.section	.text$_ZN14wxListItemAttrC1Ev,"x"
	.linkonce discard
	.seh_endproc
	.section	.text$_ZN14wxListItemAttrD1Ev,"x"
	.linkonce discard
	.align 2
	.globl	_ZN14wxListItemAttrD1Ev
	.def	_ZN14wxListItemAttrD1Ev;	.scl	2;	.type	32;	.endef
	.seh_proc	_ZN14wxListItemAttrD1Ev
_ZN14wxListItemAttrD1Ev:
.LFB15472:
	.loc 35 167 7
	.cfi_startproc
	pushq	%rbp
	.seh_pushreg	%rbp
	.cfi_def_cfa_offset 16
	.cfi_offset 6, -16
	movq	%rsp, %rbp
	.seh_setframe	%rbp, 0
	.cfi_def_cfa_register 6
	subq	$32, %rsp
	.seh_stackalloc	32
	.seh_endprologue
	movq	%rcx, 16(%rbp)
.LBB65:
	.loc 35 167 7
	movq	16(%rbp), %rax
	addq	$64, %rax
	movq	%rax, %rcx
	call	_ZN6wxFontD1Ev
	movq	16(%rbp), %rax
	addq	$32, %rax
	movq	%rax, %rcx
	call	_ZN8wxColourD1Ev
	movq	16(%rbp), %rax
	movq	%rax, %rcx
	call	_ZN8wxColourD1Ev
.LBE65:
	nop
	addq	$32, %rsp
	popq	%rbp
	.cfi_restore 6
	.cfi_def_cfa 7, 8
	ret
	.cfi_endproc
.LFE15472:
	.seh_endproc
	.section	.text$_ZN14wxListCtrlBaseC2Ev,"x"
	.linkonce discard
	.align 2
	.globl	_ZN14wxListCtrlBaseC2Ev
	.def	_ZN14wxListCtrlBaseC2Ev;	.scl	2;	.type	32;	.endef
	.seh_proc	_ZN14wxListCtrlBaseC2Ev
_ZN14wxListCtrlBaseC2Ev:
.LFB15510:
	.loc 35 387 5
	.cfi_startproc
	pushq	%rbp
	.seh_pushreg	%rbp
	.cfi_def_cfa_offset 16
	.cfi_offset 6, -16
	pushq	%rbx
	.seh_pushreg	%rbx
	.cfi_def_cfa_offset 24
	.cfi_offset 3, -24
	subq	$40, %rsp
	.seh_stackalloc	40
	.cfi_def_cfa_offset 64
	leaq	128(%rsp), %rbp
	.seh_setframe	%rbp, 128
	.cfi_def_cfa 6, -64
	.seh_endprologue
	movq	%rcx, -64(%rbp)
.LBB66:
	.loc 35 387 22
	movq	-64(%rbp), %rax
	movq	%rax, %rcx
.LEHB38:
	call	_ZN9wxControlC2Ev
.LEHE38:
	movq	.refptr._ZTV14wxListCtrlBase(%rip), %rax
	leaq	16(%rax), %rdx
	movq	-64(%rbp), %rax
	movq	%rdx, (%rax)
	movq	-64(%rbp), %rax
	addq	$648, %rax
	movq	%rax, %rcx
.LEHB39:
	call	_ZN14wxListItemAttrC1Ev
.LEHE39:
.LBE66:
	.loc 35 387 24
	jmp	.L357
.L356:
	movq	%rax, %rbx
.LBB67:
	.loc 35 387 22
	movq	-64(%rbp), %rax
	movq	%rax, %rcx
	call	_ZN9wxControlD2Ev
	movq	%rbx, %rax
	movq	%rax, %rcx
.LEHB40:
	call	_Unwind_Resume
	nop
.LEHE40:
.L357:
.LBE67:
	.loc 35 387 24
	addq	$40, %rsp
	popq	%rbx
	.cfi_restore 3
	popq	%rbp
	.cfi_restore 6
	.cfi_def_cfa 7, -24
	ret
	.cfi_endproc
.LFE15510:
	.seh_handler	__gxx_personality_seh0, @unwind, @except
	.seh_handlerdata
.LLSDA15510:
	.byte	0xff
	.byte	0xff
	.byte	0x1
	.uleb128 .LLSDACSE15510-.LLSDACSB15510
.LLSDACSB15510:
	.uleb128 .LEHB38-.LFB15510
	.uleb128 .LEHE38-.LEHB38
	.uleb128 0
	.uleb128 0
	.uleb128 .LEHB39-.LFB15510
	.uleb128 .LEHE39-.LEHB39
	.uleb128 .L356-.LFB15510
	.uleb128 0
	.uleb128 .LEHB40-.LFB15510
	.uleb128 .LEHE40-.LEHB40
	.uleb128 0
	.uleb128 0
.LLSDACSE15510:
	.section	.text$_ZN14wxListCtrlBaseC2Ev,"x"
	.linkonce discard
	.seh_endproc
.lcomm _ZStL8__ioinit,1,1
	.section .rdata,"dr"
	.align 4
_ZL21wxOutOfRangeTextCoord:
	.long	-1
	.align 4
_ZL18wxInvalidTextCoord:
	.long	-2
	.section	.text$_ZN14wxListCtrlBaseD2Ev,"x"
	.linkonce discard
	.align 2
	.globl	_ZN14wxListCtrlBaseD2Ev
	.def	_ZN14wxListCtrlBaseD2Ev;	.scl	2;	.type	32;	.endef
	.seh_proc	_ZN14wxListCtrlBaseD2Ev
_ZN14wxListCtrlBaseD2Ev:
.LFB15770:
	.loc 35 384 7
	.cfi_startproc
	pushq	%rbp
	.seh_pushreg	%rbp
	.cfi_def_cfa_offset 16
	.cfi_offset 6, -16
	movq	%rsp, %rbp
	.seh_setframe	%rbp, 0
	.cfi_def_cfa_register 6
	subq	$32, %rsp
	.seh_stackalloc	32
	.seh_endprologue
	movq	%rcx, 16(%rbp)
.LBB68:
	.loc 35 384 7
	movq	.refptr._ZTV14wxListCtrlBase(%rip), %rax
	leaq	16(%rax), %rdx
	movq	16(%rbp), %rax
	movq	%rdx, (%rax)
	movq	16(%rbp), %rax
	addq	$648, %rax
	movq	%rax, %rcx
	call	_ZN14wxListItemAttrD1Ev
	movq	16(%rbp), %rax
	movq	%rax, %rcx
	call	_ZN9wxControlD2Ev
.LBE68:
	nop
	addq	$32, %rsp
	popq	%rbp
	.cfi_restore 6
	.cfi_def_cfa 7, 8
	ret
	.cfi_endproc
.LFE15770:
	.seh_endproc
	.section	.text$_ZN10wxListCtrlC1EP8wxWindowiRK7wxPointRK6wxSizelRK11wxValidatorRK8wxString,"x"
	.linkonce discard
	.align 2
	.globl	_ZN10wxListCtrlC1EP8wxWindowiRK7wxPointRK6wxSizelRK11wxValidatorRK8wxString
	.def	_ZN10wxListCtrlC1EP8wxWindowiRK7wxPointRK6wxSizelRK11wxValidatorRK8wxString;	.scl	2;	.type	32;	.endef
	.seh_proc	_ZN10wxListCtrlC1EP8wxWindowiRK7wxPointRK6wxSizelRK11wxValidatorRK8wxString
_ZN10wxListCtrlC1EP8wxWindowiRK7wxPointRK6wxSizelRK11wxValidatorRK8wxString:
.LFB15777:
	.file 36 "../wxMSW-3.0.5_gcc810_x64_Dev/include/wx/msw/listctrl.h"
	.loc 36 87 5
	.cfi_startproc
	pushq	%rbp
	.seh_pushreg	%rbp
	.cfi_def_cfa_offset 16
	.cfi_offset 6, -16
	pushq	%rbx
	.seh_pushreg	%rbx
	.cfi_def_cfa_offset 24
	.cfi_offset 3, -24
	subq	$72, %rsp
	.seh_stackalloc	72
	.cfi_def_cfa_offset 96
	leaq	128(%rsp), %rbp
	.seh_setframe	%rbp, 128
	.cfi_def_cfa 6, -32
	.seh_endprologue
	movq	%rcx, -32(%rbp)
	movq	%rdx, -24(%rbp)
	movl	%r8d, -16(%rbp)
	movq	%r9, -8(%rbp)
.LBB69:
	.loc 36 94 5
	movq	-32(%rbp), %rax
	movq	%rax, %rcx
.LEHB41:
	call	_ZN14wxListCtrlBaseC2Ev
.LEHE41:
	movq	.refptr._ZTV10wxListCtrl(%rip), %rax
	leaq	16(%rax), %rdx
	movq	-32(%rbp), %rax
	movq	%rdx, (%rax)
	movq	-32(%rbp), %rax
	addq	$776, %rax
	movq	%rax, %rcx
	call	_ZN8wxVectorIP17wxMSWListItemDataEC1Ev
	.loc 36 95 13
	movq	-32(%rbp), %rcx
.LEHB42:
	call	_ZN10wxListCtrl4InitEv
	.loc 36 97 15
	movq	-8(%rbp), %r8
	movl	-16(%rbp), %ecx
	movq	-24(%rbp), %rax
	movq	24(%rbp), %rdx
	movq	%rdx, 56(%rsp)
	movq	16(%rbp), %rdx
	movq	%rdx, 48(%rsp)
	movl	8(%rbp), %edx
	movl	%edx, 40(%rsp)
	movq	0(%rbp), %rdx
	movq	%rdx, 32(%rsp)
	movq	%r8, %r9
	movl	%ecx, %r8d
	movq	%rax, %rdx
	movq	-32(%rbp), %rcx
	call	_ZN10wxListCtrl6CreateEP8wxWindowiRK7wxPointRK6wxSizelRK11wxValidatorRK8wxString
.LEHE42:
.LBE69:
	.loc 36 98 5
	jmp	.L362
.L361:
	movq	%rax, %rbx
.LBB70:
	.loc 36 94 5
	movq	-32(%rbp), %rax
	addq	$776, %rax
	movq	%rax, %rcx
	call	_ZN8wxVectorIP17wxMSWListItemDataED1Ev
	movq	-32(%rbp), %rax
	movq	%rax, %rcx
	call	_ZN14wxListCtrlBaseD2Ev
	movq	%rbx, %rax
	movq	%rax, %rcx
.LEHB43:
	call	_Unwind_Resume
	nop
.LEHE43:
.L362:
.LBE70:
	.loc 36 98 5
	addq	$72, %rsp
	popq	%rbx
	.cfi_restore 3
	popq	%rbp
	.cfi_restore 6
	.cfi_def_cfa 7, -56
	ret
	.cfi_endproc
.LFE15777:
	.seh_handler	__gxx_personality_seh0, @unwind, @except
	.seh_handlerdata
.LLSDA15777:
	.byte	0xff
	.byte	0xff
	.byte	0x1
	.uleb128 .LLSDACSE15777-.LLSDACSB15777
.LLSDACSB15777:
	.uleb128 .LEHB41-.LFB15777
	.uleb128 .LEHE41-.LEHB41
	.uleb128 0
	.uleb128 0
	.uleb128 .LEHB42-.LFB15777
	.uleb128 .LEHE42-.LEHB42
	.uleb128 .L361-.LFB15777
	.uleb128 0
	.uleb128 .LEHB43-.LFB15777
	.uleb128 .LEHE43-.LEHB43
	.uleb128 0
	.uleb128 0
.LLSDACSE15777:
	.section	.text$_ZN10wxListCtrlC1EP8wxWindowiRK7wxPointRK6wxSizelRK11wxValidatorRK8wxString,"x"
	.linkonce discard
	.seh_endproc
	.section	.text$_ZN16wxStaticTextBaseC2Ev,"x"
	.linkonce discard
	.align 2
	.globl	_ZN16wxStaticTextBaseC2Ev
	.def	_ZN16wxStaticTextBaseC2Ev;	.scl	2;	.type	32;	.endef
	.seh_proc	_ZN16wxStaticTextBaseC2Ev
_ZN16wxStaticTextBaseC2Ev:
.LFB15800:
	.file 37 "../wxMSW-3.0.5_gcc810_x64_Dev/include/wx/stattext.h"
	.loc 37 34 5
	.cfi_startproc
	pushq	%rbp
	.seh_pushreg	%rbp
	.cfi_def_cfa_offset 16
	.cfi_offset 6, -16
	movq	%rsp, %rbp
	.seh_setframe	%rbp, 0
	.cfi_def_cfa_register 6
	subq	$32, %rsp
	.seh_stackalloc	32
	.seh_endprologue
	movq	%rcx, 16(%rbp)
.LBB71:
	.loc 37 34 24
	movq	16(%rbp), %rax
	movq	%rax, %rcx
	call	_ZN9wxControlC2Ev
	movq	.refptr._ZTV16wxStaticTextBase(%rip), %rax
	leaq	16(%rax), %rdx
	movq	16(%rbp), %rax
	movq	%rdx, (%rax)
.LBE71:
	.loc 37 34 26
	nop
	addq	$32, %rsp
	popq	%rbp
	.cfi_restore 6
	.cfi_def_cfa 7, 8
	ret
	.cfi_endproc
.LFE15800:
	.seh_endproc
	.section	.text$_ZN16wxStaticTextBaseD2Ev,"x"
	.linkonce discard
	.align 2
	.globl	_ZN16wxStaticTextBaseD2Ev
	.def	_ZN16wxStaticTextBaseD2Ev;	.scl	2;	.type	32;	.endef
	.seh_proc	_ZN16wxStaticTextBaseD2Ev
_ZN16wxStaticTextBaseD2Ev:
.LFB15810:
	.loc 37 31 7
	.cfi_startproc
	pushq	%rbp
	.seh_pushreg	%rbp
	.cfi_def_cfa_offset 16
	.cfi_offset 6, -16
	movq	%rsp, %rbp
	.seh_setframe	%rbp, 0
	.cfi_def_cfa_register 6
	subq	$32, %rsp
	.seh_stackalloc	32
	.seh_endprologue
	movq	%rcx, 16(%rbp)
.LBB72:
	.loc 37 31 7
	movq	.refptr._ZTV16wxStaticTextBase(%rip), %rax
	leaq	16(%rax), %rdx
	movq	16(%rbp), %rax
	movq	%rdx, (%rax)
	movq	16(%rbp), %rax
	movq	%rax, %rcx
	call	_ZN9wxControlD2Ev
.LBE72:
	nop
	addq	$32, %rsp
	popq	%rbp
	.cfi_restore 6
	.cfi_def_cfa 7, 8
	ret
	.cfi_endproc
.LFE15810:
	.seh_endproc
	.section	.text$_ZN12wxStaticTextC1EP8wxWindowiRK8wxStringRK7wxPointRK6wxSizelS4_,"x"
	.linkonce discard
	.align 2
	.globl	_ZN12wxStaticTextC1EP8wxWindowiRK8wxStringRK7wxPointRK6wxSizelS4_
	.def	_ZN12wxStaticTextC1EP8wxWindowiRK8wxStringRK7wxPointRK6wxSizelS4_;	.scl	2;	.type	32;	.endef
	.seh_proc	_ZN12wxStaticTextC1EP8wxWindowiRK8wxStringRK7wxPointRK6wxSizelS4_
_ZN12wxStaticTextC1EP8wxWindowiRK8wxStringRK7wxPointRK6wxSizelS4_:
.LFB15817:
	.file 38 "../wxMSW-3.0.5_gcc810_x64_Dev/include/wx/msw/stattext.h"
	.loc 38 19 5
	.cfi_startproc
	pushq	%rbp
	.seh_pushreg	%rbp
	.cfi_def_cfa_offset 16
	.cfi_offset 6, -16
	pushq	%rbx
	.seh_pushreg	%rbx
	.cfi_def_cfa_offset 24
	.cfi_offset 3, -24
	subq	$72, %rsp
	.seh_stackalloc	72
	.cfi_def_cfa_offset 96
	leaq	128(%rsp), %rbp
	.seh_setframe	%rbp, 128
	.cfi_def_cfa 6, -32
	.seh_endprologue
	movq	%rcx, -32(%rbp)
	movq	%rdx, -24(%rbp)
	movl	%r8d, -16(%rbp)
	movq	%r9, -8(%rbp)
.LBB73:
	.loc 38 26 5
	movq	-32(%rbp), %rax
	movq	%rax, %rcx
.LEHB44:
	call	_ZN16wxStaticTextBaseC2Ev
.LEHE44:
	movq	.refptr._ZTV12wxStaticText(%rip), %rax
	leaq	16(%rax), %rdx
	movq	-32(%rbp), %rax
	movq	%rdx, (%rax)
	.loc 38 27 15
	movq	-8(%rbp), %r8
	movl	-16(%rbp), %ecx
	movq	-24(%rbp), %rax
	movq	24(%rbp), %rdx
	movq	%rdx, 56(%rsp)
	movl	16(%rbp), %edx
	movl	%edx, 48(%rsp)
	movq	8(%rbp), %rdx
	movq	%rdx, 40(%rsp)
	movq	0(%rbp), %rdx
	movq	%rdx, 32(%rsp)
	movq	%r8, %r9
	movl	%ecx, %r8d
	movq	%rax, %rdx
	movq	-32(%rbp), %rcx
.LEHB45:
	call	_ZN12wxStaticText6CreateEP8wxWindowiRK8wxStringRK7wxPointRK6wxSizelS4_
.LEHE45:
.LBE73:
	.loc 38 28 5
	jmp	.L368
.L367:
	movq	%rax, %rbx
.LBB74:
	.loc 38 26 5
	movq	-32(%rbp), %rax
	movq	%rax, %rcx
	call	_ZN16wxStaticTextBaseD2Ev
	movq	%rbx, %rax
	movq	%rax, %rcx
.LEHB46:
	call	_Unwind_Resume
	nop
.LEHE46:
.L368:
.LBE74:
	.loc 38 28 5
	addq	$72, %rsp
	popq	%rbx
	.cfi_restore 3
	popq	%rbp
	.cfi_restore 6
	.cfi_def_cfa 7, -56
	ret
	.cfi_endproc
.LFE15817:
	.seh_handler	__gxx_personality_seh0, @unwind, @except
	.seh_handlerdata
.LLSDA15817:
	.byte	0xff
	.byte	0xff
	.byte	0x1
	.uleb128 .LLSDACSE15817-.LLSDACSB15817
.LLSDACSB15817:
	.uleb128 .LEHB44-.LFB15817
	.uleb128 .LEHE44-.LEHB44
	.uleb128 0
	.uleb128 0
	.uleb128 .LEHB45-.LFB15817
	.uleb128 .LEHE45-.LEHB45
	.uleb128 .L367-.LFB15817
	.uleb128 0
	.uleb128 .LEHB46-.LFB15817
	.uleb128 .LEHE46-.LEHB46
	.uleb128 0
	.uleb128 0
.LLSDACSE15817:
	.section	.text$_ZN12wxStaticTextC1EP8wxWindowiRK8wxStringRK7wxPointRK6wxSizelS4_,"x"
	.linkonce discard
	.seh_endproc
	.section	.text$_ZN8Projetil7getNomeB5cxx11Ev,"x"
	.linkonce discard
	.align 2
	.globl	_ZN8Projetil7getNomeB5cxx11Ev
	.def	_ZN8Projetil7getNomeB5cxx11Ev;	.scl	2;	.type	32;	.endef
	.seh_proc	_ZN8Projetil7getNomeB5cxx11Ev
_ZN8Projetil7getNomeB5cxx11Ev:
.LFB16377:
	.file 39 "../../CalculadorNumerico/calculador/../projetil/projetil.h"
	.loc 39 15 16
	.cfi_startproc
	pushq	%rbp
	.seh_pushreg	%rbp
	.cfi_def_cfa_offset 16
	.cfi_offset 6, -16
	movq	%rsp, %rbp
	.seh_setframe	%rbp, 0
	.cfi_def_cfa_register 6
	subq	$32, %rsp
	.seh_stackalloc	32
	.seh_endprologue
	movq	%rcx, 16(%rbp)
	movq	%rdx, 24(%rbp)
	.loc 39 15 33
	movq	24(%rbp), %rax
	addq	$16, %rax
	movq	%rax, %rdx
	movq	16(%rbp), %rcx
	call	_ZNSt7__cxx1112basic_stringIcSt11char_traitsIcESaIcEEC1ERKS4_
	.loc 39 15 38
	movq	16(%rbp), %rax
	addq	$32, %rsp
	popq	%rbp
	.cfi_restore 6
	.cfi_def_cfa 7, 8
	ret
	.cfi_endproc
.LFE16377:
	.seh_endproc
	.section	.text$_ZN8Projetil7getTipoEv,"x"
	.linkonce discard
	.align 2
	.globl	_ZN8Projetil7getTipoEv
	.def	_ZN8Projetil7getTipoEv;	.scl	2;	.type	32;	.endef
	.seh_proc	_ZN8Projetil7getTipoEv
_ZN8Projetil7getTipoEv:
.LFB16386:
	.loc 39 24 23
	.cfi_startproc
	pushq	%rbp
	.seh_pushreg	%rbp
	.cfi_def_cfa_offset 16
	.cfi_offset 6, -16
	movq	%rsp, %rbp
	.seh_setframe	%rbp, 0
	.cfi_def_cfa_register 6
	.seh_endprologue
	movq	%rcx, 16(%rbp)
	.loc 39 24 40
	movq	16(%rbp), %rax
	movl	8(%rax), %eax
	.loc 39 24 45
	popq	%rbp
	.cfi_restore 6
	.cfi_def_cfa 7, 8
	ret
	.cfi_endproc
.LFE16386:
	.seh_endproc
	.section	.text$_ZN13FatorDeAjuste21getPointerVelocidadesEv,"x"
	.linkonce discard
	.align 2
	.globl	_ZN13FatorDeAjuste21getPointerVelocidadesEv
	.def	_ZN13FatorDeAjuste21getPointerVelocidadesEv;	.scl	2;	.type	32;	.endef
	.seh_proc	_ZN13FatorDeAjuste21getPointerVelocidadesEv
_ZN13FatorDeAjuste21getPointerVelocidadesEv:
.LFB16430:
	.file 40 "C:/temp/ballisticKernelCpp/CalculadorNumerico/fatoresdeajuste/fatordeajuste.h"
	.loc 40 19 30
	.cfi_startproc
	pushq	%rbp
	.seh_pushreg	%rbp
	.cfi_def_cfa_offset 16
	.cfi_offset 6, -16
	movq	%rsp, %rbp
	.seh_setframe	%rbp, 0
	.cfi_def_cfa_register 6
	.seh_endprologue
	movq	%rcx, 16(%rbp)
	.loc 40 19 62
	movq	16(%rbp), %rax
	addq	$8, %rax
	.loc 40 19 74
	popq	%rbp
	.cfi_restore 6
	.cfi_def_cfa 7, 8
	ret
	.cfi_endproc
.LFE16430:
	.seh_endproc
	.section	.text$_ZN13FatorDeAjuste20getPointerPolinomiosEv,"x"
	.linkonce discard
	.align 2
	.globl	_ZN13FatorDeAjuste20getPointerPolinomiosEv
	.def	_ZN13FatorDeAjuste20getPointerPolinomiosEv;	.scl	2;	.type	32;	.endef
	.seh_proc	_ZN13FatorDeAjuste20getPointerPolinomiosEv
_ZN13FatorDeAjuste20getPointerPolinomiosEv:
.LFB16431:
	.loc 40 20 43
	.cfi_startproc
	pushq	%rbp
	.seh_pushreg	%rbp
	.cfi_def_cfa_offset 16
	.cfi_offset 6, -16
	movq	%rsp, %rbp
	.seh_setframe	%rbp, 0
	.cfi_def_cfa_register 6
	.seh_endprologue
	movq	%rcx, 16(%rbp)
	.loc 40 20 74
	movq	16(%rbp), %rax
	addq	$32, %rax
	.loc 40 20 85
	popq	%rbp
	.cfi_restore 6
	.cfi_def_cfa 7, 8
	ret
	.cfi_endproc
.LFE16431:
	.seh_endproc
	.section .rdata,"dr"
_ZStL13allocator_arg:
	.space 1
_ZStL6ignore:
	.space 1
	.align 4
_ZN9__gnu_cxxL21__default_lock_policyE:
	.long	2
.lcomm _ZL14wxEVT_MYTHREAD,4,4
	.globl	_ZN20DeletarFatoresDialog19ID_LISTCTRL_FATORESE
	.bss
	.align 4
_ZN20DeletarFatoresDialog19ID_LISTCTRL_FATORESE:
	.space 4
	.globl	_ZN20DeletarFatoresDialog17ID_BUTTON_DELETARE
	.align 4
_ZN20DeletarFatoresDialog17ID_BUTTON_DELETARE:
	.space 4
	.globl	_ZN20DeletarFatoresDialog22ID_STATICTEXT_PROJETILE
	.align 4
_ZN20DeletarFatoresDialog22ID_STATICTEXT_PROJETILE:
	.space 4
	.globl	_ZN20DeletarFatoresDialog13sm_eventTableE
	.section .rdata,"dr"
	.align 16
_ZN20DeletarFatoresDialog13sm_eventTableE:
	.quad	_ZN12wxDialogBase13sm_eventTableE
	.quad	_ZN20DeletarFatoresDialog20sm_eventTableEntriesE
	.text
	.align 2
	.globl	_ZNK20DeletarFatoresDialog13GetEventTableEv
	.def	_ZNK20DeletarFatoresDialog13GetEventTableEv;	.scl	2;	.type	32;	.endef
	.seh_proc	_ZNK20DeletarFatoresDialog13GetEventTableEv
_ZNK20DeletarFatoresDialog13GetEventTableEv:
.LFB17562:
	.file 41 "C:/temp/ballisticKernelCpp/interfaceGrafica/calculadorBalisiticaGraficoWindows/deletarFatoresDialog.cpp"
	.loc 41 26 200
	.cfi_startproc
	pushq	%rbp
	.seh_pushreg	%rbp
	.cfi_def_cfa_offset 16
	.cfi_offset 6, -16
	movq	%rsp, %rbp
	.seh_setframe	%rbp, 0
	.cfi_def_cfa_register 6
	.seh_endprologue
	movq	%rcx, 16(%rbp)
	.loc 41 26 232
	leaq	_ZN20DeletarFatoresDialog13sm_eventTableE(%rip), %rax
	.loc 41 26 247
	popq	%rbp
	.cfi_restore 6
	.cfi_def_cfa 7, 8
	ret
	.cfi_endproc
.LFE17562:
	.seh_endproc
	.globl	_ZN20DeletarFatoresDialog17sm_eventHashTableE
	.bss
	.align 32
_ZN20DeletarFatoresDialog17sm_eventHashTableE:
	.space 48
	.text
	.align 2
	.globl	_ZNK20DeletarFatoresDialog17GetEventHashTableEv
	.def	_ZNK20DeletarFatoresDialog17GetEventHashTableEv;	.scl	2;	.type	32;	.endef
	.seh_proc	_ZNK20DeletarFatoresDialog17GetEventHashTableEv
_ZNK20DeletarFatoresDialog17GetEventHashTableEv:
.LFB17563:
	.loc 41 26 410
	.cfi_startproc
	pushq	%rbp
	.seh_pushreg	%rbp
	.cfi_def_cfa_offset 16
	.cfi_offset 6, -16
	movq	%rsp, %rbp
	.seh_setframe	%rbp, 0
	.cfi_def_cfa_register 6
	.seh_endprologue
	movq	%rcx, 16(%rbp)
	.loc 41 26 441
	leaq	_ZN20DeletarFatoresDialog17sm_eventHashTableE(%rip), %rax
	.loc 41 26 460
	popq	%rbp
	.cfi_restore 6
	.cfi_def_cfa 7, 8
	ret
	.cfi_endproc
.LFE17563:
	.seh_endproc
	.section	.text$_ZN17wxEventTableEntryD1Ev,"x"
	.linkonce discard
	.align 2
	.globl	_ZN17wxEventTableEntryD1Ev
	.def	_ZN17wxEventTableEntryD1Ev;	.scl	2;	.type	32;	.endef
	.seh_proc	_ZN17wxEventTableEntryD1Ev
_ZN17wxEventTableEntryD1Ev:
.LFB17566:
	.loc 16 3217 8
	.cfi_startproc
	pushq	%rbp
	.seh_pushreg	%rbp
	.cfi_def_cfa_offset 16
	.cfi_offset 6, -16
	movq	%rsp, %rbp
	.seh_setframe	%rbp, 0
	.cfi_def_cfa_register 6
	subq	$32, %rsp
	.seh_stackalloc	32
	.seh_endprologue
	movq	%rcx, 16(%rbp)
.LBB75:
	.loc 16 3217 8
	movq	16(%rbp), %rax
	movq	%rax, %rcx
	call	_ZN21wxEventTableEntryBaseD2Ev
.LBE75:
	nop
	addq	$32, %rsp
	popq	%rbp
	.cfi_restore 6
	.cfi_def_cfa 7, 8
	ret
	.cfi_endproc
.LFE17566:
	.seh_endproc
	.globl	_ZN20DeletarFatoresDialog20sm_eventTableEntriesE
	.bss
	.align 32
_ZN20DeletarFatoresDialog20sm_eventTableEntriesE:
	.space 32
	.section .rdata,"dr"
	.align 2
.LC5:
	.ascii "w\0x\0I\0D\0_\0A\0N\0Y\0\0\0"
.LC6:
	.ascii "Deletar Fatores de Ajuste\0"
	.align 8
.LC7:
	.ascii "I\0D\0_\0L\0I\0S\0T\0C\0T\0R\0L\0_\0F\0A\0T\0O\0R\0E\0S\0\0\0"
.LC8:
	.ascii "Deletar\0"
	.align 8
.LC9:
	.ascii "I\0D\0_\0B\0U\0T\0T\0O\0N\0_\0D\0E\0L\0E\0T\0A\0R\0\0\0"
	.align 2
.LC10:
	.ascii "S\0a\0n\0s\0\0\0"
.LC11:
	.ascii "0\0"
	.align 8
.LC12:
	.ascii "I\0D\0_\0S\0T\0A\0T\0I\0C\0T\0E\0X\0T\0_\0P\0R\0O\0J\0E\0T\0I\0L\0\0\0"
.LC13:
	.ascii "Projetil: \0"
.LC14:
	.ascii "Polin\364mio fator de lift\0"
.LC15:
	.ascii "Polin\364mio fator de forma\0"
.LC16:
	.ascii "Velocidade\0"
	.text
	.align 2
	.globl	_ZN20DeletarFatoresDialogC2EP8wxWindowiRK7wxPointRK6wxSize
	.def	_ZN20DeletarFatoresDialogC2EP8wxWindowiRK7wxPointRK6wxSize;	.scl	2;	.type	32;	.endef
	.seh_proc	_ZN20DeletarFatoresDialogC2EP8wxWindowiRK7wxPointRK6wxSize
_ZN20DeletarFatoresDialogC2EP8wxWindowiRK7wxPointRK6wxSize:
.LFB17571:
	.loc 41 31 1
	.cfi_startproc
	pushq	%rbp
	.seh_pushreg	%rbp
	.cfi_def_cfa_offset 16
	.cfi_offset 6, -16
	pushq	%r15
	.seh_pushreg	%r15
	.cfi_def_cfa_offset 24
	.cfi_offset 15, -24
	pushq	%r14
	.seh_pushreg	%r14
	.cfi_def_cfa_offset 32
	.cfi_offset 14, -32
	pushq	%r13
	.seh_pushreg	%r13
	.cfi_def_cfa_offset 40
	.cfi_offset 13, -40
	pushq	%r12
	.seh_pushreg	%r12
	.cfi_def_cfa_offset 48
	.cfi_offset 12, -48
	pushq	%rdi
	.seh_pushreg	%rdi
	.cfi_def_cfa_offset 56
	.cfi_offset 5, -56
	pushq	%rsi
	.seh_pushreg	%rsi
	.cfi_def_cfa_offset 64
	.cfi_offset 4, -64
	pushq	%rbx
	.seh_pushreg	%rbx
	.cfi_def_cfa_offset 72
	.cfi_offset 3, -72
	subq	$1256, %rsp
	.seh_stackalloc	1256
	.cfi_def_cfa_offset 1328
	leaq	128(%rsp), %rbp
	.seh_setframe	%rbp, 128
	.cfi_def_cfa 6, 1200
	.seh_endprologue
	movq	%rcx, 1200(%rbp)
	movq	%rdx, 1208(%rbp)
	movl	%r8d, 1216(%rbp)
	movq	%r9, 1224(%rbp)
.LBB76:
	.loc 41 31 112
	movq	1200(%rbp), %rax
	movq	%rax, %rcx
.LEHB47:
	call	_ZN8wxDialogC2Ev
.LEHE47:
	leaq	16+_ZTV20DeletarFatoresDialog(%rip), %rdx
	movq	1200(%rbp), %rax
	movq	%rdx, (%rax)
	movq	1200(%rbp), %rax
	addq	$920, %rax
	movq	%rax, %rcx
	call	_ZN13FatorDeAjuste20getPointerPolinomiosEv
	movq	%rax, %rdx
	movq	1200(%rbp), %rax
	movq	%rdx, 832(%rax)
	movq	1200(%rbp), %rax
	addq	$848, %rax
	movq	%rax, %rcx
.LEHB48:
	call	_ZN12FatorDeFormaC1Ev
.LEHE48:
	.loc 41 31 112 is_stmt 0 discriminator 2
	movq	1200(%rbp), %rax
	addq	$920, %rax
	movq	%rax, %rcx
.LEHB49:
	call	_ZN11FatorDeLiftC1Ev
.LEHE49:
.LBB77:
	.loc 41 34 8 is_stmt 1
	movq	1200(%rbp), %rdi
	leaq	64(%rbp), %rax
	leaq	.LC5(%rip), %rdx
	movq	%rax, %rcx
.LEHB50:
	call	_ZN8wxStringC1EPKw
.LEHE50:
	.loc 41 34 8 is_stmt 0 discriminator 1
	leaq	112(%rbp), %rax
	movq	%rax, %rcx
	call	_ZN8wxStringC1Ev
	leaq	160(%rbp), %rax
	leaq	.LC6(%rip), %rdx
	movq	%rax, %rcx
.LEHB51:
	call	_ZN8wxStringC1EPKc
.LEHE51:
	.loc 41 34 8 discriminator 5
	leaq	112(%rbp), %rdx
	leaq	160(%rbp), %rax
	movq	%rax, %rcx
.LEHB52:
	call	_Z16wxGetTranslationRK8wxStringS1_
	movq	%rax, %rcx
	movq	1208(%rbp), %rdx
	leaq	64(%rbp), %rax
	movq	%rax, 56(%rsp)
	movl	$536877056, 48(%rsp)
	movq	.refptr.wxDefaultSize(%rip), %rax
	movq	%rax, 40(%rsp)
	movq	.refptr.wxDefaultPosition(%rip), %rax
	movq	%rax, 32(%rsp)
	movq	%rcx, %r9
	movl	$-1, %r8d
	movq	%rdi, %rcx
	call	_ZN8wxDialog6CreateEP8wxWindowiRK8wxStringRK7wxPointRK6wxSizelS4_
.LEHE52:
	.loc 41 34 8 discriminator 9
	leaq	160(%rbp), %rax
	movq	%rax, %rcx
	call	_ZN8wxStringD1Ev
	leaq	112(%rbp), %rax
	movq	%rax, %rcx
	call	_ZN8wxStringD1Ev
	leaq	64(%rbp), %rax
	movq	%rax, %rcx
	call	_ZN8wxStringD1Ev
	.loc 41 35 15 is_stmt 1 discriminator 9
	movq	1200(%rbp), %rdi
	.loc 41 35 16 discriminator 9
	leaq	216(%rbp), %rax
	movl	$600, %r8d
	movl	$1000, %edx
	movq	%rax, %rcx
	call	_ZN6wxSizeC1Eii
	.loc 41 35 15 discriminator 9
	leaq	216(%rbp), %rax
	movq	%rax, %rdx
	movq	%rdi, %rcx
.LEHB53:
	call	_ZN12wxWindowBase13SetClientSizeERK6wxSize
.LEHE53:
	.loc 41 36 62 discriminator 2
	leaq	224(%rbp), %rax
	movl	$10, %r8d
	movl	$10, %edx
	movq	%rax, %rcx
	call	_ZN7wxPointC1Eii
	leaq	224(%rbp), %rax
	movq	%rax, -40(%rbp)
	.loc 41 36 78 discriminator 2
	leaq	232(%rbp), %rax
	movl	$480, %r8d
	movl	$980, %edx
	movq	%rax, %rcx
	call	_ZN6wxSizeC1Eii
	leaq	232(%rbp), %r14
	.loc 41 36 18 discriminator 2
	leaq	240(%rbp), %rax
	leaq	.LC7(%rip), %rdx
	movq	%rax, %rcx
.LEHB54:
	call	_ZN8wxStringC1EPKw
.LEHE54:
	leaq	240(%rbp), %r15
	.loc 41 36 152 discriminator 2
	movl	$808, %ecx
.LEHB55:
	call	_Znwy
.LEHE55:
	movq	%rax, %rdi
	movl	_ZN20DeletarFatoresDialog19ID_LISTCTRL_FATORESE(%rip), %ecx
	movq	1200(%rbp), %rax
	movq	%r15, 56(%rsp)
	movq	.refptr.wxDefaultValidator(%rip), %rdx
	movq	%rdx, 48(%rsp)
	movl	$32, 40(%rsp)
	movq	%r14, 32(%rsp)
	movq	-40(%rbp), %r9
	movl	%ecx, %r8d
	movq	%rax, %rdx
	movq	%rdi, %rcx
.LEHB56:
	call	_ZN10wxListCtrlC1EP8wxWindowiRK7wxPointRK6wxSizelRK11wxValidatorRK8wxString
.LEHE56:
	.loc 41 36 18 discriminator 6
	movq	1200(%rbp), %rax
	movq	%rdi, 800(%rax)
	leaq	240(%rbp), %rax
	movq	%rax, %rcx
	call	_ZN8wxStringD1Ev
	.loc 41 37 132 discriminator 6
	movq	.refptr.wxEmptyString(%rip), %rax
	movq	(%rax), %rdx
	leaq	288(%rbp), %rax
	movq	%rax, %rcx
.LEHB57:
	call	_ZN8wxStringC1EPKw
.LEHE57:
	.loc 41 37 132 is_stmt 0 discriminator 1
	leaq	48(%rbp), %rax
	movl	$0, 56(%rsp)
	leaq	288(%rbp), %rdx
	movq	%rdx, 48(%rsp)
	movl	$0, 40(%rsp)
	movl	$90, 32(%rsp)
	movl	$90, %r9d
	movl	$74, %r8d
	movl	$15, %edx
	movq	%rax, %rcx
.LEHB58:
	call	_ZN6wxFontC1Ei12wxFontFamily11wxFontStyle12wxFontWeightbRK8wxString14wxFontEncoding
.LEHE58:
	leaq	288(%rbp), %rax
	movq	%rax, %rcx
	call	_ZN8wxStringD1Ev
	.loc 41 38 2 is_stmt 1
	movq	1200(%rbp), %rax
	movq	800(%rax), %rax
	.loc 41 38 26
	movq	%rax, %rcx
	.loc 41 38 2
	movq	1200(%rbp), %rax
	movq	800(%rax), %rax
	.loc 41 38 46
	movq	(%rax), %rax
	addq	$848, %rax
	movq	(%rax), %r8
	.loc 41 38 26
	leaq	48(%rbp), %rax
	movq	%rax, %rdx
.LEHB59:
	call	*%r8
.LVL24:
.LEHE59:
	.loc 41 39 84
	leaq	336(%rbp), %rax
	movq	%rax, %rcx
	call	_ZN8wxStringC1Ev
	leaq	384(%rbp), %rax
	leaq	.LC8(%rip), %rdx
	movq	%rax, %rcx
.LEHB60:
	call	_ZN8wxStringC1EPKc
.LEHE60:
	.loc 41 39 84 is_stmt 0 discriminator 3
	leaq	336(%rbp), %rdx
	leaq	384(%rbp), %rax
	movq	%rax, %rcx
.LEHB61:
	call	_Z16wxGetTranslationRK8wxStringS1_
.LEHE61:
	movq	%rax, -40(%rbp)
	.loc 41 39 87 is_stmt 1 discriminator 3
	leaq	432(%rbp), %rax
	movl	$530, %r8d
	movl	$450, %edx
	movq	%rax, %rcx
	call	_ZN7wxPointC1Eii
	leaq	432(%rbp), %r14
	.loc 41 39 105 discriminator 3
	leaq	440(%rbp), %rax
	movl	$40, %r8d
	movl	$100, %edx
	movq	%rax, %rcx
	call	_ZN6wxSizeC1Eii
	leaq	440(%rbp), %r15
	.loc 41 39 16 discriminator 3
	leaq	448(%rbp), %rax
	leaq	.LC9(%rip), %rdx
	movq	%rax, %rcx
.LEHB62:
	call	_ZN8wxStringC1EPKw
.LEHE62:
	.loc 41 39 16 is_stmt 0 discriminator 7
	leaq	448(%rbp), %rdi
	movq	%rdi, -48(%rbp)
	.loc 41 39 149 is_stmt 1 discriminator 7
	movl	$672, %ecx
.LEHB63:
	call	_Znwy
.LEHE63:
	movq	%rax, %rdi
	movl	_ZN20DeletarFatoresDialog17ID_BUTTON_DELETARE(%rip), %ecx
	movq	1200(%rbp), %rax
	movq	-48(%rbp), %rdx
	movq	%rdx, 64(%rsp)
	movq	.refptr.wxDefaultValidator(%rip), %rdx
	movq	%rdx, 56(%rsp)
	movl	$0, 48(%rsp)
	movq	%r15, 40(%rsp)
	movq	%r14, 32(%rsp)
	movq	-40(%rbp), %r9
	movl	%ecx, %r8d
	movq	%rax, %rdx
	movq	%rdi, %rcx
.LEHB64:
	call	_ZN8wxButtonC1EP8wxWindowiRK8wxStringRK7wxPointRK6wxSizelRK11wxValidatorS4_
.LEHE64:
	.loc 41 39 16 discriminator 11
	movq	1200(%rbp), %rax
	movq	%rdi, 792(%rax)
	leaq	448(%rbp), %rax
	movq	%rax, %rcx
	call	_ZN8wxStringD1Ev
	.loc 41 39 84 discriminator 11
	leaq	384(%rbp), %rax
	movq	%rax, %rcx
	call	_ZN8wxStringD1Ev
	leaq	336(%rbp), %rax
	movq	%rax, %rcx
	call	_ZN8wxStringD1Ev
	.loc 41 40 126 discriminator 11
	leaq	496(%rbp), %rax
	leaq	.LC10(%rip), %rdx
	movq	%rax, %rcx
.LEHB65:
	call	_ZN8wxStringC1EPKw
.LEHE65:
	.loc 41 40 126 is_stmt 0 discriminator 1
	leaq	32(%rbp), %rax
	movl	$0, 56(%rsp)
	leaq	496(%rbp), %rdx
	movq	%rdx, 48(%rsp)
	movl	$0, 40(%rsp)
	movl	$90, 32(%rsp)
	movl	$90, %r9d
	movl	$74, %r8d
	movl	$12, %edx
	movq	%rax, %rcx
.LEHB66:
	call	_ZN6wxFontC1Ei12wxFontFamily11wxFontStyle12wxFontWeightbRK8wxString14wxFontEncoding
.LEHE66:
	leaq	496(%rbp), %rax
	movq	%rax, %rcx
	call	_ZN8wxStringD1Ev
	.loc 41 41 2 is_stmt 1
	movq	1200(%rbp), %rax
	movq	792(%rax), %rax
	.loc 41 41 24
	movq	%rax, %rcx
	.loc 41 41 2
	movq	1200(%rbp), %rax
	movq	792(%rax), %rax
	.loc 41 41 42
	movq	(%rax), %rax
	addq	$848, %rax
	movq	(%rax), %r8
	.loc 41 41 24
	leaq	32(%rbp), %rax
	movq	%rax, %rdx
.LEHB67:
	call	*%r8
.LVL25:
.LEHE67:
	.loc 41 42 92
	leaq	544(%rbp), %rax
	movq	%rax, %rcx
	call	_ZN8wxStringC1Ev
	leaq	592(%rbp), %rax
	leaq	.LC11(%rip), %rdx
	movq	%rax, %rcx
.LEHB68:
	call	_ZN8wxStringC1EPKc
.LEHE68:
	.loc 41 42 92 is_stmt 0 discriminator 3
	leaq	544(%rbp), %rdx
	leaq	592(%rbp), %rax
	movq	%rax, %rcx
.LEHB69:
	call	_Z16wxGetTranslationRK8wxStringS1_
	movq	%rax, -40(%rbp)
	.loc 41 42 95 is_stmt 1 discriminator 3
	leaq	648(%rbp), %rax
	movl	$500, %r8d
	movl	$12, %edx
	movq	%rax, %rcx
	call	_ZN7wxPointC1Eii
	leaq	648(%rbp), %r14
	.loc 41 42 21 discriminator 3
	leaq	656(%rbp), %rax
	leaq	.LC12(%rip), %rdx
	movq	%rax, %rcx
	call	_ZN8wxStringC1EPKw
.LEHE69:
	.loc 41 42 21 is_stmt 0 discriminator 7
	leaq	656(%rbp), %r15
	.loc 41 42 140 is_stmt 1 discriminator 7
	movl	$648, %ecx
.LEHB70:
	call	_Znwy
.LEHE70:
	movq	%rax, %rdi
	movl	_ZN20DeletarFatoresDialog22ID_STATICTEXT_PROJETILE(%rip), %ecx
	movq	1200(%rbp), %rax
	movq	%r15, 56(%rsp)
	movl	$0, 48(%rsp)
	movq	.refptr.wxDefaultSize(%rip), %rdx
	movq	%rdx, 40(%rsp)
	movq	%r14, 32(%rsp)
	movq	-40(%rbp), %r9
	movl	%ecx, %r8d
	movq	%rax, %rdx
	movq	%rdi, %rcx
.LEHB71:
	call	_ZN12wxStaticTextC1EP8wxWindowiRK8wxStringRK7wxPointRK6wxSizelS4_
.LEHE71:
	.loc 41 42 21 discriminator 11
	movq	1200(%rbp), %rax
	movq	%rdi, 808(%rax)
	leaq	656(%rbp), %rax
	movq	%rax, %rcx
	call	_ZN8wxStringD1Ev
	.loc 41 42 92 discriminator 11
	leaq	592(%rbp), %rax
	movq	%rax, %rcx
	call	_ZN8wxStringD1Ev
	leaq	544(%rbp), %rax
	movq	%rax, %rcx
	call	_ZN8wxStringD1Ev
	.loc 41 43 135 discriminator 11
	movq	.refptr.wxEmptyString(%rip), %rax
	movq	(%rax), %rdx
	leaq	704(%rbp), %rax
	movq	%rax, %rcx
.LEHB72:
	call	_ZN8wxStringC1EPKw
.LEHE72:
	.loc 41 43 135 is_stmt 0 discriminator 1
	leaq	16(%rbp), %rax
	movl	$0, 56(%rsp)
	leaq	704(%rbp), %rdx
	movq	%rdx, 48(%rsp)
	movl	$0, 40(%rsp)
	movl	$90, 32(%rsp)
	movl	$90, %r9d
	movl	$74, %r8d
	movl	$12, %edx
	movq	%rax, %rcx
.LEHB73:
	call	_ZN6wxFontC1Ei12wxFontFamily11wxFontStyle12wxFontWeightbRK8wxString14wxFontEncoding
.LEHE73:
	leaq	704(%rbp), %rax
	movq	%rax, %rcx
	call	_ZN8wxStringD1Ev
	.loc 41 44 2 is_stmt 1
	movq	1200(%rbp), %rax
	movq	808(%rax), %rcx
	movq	1200(%rbp), %rax
	movq	808(%rax), %rax
	.loc 41 44 52
	movq	(%rax), %rax
	addq	$848, %rax
	movq	(%rax), %r8
	.loc 41 44 29
	leaq	16(%rbp), %rax
	movq	%rax, %rdx
.LEHB74:
	call	*%r8
.LVL26:
	.loc 41 45 8
	movq	1200(%rbp), %rax
	movl	$12, %edx
	movq	%rax, %rcx
	call	_ZN12wxWindowBase6CenterEi
	.loc 41 47 9
	movq	1200(%rbp), %rdi
	leaq	_ZN20DeletarFatoresDialog20OnDeletarButtonClickER14wxCommandEvent(%rip), %r12
	movl	$0, %r13d
	.loc 41 47 107
	movq	.refptr.wxEVT_BUTTON(%rip), %rcx
	call	_ZNK14wxEventTypeTagI14wxCommandEventEcvRKiEv
	.loc 41 47 9
	movl	(%rax), %ecx
	movl	_ZN20DeletarFatoresDialog17ID_BUTTON_DELETARE(%rip), %eax
	movq	%r12, -32(%rbp)
	movq	%r13, -24(%rbp)
	leaq	-32(%rbp), %rdx
	movq	$0, 40(%rsp)
	movq	$0, 32(%rsp)
	movq	%rdx, %r9
	movl	%ecx, %r8d
	movl	%eax, %edx
	movq	%rdi, %rcx
	call	_ZN12wxEvtHandler7ConnectEiiMS_FvR7wxEventEP8wxObjectPS_
	.loc 41 48 9
	movq	1200(%rbp), %rdi
	leaq	_ZN20DeletarFatoresDialog7OnCloseER12wxCloseEvent(%rip), %rbx
	movl	$0, %esi
	.loc 41 48 91
	movq	.refptr.wxEVT_CLOSE_WINDOW(%rip), %rcx
	call	_ZNK14wxEventTypeTagI12wxCloseEventEcvRKiEv
	.loc 41 48 9
	movl	(%rax), %edx
	movq	%rbx, -32(%rbp)
	movq	%rsi, -24(%rbp)
	leaq	-32(%rbp), %rax
	movq	$0, 40(%rsp)
	movq	$0, 32(%rsp)
	movq	%rax, %r9
	movl	%edx, %r8d
	movl	$-1, %edx
	movq	%rdi, %rcx
	call	_ZN12wxEvtHandler7ConnectEiiMS_FvR7wxEventEP8wxObjectPS_
	.loc 41 50 44
	leaq	752(%rbp), %rax
	movq	.refptr.projetil(%rip), %rdx
	movq	%rax, %rcx
	call	_ZN8Projetil7getNomeB5cxx11Ev
.LEHE74:
	.loc 41 50 45 discriminator 1
	leaq	-16(%rbp), %rax
	leaq	752(%rbp), %rdx
	movq	%rdx, %r8
	leaq	.LC13(%rip), %rdx
	movq	%rax, %rcx
.LEHB75:
	call	_ZStplIcSt11char_traitsIcESaIcEENSt7__cxx1112basic_stringIT_T0_T1_EEPKS5_OS8_
.LEHE75:
	leaq	752(%rbp), %rax
	movq	%rax, %rcx
	call	_ZNSt7__cxx1112basic_stringIcSt11char_traitsIcESaIcEED1Ev
	.loc 41 51 2
	movq	1200(%rbp), %rax
	movq	808(%rax), %rsi
	movq	1200(%rbp), %rax
	movq	808(%rax), %rax
	.loc 41 51 42
	movq	(%rax), %rax
	addq	$176, %rax
	movq	(%rax), %rbx
	.loc 41 51 31
	leaq	-16(%rbp), %rdx
	leaq	784(%rbp), %rax
	movq	%rax, %rcx
.LEHB76:
	call	_ZN8wxStringC1ERKNSt7__cxx1112basic_stringIcSt11char_traitsIcESaIcEEE
.LEHE76:
	.loc 41 51 30 discriminator 1
	leaq	784(%rbp), %rax
	movq	%rax, %rdx
	movq	%rsi, %rcx
.LEHB77:
	call	*%rbx
.LVL27:
.LEHE77:
	.loc 41 51 31 discriminator 3
	leaq	784(%rbp), %rax
	movq	%rax, %rcx
	call	_ZN8wxStringD1Ev
	.loc 41 53 52 discriminator 3
	movq	.refptr.projetil(%rip), %rcx
	call	_ZN8Projetil7getTipoEv
	movl	%eax, %edx
	.loc 41 53 17 discriminator 3
	movq	1200(%rbp), %rax
	movl	%edx, 992(%rax)
.LEHB78:
	.loc 41 55 40 discriminator 3
	call	_ZN16FatorDeAjusteDAO11getInstanceEv
.LEHE78:
	movq	%rax, %rdx
	.loc 41 55 9 discriminator 3
	movq	1200(%rbp), %rax
	movq	%rdx, 840(%rax)
	.loc 41 57 2 discriminator 3
	movq	1200(%rbp), %rax
	movq	800(%rax), %rax
	.loc 41 57 31 discriminator 3
	movq	%rax, %rbx
	leaq	832(%rbp), %rax
	movq	%rax, %rcx
	call	_ZN8wxStringC1Ev
	leaq	880(%rbp), %rax
	leaq	.LC14(%rip), %rdx
	movq	%rax, %rcx
.LEHB79:
	call	_ZN8wxStringC1EPKc
.LEHE79:
	leaq	832(%rbp), %rdx
	leaq	880(%rbp), %rax
	movq	%rax, %rcx
.LEHB80:
	call	_Z16wxGetTranslationRK8wxStringS1_
	movl	$385, 32(%rsp)
	movl	$0, %r9d
	movq	%rax, %r8
	movl	$0, %edx
	movq	%rbx, %rcx
	call	_ZN14wxListCtrlBase12InsertColumnElRK8wxStringii
.LEHE80:
	.loc 41 57 31 is_stmt 0 discriminator 7
	leaq	880(%rbp), %rax
	movq	%rax, %rcx
	call	_ZN8wxStringD1Ev
	leaq	832(%rbp), %rax
	movq	%rax, %rcx
	call	_ZN8wxStringD1Ev
	.loc 41 58 2 is_stmt 1 discriminator 7
	movq	1200(%rbp), %rax
	movq	800(%rax), %rax
	.loc 41 58 31 discriminator 7
	movq	%rax, %rbx
	leaq	928(%rbp), %rax
	movq	%rax, %rcx
	call	_ZN8wxStringC1Ev
	leaq	976(%rbp), %rax
	leaq	.LC15(%rip), %rdx
	movq	%rax, %rcx
.LEHB81:
	call	_ZN8wxStringC1EPKc
.LEHE81:
	.loc 41 58 31 is_stmt 0 discriminator 3
	leaq	928(%rbp), %rdx
	leaq	976(%rbp), %rax
	movq	%rax, %rcx
.LEHB82:
	call	_Z16wxGetTranslationRK8wxStringS1_
	movl	$385, 32(%rsp)
	movl	$0, %r9d
	movq	%rax, %r8
	movl	$0, %edx
	movq	%rbx, %rcx
	call	_ZN14wxListCtrlBase12InsertColumnElRK8wxStringii
.LEHE82:
	.loc 41 58 31 discriminator 7
	leaq	976(%rbp), %rax
	movq	%rax, %rcx
	call	_ZN8wxStringD1Ev
	leaq	928(%rbp), %rax
	movq	%rax, %rcx
	call	_ZN8wxStringD1Ev
	.loc 41 59 2 is_stmt 1 discriminator 7
	movq	1200(%rbp), %rax
	movq	800(%rax), %rax
	.loc 41 59 31 discriminator 7
	movq	%rax, %rbx
	leaq	1024(%rbp), %rax
	movq	%rax, %rcx
	call	_ZN8wxStringC1Ev
	leaq	1072(%rbp), %rax
	leaq	.LC16(%rip), %rdx
	movq	%rax, %rcx
.LEHB83:
	call	_ZN8wxStringC1EPKc
.LEHE83:
	.loc 41 59 31 is_stmt 0 discriminator 3
	leaq	1024(%rbp), %rdx
	leaq	1072(%rbp), %rax
	movq	%rax, %rcx
.LEHB84:
	call	_Z16wxGetTranslationRK8wxStringS1_
	movl	$200, 32(%rsp)
	movl	$0, %r9d
	movq	%rax, %r8
	movl	$0, %edx
	movq	%rbx, %rcx
	call	_ZN14wxListCtrlBase12InsertColumnElRK8wxStringii
.LEHE84:
	.loc 41 59 31 discriminator 7
	leaq	1072(%rbp), %rax
	movq	%rax, %rcx
	call	_ZN8wxStringD1Ev
	leaq	1024(%rbp), %rax
	movq	%rax, %rcx
	call	_ZN8wxStringD1Ev
	.loc 41 61 12 is_stmt 1 discriminator 7
	movq	1200(%rbp), %rcx
.LEHB85:
	call	_ZN20DeletarFatoresDialog10updateListEv
.LEHE85:
	.loc 41 50 45
	leaq	-16(%rbp), %rax
	movq	%rax, %rcx
	call	_ZNSt7__cxx1112basic_stringIcSt11char_traitsIcESaIcEED1Ev
	.loc 41 43 135
	leaq	16(%rbp), %rax
	movq	%rax, %rcx
	call	_ZN6wxFontD1Ev
	.loc 41 40 126
	leaq	32(%rbp), %rax
	movq	%rax, %rcx
	call	_ZN6wxFontD1Ev
	.loc 41 37 132
	leaq	48(%rbp), %rax
	movq	%rax, %rcx
	call	_ZN6wxFontD1Ev
.LBE77:
.LBE76:
	.loc 41 63 1
	jmp	.L447
.L419:
	movq	%rax, %rbx
.LBB79:
.LBB78:
	.loc 41 34 8
	leaq	160(%rbp), %rax
	movq	%rax, %rcx
	call	_ZN8wxStringD1Ev
	jmp	.L384
.L418:
	movq	%rax, %rbx
.L384:
	.loc 41 34 8 is_stmt 0 discriminator 4
	leaq	112(%rbp), %rax
	movq	%rax, %rcx
	call	_ZN8wxStringD1Ev
	leaq	64(%rbp), %rax
	movq	%rax, %rcx
	call	_ZN8wxStringD1Ev
	jmp	.L385
.L422:
	movq	%rax, %rbx
	.loc 41 36 152 is_stmt 1
	movq	%rdi, %rcx
	call	_ZdlPv
	jmp	.L387
.L421:
	movq	%rax, %rbx
.L387:
	.loc 41 36 18 discriminator 3
	leaq	240(%rbp), %rax
	movq	%rax, %rcx
	call	_ZN8wxStringD1Ev
	movq	%rbx, %rax
	jmp	.L388
.L420:
.L388:
	movq	%rax, %rbx
	jmp	.L385
.L423:
	movq	%rax, %rbx
	leaq	288(%rbp), %rax
	movq	%rax, %rcx
	call	_ZN8wxStringD1Ev
	jmp	.L385
.L429:
	movq	%rax, %rbx
	.loc 41 39 149
	movq	%rdi, %rcx
	call	_ZdlPv
	jmp	.L391
.L428:
	movq	%rax, %rbx
.L391:
	.loc 41 39 16 discriminator 8
	leaq	448(%rbp), %rax
	movq	%rax, %rcx
	call	_ZN8wxStringD1Ev
	movq	%rbx, %rax
	jmp	.L392
.L427:
.L392:
	movq	%rax, %rbx
	jmp	.L393
.L426:
	movq	%rax, %rbx
.L393:
	.loc 41 39 84 discriminator 4
	leaq	384(%rbp), %rax
	movq	%rax, %rcx
	call	_ZN8wxStringD1Ev
	jmp	.L394
.L425:
	movq	%rax, %rbx
.L394:
	.loc 41 39 84 is_stmt 0 discriminator 2
	leaq	336(%rbp), %rax
	movq	%rax, %rcx
	call	_ZN8wxStringD1Ev
	jmp	.L395
.L430:
	movq	%rax, %rbx
	leaq	496(%rbp), %rax
	movq	%rax, %rcx
	call	_ZN8wxStringD1Ev
	jmp	.L395
.L435:
	movq	%rax, %rbx
	.loc 41 42 140 is_stmt 1
	movq	%rdi, %rcx
	call	_ZdlPv
	jmp	.L398
.L434:
	movq	%rax, %rbx
.L398:
	.loc 41 42 21 discriminator 8
	leaq	656(%rbp), %rax
	movq	%rax, %rcx
	call	_ZN8wxStringD1Ev
	jmp	.L399
.L433:
	movq	%rax, %rbx
.L399:
	.loc 41 42 92 discriminator 4
	leaq	592(%rbp), %rax
	movq	%rax, %rcx
	call	_ZN8wxStringD1Ev
	jmp	.L400
.L432:
	movq	%rax, %rbx
.L400:
	.loc 41 42 92 is_stmt 0 discriminator 2
	leaq	544(%rbp), %rax
	movq	%rax, %rcx
	call	_ZN8wxStringD1Ev
	jmp	.L401
.L436:
	movq	%rax, %rbx
	leaq	704(%rbp), %rax
	movq	%rax, %rcx
	call	_ZN8wxStringD1Ev
	jmp	.L401
.L438:
	movq	%rax, %rbx
	leaq	752(%rbp), %rax
	movq	%rax, %rcx
	call	_ZNSt7__cxx1112basic_stringIcSt11char_traitsIcESaIcEED1Ev
	jmp	.L404
.L440:
	movq	%rax, %rbx
	.loc 41 51 31 is_stmt 1
	leaq	784(%rbp), %rax
	movq	%rax, %rcx
	call	_ZN8wxStringD1Ev
	jmp	.L406
.L442:
	movq	%rax, %rbx
	.loc 41 57 31
	leaq	880(%rbp), %rax
	movq	%rax, %rcx
	call	_ZN8wxStringD1Ev
	jmp	.L408
.L441:
	movq	%rax, %rbx
.L408:
	.loc 41 57 31 is_stmt 0 discriminator 2
	leaq	832(%rbp), %rax
	movq	%rax, %rcx
	call	_ZN8wxStringD1Ev
	jmp	.L406
.L444:
	movq	%rax, %rbx
	.loc 41 58 31 is_stmt 1
	leaq	976(%rbp), %rax
	movq	%rax, %rcx
	call	_ZN8wxStringD1Ev
	jmp	.L410
.L443:
	movq	%rax, %rbx
.L410:
	.loc 41 58 31 is_stmt 0 discriminator 2
	leaq	928(%rbp), %rax
	movq	%rax, %rcx
	call	_ZN8wxStringD1Ev
	jmp	.L406
.L446:
	movq	%rax, %rbx
	.loc 41 59 31 is_stmt 1
	leaq	1072(%rbp), %rax
	movq	%rax, %rcx
	call	_ZN8wxStringD1Ev
	jmp	.L412
.L445:
	movq	%rax, %rbx
.L412:
	.loc 41 59 31 is_stmt 0 discriminator 2
	leaq	1024(%rbp), %rax
	movq	%rax, %rcx
	call	_ZN8wxStringD1Ev
	jmp	.L406
.L439:
	movq	%rax, %rbx
.L406:
	.loc 41 50 45 is_stmt 1
	leaq	-16(%rbp), %rax
	movq	%rax, %rcx
	call	_ZNSt7__cxx1112basic_stringIcSt11char_traitsIcESaIcEED1Ev
	jmp	.L404
.L437:
	movq	%rax, %rbx
.L404:
	.loc 41 43 135
	leaq	16(%rbp), %rax
	movq	%rax, %rcx
	call	_ZN6wxFontD1Ev
	jmp	.L401
.L431:
	movq	%rax, %rbx
.L401:
	.loc 41 40 126
	leaq	32(%rbp), %rax
	movq	%rax, %rcx
	call	_ZN6wxFontD1Ev
	jmp	.L395
.L424:
	movq	%rax, %rbx
.L395:
	.loc 41 37 132
	leaq	48(%rbp), %rax
	movq	%rax, %rcx
	call	_ZN6wxFontD1Ev
	jmp	.L385
.L417:
	movq	%rax, %rbx
.L385:
.LBE78:
	.loc 41 31 112
	movq	1200(%rbp), %rax
	addq	$920, %rax
	movq	%rax, %rcx
	call	_ZN11FatorDeLiftD1Ev
	jmp	.L413
.L416:
	movq	%rax, %rbx
.L413:
	.loc 41 31 112 is_stmt 0 discriminator 3
	movq	1200(%rbp), %rax
	addq	$848, %rax
	movq	%rax, %rcx
	call	_ZN12FatorDeFormaD1Ev
	jmp	.L414
.L415:
	movq	%rax, %rbx
.L414:
	.loc 41 31 112 discriminator 1
	movq	1200(%rbp), %rax
	movq	%rax, %rcx
	call	_ZN8wxDialogD2Ev
	movq	%rbx, %rax
	movq	%rax, %rcx
.LEHB86:
	call	_Unwind_Resume
	nop
.LEHE86:
.L447:
.LBE79:
	.loc 41 63 1 is_stmt 1
	addq	$1256, %rsp
	popq	%rbx
	.cfi_restore 3
	popq	%rsi
	.cfi_restore 4
	popq	%rdi
	.cfi_restore 5
	popq	%r12
	.cfi_restore 12
	popq	%r13
	.cfi_restore 13
	popq	%r14
	.cfi_restore 14
	popq	%r15
	.cfi_restore 15
	popq	%rbp
	.cfi_restore 6
	.cfi_def_cfa 7, -1192
	ret
	.cfi_endproc
.LFE17571:
	.seh_handler	__gxx_personality_seh0, @unwind, @except
	.seh_handlerdata
.LLSDA17571:
	.byte	0xff
	.byte	0xff
	.byte	0x1
	.uleb128 .LLSDACSE17571-.LLSDACSB17571
.LLSDACSB17571:
	.uleb128 .LEHB47-.LFB17571
	.uleb128 .LEHE47-.LEHB47
	.uleb128 0
	.uleb128 0
	.uleb128 .LEHB48-.LFB17571
	.uleb128 .LEHE48-.LEHB48
	.uleb128 .L415-.LFB17571
	.uleb128 0
	.uleb128 .LEHB49-.LFB17571
	.uleb128 .LEHE49-.LEHB49
	.uleb128 .L416-.LFB17571
	.uleb128 0
	.uleb128 .LEHB50-.LFB17571
	.uleb128 .LEHE50-.LEHB50
	.uleb128 .L417-.LFB17571
	.uleb128 0
	.uleb128 .LEHB51-.LFB17571
	.uleb128 .LEHE51-.LEHB51
	.uleb128 .L418-.LFB17571
	.uleb128 0
	.uleb128 .LEHB52-.LFB17571
	.uleb128 .LEHE52-.LEHB52
	.uleb128 .L419-.LFB17571
	.uleb128 0
	.uleb128 .LEHB53-.LFB17571
	.uleb128 .LEHE53-.LEHB53
	.uleb128 .L417-.LFB17571
	.uleb128 0
	.uleb128 .LEHB54-.LFB17571
	.uleb128 .LEHE54-.LEHB54
	.uleb128 .L420-.LFB17571
	.uleb128 0
	.uleb128 .LEHB55-.LFB17571
	.uleb128 .LEHE55-.LEHB55
	.uleb128 .L421-.LFB17571
	.uleb128 0
	.uleb128 .LEHB56-.LFB17571
	.uleb128 .LEHE56-.LEHB56
	.uleb128 .L422-.LFB17571
	.uleb128 0
	.uleb128 .LEHB57-.LFB17571
	.uleb128 .LEHE57-.LEHB57
	.uleb128 .L417-.LFB17571
	.uleb128 0
	.uleb128 .LEHB58-.LFB17571
	.uleb128 .LEHE58-.LEHB58
	.uleb128 .L423-.LFB17571
	.uleb128 0
	.uleb128 .LEHB59-.LFB17571
	.uleb128 .LEHE59-.LEHB59
	.uleb128 .L424-.LFB17571
	.uleb128 0
	.uleb128 .LEHB60-.LFB17571
	.uleb128 .LEHE60-.LEHB60
	.uleb128 .L425-.LFB17571
	.uleb128 0
	.uleb128 .LEHB61-.LFB17571
	.uleb128 .LEHE61-.LEHB61
	.uleb128 .L426-.LFB17571
	.uleb128 0
	.uleb128 .LEHB62-.LFB17571
	.uleb128 .LEHE62-.LEHB62
	.uleb128 .L427-.LFB17571
	.uleb128 0
	.uleb128 .LEHB63-.LFB17571
	.uleb128 .LEHE63-.LEHB63
	.uleb128 .L428-.LFB17571
	.uleb128 0
	.uleb128 .LEHB64-.LFB17571
	.uleb128 .LEHE64-.LEHB64
	.uleb128 .L429-.LFB17571
	.uleb128 0
	.uleb128 .LEHB65-.LFB17571
	.uleb128 .LEHE65-.LEHB65
	.uleb128 .L424-.LFB17571
	.uleb128 0
	.uleb128 .LEHB66-.LFB17571
	.uleb128 .LEHE66-.LEHB66
	.uleb128 .L430-.LFB17571
	.uleb128 0
	.uleb128 .LEHB67-.LFB17571
	.uleb128 .LEHE67-.LEHB67
	.uleb128 .L431-.LFB17571
	.uleb128 0
	.uleb128 .LEHB68-.LFB17571
	.uleb128 .LEHE68-.LEHB68
	.uleb128 .L432-.LFB17571
	.uleb128 0
	.uleb128 .LEHB69-.LFB17571
	.uleb128 .LEHE69-.LEHB69
	.uleb128 .L433-.LFB17571
	.uleb128 0
	.uleb128 .LEHB70-.LFB17571
	.uleb128 .LEHE70-.LEHB70
	.uleb128 .L434-.LFB17571
	.uleb128 0
	.uleb128 .LEHB71-.LFB17571
	.uleb128 .LEHE71-.LEHB71
	.uleb128 .L435-.LFB17571
	.uleb128 0
	.uleb128 .LEHB72-.LFB17571
	.uleb128 .LEHE72-.LEHB72
	.uleb128 .L431-.LFB17571
	.uleb128 0
	.uleb128 .LEHB73-.LFB17571
	.uleb128 .LEHE73-.LEHB73
	.uleb128 .L436-.LFB17571
	.uleb128 0
	.uleb128 .LEHB74-.LFB17571
	.uleb128 .LEHE74-.LEHB74
	.uleb128 .L437-.LFB17571
	.uleb128 0
	.uleb128 .LEHB75-.LFB17571
	.uleb128 .LEHE75-.LEHB75
	.uleb128 .L438-.LFB17571
	.uleb128 0
	.uleb128 .LEHB76-.LFB17571
	.uleb128 .LEHE76-.LEHB76
	.uleb128 .L439-.LFB17571
	.uleb128 0
	.uleb128 .LEHB77-.LFB17571
	.uleb128 .LEHE77-.LEHB77
	.uleb128 .L440-.LFB17571
	.uleb128 0
	.uleb128 .LEHB78-.LFB17571
	.uleb128 .LEHE78-.LEHB78
	.uleb128 .L439-.LFB17571
	.uleb128 0
	.uleb128 .LEHB79-.LFB17571
	.uleb128 .LEHE79-.LEHB79
	.uleb128 .L441-.LFB17571
	.uleb128 0
	.uleb128 .LEHB80-.LFB17571
	.uleb128 .LEHE80-.LEHB80
	.uleb128 .L442-.LFB17571
	.uleb128 0
	.uleb128 .LEHB81-.LFB17571
	.uleb128 .LEHE81-.LEHB81
	.uleb128 .L443-.LFB17571
	.uleb128 0
	.uleb128 .LEHB82-.LFB17571
	.uleb128 .LEHE82-.LEHB82
	.uleb128 .L444-.LFB17571
	.uleb128 0
	.uleb128 .LEHB83-.LFB17571
	.uleb128 .LEHE83-.LEHB83
	.uleb128 .L445-.LFB17571
	.uleb128 0
	.uleb128 .LEHB84-.LFB17571
	.uleb128 .LEHE84-.LEHB84
	.uleb128 .L446-.LFB17571
	.uleb128 0
	.uleb128 .LEHB85-.LFB17571
	.uleb128 .LEHE85-.LEHB85
	.uleb128 .L439-.LFB17571
	.uleb128 0
	.uleb128 .LEHB86-.LFB17571
	.uleb128 .LEHE86-.LEHB86
	.uleb128 0
	.uleb128 0
.LLSDACSE17571:
	.text
	.seh_endproc
	.globl	_ZN20DeletarFatoresDialogC1EP8wxWindowiRK7wxPointRK6wxSize
	.def	_ZN20DeletarFatoresDialogC1EP8wxWindowiRK7wxPointRK6wxSize;	.scl	2;	.type	32;	.endef
	.set	_ZN20DeletarFatoresDialogC1EP8wxWindowiRK7wxPointRK6wxSize,_ZN20DeletarFatoresDialogC2EP8wxWindowiRK7wxPointRK6wxSize
	.align 2
	.globl	_ZN20DeletarFatoresDialogD2Ev
	.def	_ZN20DeletarFatoresDialogD2Ev;	.scl	2;	.type	32;	.endef
	.seh_proc	_ZN20DeletarFatoresDialogD2Ev
_ZN20DeletarFatoresDialogD2Ev:
.LFB17574:
	.loc 41 65 1
	.cfi_startproc
	pushq	%rbp
	.seh_pushreg	%rbp
	.cfi_def_cfa_offset 16
	.cfi_offset 6, -16
	movq	%rsp, %rbp
	.seh_setframe	%rbp, 0
	.cfi_def_cfa_register 6
	subq	$32, %rsp
	.seh_stackalloc	32
	.seh_endprologue
	movq	%rcx, 16(%rbp)
.LBB80:
	.loc 41 65 45
	leaq	16+_ZTV20DeletarFatoresDialog(%rip), %rdx
	movq	16(%rbp), %rax
	movq	%rdx, (%rax)
	movq	16(%rbp), %rax
	addq	$920, %rax
	movq	%rax, %rcx
	call	_ZN11FatorDeLiftD1Ev
	movq	16(%rbp), %rax
	addq	$848, %rax
	movq	%rax, %rcx
	call	_ZN12FatorDeFormaD1Ev
	movq	16(%rbp), %rax
	movq	%rax, %rcx
	call	_ZN8wxDialogD2Ev
.LBE80:
	.loc 41 70 1
	nop
	addq	$32, %rsp
	popq	%rbp
	.cfi_restore 6
	.cfi_def_cfa 7, 8
	ret
	.cfi_endproc
.LFE17574:
	.seh_endproc
	.globl	_ZN20DeletarFatoresDialogD1Ev
	.def	_ZN20DeletarFatoresDialogD1Ev;	.scl	2;	.type	32;	.endef
	.set	_ZN20DeletarFatoresDialogD1Ev,_ZN20DeletarFatoresDialogD2Ev
	.align 2
	.globl	_ZN20DeletarFatoresDialogD0Ev
	.def	_ZN20DeletarFatoresDialogD0Ev;	.scl	2;	.type	32;	.endef
	.seh_proc	_ZN20DeletarFatoresDialogD0Ev
_ZN20DeletarFatoresDialogD0Ev:
.LFB17576:
	.loc 41 65 1
	.cfi_startproc
	pushq	%rbp
	.seh_pushreg	%rbp
	.cfi_def_cfa_offset 16
	.cfi_offset 6, -16
	movq	%rsp, %rbp
	.seh_setframe	%rbp, 0
	.cfi_def_cfa_register 6
	subq	$32, %rsp
	.seh_stackalloc	32
	.seh_endprologue
	movq	%rcx, 16(%rbp)
	.loc 41 70 1
	movq	16(%rbp), %rcx
	call	_ZN20DeletarFatoresDialogD1Ev
	movq	16(%rbp), %rcx
	call	_ZdlPv
	nop
	addq	$32, %rsp
	popq	%rbp
	.cfi_restore 6
	.cfi_def_cfa 7, 8
	ret
	.cfi_endproc
.LFE17576:
	.seh_endproc
	.section .rdata,"dr"
	.align 8
.LC17:
	.ascii "Voc\352 deve selecionar ao menos um velocidade para deletar\0"
.LC18:
	.ascii "Erro ao deletar os polin\364mios\0"
.LC19:
	.ascii "Deletado com sucesso\0"
	.text
	.align 2
	.globl	_ZN20DeletarFatoresDialog20OnDeletarButtonClickER14wxCommandEvent
	.def	_ZN20DeletarFatoresDialog20OnDeletarButtonClickER14wxCommandEvent;	.scl	2;	.type	32;	.endef
	.seh_proc	_ZN20DeletarFatoresDialog20OnDeletarButtonClickER14wxCommandEvent
_ZN20DeletarFatoresDialog20OnDeletarButtonClickER14wxCommandEvent:
.LFB17577:
	.loc 41 73 1
	.cfi_startproc
	pushq	%rbp
	.seh_pushreg	%rbp
	.cfi_def_cfa_offset 16
	.cfi_offset 6, -16
	pushq	%rbx
	.seh_pushreg	%rbx
	.cfi_def_cfa_offset 24
	.cfi_offset 3, -24
	subq	$504, %rsp
	.seh_stackalloc	504
	.cfi_def_cfa_offset 528
	leaq	128(%rsp), %rbp
	.seh_setframe	%rbp, 128
	.cfi_def_cfa 6, 400
	.seh_endprologue
	movq	%rcx, 400(%rbp)
	movq	%rdx, 408(%rbp)
	.loc 41 75 13
	movq	400(%rbp), %rax
	movq	800(%rax), %rax
	.loc 41 75 41
	movl	$4, %r9d
	movl	$1, %r8d
	movl	$-1, %edx
	movq	%rax, %rcx
.LEHB87:
	call	_ZNK10wxListCtrl11GetNextItemElii
	movl	%eax, 364(%rbp)
	.loc 41 76 5
	cmpl	$-1, 364(%rbp)
	jne	.L451
	.loc 41 77 21
	leaq	-80(%rbp), %rax
	movq	.refptr.wxMessageBoxCaptionStr(%rip), %rdx
	movq	%rax, %rcx
	call	_ZN8wxStringC1EPKc
.LEHE87:
	leaq	-32(%rbp), %rax
	movq	%rax, %rcx
	call	_ZN8wxStringC1Ev
	leaq	16(%rbp), %rax
	leaq	.LC17(%rip), %rdx
	movq	%rax, %rcx
.LEHB88:
	call	_ZN8wxStringC1EPKc
.LEHE88:
	.loc 41 77 21 is_stmt 0 discriminator 4
	leaq	-32(%rbp), %rdx
	leaq	16(%rbp), %rax
	movq	%rax, %rcx
.LEHB89:
	call	_Z16wxGetTranslationRK8wxStringS1_
	movq	%rax, %rcx
	leaq	-80(%rbp), %rax
	movl	$-1, 40(%rsp)
	movl	$-1, 32(%rsp)
	movl	$0, %r9d
	movl	$5, %r8d
	movq	%rax, %rdx
	call	_Z12wxMessageBoxRK8wxStringS1_lP8wxWindowii
.LEHE89:
	.loc 41 77 21 discriminator 8
	leaq	16(%rbp), %rax
	movq	%rax, %rcx
	call	_ZN8wxStringD1Ev
	leaq	-32(%rbp), %rax
	movq	%rax, %rcx
	call	_ZN8wxStringD1Ev
	leaq	-80(%rbp), %rax
	movq	%rax, %rcx
	call	_ZN8wxStringD1Ev
	.loc 41 78 9 is_stmt 1 discriminator 8
	jmp	.L450
.L451:
	.loc 41 80 18
	movq	400(%rbp), %rax
	movq	816(%rax), %rcx
	.loc 41 80 35
	movl	364(%rbp), %eax
	cltq
	movq	%rax, %rdx
.LEHB90:
	call	_ZNSt6vectorIdSaIdEE2atEy
	.loc 41 80 16
	movsd	(%rax), %xmm0
	movsd	%xmm0, 352(%rbp)
	.loc 41 82 21
	movq	400(%rbp), %rax
	movl	992(%rax), %eax
	movq	352(%rbp), %rcx
	movl	%eax, %edx
	movq	%rcx, %xmm0
	call	_Z12deletarFatordi
	.loc 41 82 8
	xorl	$1, %eax
	.loc 41 82 5
	testb	%al, %al
	je	.L453
	.loc 41 83 21
	leaq	64(%rbp), %rax
	movq	.refptr.wxMessageBoxCaptionStr(%rip), %rdx
	movq	%rax, %rcx
	call	_ZN8wxStringC1EPKc
.LEHE90:
	leaq	112(%rbp), %rax
	movq	%rax, %rcx
	call	_ZN8wxStringC1Ev
	leaq	160(%rbp), %rax
	leaq	.LC18(%rip), %rdx
	movq	%rax, %rcx
.LEHB91:
	call	_ZN8wxStringC1EPKc
.LEHE91:
	.loc 41 83 21 is_stmt 0 discriminator 4
	leaq	112(%rbp), %rdx
	leaq	160(%rbp), %rax
	movq	%rax, %rcx
.LEHB92:
	call	_Z16wxGetTranslationRK8wxStringS1_
	movq	%rax, %rcx
	leaq	64(%rbp), %rax
	movl	$-1, 40(%rsp)
	movl	$-1, 32(%rsp)
	movl	$0, %r9d
	movl	$5, %r8d
	movq	%rax, %rdx
	call	_Z12wxMessageBoxRK8wxStringS1_lP8wxWindowii
.LEHE92:
	.loc 41 83 21 discriminator 8
	leaq	160(%rbp), %rax
	movq	%rax, %rcx
	call	_ZN8wxStringD1Ev
	leaq	112(%rbp), %rax
	movq	%rax, %rcx
	call	_ZN8wxStringD1Ev
	leaq	64(%rbp), %rax
	movq	%rax, %rcx
	call	_ZN8wxStringD1Ev
	.loc 41 84 9 is_stmt 1 discriminator 8
	jmp	.L450
.L453:
	.loc 41 86 15
	movq	400(%rbp), %rcx
.LEHB93:
	call	_ZN20DeletarFatoresDialog10updateListEv
	.loc 41 87 17
	leaq	208(%rbp), %rax
	movq	.refptr.wxMessageBoxCaptionStr(%rip), %rdx
	movq	%rax, %rcx
	call	_ZN8wxStringC1EPKc
.LEHE93:
	leaq	256(%rbp), %rax
	movq	%rax, %rcx
	call	_ZN8wxStringC1Ev
	leaq	304(%rbp), %rax
	leaq	.LC19(%rip), %rdx
	movq	%rax, %rcx
.LEHB94:
	call	_ZN8wxStringC1EPKc
.LEHE94:
	.loc 41 87 17 is_stmt 0 discriminator 4
	leaq	256(%rbp), %rdx
	leaq	304(%rbp), %rax
	movq	%rax, %rcx
.LEHB95:
	call	_Z16wxGetTranslationRK8wxStringS1_
	movq	%rax, %rcx
	leaq	208(%rbp), %rax
	movl	$-1, 40(%rsp)
	movl	$-1, 32(%rsp)
	movl	$0, %r9d
	movl	$5, %r8d
	movq	%rax, %rdx
	call	_Z12wxMessageBoxRK8wxStringS1_lP8wxWindowii
.LEHE95:
	.loc 41 87 17 discriminator 8
	leaq	304(%rbp), %rax
	movq	%rax, %rcx
	call	_ZN8wxStringD1Ev
	leaq	256(%rbp), %rax
	movq	%rax, %rcx
	call	_ZN8wxStringD1Ev
	leaq	208(%rbp), %rax
	movq	%rax, %rcx
	call	_ZN8wxStringD1Ev
	jmp	.L450
.L461:
	movq	%rax, %rbx
	.loc 41 77 21 is_stmt 1
	leaq	16(%rbp), %rax
	movq	%rax, %rcx
	call	_ZN8wxStringD1Ev
	jmp	.L455
.L460:
	movq	%rax, %rbx
.L455:
	.loc 41 77 21 is_stmt 0 discriminator 3
	leaq	-32(%rbp), %rax
	movq	%rax, %rcx
	call	_ZN8wxStringD1Ev
	leaq	-80(%rbp), %rax
	movq	%rax, %rcx
	call	_ZN8wxStringD1Ev
	movq	%rbx, %rax
	movq	%rax, %rcx
.LEHB96:
	call	_Unwind_Resume
.L463:
	movq	%rax, %rbx
	.loc 41 83 21 is_stmt 1
	leaq	160(%rbp), %rax
	movq	%rax, %rcx
	call	_ZN8wxStringD1Ev
	jmp	.L457
.L462:
	movq	%rax, %rbx
.L457:
	.loc 41 83 21 is_stmt 0 discriminator 3
	leaq	112(%rbp), %rax
	movq	%rax, %rcx
	call	_ZN8wxStringD1Ev
	leaq	64(%rbp), %rax
	movq	%rax, %rcx
	call	_ZN8wxStringD1Ev
	movq	%rbx, %rax
	movq	%rax, %rcx
	call	_Unwind_Resume
.L465:
	movq	%rax, %rbx
	.loc 41 87 17 is_stmt 1
	leaq	304(%rbp), %rax
	movq	%rax, %rcx
	call	_ZN8wxStringD1Ev
	jmp	.L459
.L464:
	movq	%rax, %rbx
.L459:
	.loc 41 87 17 is_stmt 0 discriminator 3
	leaq	256(%rbp), %rax
	movq	%rax, %rcx
	call	_ZN8wxStringD1Ev
	leaq	208(%rbp), %rax
	movq	%rax, %rcx
	call	_ZN8wxStringD1Ev
	movq	%rbx, %rax
	movq	%rax, %rcx
	call	_Unwind_Resume
	nop
.LEHE96:
.L450:
	.loc 41 88 1 is_stmt 1
	addq	$504, %rsp
	popq	%rbx
	.cfi_restore 3
	popq	%rbp
	.cfi_restore 6
	.cfi_def_cfa 7, -488
	ret
	.cfi_endproc
.LFE17577:
	.seh_handler	__gxx_personality_seh0, @unwind, @except
	.seh_handlerdata
.LLSDA17577:
	.byte	0xff
	.byte	0xff
	.byte	0x1
	.uleb128 .LLSDACSE17577-.LLSDACSB17577
.LLSDACSB17577:
	.uleb128 .LEHB87-.LFB17577
	.uleb128 .LEHE87-.LEHB87
	.uleb128 0
	.uleb128 0
	.uleb128 .LEHB88-.LFB17577
	.uleb128 .LEHE88-.LEHB88
	.uleb128 .L460-.LFB17577
	.uleb128 0
	.uleb128 .LEHB89-.LFB17577
	.uleb128 .LEHE89-.LEHB89
	.uleb128 .L461-.LFB17577
	.uleb128 0
	.uleb128 .LEHB90-.LFB17577
	.uleb128 .LEHE90-.LEHB90
	.uleb128 0
	.uleb128 0
	.uleb128 .LEHB91-.LFB17577
	.uleb128 .LEHE91-.LEHB91
	.uleb128 .L462-.LFB17577
	.uleb128 0
	.uleb128 .LEHB92-.LFB17577
	.uleb128 .LEHE92-.LEHB92
	.uleb128 .L463-.LFB17577
	.uleb128 0
	.uleb128 .LEHB93-.LFB17577
	.uleb128 .LEHE93-.LEHB93
	.uleb128 0
	.uleb128 0
	.uleb128 .LEHB94-.LFB17577
	.uleb128 .LEHE94-.LEHB94
	.uleb128 .L464-.LFB17577
	.uleb128 0
	.uleb128 .LEHB95-.LFB17577
	.uleb128 .LEHE95-.LEHB95
	.uleb128 .L465-.LFB17577
	.uleb128 0
	.uleb128 .LEHB96-.LFB17577
	.uleb128 .LEHE96-.LEHB96
	.uleb128 0
	.uleb128 0
.LLSDACSE17577:
	.text
	.seh_endproc
	.align 2
	.globl	_ZN20DeletarFatoresDialog7OnCloseER12wxCloseEvent
	.def	_ZN20DeletarFatoresDialog7OnCloseER12wxCloseEvent;	.scl	2;	.type	32;	.endef
	.seh_proc	_ZN20DeletarFatoresDialog7OnCloseER12wxCloseEvent
_ZN20DeletarFatoresDialog7OnCloseER12wxCloseEvent:
.LFB17578:
	.loc 41 91 1
	.cfi_startproc
	pushq	%rbp
	.seh_pushreg	%rbp
	.cfi_def_cfa_offset 16
	.cfi_offset 6, -16
	movq	%rsp, %rbp
	.seh_setframe	%rbp, 0
	.cfi_def_cfa_register 6
	subq	$32, %rsp
	.seh_stackalloc	32
	.seh_endprologue
	movq	%rcx, 16(%rbp)
	movq	%rdx, 24(%rbp)
	.loc 41 92 12
	movq	16(%rbp), %rdx
	.loc 41 92 13
	movq	16(%rbp), %rax
	movq	(%rax), %rax
	addq	$168, %rax
	movq	(%rax), %rax
	.loc 41 92 12
	movq	%rdx, %rcx
	call	*%rax
.LVL28:
	.loc 41 93 1
	nop
	addq	$32, %rsp
	popq	%rbp
	.cfi_restore 6
	.cfi_def_cfa 7, 8
	ret
	.cfi_endproc
.LFE17578:
	.seh_endproc
	.section .rdata,"dr"
.LC20:
	.ascii "%.1f m/s\0"
	.align 8
.LC21:
	.ascii "(%.3fx\263)+(%.3fx\262)+(%.3fx)+(%.3f)\0"
	.text
	.align 2
	.globl	_ZN20DeletarFatoresDialog10updateListEv
	.def	_ZN20DeletarFatoresDialog10updateListEv;	.scl	2;	.type	32;	.endef
	.seh_proc	_ZN20DeletarFatoresDialog10updateListEv
_ZN20DeletarFatoresDialog10updateListEv:
.LFB17579:
	.loc 41 95 40
	.cfi_startproc
	pushq	%rbp
	.seh_pushreg	%rbp
	.cfi_def_cfa_offset 16
	.cfi_offset 6, -16
	pushq	%rbx
	.seh_pushreg	%rbx
	.cfi_def_cfa_offset 24
	.cfi_offset 3, -24
	subq	$552, %rsp
	.seh_stackalloc	552
	.cfi_def_cfa_offset 576
	leaq	128(%rsp), %rbp
	.seh_setframe	%rbp, 128
	.cfi_def_cfa 6, 448
	movaps	%xmm6, 368(%rbp)
	.seh_savexmm	%xmm6, 496
	movaps	%xmm7, 384(%rbp)
	.seh_savexmm	%xmm7, 512
	movaps	%xmm8, 400(%rbp)
	.seh_savexmm	%xmm8, 528
	.cfi_offset 23, -80
	.cfi_offset 24, -64
	.cfi_offset 25, -48
	.seh_endprologue
	movq	%rcx, 448(%rbp)
	.loc 41 97 5
	movq	448(%rbp), %rax
	movq	840(%rax), %rdx
	.loc 41 97 22
	movq	448(%rbp), %rax
	leaq	920(%rax), %rcx
	leaq	48(%rbp), %rax
	movq	%rcx, %r8
	movq	%rax, %rcx
.LEHB97:
	call	_ZN16FatorDeAjusteDAO9geraFatorER13FatorDeAjuste
	leaq	48(%rbp), %rax
	movq	%rax, %rcx
	call	_ZN13FatorDeAjusteD1Ev
	.loc 41 98 2
	movq	448(%rbp), %rax
	movq	840(%rax), %rdx
	.loc 41 98 19
	movq	448(%rbp), %rax
	leaq	848(%rax), %rcx
	leaq	128(%rbp), %rax
	movq	%rcx, %r8
	movq	%rax, %rcx
	call	_ZN16FatorDeAjusteDAO9geraFatorER13FatorDeAjuste
	leaq	128(%rbp), %rax
	movq	%rax, %rcx
	call	_ZN13FatorDeAjusteD1Ev
	.loc 41 99 5
	movq	448(%rbp), %rax
	movq	800(%rax), %rax
	.loc 41 99 36
	movq	%rax, %rcx
	call	_ZN10wxListCtrl14DeleteAllItemsEv
	.loc 41 100 46
	movq	448(%rbp), %rax
	addq	$848, %rax
	movq	%rax, %rcx
	call	_ZN13FatorDeAjuste21getPointerVelocidadesEv
	movq	%rax, %rdx
	.loc 41 100 14
	movq	448(%rbp), %rax
	movq	%rdx, 816(%rax)
	.loc 41 101 49
	movq	448(%rbp), %rax
	addq	$848, %rax
	movq	%rax, %rcx
	call	_ZN13FatorDeAjuste20getPointerPolinomiosEv
	movq	%rax, %rdx
	.loc 41 101 18
	movq	448(%rbp), %rax
	movq	%rdx, 824(%rax)
	.loc 41 102 47
	movq	448(%rbp), %rax
	addq	$920, %rax
	movq	%rax, %rcx
	call	_ZN13FatorDeAjuste20getPointerPolinomiosEv
	movq	%rax, %rdx
	.loc 41 102 17
	movq	448(%rbp), %rax
	movq	%rdx, 832(%rax)
.LBB81:
	.loc 41 104 10
	movl	$0, 364(%rbp)
.L469:
	.loc 41 104 24 discriminator 2
	movq	448(%rbp), %rax
	movq	816(%rax), %rax
	.loc 41 104 41 discriminator 2
	movq	%rax, %rcx
	call	_ZNKSt6vectorIdSaIdEE4sizeEv
	.loc 41 104 17 discriminator 2
	cmpl	%eax, 364(%rbp)
	setl	%al
	testb	%al, %al
	je	.L476
.LBB82:
	.loc 41 106 41
	movq	448(%rbp), %rax
	movq	816(%rax), %rcx
	.loc 41 106 58
	movl	364(%rbp), %eax
	cltq
	movq	%rax, %rdx
	call	_ZNSt6vectorIdSaIdEE2atEy
	.loc 41 106 17
	movsd	(%rax), %xmm0
	movq	%xmm0, %rax
	movq	%rax, %rdx
	movq	%rax, %xmm0
	leaq	-64(%rbp), %rax
	movq	%rdx, %xmm3
	movq	%xmm0, %r9
	leaq	.LC20(%rip), %r8
	movl	$100, %edx
	movq	%rax, %rcx
	call	_ZL8snprintfPcyPKcz
	.loc 41 107 9
	movq	448(%rbp), %rax
	movq	800(%rax), %rbx
	.loc 41 107 39
	leaq	-64(%rbp), %rdx
	leaq	208(%rbp), %rax
	movq	%rax, %rcx
	call	_ZN8wxStringC1EPKc
.LEHE97:
	.loc 41 107 36
	leaq	208(%rbp), %rdx
	movl	364(%rbp), %eax
	movq	%rdx, %r8
	movl	%eax, %edx
	movq	%rbx, %rcx
.LEHB98:
	call	_ZN10wxListCtrl10InsertItemElRK8wxString
.LEHE98:
	.loc 41 107 39 discriminator 3
	leaq	208(%rbp), %rax
	movq	%rax, %rcx
	call	_ZN8wxStringD1Ev
	.loc 41 109 90 discriminator 3
	movl	364(%rbp), %eax
	cltq
	.loc 41 109 72 discriminator 3
	movq	448(%rbp), %rdx
	movq	824(%rdx), %rcx
	.loc 41 109 90 discriminator 3
	movq	%rax, %rdx
	call	_ZNSt6vectorIS_IdSaIdEESaIS1_EEixEy
	.loc 41 109 93 discriminator 3
	movl	$0, %edx
	movq	%rax, %rcx
	call	_ZNSt6vectorIdSaIdEEixEy
	.loc 41 108 17 discriminator 3
	movsd	(%rax), %xmm8
	.loc 41 109 64 discriminator 3
	movl	364(%rbp), %eax
	cltq
	.loc 41 109 46 discriminator 3
	movq	448(%rbp), %rdx
	movq	824(%rdx), %rcx
	.loc 41 109 64 discriminator 3
	movq	%rax, %rdx
	call	_ZNSt6vectorIS_IdSaIdEESaIS1_EEixEy
	.loc 41 109 67 discriminator 3
	movl	$1, %edx
	movq	%rax, %rcx
	call	_ZNSt6vectorIdSaIdEEixEy
	.loc 41 108 17 discriminator 3
	movsd	(%rax), %xmm7
	.loc 41 109 38 discriminator 3
	movl	364(%rbp), %eax
	cltq
	.loc 41 109 20 discriminator 3
	movq	448(%rbp), %rdx
	movq	824(%rdx), %rcx
	.loc 41 109 38 discriminator 3
	movq	%rax, %rdx
	call	_ZNSt6vectorIS_IdSaIdEESaIS1_EEixEy
	.loc 41 109 41 discriminator 3
	movl	$2, %edx
	movq	%rax, %rcx
	call	_ZNSt6vectorIdSaIdEEixEy
	.loc 41 108 17 discriminator 3
	movsd	(%rax), %xmm6
	.loc 41 108 85 discriminator 3
	movl	364(%rbp), %eax
	cltq
	.loc 41 108 67 discriminator 3
	movq	448(%rbp), %rdx
	movq	824(%rdx), %rcx
	.loc 41 108 85 discriminator 3
	movq	%rax, %rdx
	call	_ZNSt6vectorIS_IdSaIdEESaIS1_EEixEy
	.loc 41 108 88 discriminator 3
	movl	$3, %edx
	movq	%rax, %rcx
	call	_ZNSt6vectorIdSaIdEEixEy
	.loc 41 108 17 discriminator 3
	movsd	(%rax), %xmm0
	movq	%xmm0, %rax
	movq	%rax, %rdx
	movq	%rax, %xmm0
	leaq	-64(%rbp), %rax
	movsd	%xmm8, 48(%rsp)
	movsd	%xmm7, 40(%rsp)
	movsd	%xmm6, 32(%rsp)
	movq	%rdx, %xmm3
	movq	%xmm0, %r9
	leaq	.LC21(%rip), %r8
	movl	$100, %edx
	movq	%rax, %rcx
.LEHB99:
	call	_ZL8snprintfPcyPKcz
	.loc 41 110 9 discriminator 3
	movq	448(%rbp), %rax
	movq	800(%rax), %rbx
	.loc 41 110 40 discriminator 3
	leaq	-64(%rbp), %rdx
	leaq	256(%rbp), %rax
	movq	%rax, %rcx
	call	_ZN8wxStringC1EPKc
.LEHE99:
	.loc 41 110 33 discriminator 3
	leaq	256(%rbp), %rdx
	movl	364(%rbp), %eax
	movl	$-1, 32(%rsp)
	movq	%rdx, %r9
	movl	$1, %r8d
	movl	%eax, %edx
	movq	%rbx, %rcx
.LEHB100:
	call	_ZN10wxListCtrl7SetItemEliRK8wxStringi
.LEHE100:
	.loc 41 110 40 discriminator 3
	leaq	256(%rbp), %rax
	movq	%rax, %rcx
	call	_ZN8wxStringD1Ev
	.loc 41 112 87 discriminator 3
	movl	364(%rbp), %eax
	cltq
	.loc 41 112 70 discriminator 3
	movq	448(%rbp), %rdx
	movq	832(%rdx), %rcx
	.loc 41 112 87 discriminator 3
	movq	%rax, %rdx
	call	_ZNSt6vectorIS_IdSaIdEESaIS1_EEixEy
	.loc 41 112 90 discriminator 3
	movl	$0, %edx
	movq	%rax, %rcx
	call	_ZNSt6vectorIdSaIdEEixEy
	.loc 41 111 17 discriminator 3
	movsd	(%rax), %xmm8
	.loc 41 112 62 discriminator 3
	movl	364(%rbp), %eax
	cltq
	.loc 41 112 45 discriminator 3
	movq	448(%rbp), %rdx
	movq	832(%rdx), %rcx
	.loc 41 112 62 discriminator 3
	movq	%rax, %rdx
	call	_ZNSt6vectorIS_IdSaIdEESaIS1_EEixEy
	.loc 41 112 65 discriminator 3
	movl	$1, %edx
	movq	%rax, %rcx
	call	_ZNSt6vectorIdSaIdEEixEy
	.loc 41 111 17 discriminator 3
	movsd	(%rax), %xmm7
	.loc 41 112 37 discriminator 3
	movl	364(%rbp), %eax
	cltq
	.loc 41 112 20 discriminator 3
	movq	448(%rbp), %rdx
	movq	832(%rdx), %rcx
	.loc 41 112 37 discriminator 3
	movq	%rax, %rdx
	call	_ZNSt6vectorIS_IdSaIdEESaIS1_EEixEy
	.loc 41 112 40 discriminator 3
	movl	$2, %edx
	movq	%rax, %rcx
	call	_ZNSt6vectorIdSaIdEEixEy
	.loc 41 111 17 discriminator 3
	movsd	(%rax), %xmm6
	.loc 41 111 84 discriminator 3
	movl	364(%rbp), %eax
	cltq
	.loc 41 111 67 discriminator 3
	movq	448(%rbp), %rdx
	movq	832(%rdx), %rcx
	.loc 41 111 84 discriminator 3
	movq	%rax, %rdx
	call	_ZNSt6vectorIS_IdSaIdEESaIS1_EEixEy
	.loc 41 111 87 discriminator 3
	movl	$3, %edx
	movq	%rax, %rcx
	call	_ZNSt6vectorIdSaIdEEixEy
	.loc 41 111 17 discriminator 3
	movsd	(%rax), %xmm0
	movq	%xmm0, %rax
	movq	%rax, %rdx
	movq	%rax, %xmm0
	leaq	-64(%rbp), %rax
	movsd	%xmm8, 48(%rsp)
	movsd	%xmm7, 40(%rsp)
	movsd	%xmm6, 32(%rsp)
	movq	%rdx, %xmm3
	movq	%xmm0, %r9
	leaq	.LC21(%rip), %r8
	movl	$100, %edx
	movq	%rax, %rcx
.LEHB101:
	call	_ZL8snprintfPcyPKcz
	.loc 41 113 9 discriminator 3
	movq	448(%rbp), %rax
	movq	800(%rax), %rbx
	.loc 41 113 40 discriminator 3
	leaq	-64(%rbp), %rdx
	leaq	304(%rbp), %rax
	movq	%rax, %rcx
	call	_ZN8wxStringC1EPKc
.LEHE101:
	.loc 41 113 33 discriminator 3
	leaq	304(%rbp), %rdx
	movl	364(%rbp), %eax
	movl	$-1, 32(%rsp)
	movq	%rdx, %r9
	movl	$2, %r8d
	movl	%eax, %edx
	movq	%rbx, %rcx
.LEHB102:
	call	_ZN10wxListCtrl7SetItemEliRK8wxStringi
.LEHE102:
	.loc 41 113 40 discriminator 3
	leaq	304(%rbp), %rax
	movq	%rax, %rcx
	call	_ZN8wxStringD1Ev
.LBE82:
	.loc 41 104 2 discriminator 3
	addl	$1, 364(%rbp)
	jmp	.L469
.L473:
	movq	%rax, %rbx
.LBB83:
	.loc 41 107 39
	leaq	208(%rbp), %rax
	movq	%rax, %rcx
	call	_ZN8wxStringD1Ev
	movq	%rbx, %rax
	movq	%rax, %rcx
.LEHB103:
	call	_Unwind_Resume
.L474:
	movq	%rax, %rbx
	.loc 41 110 40
	leaq	256(%rbp), %rax
	movq	%rax, %rcx
	call	_ZN8wxStringD1Ev
	movq	%rbx, %rax
	movq	%rax, %rcx
	call	_Unwind_Resume
.L475:
	movq	%rax, %rbx
	.loc 41 113 40
	leaq	304(%rbp), %rax
	movq	%rax, %rcx
	call	_ZN8wxStringD1Ev
	movq	%rbx, %rax
	movq	%rax, %rcx
	call	_Unwind_Resume
.LEHE103:
.L476:
.LBE83:
.LBE81:
	.loc 41 115 1
	nop
	movaps	368(%rbp), %xmm6
	movaps	384(%rbp), %xmm7
	movaps	400(%rbp), %xmm8
	addq	$552, %rsp
	.cfi_restore 25
	.cfi_restore 24
	.cfi_restore 23
	popq	%rbx
	.cfi_restore 3
	popq	%rbp
	.cfi_restore 6
	.cfi_def_cfa 7, -536
	ret
	.cfi_endproc
.LFE17579:
	.seh_handler	__gxx_personality_seh0, @unwind, @except
	.seh_handlerdata
.LLSDA17579:
	.byte	0xff
	.byte	0xff
	.byte	0x1
	.uleb128 .LLSDACSE17579-.LLSDACSB17579
.LLSDACSB17579:
	.uleb128 .LEHB97-.LFB17579
	.uleb128 .LEHE97-.LEHB97
	.uleb128 0
	.uleb128 0
	.uleb128 .LEHB98-.LFB17579
	.uleb128 .LEHE98-.LEHB98
	.uleb128 .L473-.LFB17579
	.uleb128 0
	.uleb128 .LEHB99-.LFB17579
	.uleb128 .LEHE99-.LEHB99
	.uleb128 0
	.uleb128 0
	.uleb128 .LEHB100-.LFB17579
	.uleb128 .LEHE100-.LEHB100
	.uleb128 .L474-.LFB17579
	.uleb128 0
	.uleb128 .LEHB101-.LFB17579
	.uleb128 .LEHE101-.LEHB101
	.uleb128 0
	.uleb128 0
	.uleb128 .LEHB102-.LFB17579
	.uleb128 .LEHE102-.LEHB102
	.uleb128 .L475-.LFB17579
	.uleb128 0
	.uleb128 .LEHB103-.LFB17579
	.uleb128 .LEHE103-.LEHB103
	.uleb128 0
	.uleb128 0
.LLSDACSE17579:
	.text
	.seh_endproc
	.section	.text$_ZN22wxScopedCharTypeBufferIwED1Ev,"x"
	.linkonce discard
	.align 2
	.globl	_ZN22wxScopedCharTypeBufferIwED1Ev
	.def	_ZN22wxScopedCharTypeBufferIwED1Ev;	.scl	2;	.type	32;	.endef
	.seh_proc	_ZN22wxScopedCharTypeBufferIwED1Ev
_ZN22wxScopedCharTypeBufferIwED1Ev:
.LFB17600:
	.loc 2 125 5
	.cfi_startproc
	pushq	%rbp
	.seh_pushreg	%rbp
	.cfi_def_cfa_offset 16
	.cfi_offset 6, -16
	movq	%rsp, %rbp
	.seh_setframe	%rbp, 0
	.cfi_def_cfa_register 6
	subq	$32, %rsp
	.seh_stackalloc	32
	.seh_endprologue
	movq	%rcx, 16(%rbp)
.LBB84:
	.loc 2 127 9
	movq	16(%rbp), %rcx
	call	_ZN22wxScopedCharTypeBufferIwE6DecRefEv
.LBE84:
	.loc 2 128 5
	nop
	addq	$32, %rsp
	popq	%rbp
	.cfi_restore 6
	.cfi_def_cfa 7, 8
	ret
	.cfi_endproc
.LFE17600:
	.seh_handler	__gxx_personality_seh0, @unwind, @except
	.seh_handlerdata
.LLSDA17600:
	.byte	0xff
	.byte	0xff
	.byte	0x1
	.uleb128 .LLSDACSE17600-.LLSDACSB17600
.LLSDACSB17600:
.LLSDACSE17600:
	.section	.text$_ZN22wxScopedCharTypeBufferIwED1Ev,"x"
	.linkonce discard
	.seh_endproc
	.section	.text$_ZN22wxScopedCharTypeBufferIwEC1ERKS0_,"x"
	.linkonce discard
	.align 2
	.globl	_ZN22wxScopedCharTypeBufferIwEC1ERKS0_
	.def	_ZN22wxScopedCharTypeBufferIwEC1ERKS0_;	.scl	2;	.type	32;	.endef
	.seh_proc	_ZN22wxScopedCharTypeBufferIwEC1ERKS0_
_ZN22wxScopedCharTypeBufferIwEC1ERKS0_:
.LFB17800:
	.loc 2 107 5
	.cfi_startproc
	pushq	%rbp
	.seh_pushreg	%rbp
	.cfi_def_cfa_offset 16
	.cfi_offset 6, -16
	movq	%rsp, %rbp
	.seh_setframe	%rbp, 0
	.cfi_def_cfa_register 6
	subq	$32, %rsp
	.seh_stackalloc	32
	.seh_endprologue
	movq	%rcx, 16(%rbp)
	movq	%rdx, 24(%rbp)
.LBB85:
	.loc 2 109 22
	movq	24(%rbp), %rax
	movq	(%rax), %rdx
	.loc 2 109 9
	movq	16(%rbp), %rax
	movq	%rdx, (%rax)
	.loc 2 110 9
	movq	16(%rbp), %rcx
	call	_ZN22wxScopedCharTypeBufferIwE6IncRefEv
.LBE85:
	.loc 2 111 5
	nop
	addq	$32, %rsp
	popq	%rbp
	.cfi_restore 6
	.cfi_def_cfa 7, 8
	ret
	.cfi_endproc
.LFE17800:
	.seh_endproc
	.section	.text$_ZN8wxString15ConvertedBufferIcED1Ev,"x"
	.linkonce discard
	.align 2
	.globl	_ZN8wxString15ConvertedBufferIcED1Ev
	.def	_ZN8wxString15ConvertedBufferIcED1Ev;	.scl	2;	.type	32;	.endef
	.seh_proc	_ZN8wxString15ConvertedBufferIcED1Ev
_ZN8wxString15ConvertedBufferIcED1Ev:
.LFB17869:
	.loc 5 3489 7
	.cfi_startproc
	pushq	%rbp
	.seh_pushreg	%rbp
	.cfi_def_cfa_offset 16
	.cfi_offset 6, -16
	movq	%rsp, %rbp
	.seh_setframe	%rbp, 0
	.cfi_def_cfa_register 6
	subq	$32, %rsp
	.seh_stackalloc	32
	.seh_endprologue
	movq	%rcx, 16(%rbp)
.LBB86:
	.loc 5 3490 18
	movq	16(%rbp), %rax
	movq	(%rax), %rax
	.loc 5 3490 17
	movq	%rax, %rcx
	call	free
.LBE86:
	.loc 5 3490 26
	nop
	addq	$32, %rsp
	popq	%rbp
	.cfi_restore 6
	.cfi_def_cfa 7, 8
	ret
	.cfi_endproc
.LFE17869:
	.seh_endproc
	.section	.text$_ZN8wxString15ConvertedBufferIcEC1Ev,"x"
	.linkonce discard
	.align 2
	.globl	_ZN8wxString15ConvertedBufferIcEC1Ev
	.def	_ZN8wxString15ConvertedBufferIcEC1Ev;	.scl	2;	.type	32;	.endef
	.seh_proc	_ZN8wxString15ConvertedBufferIcEC1Ev
_ZN8wxString15ConvertedBufferIcEC1Ev:
.LFB17875:
	.loc 5 3488 7
	.cfi_startproc
	pushq	%rbp
	.seh_pushreg	%rbp
	.cfi_def_cfa_offset 16
	.cfi_offset 6, -16
	movq	%rsp, %rbp
	.seh_setframe	%rbp, 0
	.cfi_def_cfa_register 6
	.seh_endprologue
	movq	%rcx, 16(%rbp)
.LBB87:
	.loc 5 3488 36
	movq	16(%rbp), %rax
	movq	$0, (%rax)
.LBE87:
	.loc 5 3488 39
	nop
	popq	%rbp
	.cfi_restore 6
	.cfi_def_cfa 7, 8
	ret
	.cfi_endproc
.LFE17875:
	.seh_endproc
	.section	.text$_ZNK22wxScopedCharTypeBufferIwEcvPKwEv,"x"
	.linkonce discard
	.align 2
	.globl	_ZNK22wxScopedCharTypeBufferIwEcvPKwEv
	.def	_ZNK22wxScopedCharTypeBufferIwEcvPKwEv;	.scl	2;	.type	32;	.endef
	.seh_proc	_ZNK22wxScopedCharTypeBufferIwEcvPKwEv
_ZNK22wxScopedCharTypeBufferIwEcvPKwEv:
.LFB17879:
	.loc 2 157 5
	.cfi_startproc
	pushq	%rbp
	.seh_pushreg	%rbp
	.cfi_def_cfa_offset 16
	.cfi_offset 6, -16
	movq	%rsp, %rbp
	.seh_setframe	%rbp, 0
	.cfi_def_cfa_register 6
	subq	$32, %rsp
	.seh_stackalloc	32
	.seh_endprologue
	movq	%rcx, 16(%rbp)
	.loc 2 157 53
	movq	16(%rbp), %rcx
	call	_ZNK22wxScopedCharTypeBufferIwE4dataEv
	.loc 2 157 56
	addq	$32, %rsp
	popq	%rbp
	.cfi_restore 6
	.cfi_def_cfa 7, 8
	ret
	.cfi_endproc
.LFE17879:
	.seh_endproc
	.section	.text$_ZNK22wxScopedCharTypeBufferIwE4dataEv,"x"
	.linkonce discard
	.align 2
	.globl	_ZNK22wxScopedCharTypeBufferIwE4dataEv
	.def	_ZNK22wxScopedCharTypeBufferIwE4dataEv;	.scl	2;	.type	32;	.endef
	.seh_proc	_ZNK22wxScopedCharTypeBufferIwE4dataEv
_ZNK22wxScopedCharTypeBufferIwE4dataEv:
.LFB17892:
	.loc 2 156 21
	.cfi_startproc
	pushq	%rbp
	.seh_pushreg	%rbp
	.cfi_def_cfa_offset 16
	.cfi_offset 6, -16
	movq	%rsp, %rbp
	.seh_setframe	%rbp, 0
	.cfi_def_cfa_register 6
	subq	$32, %rsp
	.seh_stackalloc	32
	.seh_endprologue
	movq	%rcx, 16(%rbp)
	.loc 2 156 43
	movq	16(%rbp), %rax
	movq	(%rax), %rax
	.loc 2 156 55
	movq	%rax, %rcx
	call	_ZNK22wxScopedCharTypeBufferIwE4Data3GetEv
	.loc 2 156 58
	addq	$32, %rsp
	popq	%rbp
	.cfi_restore 6
	.cfi_def_cfa 7, 8
	ret
	.cfi_endproc
.LFE17892:
	.seh_endproc
	.section	.text$_ZStplIcSt11char_traitsIcESaIcEENSt7__cxx1112basic_stringIT_T0_T1_EEPKS5_OS8_,"x"
	.linkonce discard
	.globl	_ZStplIcSt11char_traitsIcESaIcEENSt7__cxx1112basic_stringIT_T0_T1_EEPKS5_OS8_
	.def	_ZStplIcSt11char_traitsIcESaIcEENSt7__cxx1112basic_stringIT_T0_T1_EEPKS5_OS8_;	.scl	2;	.type	32;	.endef
	.seh_proc	_ZStplIcSt11char_traitsIcESaIcEENSt7__cxx1112basic_stringIT_T0_T1_EEPKS5_OS8_
_ZStplIcSt11char_traitsIcESaIcEENSt7__cxx1112basic_stringIT_T0_T1_EEPKS5_OS8_:
.LFB18068:
	.file 42 "C:/Program Files/CodeBlocks/MinGW/lib/gcc/x86_64-w64-mingw32/8.1.0/include/c++/bits/basic_string.h"
	.loc 42 5977 5
	.cfi_startproc
	pushq	%rbp
	.seh_pushreg	%rbp
	.cfi_def_cfa_offset 16
	.cfi_offset 6, -16
	movq	%rsp, %rbp
	.seh_setframe	%rbp, 0
	.cfi_def_cfa_register 6
	subq	$32, %rsp
	.seh_stackalloc	32
	.seh_endprologue
	movq	%rcx, 16(%rbp)
	movq	%rdx, 24(%rbp)
	movq	%r8, 32(%rbp)
	.loc 42 5979 23
	movq	24(%rbp), %rdx
	movq	32(%rbp), %rax
	movq	%rdx, %r8
	movl	$0, %edx
	movq	%rax, %rcx
	call	_ZNSt7__cxx1112basic_stringIcSt11char_traitsIcESaIcEE6insertEyPKc
	movq	%rax, %rcx
	call	_ZSt4moveIRNSt7__cxx1112basic_stringIcSt11char_traitsIcESaIcEEEEONSt16remove_referenceIT_E4typeEOS8_
	.loc 42 5979 46
	movq	%rax, %rdx
	movq	16(%rbp), %rcx
	call	_ZNSt7__cxx1112basic_stringIcSt11char_traitsIcESaIcEEC1EOS4_
	.loc 42 5979 49
	movq	16(%rbp), %rax
	addq	$32, %rsp
	popq	%rbp
	.cfi_restore 6
	.cfi_def_cfa 7, 8
	ret
	.cfi_endproc
.LFE18068:
	.seh_endproc
	.section	.text$_ZNK14wxEventTypeTagI12wxCloseEventEcvRKiEv,"x"
	.linkonce discard
	.align 2
	.globl	_ZNK14wxEventTypeTagI12wxCloseEventEcvRKiEv
	.def	_ZNK14wxEventTypeTagI12wxCloseEventEcvRKiEv;	.scl	2;	.type	32;	.endef
	.seh_proc	_ZNK14wxEventTypeTagI12wxCloseEventEcvRKiEv
_ZNK14wxEventTypeTagI12wxCloseEventEcvRKiEv:
.LFB18168:
	.loc 16 190 5
	.cfi_startproc
	pushq	%rbp
	.seh_pushreg	%rbp
	.cfi_def_cfa_offset 16
	.cfi_offset 6, -16
	movq	%rsp, %rbp
	.seh_setframe	%rbp, 0
	.cfi_def_cfa_register 6
	.seh_endprologue
	movq	%rcx, 16(%rbp)
	.loc 16 190 50
	movq	16(%rbp), %rax
	.loc 16 190 58
	popq	%rbp
	.cfi_restore 6
	.cfi_def_cfa 7, 8
	ret
	.cfi_endproc
.LFE18168:
	.seh_endproc
	.section	.text$_Z5wxMaxIiiEN24wxImplicitConversionTypeIT_T0_E5valueES1_S2_,"x"
	.linkonce discard
	.globl	_Z5wxMaxIiiEN24wxImplicitConversionTypeIT_T0_E5valueES1_S2_
	.def	_Z5wxMaxIiiEN24wxImplicitConversionTypeIT_T0_E5valueES1_S2_;	.scl	2;	.type	32;	.endef
	.seh_proc	_Z5wxMaxIiiEN24wxImplicitConversionTypeIT_T0_E5valueES1_S2_
_Z5wxMaxIiiEN24wxImplicitConversionTypeIT_T0_E5valueES1_S2_:
.LFB18182:
	.file 43 "../wxMSW-3.0.5_gcc810_x64_Dev/include/wx/utils.h"
	.loc 43 65 1
	.cfi_startproc
	pushq	%rbp
	.seh_pushreg	%rbp
	.cfi_def_cfa_offset 16
	.cfi_offset 6, -16
	movq	%rsp, %rbp
	.seh_setframe	%rbp, 0
	.cfi_def_cfa_register 6
	.seh_endprologue
	movl	%ecx, 16(%rbp)
	movl	%edx, 24(%rbp)
	.loc 43 71 68
	movl	16(%rbp), %eax
	cmpl	24(%rbp), %eax
	jle	.L490
	.loc 43 71 68 is_stmt 0 discriminator 1
	movl	16(%rbp), %eax
	.loc 43 71 74 is_stmt 1 discriminator 1
	jmp	.L492
.L490:
	.loc 43 71 68 discriminator 2
	movl	24(%rbp), %eax
.L492:
	.loc 43 72 1 discriminator 5
	popq	%rbp
	.cfi_restore 6
	.cfi_def_cfa 7, 8
	ret
	.cfi_endproc
.LFE18182:
	.seh_endproc
	.section	.text$_ZN8wxVectorIP17wxMSWListItemDataEC1Ev,"x"
	.linkonce discard
	.align 2
	.globl	_ZN8wxVectorIP17wxMSWListItemDataEC1Ev
	.def	_ZN8wxVectorIP17wxMSWListItemDataEC1Ev;	.scl	2;	.type	32;	.endef
	.seh_proc	_ZN8wxVectorIP17wxMSWListItemDataEC1Ev
_ZN8wxVectorIP17wxMSWListItemDataEC1Ev:
.LFB18218:
	.file 44 "../wxMSW-3.0.5_gcc810_x64_Dev/include/wx/vector.h"
	.loc 44 235 5
	.cfi_startproc
	pushq	%rbp
	.seh_pushreg	%rbp
	.cfi_def_cfa_offset 16
	.cfi_offset 6, -16
	movq	%rsp, %rbp
	.seh_setframe	%rbp, 0
	.cfi_def_cfa_register 6
	.seh_endprologue
	movq	%rcx, 16(%rbp)
.LBB88:
	.loc 44 235 56
	movq	16(%rbp), %rax
	movq	$0, (%rax)
	movq	16(%rbp), %rax
	movq	$0, 8(%rax)
	movq	16(%rbp), %rax
	movq	$0, 16(%rax)
.LBE88:
	.loc 44 235 59
	nop
	popq	%rbp
	.cfi_restore 6
	.cfi_def_cfa 7, 8
	ret
	.cfi_endproc
.LFE18218:
	.seh_endproc
	.section	.text$_ZN8wxVectorIP17wxMSWListItemDataED1Ev,"x"
	.linkonce discard
	.align 2
	.globl	_ZN8wxVectorIP17wxMSWListItemDataED1Ev
	.def	_ZN8wxVectorIP17wxMSWListItemDataED1Ev;	.scl	2;	.type	32;	.endef
	.seh_proc	_ZN8wxVectorIP17wxMSWListItemDataED1Ev
_ZN8wxVectorIP17wxMSWListItemDataED1Ev:
.LFB18221:
	.loc 44 265 5
	.cfi_startproc
	pushq	%rbp
	.seh_pushreg	%rbp
	.cfi_def_cfa_offset 16
	.cfi_offset 6, -16
	movq	%rsp, %rbp
	.seh_setframe	%rbp, 0
	.cfi_def_cfa_register 6
	subq	$32, %rsp
	.seh_stackalloc	32
	.seh_endprologue
	movq	%rcx, 16(%rbp)
.LBB89:
	.loc 44 267 9
	movq	16(%rbp), %rcx
	call	_ZN8wxVectorIP17wxMSWListItemDataE5clearEv
.LBE89:
	.loc 44 268 5
	nop
	addq	$32, %rsp
	popq	%rbp
	.cfi_restore 6
	.cfi_def_cfa 7, 8
	ret
	.cfi_endproc
.LFE18221:
	.seh_handler	__gxx_personality_seh0, @unwind, @except
	.seh_handlerdata
.LLSDA18221:
	.byte	0xff
	.byte	0xff
	.byte	0x1
	.uleb128 .LLSDACSE18221-.LLSDACSB18221
.LLSDACSB18221:
.LLSDACSE18221:
	.section	.text$_ZN8wxVectorIP17wxMSWListItemDataED1Ev,"x"
	.linkonce discard
	.seh_endproc
	.section	.text$_ZNK14wxEventTypeTagI14wxCommandEventEcvRKiEv,"x"
	.linkonce discard
	.align 2
	.globl	_ZNK14wxEventTypeTagI14wxCommandEventEcvRKiEv
	.def	_ZNK14wxEventTypeTagI14wxCommandEventEcvRKiEv;	.scl	2;	.type	32;	.endef
	.seh_proc	_ZNK14wxEventTypeTagI14wxCommandEventEcvRKiEv
_ZNK14wxEventTypeTagI14wxCommandEventEcvRKiEv:
.LFB18265:
	.loc 16 190 5
	.cfi_startproc
	pushq	%rbp
	.seh_pushreg	%rbp
	.cfi_def_cfa_offset 16
	.cfi_offset 6, -16
	movq	%rsp, %rbp
	.seh_setframe	%rbp, 0
	.cfi_def_cfa_register 6
	.seh_endprologue
	movq	%rcx, 16(%rbp)
	.loc 16 190 50
	movq	16(%rbp), %rax
	.loc 16 190 58
	popq	%rbp
	.cfi_restore 6
	.cfi_def_cfa 7, 8
	ret
	.cfi_endproc
.LFE18265:
	.seh_endproc
	.section	.text$_ZNSt6vectorIdSaIdEE2atEy,"x"
	.linkonce discard
	.align 2
	.globl	_ZNSt6vectorIdSaIdEE2atEy
	.def	_ZNSt6vectorIdSaIdEE2atEy;	.scl	2;	.type	32;	.endef
	.seh_proc	_ZNSt6vectorIdSaIdEE2atEy
_ZNSt6vectorIdSaIdEE2atEy:
.LFB18266:
	.file 45 "C:/Program Files/CodeBlocks/MinGW/lib/gcc/x86_64-w64-mingw32/8.1.0/include/c++/bits/stl_vector.h"
	.loc 45 979 7
	.cfi_startproc
	pushq	%rbp
	.seh_pushreg	%rbp
	.cfi_def_cfa_offset 16
	.cfi_offset 6, -16
	movq	%rsp, %rbp
	.seh_setframe	%rbp, 0
	.cfi_def_cfa_register 6
	subq	$32, %rsp
	.seh_stackalloc	32
	.seh_endprologue
	movq	%rcx, 16(%rbp)
	movq	%rdx, 24(%rbp)
	.loc 45 981 2
	movq	24(%rbp), %rax
	movq	%rax, %rdx
	movq	16(%rbp), %rcx
	call	_ZNKSt6vectorIdSaIdEE14_M_range_checkEy
	.loc 45 982 16
	movq	24(%rbp), %rax
	movq	%rax, %rdx
	movq	16(%rbp), %rcx
	call	_ZNSt6vectorIdSaIdEEixEy
	.loc 45 983 7
	addq	$32, %rsp
	popq	%rbp
	.cfi_restore 6
	.cfi_def_cfa 7, 8
	ret
	.cfi_endproc
.LFE18266:
	.seh_endproc
	.section	.text$_ZNKSt6vectorIdSaIdEE4sizeEv,"x"
	.linkonce discard
	.align 2
	.globl	_ZNKSt6vectorIdSaIdEE4sizeEv
	.def	_ZNKSt6vectorIdSaIdEE4sizeEv;	.scl	2;	.type	32;	.endef
	.seh_proc	_ZNKSt6vectorIdSaIdEE4sizeEv
_ZNKSt6vectorIdSaIdEE4sizeEv:
.LFB18267:
	.loc 45 805 7
	.cfi_startproc
	pushq	%rbp
	.seh_pushreg	%rbp
	.cfi_def_cfa_offset 16
	.cfi_offset 6, -16
	movq	%rsp, %rbp
	.seh_setframe	%rbp, 0
	.cfi_def_cfa_register 6
	.seh_endprologue
	movq	%rcx, 16(%rbp)
	.loc 45 806 40
	movq	16(%rbp), %rax
	movq	8(%rax), %rdx
	.loc 45 806 66
	movq	16(%rbp), %rax
	movq	(%rax), %rax
	.loc 45 806 50
	subq	%rax, %rdx
	movq	%rdx, %rax
	sarq	$3, %rax
	.loc 45 806 77
	popq	%rbp
	.cfi_restore 6
	.cfi_def_cfa 7, 8
	ret
	.cfi_endproc
.LFE18267:
	.seh_endproc
	.section	.text$_ZNSt6vectorIS_IdSaIdEESaIS1_EEixEy,"x"
	.linkonce discard
	.align 2
	.globl	_ZNSt6vectorIS_IdSaIdEESaIS1_EEixEy
	.def	_ZNSt6vectorIS_IdSaIdEESaIS1_EEixEy;	.scl	2;	.type	32;	.endef
	.seh_proc	_ZNSt6vectorIS_IdSaIdEESaIS1_EEixEy
_ZNSt6vectorIS_IdSaIdEESaIS1_EEixEy:
.LFB18268:
	.loc 45 930 7
	.cfi_startproc
	pushq	%rbp
	.seh_pushreg	%rbp
	.cfi_def_cfa_offset 16
	.cfi_offset 6, -16
	movq	%rsp, %rbp
	.seh_setframe	%rbp, 0
	.cfi_def_cfa_register 6
	.seh_endprologue
	movq	%rcx, 16(%rbp)
	movq	%rdx, 24(%rbp)
	.loc 45 933 25
	movq	16(%rbp), %rax
	movq	(%rax), %rcx
	.loc 45 933 34
	movq	24(%rbp), %rdx
	movq	%rdx, %rax
	addq	%rax, %rax
	addq	%rdx, %rax
	salq	$3, %rax
	.loc 45 933 39
	addq	%rcx, %rax
	.loc 45 934 7
	popq	%rbp
	.cfi_restore 6
	.cfi_def_cfa 7, 8
	ret
	.cfi_endproc
.LFE18268:
	.seh_endproc
	.section	.text$_ZNSt6vectorIdSaIdEEixEy,"x"
	.linkonce discard
	.align 2
	.globl	_ZNSt6vectorIdSaIdEEixEy
	.def	_ZNSt6vectorIdSaIdEEixEy;	.scl	2;	.type	32;	.endef
	.seh_proc	_ZNSt6vectorIdSaIdEEixEy
_ZNSt6vectorIdSaIdEEixEy:
.LFB18269:
	.loc 45 930 7
	.cfi_startproc
	pushq	%rbp
	.seh_pushreg	%rbp
	.cfi_def_cfa_offset 16
	.cfi_offset 6, -16
	movq	%rsp, %rbp
	.seh_setframe	%rbp, 0
	.cfi_def_cfa_register 6
	.seh_endprologue
	movq	%rcx, 16(%rbp)
	movq	%rdx, 24(%rbp)
	.loc 45 933 25
	movq	16(%rbp), %rax
	movq	(%rax), %rdx
	.loc 45 933 34
	movq	24(%rbp), %rax
	salq	$3, %rax
	.loc 45 933 39
	addq	%rdx, %rax
	.loc 45 934 7
	popq	%rbp
	.cfi_restore 6
	.cfi_def_cfa 7, 8
	ret
	.cfi_endproc
.LFE18269:
	.seh_endproc
	.section	.text$_ZN22wxScopedCharTypeBufferIwE4DataD1Ev,"x"
	.linkonce discard
	.align 2
	.globl	_ZN22wxScopedCharTypeBufferIwE4DataD1Ev
	.def	_ZN22wxScopedCharTypeBufferIwE4DataD1Ev;	.scl	2;	.type	32;	.endef
	.seh_proc	_ZN22wxScopedCharTypeBufferIwE4DataD1Ev
_ZN22wxScopedCharTypeBufferIwE4DataD1Ev:
.LFB18283:
	.loc 2 164 12
	.cfi_startproc
	pushq	%rbp
	.seh_pushreg	%rbp
	.cfi_def_cfa_offset 16
	.cfi_offset 6, -16
	movq	%rsp, %rbp
	.seh_setframe	%rbp, 0
	.cfi_def_cfa_register 6
	subq	$32, %rsp
	.seh_stackalloc	32
	.seh_endprologue
	movq	%rcx, 16(%rbp)
.LBB90:
	.loc 2 164 12
	movq	16(%rbp), %rax
	movq	%rax, %rcx
	call	_ZN9wxPrivate17UntypedBufferDataD2Ev
.LBE90:
	nop
	addq	$32, %rsp
	popq	%rbp
	.cfi_restore 6
	.cfi_def_cfa 7, 8
	ret
	.cfi_endproc
.LFE18283:
	.seh_endproc
	.section	.text$_ZN22wxScopedCharTypeBufferIwE6DecRefEv,"x"
	.linkonce discard
	.align 2
	.globl	_ZN22wxScopedCharTypeBufferIwE6DecRefEv
	.def	_ZN22wxScopedCharTypeBufferIwE6DecRefEv;	.scl	2;	.type	32;	.endef
	.seh_proc	_ZN22wxScopedCharTypeBufferIwE6DecRefEv
_ZN22wxScopedCharTypeBufferIwE6DecRefEv:
.LFB18280:
	.loc 2 192 10
	.cfi_startproc
	pushq	%rbp
	.seh_pushreg	%rbp
	.cfi_def_cfa_offset 16
	.cfi_offset 6, -16
	pushq	%rbx
	.seh_pushreg	%rbx
	.cfi_def_cfa_offset 24
	.cfi_offset 3, -24
	subq	$40, %rsp
	.seh_stackalloc	40
	.cfi_def_cfa_offset 64
	leaq	128(%rsp), %rbp
	.seh_setframe	%rbp, 128
	.cfi_def_cfa 6, -64
	.seh_endprologue
	movq	%rcx, -64(%rbp)
	.loc 2 194 14
	movq	-64(%rbp), %rax
	movq	(%rax), %rbx
	.loc 2 194 35
	call	_ZN22wxScopedCharTypeBufferIwE11GetNullDataEv
	.loc 2 194 21
	cmpq	%rax, %rbx
	sete	%al
	.loc 2 194 9
	testb	%al, %al
	jne	.L510
	.loc 2 196 16
	movq	-64(%rbp), %rax
	movq	(%rax), %rax
	.loc 2 196 24
	movzwl	16(%rax), %edx
	.loc 2 196 30
	subl	$1, %edx
	movw	%dx, 16(%rax)
	.loc 2 196 24
