	.file	"geradorTabularI.cpp"
	.text
.Ltext0:
	.cfi_sections	.debug_frame
	.section .rdata,"dr"
_ZStL19piecewise_construct:
	.space 1
	.section	.text$_ZNKSt9type_info4nameEv,"x"
	.linkonce discard
	.align 2
	.globl	_ZNKSt9type_info4nameEv
	.def	_ZNKSt9type_info4nameEv;	.scl	2;	.type	32;	.endef
	.seh_proc	_ZNKSt9type_info4nameEv
_ZNKSt9type_info4nameEv:
.LFB310:
	.file 1 "C:/Program Files/CodeBlocks/MinGW/lib/gcc/x86_64-w64-mingw32/8.1.0/include/c++/typeinfo"
	.loc 1 99 17
	.cfi_startproc
	pushq	%rbp
	.seh_pushreg	%rbp
	.cfi_def_cfa_offset 16
	.cfi_offset 6, -16
	movq	%rsp, %rbp
	.seh_setframe	%rbp, 0
	.cfi_def_cfa_register 6
	.seh_endprologue
	movq	%rcx, 16(%rbp)
	.loc 1 100 14
	movq	16(%rbp), %rax
	movq	8(%rax), %rax
	.loc 1 100 22
	movzbl	(%rax), %eax
	.loc 1 100 31
	cmpb	$42, %al
	jne	.L2
	.loc 1 100 33 discriminator 1
	movq	16(%rbp), %rax
	movq	8(%rax), %rax
	.loc 1 100 31 discriminator 1
	addq	$1, %rax
	.loc 1 100 46 discriminator 1
	jmp	.L4
.L2:
	.loc 1 100 31 discriminator 2
	movq	16(%rbp), %rax
	movq	8(%rax), %rax
.L4:
	.loc 1 100 54 discriminator 5
	popq	%rbp
	.cfi_restore 6
	.cfi_def_cfa 7, 8
	ret
	.cfi_endproc
.LFE310:
	.seh_endproc
	.text
	.def	_ZL9vsnprintfPcyPKcS_;	.scl	3;	.type	32;	.endef
	.seh_proc	_ZL9vsnprintfPcyPKcS_
_ZL9vsnprintfPcyPKcS_:
.LFB950:
	.file 2 "C:/Program Files/CodeBlocks/MinGW/x86_64-w64-mingw32/include/stdio.h"
	.loc 2 400 1
	.cfi_startproc
	pushq	%rbp
	.seh_pushreg	%rbp
	.cfi_def_cfa_offset 16
	.cfi_offset 6, -16
	movq	%rsp, %rbp
	.seh_setframe	%rbp, 0
	.cfi_def_cfa_register 6
	subq	$32, %rsp
	.seh_stackalloc	32
	.seh_endprologue
	movq	%rcx, 16(%rbp)
	movq	%rdx, 24(%rbp)
	movq	%r8, 32(%rbp)
	movq	%r9, 40(%rbp)
	.loc 2 401 27
	movq	40(%rbp), %rcx
	movq	32(%rbp), %rdx
	movq	24(%rbp), %rax
	movq	%rcx, %r9
	movq	%rdx, %r8
	movq	%rax, %rdx
	movq	16(%rbp), %rcx
	call	__mingw_vsnprintf
	.loc 2 402 1
	addq	$32, %rsp
	popq	%rbp
	.cfi_restore 6
	.cfi_def_cfa 7, 8
	ret
	.cfi_endproc
.LFE950:
	.seh_endproc
	.section .rdata,"dr"
.LC0:
	.ascii "%d\0"
	.section	.text$_ZNSt7__cxx119to_stringEi,"x"
	.linkonce discard
	.globl	_ZNSt7__cxx119to_stringEi
	.def	_ZNSt7__cxx119to_stringEi;	.scl	2;	.type	32;	.endef
	.seh_proc	_ZNSt7__cxx119to_stringEi
_ZNSt7__cxx119to_stringEi:
.LFB1284:
	.file 3 "C:/Program Files/CodeBlocks/MinGW/lib/gcc/x86_64-w64-mingw32/8.1.0/include/c++/bits/basic_string.h"
	.loc 3 6415 3
	.cfi_startproc
	pushq	%rbp
	.seh_pushreg	%rbp
	.cfi_def_cfa_offset 16
	.cfi_offset 6, -16
	movq	%rsp, %rbp
	.seh_setframe	%rbp, 0
	.cfi_def_cfa_register 6
	subq	$48, %rsp
	.seh_stackalloc	48
	.seh_endprologue
	movq	%rcx, 16(%rbp)
	movl	%edx, 24(%rbp)
	.loc 3 6416 20
	movq	16(%rbp), %rax
	movl	24(%rbp), %edx
	movl	%edx, 32(%rsp)
	leaq	.LC0(%rip), %r9
	movl	$16, %r8d
	leaq	_ZL9vsnprintfPcyPKcS_(%rip), %rdx
	movq	%rax, %rcx
	call	_ZN9__gnu_cxx12__to_xstringINSt7__cxx1112basic_stringIcSt11char_traitsIcESaIcEEEcEET_PFiPT0_yPKS8_PcEySB_z
	.loc 3 6416 23
	movq	16(%rbp), %rax
	addq	$48, %rsp
	popq	%rbp
	.cfi_restore 6
	.cfi_def_cfa 7, 8
	ret
	.cfi_endproc
.LFE1284:
	.seh_endproc
	.section	.text$_ZN10BaseObjectD2Ev,"x"
	.linkonce discard
	.align 2
	.globl	_ZN10BaseObjectD2Ev
	.def	_ZN10BaseObjectD2Ev;	.scl	2;	.type	32;	.endef
	.seh_proc	_ZN10BaseObjectD2Ev
_ZN10BaseObjectD2Ev:
.LFB1349:
	.file 4 "../../CalculadorNumerico/calculador/../padroes/baseobject.h"
	.loc 4 8 17
	.cfi_startproc
	pushq	%rbp
	.seh_pushreg	%rbp
	.cfi_def_cfa_offset 16
	.cfi_offset 6, -16
	movq	%rsp, %rbp
	.seh_setframe	%rbp, 0
	.cfi_def_cfa_register 6
	.seh_endprologue
	movq	%rcx, 16(%rbp)
.LBB2:
	.loc 4 8 31
	leaq	16+_ZTV10BaseObject(%rip), %rdx
	movq	16(%rbp), %rax
	movq	%rdx, (%rax)
.LBE2:
	.loc 4 8 32
	nop
	popq	%rbp
	.cfi_restore 6
	.cfi_def_cfa 7, 8
	ret
	.cfi_endproc
.LFE1349:
	.seh_endproc
	.section	.text$_ZN10BaseObjectD1Ev,"x"
	.linkonce discard
	.align 2
	.globl	_ZN10BaseObjectD1Ev
	.def	_ZN10BaseObjectD1Ev;	.scl	2;	.type	32;	.endef
	.seh_proc	_ZN10BaseObjectD1Ev
_ZN10BaseObjectD1Ev:
.LFB1350:
	.loc 4 8 17
	.cfi_startproc
	pushq	%rbp
	.seh_pushreg	%rbp
	.cfi_def_cfa_offset 16
	.cfi_offset 6, -16
	movq	%rsp, %rbp
	.seh_setframe	%rbp, 0
	.cfi_def_cfa_register 6
	.seh_endprologue
	movq	%rcx, 16(%rbp)
.LBB3:
	.loc 4 8 31
	leaq	16+_ZTV10BaseObject(%rip), %rdx
	movq	16(%rbp), %rax
	movq	%rdx, (%rax)
.LBE3:
	.loc 4 8 32
	nop
	popq	%rbp
	.cfi_restore 6
	.cfi_def_cfa 7, 8
	ret
	.cfi_endproc
.LFE1350:
	.seh_endproc
	.section	.text$_ZN10BaseObjectD0Ev,"x"
	.linkonce discard
	.align 2
	.globl	_ZN10BaseObjectD0Ev
	.def	_ZN10BaseObjectD0Ev;	.scl	2;	.type	32;	.endef
	.seh_proc	_ZN10BaseObjectD0Ev
_ZN10BaseObjectD0Ev:
.LFB1351:
	.loc 4 8 17
	.cfi_startproc
	pushq	%rbp
	.seh_pushreg	%rbp
	.cfi_def_cfa_offset 16
	.cfi_offset 6, -16
	movq	%rsp, %rbp
	.seh_setframe	%rbp, 0
	.cfi_def_cfa_register 6
	subq	$32, %rsp
	.seh_stackalloc	32
	.seh_endprologue
	movq	%rcx, 16(%rbp)
	.loc 4 8 32
	movq	16(%rbp), %rcx
	call	_ZN10BaseObjectD1Ev
	movq	16(%rbp), %rcx
	call	_ZdlPv
	nop
	addq	$32, %rsp
	popq	%rbp
	.cfi_restore 6
	.cfi_def_cfa 7, 8
	ret
	.cfi_endproc
.LFE1351:
	.seh_endproc
	.section	.text$_ZN16ElementosDisparo11getElevacaoEv,"x"
	.linkonce discard
	.align 2
	.globl	_ZN16ElementosDisparo11getElevacaoEv
	.def	_ZN16ElementosDisparo11getElevacaoEv;	.scl	2;	.type	32;	.endef
	.seh_proc	_ZN16ElementosDisparo11getElevacaoEv
_ZN16ElementosDisparo11getElevacaoEv:
.LFB1545:
	.file 5 "../../CalculadorNumerico/calculador/elementosdisparo.h"
	.loc 5 12 16
	.cfi_startproc
	pushq	%rbp
	.seh_pushreg	%rbp
	.cfi_def_cfa_offset 16
	.cfi_offset 6, -16
	movq	%rsp, %rbp
	.seh_setframe	%rbp, 0
	.cfi_def_cfa_register 6
	.seh_endprologue
	movq	%rcx, 16(%rbp)
	.loc 5 12 37
	movq	16(%rbp), %rax
	movsd	16(%rax), %xmm0
	movq	%xmm0, %rax
	.loc 5 12 46
	movq	%rax, %xmm0
	popq	%rbp
	.cfi_restore 6
	.cfi_def_cfa 7, 8
	ret
	.cfi_endproc
.LFE1545:
	.seh_endproc
	.section	.text$_ZN10Calculador11setLatitudeEd,"x"
	.linkonce discard
	.align 2
	.globl	_ZN10Calculador11setLatitudeEd
	.def	_ZN10Calculador11setLatitudeEd;	.scl	2;	.type	32;	.endef
	.seh_proc	_ZN10Calculador11setLatitudeEd
_ZN10Calculador11setLatitudeEd:
.LFB1554:
	.file 6 "../../CalculadorNumerico/calculador/calculador.h"
	.loc 6 34 14
	.cfi_startproc
	pushq	%rbp
	.seh_pushreg	%rbp
	.cfi_def_cfa_offset 16
	.cfi_offset 6, -16
	movq	%rsp, %rbp
	.seh_setframe	%rbp, 0
	.cfi_def_cfa_register 6
	.seh_endprologue
	movq	%rcx, 16(%rbp)
	movsd	%xmm1, 24(%rbp)
	.loc 6 34 58
	movq	16(%rbp), %rax
	movsd	24(%rbp), %xmm0
	movsd	%xmm0, 80(%rax)
	.loc 6 34 69
	nop
	popq	%rbp
	.cfi_restore 6
	.cfi_def_cfa 7, 8
	ret
	.cfi_endproc
.LFE1554:
	.seh_endproc
	.section	.text$_ZN21CalculadorAtmosferico15setChecarLimiteEb,"x"
	.linkonce discard
	.align 2
	.globl	_ZN21CalculadorAtmosferico15setChecarLimiteEb
	.def	_ZN21CalculadorAtmosferico15setChecarLimiteEb;	.scl	2;	.type	32;	.endef
	.seh_proc	_ZN21CalculadorAtmosferico15setChecarLimiteEb
_ZN21CalculadorAtmosferico15setChecarLimiteEb:
.LFB1599:
	.file 7 "../../CalculadorNumerico/calculador/calculadorAtmosferico.h"
	.loc 7 37 14
	.cfi_startproc
	pushq	%rbp
	.seh_pushreg	%rbp
	.cfi_def_cfa_offset 16
	.cfi_offset 6, -16
	movq	%rsp, %rbp
	.seh_setframe	%rbp, 0
	.cfi_def_cfa_register 6
	.seh_endprologue
	movq	%rcx, 16(%rbp)
	movl	%edx, %eax
	movb	%al, 24(%rbp)
	.loc 7 37 68
	movq	16(%rbp), %rdx
	movzbl	24(%rbp), %eax
	movb	%al, 298(%rdx)
	.loc 7 37 83
	nop
	popq	%rbp
	.cfi_restore 6
	.cfi_def_cfa 7, 8
	ret
	.cfi_endproc
.LFE1599:
	.seh_endproc
	.section	.text$_ZN21CalculadorAtmosferico11setCoriolisEb,"x"
	.linkonce discard
	.align 2
	.globl	_ZN21CalculadorAtmosferico11setCoriolisEb
	.def	_ZN21CalculadorAtmosferico11setCoriolisEb;	.scl	2;	.type	32;	.endef
	.seh_proc	_ZN21CalculadorAtmosferico11setCoriolisEb
_ZN21CalculadorAtmosferico11setCoriolisEb:
.LFB1600:
	.loc 7 38 14
	.cfi_startproc
	pushq	%rbp
	.seh_pushreg	%rbp
	.cfi_def_cfa_offset 16
	.cfi_offset 6, -16
	movq	%rsp, %rbp
	.seh_setframe	%rbp, 0
	.cfi_def_cfa_register 6
	.seh_endprologue
	movq	%rcx, 16(%rbp)
	movl	%edx, %eax
	movb	%al, 24(%rbp)
	.loc 7 38 57
	movq	16(%rbp), %rdx
	movzbl	24(%rbp), %eax
	movb	%al, 297(%rdx)
	.loc 7 38 68
	nop
	popq	%rbp
	.cfi_restore 6
	.cfi_def_cfa 7, 8
	ret
	.cfi_endproc
.LFE1600:
	.seh_endproc
	.section	.text$_ZN21CalculadorAtmosferico13setLancamentoEd,"x"
	.linkonce discard
	.align 2
	.globl	_ZN21CalculadorAtmosferico13setLancamentoEd
	.def	_ZN21CalculadorAtmosferico13setLancamentoEd;	.scl	2;	.type	32;	.endef
	.seh_proc	_ZN21CalculadorAtmosferico13setLancamentoEd
_ZN21CalculadorAtmosferico13setLancamentoEd:
.LFB1601:
	.loc 7 39 14
	.cfi_startproc
	pushq	%rbp
	.seh_pushreg	%rbp
	.cfi_def_cfa_offset 16
	.cfi_offset 6, -16
	movq	%rsp, %rbp
	.seh_setframe	%rbp, 0
	.cfi_def_cfa_register 6
	.seh_endprologue
	movq	%rcx, 16(%rbp)
	movsd	%xmm1, 24(%rbp)
	.loc 7 39 64
	movq	16(%rbp), %rax
	movsd	24(%rbp), %xmm0
	movsd	%xmm0, 280(%rax)
	.loc 7 39 77
	nop
	popq	%rbp
	.cfi_restore 6
	.cfi_def_cfa 7, 8
	ret
	.cfi_endproc
.LFE1601:
	.seh_endproc
	.section	.text$_ZN9wxPrivate17UntypedBufferDataD2Ev,"x"
	.linkonce discard
	.align 2
	.globl	_ZN9wxPrivate17UntypedBufferDataD2Ev
	.def	_ZN9wxPrivate17UntypedBufferDataD2Ev;	.scl	2;	.type	32;	.endef
	.seh_proc	_ZN9wxPrivate17UntypedBufferDataD2Ev
_ZN9wxPrivate17UntypedBufferDataD2Ev:
.LFB1664:
	.file 8 "../wxMSW-3.0.5_gcc810_x64_Dev/include/wx/buffer.h"
	.loc 8 41 5
	.cfi_startproc
	pushq	%rbp
	.seh_pushreg	%rbp
	.cfi_def_cfa_offset 16
	.cfi_offset 6, -16
	movq	%rsp, %rbp
	.seh_setframe	%rbp, 0
	.cfi_def_cfa_register 6
	subq	$32, %rsp
	.seh_stackalloc	32
	.seh_endprologue
	movq	%rcx, 16(%rbp)
.LBB4:
	.loc 8 43 14
	movq	16(%rbp), %rax
	movzbl	18(%rax), %eax
	.loc 8 43 9
	testb	%al, %al
	je	.L20
	.loc 8 44 17
	movq	16(%rbp), %rax
	movq	(%rax), %rax
	movq	%rax, %rcx
	call	free
.L20:
.LBE4:
	.loc 8 45 5
	nop
	addq	$32, %rsp
	popq	%rbp
	.cfi_restore 6
	.cfi_def_cfa 7, 8
	ret
	.cfi_endproc
.LFE1664:
	.seh_endproc
	.section	.text$_Z16wxGet_wxConvLibcv,"x"
	.linkonce discard
	.globl	_Z16wxGet_wxConvLibcv
	.def	_Z16wxGet_wxConvLibcv;	.scl	2;	.type	32;	.endef
	.seh_proc	_Z16wxGet_wxConvLibcv
_Z16wxGet_wxConvLibcv:
.LFB1852:
	.file 9 "../wxMSW-3.0.5_gcc810_x64_Dev/include/wx/strconv.h"
	.loc 9 576 109
	.cfi_startproc
	pushq	%rbp
	.seh_pushreg	%rbp
	.cfi_def_cfa_offset 16
	.cfi_offset 6, -16
	movq	%rsp, %rbp
	.seh_setframe	%rbp, 0
	.cfi_def_cfa_register 6
	subq	$32, %rsp
	.seh_stackalloc	32
	.seh_endprologue
	.loc 9 576 116
	movq	.refptr.wxConvLibcPtr(%rip), %rax
	movq	(%rax), %rax
	.loc 9 576 111
	testq	%rax, %rax
	jne	.L22
	.loc 9 576 168 discriminator 1
	call	_Z19wxGet_wxConvLibcPtrv
	movq	%rax, %rdx
	.loc 9 576 147 discriminator 1
	movq	.refptr.wxConvLibcPtr(%rip), %rax
	movq	%rdx, (%rax)
.L22:
	.loc 9 576 180 discriminator 3
	movq	.refptr.wxConvLibcPtr(%rip), %rax
	movq	(%rax), %rax
	.loc 9 576 195 discriminator 3
	addq	$32, %rsp
	popq	%rbp
	.cfi_restore 6
	.cfi_def_cfa 7, 8
	ret
	.cfi_endproc
.LFE1852:
	.seh_endproc
	.section	.text$_ZN8wxString17SubstrBufFromTypeI22wxScopedCharTypeBufferIwEED1Ev,"x"
	.linkonce discard
	.align 2
	.globl	_ZN8wxString17SubstrBufFromTypeI22wxScopedCharTypeBufferIwEED1Ev
	.def	_ZN8wxString17SubstrBufFromTypeI22wxScopedCharTypeBufferIwEED1Ev;	.scl	2;	.type	32;	.endef
	.seh_proc	_ZN8wxString17SubstrBufFromTypeI22wxScopedCharTypeBufferIwEED1Ev
_ZN8wxString17SubstrBufFromTypeI22wxScopedCharTypeBufferIwEED1Ev:
.LFB2325:
	.file 10 "../wxMSW-3.0.5_gcc810_x64_Dev/include/wx/string.h"
	.loc 10 425 10
	.cfi_startproc
	pushq	%rbp
	.seh_pushreg	%rbp
	.cfi_def_cfa_offset 16
	.cfi_offset 6, -16
	movq	%rsp, %rbp
	.seh_setframe	%rbp, 0
	.cfi_def_cfa_register 6
	subq	$32, %rsp
	.seh_stackalloc	32
	.seh_endprologue
	movq	%rcx, 16(%rbp)
.LBB5:
	.loc 10 425 10
	movq	16(%rbp), %rax
	movq	%rax, %rcx
	call	_ZN22wxScopedCharTypeBufferIwED1Ev
.LBE5:
	nop
	addq	$32, %rsp
	popq	%rbp
	.cfi_restore 6
	.cfi_def_cfa 7, 8
	ret
	.cfi_endproc
.LFE2325:
	.seh_endproc
	.section	.text$_ZN8wxString7ImplStrEPKcRK8wxMBConv,"x"
	.linkonce discard
	.globl	_ZN8wxString7ImplStrEPKcRK8wxMBConv
	.def	_ZN8wxString7ImplStrEPKcRK8wxMBConv;	.scl	2;	.type	32;	.endef
	.seh_proc	_ZN8wxString7ImplStrEPKcRK8wxMBConv
_ZN8wxString7ImplStrEPKcRK8wxMBConv:
.LFB2322:
	.loc 10 475 30
	.cfi_startproc
	pushq	%rbp
	.seh_pushreg	%rbp
	.cfi_def_cfa_offset 16
	.cfi_offset 6, -16
	pushq	%rbx
	.seh_pushreg	%rbx
	.cfi_def_cfa_offset 24
	.cfi_offset 3, -24
	subq	$56, %rsp
	.seh_stackalloc	56
	.cfi_def_cfa_offset 80
	leaq	128(%rsp), %rbp
	.seh_setframe	%rbp, 128
	.cfi_def_cfa 6, -48
	.seh_endprologue
	movq	%rcx, -48(%rbp)
	movq	%rdx, -40(%rbp)
	movq	%r8, -32(%rbp)
	.loc 10 477 24
	movq	.refptr._ZN8wxString4nposE(%rip), %rax
	movq	(%rax), %rcx
	leaq	-96(%rbp), %rax
	movq	-32(%rbp), %r8
	movq	-40(%rbp), %rdx
	movq	%r8, %r9
	movq	%rcx, %r8
	movq	%rax, %rcx
.LEHB0:
	call	_ZN8wxString10ConvertStrEPKcyRK8wxMBConv
.LEHE0:
	.loc 10 477 42
	leaq	-96(%rbp), %rax
	movq	%rax, %rdx
	movq	-48(%rbp), %rcx
.LEHB1:
	call	_ZN22wxScopedCharTypeBufferIwEC1ERKS0_
.LEHE1:
	nop
	.loc 10 477 24
	leaq	-96(%rbp), %rax
	movq	%rax, %rcx
	call	_ZN8wxString17SubstrBufFromTypeI22wxScopedCharTypeBufferIwEED1Ev
	.loc 10 477 42
	jmp	.L29
.L28:
	movq	%rax, %rbx
	.loc 10 477 24
	leaq	-96(%rbp), %rax
	movq	%rax, %rcx
	call	_ZN8wxString17SubstrBufFromTypeI22wxScopedCharTypeBufferIwEED1Ev
	movq	%rbx, %rax
	movq	%rax, %rcx
.LEHB2:
	call	_Unwind_Resume
.LEHE2:
.L29:
	.loc 10 477 48
	movq	-48(%rbp), %rax
	addq	$56, %rsp
	popq	%rbx
	.cfi_restore 3
	popq	%rbp
	.cfi_restore 6
	.cfi_def_cfa 7, -40
	ret
	.cfi_endproc
.LFE2322:
	.def	__gxx_personality_seh0;	.scl	2;	.type	32;	.endef
	.seh_handler	__gxx_personality_seh0, @unwind, @except
	.seh_handlerdata
.LLSDA2322:
	.byte	0xff
	.byte	0xff
	.byte	0x1
	.uleb128 .LLSDACSE2322-.LLSDACSB2322
.LLSDACSB2322:
	.uleb128 .LEHB0-.LFB2322
	.uleb128 .LEHE0-.LEHB0
	.uleb128 0
	.uleb128 0
	.uleb128 .LEHB1-.LFB2322
	.uleb128 .LEHE1-.LEHB1
	.uleb128 .L28-.LFB2322
	.uleb128 0
	.uleb128 .LEHB2-.LFB2322
	.uleb128 .LEHE2-.LEHB2
	.uleb128 0
	.uleb128 0
.LLSDACSE2322:
	.section	.text$_ZN8wxString7ImplStrEPKcRK8wxMBConv,"x"
	.linkonce discard
	.seh_endproc
	.section	.text$_ZN8wxString7ImplStrEPKcyRK8wxMBConv,"x"
	.linkonce discard
	.globl	_ZN8wxString7ImplStrEPKcyRK8wxMBConv
	.def	_ZN8wxString7ImplStrEPKcyRK8wxMBConv;	.scl	2;	.type	32;	.endef
	.seh_proc	_ZN8wxString7ImplStrEPKcyRK8wxMBConv
_ZN8wxString7ImplStrEPKcyRK8wxMBConv:
.LFB2326:
	.loc 10 478 26
	.cfi_startproc
	pushq	%rbp
	.seh_pushreg	%rbp
	.cfi_def_cfa_offset 16
	.cfi_offset 6, -16
	movq	%rsp, %rbp
	.seh_setframe	%rbp, 0
	.cfi_def_cfa_register 6
	subq	$32, %rsp
	.seh_stackalloc	32
	.seh_endprologue
	movq	%rcx, 16(%rbp)
	movq	%rdx, 24(%rbp)
	movq	%r8, 32(%rbp)
	movq	%r9, 40(%rbp)
	.loc 10 480 37
	movq	16(%rbp), %rax
	movq	40(%rbp), %r8
	movq	32(%rbp), %rcx
	movq	24(%rbp), %rdx
	movq	%r8, %r9
	movq	%rcx, %r8
	movq	%rax, %rcx
	call	_ZN8wxString10ConvertStrEPKcyRK8wxMBConv
	.loc 10 480 40
	movq	16(%rbp), %rax
	addq	$32, %rsp
	popq	%rbp
	.cfi_restore 6
	.cfi_def_cfa 7, 8
	ret
	.cfi_endproc
.LFE2326:
	.seh_endproc
	.section	.text$_ZN8wxStringD1Ev,"x"
	.linkonce discard
	.align 2
	.globl	_ZN8wxStringD1Ev
	.def	_ZN8wxStringD1Ev;	.scl	2;	.type	32;	.endef
	.seh_proc	_ZN8wxStringD1Ev
_ZN8wxStringD1Ev:
.LFB2402:
	.loc 10 393 7
	.cfi_startproc
	pushq	%rbp
	.seh_pushreg	%rbp
	.cfi_def_cfa_offset 16
	.cfi_offset 6, -16
	movq	%rsp, %rbp
	.seh_setframe	%rbp, 0
	.cfi_def_cfa_register 6
	subq	$32, %rsp
	.seh_stackalloc	32
	.seh_endprologue
	movq	%rcx, 16(%rbp)
.LBB6:
	.loc 10 393 7
	movq	16(%rbp), %rax
	addq	$32, %rax
	movq	%rax, %rcx
	call	_ZN8wxString15ConvertedBufferIcED1Ev
	movq	16(%rbp), %rax
	movq	%rax, %rcx
	call	_ZNSt7__cxx1112basic_stringIwSt11char_traitsIwESaIwEED1Ev
.LBE6:
	nop
	addq	$32, %rsp
	popq	%rbp
	.cfi_restore 6
	.cfi_def_cfa 7, 8
	ret
	.cfi_endproc
.LFE2402:
	.seh_endproc
	.section	.text$_ZN8wxStringC1EPKc,"x"
	.linkonce discard
	.align 2
	.globl	_ZN8wxStringC1EPKc
	.def	_ZN8wxStringC1EPKc;	.scl	2;	.type	32;	.endef
	.seh_proc	_ZN8wxStringC1EPKc
_ZN8wxStringC1EPKc:
.LFB2458:
	.loc 10 1241 3
	.cfi_startproc
	pushq	%rbp
	.seh_pushreg	%rbp
	.cfi_def_cfa_offset 16
	.cfi_offset 6, -16
	pushq	%rbx
	.seh_pushreg	%rbx
	.cfi_def_cfa_offset 24
	.cfi_offset 3, -24
	subq	$56, %rsp
	.seh_stackalloc	56
	.cfi_def_cfa_offset 80
	leaq	128(%rsp), %rbp
	.seh_setframe	%rbp, 128
	.cfi_def_cfa 6, -48
	.seh_endprologue
	movq	%rcx, -48(%rbp)
	movq	%rdx, -40(%rbp)
.LBB7:
	.loc 10 1242 26
	movq	-48(%rbp), %rbx
	leaq	-89(%rbp), %rax
	movq	%rax, %rcx
	call	_ZNSaIwEC1Ev
.LEHB3:
	.loc 10 1242 25
	call	_Z16wxGet_wxConvLibcv
	movq	%rax, %rcx
	.loc 10 1242 21
	leaq	-88(%rbp), %rax
	movq	-40(%rbp), %rdx
	movq	%rcx, %r8
	movq	%rax, %rcx
	call	_ZN8wxString7ImplStrEPKcRK8wxMBConv
.LEHE3:
	.loc 10 1242 26 discriminator 4
	leaq	-88(%rbp), %rax
	movq	%rax, %rcx
.LEHB4:
	call	_ZNK22wxScopedCharTypeBufferIwEcvPKwEv
	movq	%rax, %rdx
	leaq	-89(%rbp), %rax
	movq	%rax, %r8
	movq	%rbx, %rcx
	call	_ZNSt7__cxx1112basic_stringIwSt11char_traitsIwESaIwEEC1EPKwRKS3_
.LEHE4:
	.loc 10 1242 21 discriminator 8
	leaq	-88(%rbp), %rax
	movq	%rax, %rcx
	call	_ZN22wxScopedCharTypeBufferIwED1Ev
	.loc 10 1242 26 discriminator 8
	leaq	-89(%rbp), %rax
	movq	%rax, %rcx
	call	_ZNSaIwED1Ev
	movq	-48(%rbp), %rax
	addq	$32, %rax
	movq	%rax, %rcx
	call	_ZN8wxString15ConvertedBufferIcEC1Ev
.LBE7:
	.loc 10 1242 29 discriminator 8
	jmp	.L38
.L37:
	movq	%rax, %rbx
.LBB8:
	.loc 10 1242 21
	leaq	-88(%rbp), %rax
	movq	%rax, %rcx
	call	_ZN22wxScopedCharTypeBufferIwED1Ev
	jmp	.L35
.L36:
	movq	%rax, %rbx
.L35:
	.loc 10 1242 26 discriminator 3
	leaq	-89(%rbp), %rax
	movq	%rax, %rcx
	call	_ZNSaIwED1Ev
	movq	%rbx, %rax
	movq	%rax, %rcx
.LEHB5:
	call	_Unwind_Resume
	nop
.LEHE5:
.L38:
.LBE8:
	.loc 10 1242 29
	addq	$56, %rsp
	popq	%rbx
	.cfi_restore 3
	popq	%rbp
	.cfi_restore 6
	.cfi_def_cfa 7, -40
	ret
	.cfi_endproc
.LFE2458:
	.seh_handler	__gxx_personality_seh0, @unwind, @except
	.seh_handlerdata
.LLSDA2458:
	.byte	0xff
	.byte	0xff
	.byte	0x1
	.uleb128 .LLSDACSE2458-.LLSDACSB2458
.LLSDACSB2458:
	.uleb128 .LEHB3-.LFB2458
	.uleb128 .LEHE3-.LEHB3
	.uleb128 .L36-.LFB2458
	.uleb128 0
	.uleb128 .LEHB4-.LFB2458
	.uleb128 .LEHE4-.LEHB4
	.uleb128 .L37-.LFB2458
	.uleb128 0
	.uleb128 .LEHB5-.LFB2458
	.uleb128 .LEHE5-.LEHB5
	.uleb128 0
	.uleb128 0
.LLSDACSE2458:
	.section	.text$_ZN8wxStringC1EPKc,"x"
	.linkonce discard
	.seh_endproc
	.section	.text$_ZN8wxStringC1ERKNSt7__cxx1112basic_stringIcSt11char_traitsIcESaIcEEE,"x"
	.linkonce discard
	.align 2
	.globl	_ZN8wxStringC1ERKNSt7__cxx1112basic_stringIcSt11char_traitsIcESaIcEEE
	.def	_ZN8wxStringC1ERKNSt7__cxx1112basic_stringIcSt11char_traitsIcESaIcEEE;	.scl	2;	.type	32;	.endef
	.seh_proc	_ZN8wxStringC1ERKNSt7__cxx1112basic_stringIcSt11char_traitsIcESaIcEEE
_ZN8wxStringC1ERKNSt7__cxx1112basic_stringIcSt11char_traitsIcESaIcEEE:
.LFB2512:
	.loc 10 1327 5
	.cfi_startproc
	pushq	%rbp
	.seh_pushreg	%rbp
	.cfi_def_cfa_offset 16
	.cfi_offset 6, -16
	pushq	%rbx
	.seh_pushreg	%rbx
	.cfi_def_cfa_offset 24
	.cfi_offset 3, -24
	subq	$40, %rsp
	.seh_stackalloc	40
	.cfi_def_cfa_offset 64
	leaq	128(%rsp), %rbp
	.seh_setframe	%rbp, 128
	.cfi_def_cfa 6, -64
	.seh_endprologue
	movq	%rcx, -64(%rbp)
	movq	%rdx, -56(%rbp)
.LBB9:
	.loc 10 1328 9
	movq	-64(%rbp), %rax
	movq	%rax, %rcx
	call	_ZNSt7__cxx1112basic_stringIwSt11char_traitsIwESaIwEEC1Ev
	movq	-64(%rbp), %rax
	addq	$32, %rax
	movq	%rax, %rcx
	call	_ZN8wxString15ConvertedBufferIcEC1Ev
	.loc 10 1328 43
	movq	-56(%rbp), %rax
	movq	%rax, %rcx
	call	_ZNKSt7__cxx1112basic_stringIcSt11char_traitsIcESaIcEE6lengthEv
	movq	%rax, %rbx
	movq	-56(%rbp), %rax
	movq	%rax, %rcx
	call	_ZNKSt7__cxx1112basic_stringIcSt11char_traitsIcESaIcEE5c_strEv
	movq	%rbx, %r8
	movq	%rax, %rdx
	movq	-64(%rbp), %rcx
.LEHB6:
	call	_ZN8wxString6assignEPKcy
.LEHE6:
.LBE9:
	.loc 10 1328 46
	jmp	.L42
.L41:
	movq	%rax, %rbx
.LBB10:
	.loc 10 1328 9
	movq	-64(%rbp), %rax
	addq	$32, %rax
	movq	%rax, %rcx
	call	_ZN8wxString15ConvertedBufferIcED1Ev
	movq	-64(%rbp), %rax
	movq	%rax, %rcx
	call	_ZNSt7__cxx1112basic_stringIwSt11char_traitsIwESaIwEED1Ev
	movq	%rbx, %rax
	movq	%rax, %rcx
.LEHB7:
	call	_Unwind_Resume
	nop
.LEHE7:
.L42:
.LBE10:
	.loc 10 1328 46
	addq	$40, %rsp
	popq	%rbx
	.cfi_restore 3
	popq	%rbp
	.cfi_restore 6
	.cfi_def_cfa 7, -24
	ret
	.cfi_endproc
.LFE2512:
	.seh_handler	__gxx_personality_seh0, @unwind, @except
	.seh_handlerdata
.LLSDA2512:
	.byte	0xff
	.byte	0xff
	.byte	0x1
	.uleb128 .LLSDACSE2512-.LLSDACSB2512
.LLSDACSB2512:
	.uleb128 .LEHB6-.LFB2512
	.uleb128 .LEHE6-.LEHB6
	.uleb128 .L41-.LFB2512
	.uleb128 0
	.uleb128 .LEHB7-.LFB2512
	.uleb128 .LEHE7-.LEHB7
	.uleb128 0
	.uleb128 0
.LLSDACSE2512:
	.section	.text$_ZN8wxStringC1ERKNSt7__cxx1112basic_stringIcSt11char_traitsIcESaIcEEE,"x"
	.linkonce discard
	.seh_endproc
	.section	.text$_ZN8wxString6assignEPKcy,"x"
	.linkonce discard
	.align 2
	.globl	_ZN8wxString6assignEPKcy
	.def	_ZN8wxString6assignEPKcy;	.scl	2;	.type	32;	.endef
	.seh_proc	_ZN8wxString6assignEPKcy
_ZN8wxString6assignEPKcy:
.LFB2831:
	.loc 10 2633 13
	.cfi_startproc
	pushq	%rbp
	.seh_pushreg	%rbp
	.cfi_def_cfa_offset 16
	.cfi_offset 6, -16
	pushq	%rsi
	.seh_pushreg	%rsi
	.cfi_def_cfa_offset 24
	.cfi_offset 4, -24
	pushq	%rbx
	.seh_pushreg	%rbx
	.cfi_def_cfa_offset 32
	.cfi_offset 3, -32
	movq	%rsp, %rbp
	.seh_setframe	%rbp, 0
	.cfi_def_cfa_register 6
	subq	$48, %rsp
	.seh_stackalloc	48
	.seh_endprologue
	movq	%rcx, 32(%rbp)
	movq	%rdx, 40(%rbp)
	movq	%r8, 48(%rbp)
.LEHB8:
	.loc 10 2637 40
	call	_Z16wxGet_wxConvLibcv
	movq	%rax, %r8
	.loc 10 2637 41
	leaq	-16(%rbp), %rax
	movq	48(%rbp), %rcx
	movq	40(%rbp), %rdx
	movq	%r8, %r9
	movq	%rcx, %r8
	movq	%rax, %rcx
	call	_ZN8wxString7ImplStrEPKcyRK8wxMBConv
.LEHE8:
	.loc 10 2638 38
	movq	32(%rbp), %rbx
	movq	-8(%rbp), %rsi
	leaq	-16(%rbp), %rax
	movq	%rax, %rcx
.LEHB9:
	call	_ZNK22wxScopedCharTypeBufferIwEcvPKwEv
	movq	%rsi, %r8
	movq	%rax, %rdx
	movq	%rbx, %rcx
	call	_ZNSt7__cxx1112basic_stringIwSt11char_traitsIwESaIwEE6assignEPKwy
.LEHE9:
	.loc 10 2640 15
	movq	32(%rbp), %rbx
	.loc 10 2637 41
	leaq	-16(%rbp), %rax
	movq	%rax, %rcx
	call	_ZN8wxString17SubstrBufFromTypeI22wxScopedCharTypeBufferIwEED1Ev
	.loc 10 2640 15
	movq	%rbx, %rax
	jmp	.L47
.L46:
	movq	%rax, %rbx
	.loc 10 2637 41
	leaq	-16(%rbp), %rax
	movq	%rax, %rcx
	call	_ZN8wxString17SubstrBufFromTypeI22wxScopedCharTypeBufferIwEED1Ev
	movq	%rbx, %rax
	movq	%rax, %rcx
.LEHB10:
	call	_Unwind_Resume
.LEHE10:
.L47:
	.loc 10 2641 3
	addq	$48, %rsp
	popq	%rbx
	.cfi_restore 3
	popq	%rsi
	.cfi_restore 4
	popq	%rbp
	.cfi_restore 6
	.cfi_def_cfa 7, 24
	ret
	.cfi_endproc
.LFE2831:
	.seh_handler	__gxx_personality_seh0, @unwind, @except
	.seh_handlerdata
.LLSDA2831:
	.byte	0xff
	.byte	0xff
	.byte	0x1
	.uleb128 .LLSDACSE2831-.LLSDACSB2831
.LLSDACSB2831:
	.uleb128 .LEHB8-.LFB2831
	.uleb128 .LEHE8-.LEHB8
	.uleb128 0
	.uleb128 0
	.uleb128 .LEHB9-.LFB2831
	.uleb128 .LEHE9-.LEHB9
	.uleb128 .L46-.LFB2831
	.uleb128 0
	.uleb128 .LEHB10-.LFB2831
	.uleb128 .LEHE10-.LEHB10
	.uleb128 0
	.uleb128 0
.LLSDACSE2831:
	.section	.text$_ZN8wxString6assignEPKcy,"x"
	.linkonce discard
	.seh_endproc
	.section .rdata,"dr"
	.align 4
_ZL15wxInvalidOffset:
	.long	-1
	.section	.text$_ZN23wxCriticalSectionLockerC1ER17wxCriticalSection,"x"
	.linkonce discard
	.align 2
	.globl	_ZN23wxCriticalSectionLockerC1ER17wxCriticalSection
	.def	_ZN23wxCriticalSectionLockerC1ER17wxCriticalSection;	.scl	2;	.type	32;	.endef
	.seh_proc	_ZN23wxCriticalSectionLockerC1ER17wxCriticalSection
_ZN23wxCriticalSectionLockerC1ER17wxCriticalSection:
.LFB8060:
	.file 11 "../wxMSW-3.0.5_gcc810_x64_Dev/include/wx/thread.h"
	.loc 11 304 5
	.cfi_startproc
	pushq	%rbp
	.seh_pushreg	%rbp
	.cfi_def_cfa_offset 16
	.cfi_offset 6, -16
	movq	%rsp, %rbp
	.seh_setframe	%rbp, 0
	.cfi_def_cfa_register 6
	subq	$32, %rsp
	.seh_stackalloc	32
	.seh_endprologue
	movq	%rcx, 16(%rbp)
	movq	%rdx, 24(%rbp)
.LBB11:
	.loc 11 305 24
	movq	16(%rbp), %rax
	movq	24(%rbp), %rdx
	movq	%rdx, (%rax)
	.loc 11 307 9
	movq	16(%rbp), %rax
	movq	(%rax), %rax
	.loc 11 307 25
	movq	%rax, %rcx
	call	_ZN17wxCriticalSection5EnterEv
.LBE11:
	.loc 11 308 5
	nop
	addq	$32, %rsp
	popq	%rbp
	.cfi_restore 6
	.cfi_def_cfa 7, 8
	ret
	.cfi_endproc
.LFE8060:
	.seh_endproc
	.section	.text$_ZN23wxCriticalSectionLockerD1Ev,"x"
	.linkonce discard
	.align 2
	.globl	_ZN23wxCriticalSectionLockerD1Ev
	.def	_ZN23wxCriticalSectionLockerD1Ev;	.scl	2;	.type	32;	.endef
	.seh_proc	_ZN23wxCriticalSectionLockerD1Ev
_ZN23wxCriticalSectionLockerD1Ev:
.LFB8063:
	.loc 11 310 5
	.cfi_startproc
	pushq	%rbp
	.seh_pushreg	%rbp
	.cfi_def_cfa_offset 16
	.cfi_offset 6, -16
	movq	%rsp, %rbp
	.seh_setframe	%rbp, 0
	.cfi_def_cfa_register 6
	subq	$32, %rsp
	.seh_stackalloc	32
	.seh_endprologue
	movq	%rcx, 16(%rbp)
.LBB12:
	.loc 11 312 9
	movq	16(%rbp), %rax
	movq	(%rax), %rax
	.loc 11 312 25
	movq	%rax, %rcx
	call	_ZN17wxCriticalSection5LeaveEv
.LBE12:
	.loc 11 313 5
	nop
	addq	$32, %rsp
	popq	%rbp
	.cfi_restore 6
	.cfi_def_cfa 7, 8
	ret
	.cfi_endproc
.LFE8063:
	.seh_handler	__gxx_personality_seh0, @unwind, @except
	.seh_handlerdata
.LLSDA8063:
	.byte	0xff
	.byte	0xff
	.byte	0x1
	.uleb128 .LLSDACSE8063-.LLSDACSB8063
.LLSDACSB8063:
.LLSDACSE8063:
	.section	.text$_ZN23wxCriticalSectionLockerD1Ev,"x"
	.linkonce discard
	.seh_endproc
	.section	.text$_ZN8wxThread8OnDeleteEv,"x"
	.linkonce discard
	.align 2
	.globl	_ZN8wxThread8OnDeleteEv
	.def	_ZN8wxThread8OnDeleteEv;	.scl	2;	.type	32;	.endef
	.seh_proc	_ZN8wxThread8OnDeleteEv
_ZN8wxThread8OnDeleteEv:
.LFB8069:
	.loc 11 627 18
	.cfi_startproc
	pushq	%rbp
	.seh_pushreg	%rbp
	.cfi_def_cfa_offset 16
	.cfi_offset 6, -16
	movq	%rsp, %rbp
	.seh_setframe	%rbp, 0
	.cfi_def_cfa_register 6
	.seh_endprologue
	movq	%rcx, 16(%rbp)
	.loc 11 627 30
	nop
	popq	%rbp
	.cfi_restore 6
	.cfi_def_cfa 7, 8
	ret
	.cfi_endproc
.LFE8069:
	.seh_endproc
	.section	.text$_ZN8wxThread6OnKillEv,"x"
	.linkonce discard
	.align 2
	.globl	_ZN8wxThread6OnKillEv
	.def	_ZN8wxThread6OnKillEv;	.scl	2;	.type	32;	.endef
	.seh_proc	_ZN8wxThread6OnKillEv
_ZN8wxThread6OnKillEv:
.LFB8070:
	.loc 11 631 18
	.cfi_startproc
	pushq	%rbp
	.seh_pushreg	%rbp
	.cfi_def_cfa_offset 16
	.cfi_offset 6, -16
	movq	%rsp, %rbp
	.seh_setframe	%rbp, 0
	.cfi_def_cfa_register 6
	.seh_endprologue
	movq	%rcx, 16(%rbp)
	.loc 11 631 28
	nop
	popq	%rbp
	.cfi_restore 6
	.cfi_def_cfa 7, 8
	ret
	.cfi_endproc
.LFE8070:
	.seh_endproc
	.section	.text$_ZN8wxThread6OnExitEv,"x"
	.linkonce discard
	.align 2
	.globl	_ZN8wxThread6OnExitEv
	.def	_ZN8wxThread6OnExitEv;	.scl	2;	.type	32;	.endef
	.seh_proc	_ZN8wxThread6OnExitEv
_ZN8wxThread6OnExitEv:
.LFB8071:
	.loc 11 641 18
	.cfi_startproc
	pushq	%rbp
	.seh_pushreg	%rbp
	.cfi_def_cfa_offset 16
	.cfi_offset 6, -16
	movq	%rsp, %rbp
	.seh_setframe	%rbp, 0
	.cfi_def_cfa_register 6
	.seh_endprologue
	movq	%rcx, 16(%rbp)
	.loc 11 641 29
	nop
	popq	%rbp
	.cfi_restore 6
	.cfi_def_cfa 7, 8
	ret
	.cfi_endproc
.LFE8071:
	.seh_endproc
	.section	.text$_ZN20wxThreadHelperThread5EntryEv,"x"
	.linkonce discard
	.align 2
	.globl	_ZN20wxThreadHelperThread5EntryEv
	.def	_ZN20wxThreadHelperThread5EntryEv;	.scl	2;	.type	32;	.endef
	.seh_proc	_ZN20wxThreadHelperThread5EntryEv
_ZN20wxThreadHelperThread5EntryEv:
.LFB8086:
	.loc 11 767 1
	.cfi_startproc
	pushq	%rbp
	.seh_pushreg	%rbp
	.cfi_def_cfa_offset 16
	.cfi_offset 6, -16
	pushq	%rbx
	.seh_pushreg	%rbx
	.cfi_def_cfa_offset 24
	.cfi_offset 3, -24
	subq	$56, %rsp
	.seh_stackalloc	56
	.cfi_def_cfa_offset 80
	leaq	128(%rsp), %rbp
	.seh_setframe	%rbp, 128
	.cfi_def_cfa 6, -48
	.seh_endprologue
	movq	%rcx, -48(%rbp)
	.loc 11 768 27
	movq	-48(%rbp), %rax
	movq	64(%rax), %rdx
	movq	-48(%rbp), %rax
	movq	64(%rax), %rax
	.loc 11 768 41
	movq	(%rax), %rax
	addq	$16, %rax
	movq	(%rax), %rax
	.loc 11 768 40
	movq	%rdx, %rcx
	call	*%rax
.LVL0:
	movq	%rax, -88(%rbp)
	.loc 11 770 36
	movq	-48(%rbp), %rax
	movq	64(%rax), %rax
	.loc 11 770 44
	leaq	24(%rax), %rdx
	.loc 11 770 57
	leaq	-96(%rbp), %rax
	movq	%rax, %rcx
	call	_ZN23wxCriticalSectionLockerC1ER17wxCriticalSection
	.loc 11 776 10
	movq	-48(%rbp), %rax
	movq	64(%rax), %rax
	.loc 11 776 18
	movl	16(%rax), %eax
	.loc 11 776 5
	testl	%eax, %eax
	jne	.L54
	.loc 11 777 9
	movq	-48(%rbp), %rax
	movq	64(%rax), %rax
	.loc 11 777 26
	movq	$0, 8(%rax)
.L54:
	.loc 11 779 12
	movq	-88(%rbp), %rbx
	.loc 11 770 57
	leaq	-96(%rbp), %rax
	movq	%rax, %rcx
	call	_ZN23wxCriticalSectionLockerD1Ev
	.loc 11 779 12
	movq	%rbx, %rax
	.loc 11 780 1
	addq	$56, %rsp
	popq	%rbx
	.cfi_restore 3
	popq	%rbp
	.cfi_restore 6
	.cfi_def_cfa 7, -40
	ret
	.cfi_endproc
.LFE8086:
	.seh_endproc
	.section	.text$_ZN16wxTypeIdentifierC1EPKc,"x"
	.linkonce discard
	.align 2
	.globl	_ZN16wxTypeIdentifierC1EPKc
	.def	_ZN16wxTypeIdentifierC1EPKc;	.scl	2;	.type	32;	.endef
	.seh_proc	_ZN16wxTypeIdentifierC1EPKc
_ZN16wxTypeIdentifierC1EPKc:
.LFB8117:
	.file 12 "../wxMSW-3.0.5_gcc810_x64_Dev/include/wx/typeinfo.h"
	.loc 12 66 5
	.cfi_startproc
	pushq	%rbp
	.seh_pushreg	%rbp
	.cfi_def_cfa_offset 16
	.cfi_offset 6, -16
	movq	%rsp, %rbp
	.seh_setframe	%rbp, 0
	.cfi_def_cfa_register 6
	.seh_endprologue
	movq	%rcx, 16(%rbp)
	movq	%rdx, 24(%rbp)
.LBB13:
	.loc 12 68 21
	movq	16(%rbp), %rax
	movq	24(%rbp), %rdx
	movq	%rdx, (%rax)
.LBE13:
	.loc 12 69 5
	nop
	popq	%rbp
	.cfi_restore 6
	.cfi_def_cfa 7, 8
	ret
	.cfi_endproc
.LFE8117:
	.seh_endproc
	.section	.text$_ZN16wxTypeIdentifiereqERKS_,"x"
	.linkonce discard
	.align 2
	.globl	_ZN16wxTypeIdentifiereqERKS_
	.def	_ZN16wxTypeIdentifiereqERKS_;	.scl	2;	.type	32;	.endef
	.seh_proc	_ZN16wxTypeIdentifiereqERKS_
_ZN16wxTypeIdentifiereqERKS_:
.LFB8118:
	.loc 12 71 10
	.cfi_startproc
	pushq	%rbp
	.seh_pushreg	%rbp
	.cfi_def_cfa_offset 16
	.cfi_offset 6, -16
	movq	%rsp, %rbp
	.seh_setframe	%rbp, 0
	.cfi_def_cfa_register 6
	subq	$32, %rsp
	.seh_stackalloc	32
	.seh_endprologue
	movq	%rcx, 16(%rbp)
	movq	%rdx, 24(%rbp)
	.loc 12 73 42
	movq	24(%rbp), %rax
	movq	(%rax), %rdx
	.loc 12 73 22
	movq	16(%rbp), %rax
	movq	(%rax), %rax
	movq	%rax, %rcx
	call	strcmp
	.loc 12 73 58
	testl	%eax, %eax
	sete	%al
	.loc 12 74 5
	addq	$32, %rsp
	popq	%rbp
	.cfi_restore 6
	.cfi_def_cfa 7, 8
	ret
	.cfi_endproc
.LFE8118:
	.seh_endproc
	.section	.text$_ZNK20wxObjectEventFunctor10IsMatchingERK14wxEventFunctor,"x"
	.linkonce discard
	.align 2
	.globl	_ZNK20wxObjectEventFunctor10IsMatchingERK14wxEventFunctor
	.def	_ZNK20wxObjectEventFunctor10IsMatchingERK14wxEventFunctor;	.scl	2;	.type	32;	.endef
	.seh_proc	_ZNK20wxObjectEventFunctor10IsMatchingERK14wxEventFunctor
_ZNK20wxObjectEventFunctor10IsMatchingERK14wxEventFunctor:
.LFB9149:
	.file 13 "../wxMSW-3.0.5_gcc810_x64_Dev/include/wx/event.h"
	.loc 13 249 18
	.cfi_startproc
	pushq	%rbp
	.seh_pushreg	%rbp
	.cfi_def_cfa_offset 16
	.cfi_offset 6, -16
	movq	%rsp, %rbp
	.seh_setframe	%rbp, 0
	.cfi_def_cfa_register 6
	subq	$64, %rsp
	.seh_stackalloc	64
	.seh_endprologue
	movq	%rcx, 16(%rbp)
	movq	%rdx, 24(%rbp)
.LBB14:
	.loc 13 251 83
	movq	16(%rbp), %rax
	movq	(%rax), %rax
	subq	$8, %rax
	.loc 13 251 58
	movq	(%rax), %rax
	movq	%rax, %rcx
	call	_ZNKSt9type_info4nameEv
	movq	%rax, %rdx
	leaq	-24(%rbp), %rax
	movq	%rax, %rcx
	call	_ZN16wxTypeIdentifierC1EPKc
	.loc 13 251 38
	movq	24(%rbp), %rax
	movq	(%rax), %rax
	subq	$8, %rax
	.loc 13 251 14
	movq	(%rax), %rax
	movq	%rax, %rcx
	call	_ZNKSt9type_info4nameEv
	movq	%rax, %rdx
	leaq	-16(%rbp), %rax
	movq	%rax, %rcx
	call	_ZN16wxTypeIdentifierC1EPKc
	.loc 13 251 55
	leaq	-24(%rbp), %rdx
	leaq	-16(%rbp), %rax
	movq	%rax, %rcx
	call	_ZN16wxTypeIdentifiereqERKS_
	.loc 13 251 9
	testb	%al, %al
	je	.L60
.LBB15:
	.loc 13 253 41
	movq	24(%rbp), %rax
	movq	%rax, -8(%rbp)
	.loc 13 262 40
	movq	16(%rbp), %rax
	movq	16(%rax), %rdx
	movq	-8(%rbp), %rax
	movq	16(%rax), %rax
	.loc 13 262 74
	cmpq	%rax, %rdx
	jne	.L61
	.loc 13 262 40 discriminator 1
	movq	16(%rbp), %rax
	movq	24(%rax), %rdx
	movq	-8(%rbp), %rax
	movq	24(%rax), %rax
	.loc 13 262 31 discriminator 1
	cmpq	%rax, %rdx
	je	.L62
	.loc 13 262 40 discriminator 4
	movq	16(%rbp), %rax
	movq	16(%rax), %rax
	.loc 13 262 31 discriminator 4
	testq	%rax, %rax
	je	.L62
.L61:
	.loc 13 262 70 discriminator 6
	movq	-8(%rbp), %rax
	movq	16(%rax), %rax
	.loc 13 262 49 discriminator 6
	testq	%rax, %rax
	jne	.L63
.L62:
	.loc 13 263 22 discriminator 7
	movq	16(%rbp), %rax
	movq	8(%rax), %rdx
	.loc 13 263 41 discriminator 7
	movq	-8(%rbp), %rax
	movq	8(%rax), %rax
	.loc 13 262 74 discriminator 7
	cmpq	%rax, %rdx
	je	.L64
	.loc 13 263 60
	movq	-8(%rbp), %rax
	movq	8(%rax), %rax
	.loc 13 263 51
	testq	%rax, %rax
	jne	.L63
.L64:
	.loc 13 262 74 discriminator 9
	movl	$1, %eax
	.loc 13 263 77 discriminator 9
	jmp	.L66
.L63:
	.loc 13 262 74 discriminator 8
	movl	$0, %eax
	.loc 13 263 77 discriminator 8
	jmp	.L66
.L60:
.LBE15:
	.loc 13 266 20
	movl	$0, %eax
.L66:
.LBE14:
	.loc 13 267 5
	addq	$64, %rsp
	popq	%rbp
	.cfi_restore 6
	.cfi_def_cfa 7, 8
	ret
	.cfi_endproc
.LFE9149:
	.seh_endproc
	.section	.text$_ZNK20wxObjectEventFunctor13GetEvtHandlerEv,"x"
	.linkonce discard
	.align 2
	.globl	_ZNK20wxObjectEventFunctor13GetEvtHandlerEv
	.def	_ZNK20wxObjectEventFunctor13GetEvtHandlerEv;	.scl	2;	.type	32;	.endef
	.seh_proc	_ZNK20wxObjectEventFunctor13GetEvtHandlerEv
_ZNK20wxObjectEventFunctor13GetEvtHandlerEv:
.LFB9150:
	.loc 13 269 27
	.cfi_startproc
	pushq	%rbp
	.seh_pushreg	%rbp
	.cfi_def_cfa_offset 16
	.cfi_offset 6, -16
	movq	%rsp, %rbp
	.seh_setframe	%rbp, 0
	.cfi_def_cfa_register 6
	.seh_endprologue
	movq	%rcx, 16(%rbp)
	.loc 13 270 18
	movq	16(%rbp), %rax
	movq	8(%rax), %rax
	.loc 13 270 29
	popq	%rbp
	.cfi_restore 6
	.cfi_def_cfa 7, 8
	ret
	.cfi_endproc
.LFE9150:
	.seh_endproc
	.section	.text$_ZNK20wxObjectEventFunctor12GetEvtMethodEv,"x"
	.linkonce discard
	.align 2
	.globl	_ZNK20wxObjectEventFunctor12GetEvtMethodEv
	.def	_ZNK20wxObjectEventFunctor12GetEvtMethodEv;	.scl	2;	.type	32;	.endef
	.seh_proc	_ZNK20wxObjectEventFunctor12GetEvtMethodEv
_ZNK20wxObjectEventFunctor12GetEvtMethodEv:
.LFB9151:
	.loc 13 272 29
	.cfi_startproc
	pushq	%rbp
	.seh_pushreg	%rbp
	.cfi_def_cfa_offset 16
	.cfi_offset 6, -16
	movq	%rsp, %rbp
	.seh_setframe	%rbp, 0
	.cfi_def_cfa_register 6
	.seh_endprologue
	movq	%rcx, 16(%rbp)
	movq	%rdx, 24(%rbp)
	.loc 13 273 18
	movq	16(%rbp), %rcx
	movq	24(%rbp), %rax
	movq	24(%rax), %rdx
	movq	16(%rax), %rax
	movq	%rax, (%rcx)
	movq	%rdx, 8(%rcx)
	.loc 13 273 28
	movq	16(%rbp), %rax
	popq	%rbp
	.cfi_restore 6
	.cfi_def_cfa 7, 8
	ret
	.cfi_endproc
.LFE9151:
	.seh_endproc
	.section	.text$_ZN20wxObjectEventFunctorclEP12wxEvtHandlerR7wxEvent,"x"
	.linkonce discard
	.align 2
	.globl	_ZN20wxObjectEventFunctorclEP12wxEvtHandlerR7wxEvent
	.def	_ZN20wxObjectEventFunctorclEP12wxEvtHandlerR7wxEvent;	.scl	2;	.type	32;	.endef
	.seh_proc	_ZN20wxObjectEventFunctorclEP12wxEvtHandlerR7wxEvent
_ZN20wxObjectEventFunctorclEP12wxEvtHandlerR7wxEvent:
.LFB9949:
	.loc 13 3775 1
	.cfi_startproc
	pushq	%rbp
	.seh_pushreg	%rbp
	.cfi_def_cfa_offset 16
	.cfi_offset 6, -16
	movq	%rsp, %rbp
	.seh_setframe	%rbp, 0
	.cfi_def_cfa_register 6
	subq	$48, %rsp
	.seh_stackalloc	48
	.seh_endprologue
	movq	%rcx, 16(%rbp)
	movq	%rdx, 24(%rbp)
	movq	%r8, 32(%rbp)
	.loc 13 3776 40
	movq	16(%rbp), %rax
	movq	8(%rax), %rax
	.loc 13 3776 50
	testq	%rax, %rax
	je	.L72
	.loc 13 3776 50 is_stmt 0 discriminator 1
	movq	16(%rbp), %rax
	movq	8(%rax), %rax
	jmp	.L73
.L72:
	.loc 13 3776 50 discriminator 2
	movq	24(%rbp), %rax
.L73:
	.loc 13 3776 26 is_stmt 1 discriminator 4
	movq	%rax, -8(%rbp)
	.loc 13 3778 35 discriminator 4
	movq	16(%rbp), %rax
	movq	24(%rax), %rax
	.loc 13 3778 29 discriminator 4
	movq	%rax, %rdx
	movq	-8(%rbp), %rax
	leaq	(%rdx,%rax), %rcx
	.loc 13 3778 35 discriminator 4
	movq	16(%rbp), %rax
	movq	16(%rax), %rax
	andl	$1, %eax
	testq	%rax, %rax
	je	.L74
	.loc 13 3778 35 is_stmt 0 discriminator 1
	movq	16(%rbp), %rax
	movq	24(%rax), %rax
	movq	%rax, %rdx
	movq	-8(%rbp), %rax
	addq	%rdx, %rax
	movq	(%rax), %rdx
	movq	16(%rbp), %rax
	movq	16(%rax), %rax
	subq	$1, %rax
	addq	%rdx, %rax
	movq	(%rax), %rax
	jmp	.L75
.L74:
	.loc 13 3778 35 discriminator 2
	movq	16(%rbp), %rax
	movq	16(%rax), %rax
.L75:
	.loc 13 3778 29 is_stmt 1 discriminator 4
	movq	32(%rbp), %rdx
	call	*%rax
.LVL1:
	.loc 13 3779 1 discriminator 4
	nop
	addq	$48, %rsp
	popq	%rbp
	.cfi_restore 6
	.cfi_def_cfa 7, 8
	ret
	.cfi_endproc
.LFE9949:
	.seh_endproc
	.section .rdata,"dr"
_ZL19wxALPHA_TRANSPARENT:
	.space 1
_ZL14wxALPHA_OPAQUE:
	.byte	-1
.lcomm _ZStL8__ioinit,1,1
	.align 4
_ZL21wxOutOfRangeTextCoord:
	.long	-1
	.align 4
_ZL18wxInvalidTextCoord:
	.long	-2
	.section	.text$_ZN10BaseObjectaSERKS_,"x"
	.linkonce discard
	.align 2
	.globl	_ZN10BaseObjectaSERKS_
	.def	_ZN10BaseObjectaSERKS_;	.scl	2;	.type	32;	.endef
	.seh_proc	_ZN10BaseObjectaSERKS_
_ZN10BaseObjectaSERKS_:
.LFB10933:
	.loc 4 5 7
	.cfi_startproc
	pushq	%rbp
	.seh_pushreg	%rbp
	.cfi_def_cfa_offset 16
	.cfi_offset 6, -16
	movq	%rsp, %rbp
	.seh_setframe	%rbp, 0
	.cfi_def_cfa_register 6
	.seh_endprologue
	movq	%rcx, 16(%rbp)
	movq	%rdx, 24(%rbp)
	.loc 4 5 7
	movq	16(%rbp), %rax
	popq	%rbp
	.cfi_restore 6
	.cfi_def_cfa 7, 8
	ret
	.cfi_endproc
.LFE10933:
	.seh_endproc
	.section .rdata,"dr"
_ZStL13allocator_arg:
	.space 1
_ZStL6ignore:
	.space 1
	.section	.text$_ZN12Configuracao11getLatitudeEv,"x"
	.linkonce discard
	.align 2
	.globl	_ZN12Configuracao11getLatitudeEv
	.def	_ZN12Configuracao11getLatitudeEv;	.scl	2;	.type	32;	.endef
	.seh_proc	_ZN12Configuracao11getLatitudeEv
_ZN12Configuracao11getLatitudeEv:
.LFB11216:
	.file 14 "C:/temp/ballisticKernelCpp/interfaceGrafica/calculadorBalisiticaGraficoWindows/configuracao.h"
	.loc 14 57 16
	.cfi_startproc
	pushq	%rbp
	.seh_pushreg	%rbp
	.cfi_def_cfa_offset 16
	.cfi_offset 6, -16
	movq	%rsp, %rbp
	.seh_setframe	%rbp, 0
	.cfi_def_cfa_register 6
	.seh_endprologue
	movq	%rcx, 16(%rbp)
	.loc 14 57 37
	movq	16(%rbp), %rax
	movsd	96(%rax), %xmm0
	movq	%xmm0, %rax
	.loc 14 57 46
	movq	%rax, %xmm0
	popq	%rbp
	.cfi_restore 6
	.cfi_def_cfa 7, 8
	ret
	.cfi_endproc
.LFE11216:
	.seh_endproc
	.section	.text$_ZN12Configuracao13getLancamentoEv,"x"
	.linkonce discard
	.align 2
	.globl	_ZN12Configuracao13getLancamentoEv
	.def	_ZN12Configuracao13getLancamentoEv;	.scl	2;	.type	32;	.endef
	.seh_proc	_ZN12Configuracao13getLancamentoEv
_ZN12Configuracao13getLancamentoEv:
.LFB11218:
	.loc 14 59 16
	.cfi_startproc
	pushq	%rbp
	.seh_pushreg	%rbp
	.cfi_def_cfa_offset 16
	.cfi_offset 6, -16
	movq	%rsp, %rbp
	.seh_setframe	%rbp, 0
	.cfi_def_cfa_register 6
	.seh_endprologue
	movq	%rcx, 16(%rbp)
	.loc 14 59 39
	movq	16(%rbp), %rax
	movsd	104(%rax), %xmm0
	movq	%xmm0, %rax
	.loc 14 59 50
	movq	%rax, %xmm0
	popq	%rbp
	.cfi_restore 6
	.cfi_def_cfa 7, 8
	ret
	.cfi_endproc
.LFE11218:
	.seh_endproc
	.section	.text$_ZN12Configuracao14isUsarCoriolisEv,"x"
	.linkonce discard
	.align 2
	.globl	_ZN12Configuracao14isUsarCoriolisEv
	.def	_ZN12Configuracao14isUsarCoriolisEv;	.scl	2;	.type	32;	.endef
	.seh_proc	_ZN12Configuracao14isUsarCoriolisEv
_ZN12Configuracao14isUsarCoriolisEv:
.LFB11224:
	.loc 14 67 14
	.cfi_startproc
	pushq	%rbp
	.seh_pushreg	%rbp
	.cfi_def_cfa_offset 16
	.cfi_offset 6, -16
	movq	%rsp, %rbp
	.seh_setframe	%rbp, 0
	.cfi_def_cfa_register 6
	.seh_endprologue
	movq	%rcx, 16(%rbp)
	.loc 14 67 38
	movq	16(%rbp), %rax
	movzbl	184(%rax), %eax
	.loc 14 67 51
	popq	%rbp
	.cfi_restore 6
	.cfi_def_cfa 7, 8
	ret
	.cfi_endproc
.LFE11224:
	.seh_endproc
	.section	.text$_ZN7MathArt5arredEd,"x"
	.linkonce discard
	.globl	_ZN7MathArt5arredEd
	.def	_ZN7MathArt5arredEd;	.scl	2;	.type	32;	.endef
	.seh_proc	_ZN7MathArt5arredEd
_ZN7MathArt5arredEd:
.LFB11282:
	.file 15 "../../MathArt/mathart.h"
	.loc 15 27 16
	.cfi_startproc
	pushq	%rbp
	.seh_pushreg	%rbp
	.cfi_def_cfa_offset 16
	.cfi_offset 6, -16
	movq	%rsp, %rbp
	.seh_setframe	%rbp, 0
	.cfi_def_cfa_register 6
	subq	$32, %rsp
	.seh_stackalloc	32
	.seh_endprologue
	movsd	%xmm0, 16(%rbp)
	.loc 15 30 26
	movsd	16(%rbp), %xmm0
	call	floor
	movapd	%xmm0, %xmm1
	.loc 15 30 19
	movsd	16(%rbp), %xmm0
	subsd	%xmm1, %xmm0
	.loc 15 30 34
	movsd	.LC1(%rip), %xmm1
	subsd	%xmm1, %xmm0
	.loc 15 30 9
	pxor	%xmm1, %xmm1
	comisd	%xmm1, %xmm0
	jbe	.L89
	.loc 15 31 28
	movsd	16(%rbp), %xmm0
	call	ceil
	.loc 15 31 35
	cvttsd2si	%xmm0, %eax
	jmp	.L87
.L89:
	.loc 15 33 29
	movsd	16(%rbp), %xmm0
	call	floor
	.loc 15 33 36
	cvttsd2si	%xmm0, %eax
.L87:
	.loc 15 34 5
	addq	$32, %rsp
	popq	%rbp
	.cfi_restore 6
	.cfi_def_cfa 7, 8
	ret
	.cfi_endproc
.LFE11282:
	.seh_endproc
	.text
	.align 2
	.globl	_ZN15GeradorTabularIC2EP10wxTextCtrl
	.def	_ZN15GeradorTabularIC2EP10wxTextCtrl;	.scl	2;	.type	32;	.endef
	.seh_proc	_ZN15GeradorTabularIC2EP10wxTextCtrl
_ZN15GeradorTabularIC2EP10wxTextCtrl:
.LFB11299:
	.file 16 "C:/temp/ballisticKernelCpp/interfaceGrafica/calculadorBalisiticaGraficoWindows/tabelaDialog/geradorTabularI.cpp"
	.loc 16 8 1
	.cfi_startproc
	pushq	%rbp
	.seh_pushreg	%rbp
	.cfi_def_cfa_offset 16
	.cfi_offset 6, -16
	movq	%rsp, %rbp
	.seh_setframe	%rbp, 0
	.cfi_def_cfa_register 6
	subq	$32, %rsp
	.seh_stackalloc	32
	.seh_endprologue
	movq	%rcx, 16(%rbp)
	movq	%rdx, 24(%rbp)
.LBB16:
	.loc 16 8 85
	movq	16(%rbp), %rax
	movq	24(%rbp), %rdx
	movq	%rax, %rcx
	call	_ZN14GeradorTabularC2EP10wxTextCtrl
	leaq	16+_ZTV15GeradorTabularI(%rip), %rdx
	movq	16(%rbp), %rax
	movq	%rdx, (%rax)
.LBE16:
	.loc 16 11 1
	nop
	addq	$32, %rsp
	popq	%rbp
	.cfi_restore 6
	.cfi_def_cfa 7, 8
	ret
	.cfi_endproc
.LFE11299:
	.seh_endproc
	.globl	_ZN15GeradorTabularIC1EP10wxTextCtrl
	.def	_ZN15GeradorTabularIC1EP10wxTextCtrl;	.scl	2;	.type	32;	.endef
	.set	_ZN15GeradorTabularIC1EP10wxTextCtrl,_ZN15GeradorTabularIC2EP10wxTextCtrl
	.section	.text$_ZN16ElementosDisparoaSEOS_,"x"
	.linkonce discard
	.align 2
	.globl	_ZN16ElementosDisparoaSEOS_
	.def	_ZN16ElementosDisparoaSEOS_;	.scl	2;	.type	32;	.endef
	.seh_proc	_ZN16ElementosDisparoaSEOS_
_ZN16ElementosDisparoaSEOS_:
.LFB11302:
	.loc 5 6 7
	.cfi_startproc
	pushq	%rbp
	.seh_pushreg	%rbp
	.cfi_def_cfa_offset 16
	.cfi_offset 6, -16
	movq	%rsp, %rbp
	.seh_setframe	%rbp, 0
	.cfi_def_cfa_register 6
	subq	$32, %rsp
	.seh_stackalloc	32
	.seh_endprologue
	movq	%rcx, 16(%rbp)
	movq	%rdx, 24(%rbp)
	.loc 5 6 7
	movq	16(%rbp), %rax
	movq	24(%rbp), %rdx
	movq	%rax, %rcx
	call	_ZN10BaseObjectaSERKS_
	movq	24(%rbp), %rax
	movzbl	8(%rax), %eax
	movq	16(%rbp), %rdx
	movb	%al, 8(%rdx)
	movq	24(%rbp), %rax
	movsd	16(%rax), %xmm0
	movq	16(%rbp), %rax
	movsd	%xmm0, 16(%rax)
	movq	24(%rbp), %rax
	movsd	24(%rax), %xmm0
	movq	16(%rbp), %rax
	movsd	%xmm0, 24(%rax)
	movq	16(%rbp), %rax
	addq	$32, %rsp
	popq	%rbp
	.cfi_restore 6
	.cfi_def_cfa 7, 8
	ret
	.cfi_endproc
.LFE11302:
	.seh_endproc
	.section	.text$_ZN12ElementosVooaSEOS_,"x"
	.linkonce discard
	.align 2
	.globl	_ZN12ElementosVooaSEOS_
	.def	_ZN12ElementosVooaSEOS_;	.scl	2;	.type	32;	.endef
	.seh_proc	_ZN12ElementosVooaSEOS_
_ZN12ElementosVooaSEOS_:
.LFB11303:
	.file 17 "../../CalculadorNumerico/calculador/elementosvoo.h"
	.loc 17 7 7
	.cfi_startproc
	pushq	%rbp
	.seh_pushreg	%rbp
	.cfi_def_cfa_offset 16
	.cfi_offset 6, -16
	movq	%rsp, %rbp
	.seh_setframe	%rbp, 0
	.cfi_def_cfa_register 6
	subq	$32, %rsp
	.seh_stackalloc	32
	.seh_endprologue
	movq	%rcx, 16(%rbp)
	movq	%rdx, 24(%rbp)
	.loc 17 7 7
	movq	16(%rbp), %rax
	movq	24(%rbp), %rdx
	movq	%rax, %rcx
	call	_ZN10BaseObjectaSERKS_
	movq	24(%rbp), %rax
	movsd	8(%rax), %xmm0
	movq	16(%rbp), %rax
	movsd	%xmm0, 8(%rax)
	movq	24(%rbp), %rax
	movsd	16(%rax), %xmm0
	movq	16(%rbp), %rax
	movsd	%xmm0, 16(%rax)
	movq	24(%rbp), %rax
	movsd	24(%rax), %xmm0
	movq	16(%rbp), %rax
	movsd	%xmm0, 24(%rax)
	movq	24(%rbp), %rax
	movsd	32(%rax), %xmm0
	movq	16(%rbp), %rax
	movsd	%xmm0, 32(%rax)
	movq	24(%rbp), %rax
	movsd	40(%rax), %xmm0
	movq	16(%rbp), %rax
	movsd	%xmm0, 40(%rax)
	movq	24(%rbp), %rax
	movsd	48(%rax), %xmm0
	movq	16(%rbp), %rax
	movsd	%xmm0, 48(%rax)
	movq	24(%rbp), %rax
	movsd	56(%rax), %xmm0
	movq	16(%rbp), %rax
	movsd	%xmm0, 56(%rax)
	movq	24(%rbp), %rax
	movsd	64(%rax), %xmm0
	movq	16(%rbp), %rax
	movsd	%xmm0, 64(%rax)
	movq	24(%rbp), %rax
	movsd	72(%rax), %xmm0
	movq	16(%rbp), %rax
	movsd	%xmm0, 72(%rax)
	movq	24(%rbp), %rax
	movsd	80(%rax), %xmm0
	movq	16(%rbp), %rax
	movsd	%xmm0, 80(%rax)
	movq	24(%rbp), %rax
	movsd	88(%rax), %xmm0
	movq	16(%rbp), %rax
	movsd	%xmm0, 88(%rax)
	movq	16(%rbp), %rax
	addq	$32, %rsp
	popq	%rbp
	.cfi_restore 6
	.cfi_def_cfa 7, 8
	ret
	.cfi_endproc
.LFE11303:
	.seh_endproc
	.section .rdata,"dr"
.LC3:
	.ascii "Tabela I \0"
.LC4:
	.ascii "Mergulhante\0"
.LC5:
	.ascii "Vertical\0"
.LC6:
	.ascii " m/s  \0"
.LC7:
	.ascii "\12\12\0"
.LC9:
	.ascii "\11\11\11\0"
.LC10:
	.ascii " graus de latitude norte\12\0"
	.align 8
.LC11:
	.ascii "\11\11\11Azimute para o alvo em mils\12\12\0"
.LC12:
	.ascii "\11\0"
.LC13:
	.ascii "\12\0"
.LC15:
	.ascii "\0"
.LC17:
	.ascii "D\0"
.LC18:
	.ascii "E\0"
	.align 8
.LC19:
	.ascii "\11\11\11Azimute para o alvo em mils\12\0"
.LC20:
	.ascii " graus de latitude sul\12\12\0"
	.align 8
.LC21:
	.ascii "\11Notas - 1. Ao registrar do topo, use o sinal antes do n\372mero\12\0"
	.align 8
.LC22:
	.ascii "\11\11"
	.ascii "2. Ao registrar do fundo, use o sinal depois do n\372mero.\12\0"
	.align 8
.LC23:
	.ascii "\11\11"
	.ascii "3. D significa corre\347\343o \340 direita, E \340 esquerda.\12\0"
	.align 8
.LC24:
	.ascii "\11\11"
	.ascii "4. O azimute \351 medido no sentido hor\341rio a partir do norte.\12\0"
.LC25:
	.ascii "Fim.\12\0"
	.align 8
.LC26:
	.ascii "\12Limite de validade do Modelo.\12\0"
	.text
	.align 2
	.globl	_ZN15GeradorTabularI11gerarTabelaEP21CalculadorAtmosfericod15TIPO_TRAJETORIAdd
	.def	_ZN15GeradorTabularI11gerarTabelaEP21CalculadorAtmosfericod15TIPO_TRAJETORIAdd;	.scl	2;	.type	32;	.endef
	.seh_proc	_ZN15GeradorTabularI11gerarTabelaEP21CalculadorAtmosfericod15TIPO_TRAJETORIAdd
_ZN15GeradorTabularI11gerarTabelaEP21CalculadorAtmosfericod15TIPO_TRAJETORIAdd:
.LFB11301:
	.loc 16 17 1
	.cfi_startproc
	pushq	%rbp
	.seh_pushreg	%rbp
	.cfi_def_cfa_offset 16
	.cfi_offset 6, -16
	pushq	%rdi
	.seh_pushreg	%rdi
	.cfi_def_cfa_offset 24
	.cfi_offset 5, -24
	pushq	%rsi
	.seh_pushreg	%rsi
	.cfi_def_cfa_offset 32
	.cfi_offset 4, -32
	pushq	%rbx
	.seh_pushreg	%rbx
	.cfi_def_cfa_offset 40
	.cfi_offset 3, -40
	subq	$2792, %rsp
	.seh_stackalloc	2792
	.cfi_def_cfa_offset 2832
	leaq	128(%rsp), %rbp
	.seh_setframe	%rbp, 128
	.cfi_def_cfa 6, 2704
	.seh_endprologue
	movq	%rcx, 2704(%rbp)
	movq	%rdx, 2712(%rbp)
	movsd	%xmm2, 2720(%rbp)
	movl	%r9d, 2728(%rbp)
	.loc 16 18 18
	leaq	144(%rbp), %rax
	movq	%rax, %rcx
.LEHB11:
	call	_ZN12ElementosVooC1Ev
.LEHE11:
	.loc 16 19 19
	leaq	112(%rbp), %rax
	movq	%rax, %rcx
.LEHB12:
	call	_ZN16ElementosDisparoC1Ev
.LEHE12:
	.loc 16 20 40
	leaq	240(%rbp), %rax
	movsd	2736(%rbp), %xmm1
	movsd	2720(%rbp), %xmm0
	movq	2712(%rbp), %rdx
	movapd	%xmm1, %xmm3
	movapd	%xmm0, %xmm2
	movq	%rax, %rcx
.LEHB13:
	call	_ZN21CalculadorAtmosferico6limiteEdd
	.loc 16 20 61 discriminator 1
	movsd	256(%rbp), %xmm0
	cvttsd2si	%xmm0, %eax
	movl	%eax, 2624(%rbp)
	.loc 16 20 40 discriminator 1
	leaq	240(%rbp), %rax
	movq	%rax, %rcx
	call	_ZN12ElementosVooD1Ev
	.loc 16 21 12 discriminator 1
	movl	2624(%rbp), %ecx
	movl	$1374389535, %edx
	movl	%ecx, %eax
	imull	%edx
	sarl	$5, %edx
	movl	%ecx, %eax
	sarl	$31, %eax
	subl	%eax, %edx
	movl	%edx, %eax
	movl	%eax, 2624(%rbp)
	.loc 16 22 12 discriminator 1
	movl	2624(%rbp), %eax
	imull	$100, %eax, %eax
	movl	%eax, 2624(%rbp)
	.loc 16 24 61 discriminator 1
	cmpl	$0, 2728(%rbp)
	je	.L96
	movl	2624(%rbp), %eax
	subl	$100, %eax
	jmp	.L97
.L96:
	.loc 16 24 61 is_stmt 0 discriminator 2
	movl	$100, %eax
.L97:
	.loc 16 24 9 is_stmt 1 discriminator 4
	movl	%eax, 2620(%rbp)
	.loc 16 25 58 discriminator 4
	cmpl	$0, 2728(%rbp)
	jne	.L98
	.loc 16 25 58 is_stmt 0 discriminator 1
	movl	2624(%rbp), %eax
	jmp	.L99
.L98:
	.loc 16 25 58 discriminator 2
	movl	$100, %eax
.L99:
	.loc 16 25 9 is_stmt 1 discriminator 4
	movl	%eax, 2616(%rbp)
	.loc 16 28 5 discriminator 4
	movq	2704(%rbp), %rax
	movq	8(%rax), %rsi
	movq	2704(%rbp), %rax
	movq	8(%rax), %rax
	.loc 16 28 40 discriminator 4
	movq	(%rax), %rax
	addq	$1928, %rax
	movq	(%rax), %rbx
	.loc 16 28 28 discriminator 4
	leaq	336(%rbp), %rax
	leaq	.LC3(%rip), %rdx
	movq	%rax, %rcx
	call	_ZN8wxStringC1EPKc
.LEHE13:
	.loc 16 28 28 is_stmt 0 discriminator 1
	leaq	336(%rbp), %rax
	movq	%rax, %rdx
	movq	%rsi, %rcx
.LEHB14:
	call	*%rbx
.LVL2:
.LEHE14:
	.loc 16 28 28 discriminator 3
	leaq	336(%rbp), %rax
	movq	%rax, %rcx
	call	_ZN8wxStringD1Ev
	.loc 16 29 5 is_stmt 1 discriminator 3
	movq	2704(%rbp), %rax
	movq	8(%rax), %rdi
	movq	2704(%rbp), %rax
	movq	8(%rax), %rax
	.loc 16 29 167 discriminator 3
	movq	(%rax), %rax
	addq	$1928, %rax
	movq	(%rax), %rsi
	.loc 16 29 83 discriminator 3
	cmpl	$0, 2728(%rbp)
	jne	.L100
	.loc 16 29 83 is_stmt 0 discriminator 1
	leaq	.LC4(%rip), %rbx
	jmp	.L101
.L100:
	.loc 16 29 83 discriminator 2
	leaq	.LC5(%rip), %rbx
.L101:
	.loc 16 29 43 is_stmt 1 discriminator 4
	movq	2720(%rbp), %rax
	movq	%rax, %xmm0
	call	_ZN7MathArt5arredEd
	movl	%eax, %edx
	leaq	528(%rbp), %rax
	movq	%rax, %rcx
.LEHB15:
	call	_ZNSt7__cxx119to_stringEi
.LEHE15:
	.loc 16 29 72 discriminator 5
	leaq	496(%rbp), %rax
	leaq	528(%rbp), %rdx
	leaq	.LC6(%rip), %r8
	movq	%rax, %rcx
.LEHB16:
	call	_ZStplIcSt11char_traitsIcESaIcEENSt7__cxx1112basic_stringIT_T0_T1_EEOS8_PKS5_
.LEHE16:
	.loc 16 29 83 discriminator 7
	leaq	464(%rbp), %rax
	leaq	496(%rbp), %rdx
	movq	%rbx, %r8
	movq	%rax, %rcx
.LEHB17:
	call	_ZStplIcSt11char_traitsIcESaIcEENSt7__cxx1112basic_stringIT_T0_T1_EEOS8_PKS5_
.LEHE17:
	.loc 16 29 159 discriminator 9
	leaq	432(%rbp), %rax
	leaq	464(%rbp), %rdx
	leaq	.LC7(%rip), %r8
	movq	%rax, %rcx
.LEHB18:
	call	_ZStplIcSt11char_traitsIcESaIcEENSt7__cxx1112basic_stringIT_T0_T1_EEOS8_PKS5_
.LEHE18:
	.loc 16 29 28 discriminator 11
	leaq	432(%rbp), %rdx
	leaq	384(%rbp), %rax
	movq	%rax, %rcx
.LEHB19:
	call	_ZN8wxStringC1ERKNSt7__cxx1112basic_stringIcSt11char_traitsIcESaIcEEE
.LEHE19:
	.loc 16 29 28 is_stmt 0 discriminator 13
	leaq	384(%rbp), %rax
	movq	%rax, %rdx
	movq	%rdi, %rcx
.LEHB20:
	call	*%rsi
.LVL3:
.LEHE20:
	.loc 16 29 28 discriminator 15
	leaq	384(%rbp), %rax
	movq	%rax, %rcx
	call	_ZN8wxStringD1Ev
	.loc 16 29 159 is_stmt 1 discriminator 15
	leaq	432(%rbp), %rax
	movq	%rax, %rcx
	call	_ZNSt7__cxx1112basic_stringIcSt11char_traitsIcESaIcEED1Ev
	.loc 16 29 83 discriminator 15
	leaq	464(%rbp), %rax
	movq	%rax, %rcx
	call	_ZNSt7__cxx1112basic_stringIcSt11char_traitsIcESaIcEED1Ev
	.loc 16 29 72 discriminator 15
	leaq	496(%rbp), %rax
	movq	%rax, %rcx
	call	_ZNSt7__cxx1112basic_stringIcSt11char_traitsIcESaIcEED1Ev
	.loc 16 29 43 discriminator 15
	leaq	528(%rbp), %rax
	movq	%rax, %rcx
	call	_ZNSt7__cxx1112basic_stringIcSt11char_traitsIcESaIcEED1Ev
	.loc 16 30 5 discriminator 15
	movq	2704(%rbp), %rax
	movq	8(%rax), %rsi
	movq	2704(%rbp), %rax
	movq	8(%rax), %rax
	.loc 16 30 123 discriminator 15
	movq	(%rax), %rax
	addq	$1928, %rax
	movq	(%rax), %rbx
	.loc 16 30 85 discriminator 15
	movq	.refptr.config(%rip), %rax
	movq	(%rax), %rax
	movq	%rax, %rcx
	call	_ZN12Configuracao11getLatitudeEv
	movapd	%xmm0, %xmm1
	.loc 16 30 60 discriminator 15
	movq	.LC8(%rip), %xmm0
	andpd	%xmm1, %xmm0
	leaq	656(%rbp), %rax
	movl	$1, %r8d
	movapd	%xmm0, %xmm1
	movq	%rax, %rcx
.LEHB21:
	call	_ZN8wxString10FromDoubleEdi
.LEHE21:
	.loc 16 30 38 discriminator 1
	leaq	608(%rbp), %rax
	leaq	656(%rbp), %rdx
	movq	%rdx, %r8
	leaq	.LC9(%rip), %rdx
	movq	%rax, %rcx
.LEHB22:
	call	_ZplPKcRK8wxString
.LEHE22:
	.loc 16 30 93 discriminator 3
	leaq	560(%rbp), %rax
	leaq	608(%rbp), %rdx
	leaq	.LC10(%rip), %r8
	movq	%rax, %rcx
.LEHB23:
	call	_ZplRK8wxStringPKc
.LEHE23:
	.loc 16 30 28 discriminator 5
	leaq	560(%rbp), %rax
	movq	%rax, %rdx
	movq	%rsi, %rcx
.LEHB24:
	call	*%rbx
.LVL4:
.LEHE24:
	.loc 16 30 93 discriminator 7
	leaq	560(%rbp), %rax
	movq	%rax, %rcx
	call	_ZN8wxStringD1Ev
	.loc 16 30 38 discriminator 7
	leaq	608(%rbp), %rax
	movq	%rax, %rcx
	call	_ZN8wxStringD1Ev
	.loc 16 30 60 discriminator 7
	leaq	656(%rbp), %rax
	movq	%rax, %rcx
	call	_ZN8wxStringD1Ev
	.loc 16 31 5 discriminator 7
	movq	2704(%rbp), %rax
	movq	8(%rax), %rsi
	movq	2704(%rbp), %rax
	movq	8(%rax), %rax
	.loc 16 31 68 discriminator 7
	movq	(%rax), %rax
	addq	$1928, %rax
	movq	(%rax), %rbx
	.loc 16 31 28 discriminator 7
	leaq	704(%rbp), %rax
	leaq	.LC11(%rip), %rdx
	movq	%rax, %rcx
.LEHB25:
	call	_ZN8wxStringC1EPKc
.LEHE25:
	.loc 16 31 28 is_stmt 0 discriminator 1
	leaq	704(%rbp), %rax
	movq	%rax, %rdx
	movq	%rsi, %rcx
.LEHB26:
	call	*%rbx
.LVL5:
.LEHE26:
	.loc 16 31 28 discriminator 3
	leaq	704(%rbp), %rax
	movq	%rax, %rcx
	call	_ZN8wxStringD1Ev
.LBB17:
	.loc 16 32 13 is_stmt 1 discriminator 3
	movl	$0, 2652(%rbp)
.L103:
	.loc 16 32 21 discriminator 2
	cmpl	$3200, 2652(%rbp)
	jg	.L102
	.loc 16 33 9
	movq	2704(%rbp), %rax
	movq	8(%rax), %rsi
	movq	2704(%rbp), %rax
	movq	8(%rax), %rax
	.loc 16 33 59
	movq	(%rax), %rax
	addq	$1928, %rax
	movq	(%rax), %rbx
	.loc 16 33 55
	leaq	832(%rbp), %rax
	movl	2652(%rbp), %edx
	movq	%rax, %rcx
.LEHB27:
	call	_ZNSt7__cxx119to_stringEi
.LEHE27:
	.loc 16 33 39 discriminator 1
	leaq	800(%rbp), %rax
	leaq	832(%rbp), %rdx
	movq	%rdx, %r8
	leaq	.LC12(%rip), %rdx
	movq	%rax, %rcx
.LEHB28:
	call	_ZStplIcSt11char_traitsIcESaIcEENSt7__cxx1112basic_stringIT_T0_T1_EEPKS5_OS8_
.LEHE28:
	.loc 16 33 32 discriminator 3
	leaq	800(%rbp), %rdx
	leaq	752(%rbp), %rax
	movq	%rax, %rcx
.LEHB29:
	call	_ZN8wxStringC1ERKNSt7__cxx1112basic_stringIcSt11char_traitsIcESaIcEEE
.LEHE29:
	.loc 16 33 32 is_stmt 0 discriminator 5
	leaq	752(%rbp), %rax
	movq	%rax, %rdx
	movq	%rsi, %rcx
.LEHB30:
	call	*%rbx
.LVL6:
.LEHE30:
	.loc 16 33 32 discriminator 7
	leaq	752(%rbp), %rax
	movq	%rax, %rcx
	call	_ZN8wxStringD1Ev
	.loc 16 33 39 is_stmt 1 discriminator 7
	leaq	800(%rbp), %rax
	movq	%rax, %rcx
	call	_ZNSt7__cxx1112basic_stringIcSt11char_traitsIcESaIcEED1Ev
	.loc 16 33 55 discriminator 7
	leaq	832(%rbp), %rax
	movq	%rax, %rcx
	call	_ZNSt7__cxx1112basic_stringIcSt11char_traitsIcESaIcEED1Ev
	.loc 16 32 32 discriminator 7
	addl	$400, 2652(%rbp)
	.loc 16 32 5 discriminator 7
	jmp	.L103
.L102:
.LBE17:
	.loc 16 34 5
	movq	2704(%rbp), %rax
	movq	8(%rax), %rsi
	movq	2704(%rbp), %rax
	movq	8(%rax), %rax
	.loc 16 34 33
	movq	(%rax), %rax
	addq	$1928, %rax
	movq	(%rax), %rbx
	.loc 16 34 28
	leaq	864(%rbp), %rax
	leaq	.LC13(%rip), %rdx
	movq	%rax, %rcx
.LEHB31:
	call	_ZN8wxStringC1EPKc
.LEHE31:
	.loc 16 34 28 is_stmt 0 discriminator 1
	leaq	864(%rbp), %rax
	movq	%rax, %rdx
	movq	%rsi, %rcx
.LEHB32:
	call	*%rbx
.LVL7:
.LEHE32:
	.loc 16 34 28 discriminator 3
	leaq	864(%rbp), %rax
	movq	%rax, %rcx
	call	_ZN8wxStringD1Ev
.LBB18:
	.loc 16 35 13 is_stmt 1 discriminator 3
	movl	$6400, 2648(%rbp)
.L105:
	.loc 16 35 25 discriminator 2
	cmpl	$3199, 2648(%rbp)
	jle	.L104
	.loc 16 36 9
	movq	2704(%rbp), %rax
	movq	8(%rax), %rsi
	movq	2704(%rbp), %rax
	movq	8(%rax), %rax
	.loc 16 36 58
	movq	(%rax), %rax
	addq	$1928, %rax
	movq	(%rax), %rbx
	.loc 16 36 55
	leaq	992(%rbp), %rax
	movl	2648(%rbp), %edx
	movq	%rax, %rcx
.LEHB33:
	call	_ZNSt7__cxx119to_stringEi
.LEHE33:
	.loc 16 36 39 discriminator 1
	leaq	960(%rbp), %rax
	leaq	992(%rbp), %rdx
	movq	%rdx, %r8
	leaq	.LC12(%rip), %rdx
	movq	%rax, %rcx
.LEHB34:
	call	_ZStplIcSt11char_traitsIcESaIcEENSt7__cxx1112basic_stringIT_T0_T1_EEPKS5_OS8_
.LEHE34:
	.loc 16 36 32 discriminator 3
	leaq	960(%rbp), %rdx
	leaq	912(%rbp), %rax
	movq	%rax, %rcx
.LEHB35:
	call	_ZN8wxStringC1ERKNSt7__cxx1112basic_stringIcSt11char_traitsIcESaIcEEE
.LEHE35:
	.loc 16 36 32 is_stmt 0 discriminator 5
	leaq	912(%rbp), %rax
	movq	%rax, %rdx
	movq	%rsi, %rcx
.LEHB36:
	call	*%rbx
.LVL8:
.LEHE36:
	.loc 16 36 32 discriminator 7
	leaq	912(%rbp), %rax
	movq	%rax, %rcx
	call	_ZN8wxStringD1Ev
	.loc 16 36 39 is_stmt 1 discriminator 7
	leaq	960(%rbp), %rax
	movq	%rax, %rcx
	call	_ZNSt7__cxx1112basic_stringIcSt11char_traitsIcESaIcEED1Ev
	.loc 16 36 55 discriminator 7
	leaq	992(%rbp), %rax
	movq	%rax, %rcx
	call	_ZNSt7__cxx1112basic_stringIcSt11char_traitsIcESaIcEED1Ev
	.loc 16 35 36 discriminator 7
	subl	$400, 2648(%rbp)
	.loc 16 35 5 discriminator 7
	jmp	.L105
.L104:
.LBE18:
	.loc 16 37 5
	movq	2704(%rbp), %rax
	movq	8(%rax), %rsi
	movq	2704(%rbp), %rax
	movq	8(%rax), %rax
	.loc 16 37 35
	movq	(%rax), %rax
	addq	$1928, %rax
	movq	(%rax), %rbx
	.loc 16 37 28
	leaq	1024(%rbp), %rax
	leaq	.LC7(%rip), %rdx
	movq	%rax, %rcx
.LEHB37:
	call	_ZN8wxStringC1EPKc
.LEHE37:
	.loc 16 37 28 is_stmt 0 discriminator 1
	leaq	1024(%rbp), %rax
	movq	%rax, %rdx
	movq	%rsi, %rcx
.LEHB38:
	call	*%rbx
.LVL9:
.LEHE38:
	.loc 16 37 28 discriminator 3
	leaq	1024(%rbp), %rax
	movq	%rax, %rcx
	call	_ZN8wxStringD1Ev
	.loc 16 41 9 is_stmt 1 discriminator 3
	movl	$100, 2644(%rbp)
	.loc 16 42 5 discriminator 3
	cmpl	$0, 2728(%rbp)
	jne	.L106
	.loc 16 43 45
	leaq	112(%rbp), %rax
	movl	$1, %r9d
	pxor	%xmm2, %xmm2
	pxor	%xmm1, %xmm1
	movq	%rax, %rcx
.LEHB39:
	call	_ZN16ElementosDisparo19setElementosDisparoEddb
	jmp	.L107
.L106:
	.loc 16 46 45
	movsd	.LC14(%rip), %xmm0
	leaq	112(%rbp), %rax
	movl	$1, %r9d
	pxor	%xmm2, %xmm2
	movapd	%xmm0, %xmm1
	movq	%rax, %rcx
	call	_ZN16ElementosDisparo19setElementosDisparoEddb
.LEHE39:
	.loc 16 47 19
	negl	2644(%rbp)
.L107:
	.loc 16 53 32
	movq	2712(%rbp), %rax
	movl	$0, %edx
	movq	%rax, %rcx
	call	_ZN21CalculadorAtmosferico15setChecarLimiteEb
	.loc 16 54 53
	movq	.refptr.config(%rip), %rax
	movq	(%rax), %rax
	movq	%rax, %rcx
	call	_ZN12Configuracao14isUsarCoriolisEv
	movb	%al, 2615(%rbp)
	.loc 16 55 52
	movq	.refptr.config(%rip), %rax
	movq	(%rax), %rax
	movq	%rax, %rcx
	call	_ZN12Configuracao13getLancamentoEv
	movq	%xmm0, %rax
	movq	%rax, 2600(%rbp)
	.loc 16 56 48
	movq	.refptr.config(%rip), %rax
	movq	(%rax), %rax
	movq	%rax, %rcx
	call	_ZN12Configuracao11getLatitudeEv
	movq	%xmm0, %rax
	movq	%rax, 2592(%rbp)
.LBB19:
	.loc 16 59 17
	movl	2620(%rbp), %eax
	movl	%eax, 2640(%rbp)
.L118:
	.loc 16 59 64 discriminator 1
	movl	2640(%rbp), %eax
	cmpl	2616(%rbp), %eax
	jg	.L108
	.loc 16 59 45 discriminator 3
	movl	2620(%rbp), %eax
	cmpl	2616(%rbp), %eax
	jl	.L109
.L108:
	.loc 16 59 64 discriminator 4
	movl	2640(%rbp), %eax
	cmpl	2616(%rbp), %eax
	jle	.L110
	.loc 16 59 84 discriminator 5
	movl	2620(%rbp), %eax
	cmpl	2616(%rbp), %eax
	jle	.L110
.L109:
.LBB20:
	.loc 16 61 34
	movq	2712(%rbp), %rax
	pxor	%xmm1, %xmm1
	movq	%rax, %rcx
	call	_ZN21CalculadorAtmosferico13setLancamentoEd
	.loc 16 62 32
	movq	2712(%rbp), %rbx
	.loc 16 62 57
	movq	.refptr.config(%rip), %rax
	movq	(%rax), %rax
	movq	%rax, %rcx
	call	_ZN12Configuracao11getLatitudeEv
	movapd	%xmm0, %xmm1
	.loc 16 62 32
	movq	.LC8(%rip), %xmm0
	andpd	%xmm1, %xmm0
	movapd	%xmm0, %xmm1
	movq	%rbx, %rcx
	call	_ZN10Calculador11setLatitudeEd
	.loc 16 63 32
	movq	2712(%rbp), %rax
	movl	$0, %edx
	movq	%rax, %rcx
	call	_ZN21CalculadorAtmosferico11setCoriolisEb
	.loc 16 66 152
	movq	2712(%rbp), %rax
	movq	(%rax), %rax
	addq	$8, %rax
	movq	(%rax), %rbx
	.loc 16 66 58
	leaq	112(%rbp), %rax
	movq	%rax, %rcx
	call	_ZN16ElementosDisparo11getElevacaoEv
	movq	%xmm0, %rcx
	cvtsi2sd	2640(%rbp), %xmm1
	leaq	1072(%rbp), %rax
	movsd	2720(%rbp), %xmm2
	movq	2712(%rbp), %rdx
	movl	$1, 72(%rsp)
	movq	%rcx, 64(%rsp)
	movsd	2744(%rbp), %xmm0
	movsd	%xmm0, 56(%rsp)
	movsd	2736(%rbp), %xmm0
	movsd	%xmm0, 48(%rsp)
	movl	2728(%rbp), %ecx
	movl	%ecx, 40(%rsp)
	pxor	%xmm0, %xmm0
	movsd	%xmm0, 32(%rsp)
	movapd	%xmm2, %xmm3
	movapd	%xmm1, %xmm2
	movq	%rax, %rcx
.LEHB40:
	call	*%rbx
.LVL10:
.LEHE40:
	.loc 16 66 152 discriminator 1
	leaq	1072(%rbp), %rdx
	leaq	112(%rbp), %rax
	movq	%rax, %rcx
	call	_ZN16ElementosDisparoaSEOS_
	.loc 16 66 58 discriminator 1
	leaq	1072(%rbp), %rax
	movq	%rax, %rcx
	call	_ZN16ElementosDisparoD1Ev
	.loc 16 79 63 discriminator 1
	movq	2712(%rbp), %rbx
	leaq	112(%rbp), %rax
	movq	%rax, %rcx
	call	_ZN16ElementosDisparo11getElevacaoEv
	movq	%xmm0, %rdx
	leaq	1152(%rbp), %rax
	movsd	2720(%rbp), %xmm1
	movl	$1, 48(%rsp)
	movsd	2736(%rbp), %xmm0
	movsd	%xmm0, 40(%rsp)
	pxor	%xmm0, %xmm0
	movsd	%xmm0, 32(%rsp)
	movapd	%xmm1, %xmm3
	movq	%rdx, %xmm2
	movq	%rbx, %rdx
	movq	%rax, %rcx
.LEHB41:
	call	_ZN10Calculador27solucaoDiretaUltimoElementoEdddd4RAMO
	.loc 16 79 118 discriminator 1
	leaq	1152(%rbp), %rdx
	leaq	144(%rbp), %rax
	movq	%rax, %rcx
	call	_ZN12ElementosVooaSEOS_
	.loc 16 79 63 discriminator 1
	leaq	1152(%rbp), %rax
	movq	%rax, %rcx
	call	_ZN12ElementosVooD1Ev
	.loc 16 81 9 discriminator 1
	movq	2704(%rbp), %rax
	movq	8(%rax), %rsi
	movq	2704(%rbp), %rax
	movq	8(%rax), %rax
	.loc 16 81 63 discriminator 1
	movq	(%rax), %rax
	addq	$1928, %rax
	movq	(%rax), %rbx
	.loc 16 81 47 discriminator 1
	leaq	1328(%rbp), %rax
	movl	2640(%rbp), %edx
	movq	%rax, %rcx
	call	_ZNSt7__cxx119to_stringEi
.LEHE41:
	.loc 16 81 57 discriminator 1
	leaq	1296(%rbp), %rax
	leaq	1328(%rbp), %rdx
	leaq	.LC12(%rip), %r8
	movq	%rax, %rcx
.LEHB42:
	call	_ZStplIcSt11char_traitsIcESaIcEENSt7__cxx1112basic_stringIT_T0_T1_EEOS8_PKS5_
.LEHE42:
	.loc 16 81 32 discriminator 3
	leaq	1296(%rbp), %rdx
	leaq	1248(%rbp), %rax
	movq	%rax, %rcx
.LEHB43:
	call	_ZN8wxStringC1ERKNSt7__cxx1112basic_stringIcSt11char_traitsIcESaIcEEE
.LEHE43:
	.loc 16 81 32 is_stmt 0 discriminator 5
	leaq	1248(%rbp), %rax
	movq	%rax, %rdx
	movq	%rsi, %rcx
.LEHB44:
	call	*%rbx
.LVL11:
.LEHE44:
	.loc 16 81 32 discriminator 7
	leaq	1248(%rbp), %rax
	movq	%rax, %rcx
	call	_ZN8wxStringD1Ev
	.loc 16 81 57 is_stmt 1 discriminator 7
	leaq	1296(%rbp), %rax
	movq	%rax, %rcx
	call	_ZNSt7__cxx1112basic_stringIcSt11char_traitsIcESaIcEED1Ev
	.loc 16 81 47 discriminator 7
	leaq	1328(%rbp), %rax
	movq	%rax, %rcx
	call	_ZNSt7__cxx1112basic_stringIcSt11char_traitsIcESaIcEED1Ev
	.loc 16 82 32 discriminator 7
	movq	2712(%rbp), %rax
	movl	$1, %edx
	movq	%rax, %rcx
	call	_ZN21CalculadorAtmosferico11setCoriolisEb
	.loc 16 83 32 discriminator 7
	movq	2712(%rbp), %rbx
	.loc 16 83 57 discriminator 7
	movq	.refptr.config(%rip), %rax
	movq	(%rax), %rax
	movq	%rax, %rcx
	call	_ZN12Configuracao11getLatitudeEv
	movapd	%xmm0, %xmm1
	.loc 16 83 32 discriminator 7
	movq	.LC8(%rip), %xmm0
	andpd	%xmm1, %xmm0
	movapd	%xmm0, %xmm1
	movq	%rbx, %rcx
	call	_ZN10Calculador11setLatitudeEd
.LBB21:
	.loc 16 84 17 discriminator 7
	movl	$0, 2636(%rbp)
.L116:
	.loc 16 84 32 discriminator 2
	cmpl	$3200, 2636(%rbp)
	jg	.L111
.LBB22:
	.loc 16 86 31
	leaq	1374(%rbp), %rax
	movq	%rax, %rcx
	call	_ZNSaIcEC1Ev
	leaq	1374(%rbp), %rdx
	leaq	-48(%rbp), %rax
	movq	%rdx, %r8
	leaq	.LC15(%rip), %rdx
	movq	%rax, %rcx
.LEHB45:
	call	_ZNSt7__cxx1112basic_stringIcSt11char_traitsIcESaIcEEC1EPKcRKS3_
.LEHE45:
	leaq	1374(%rbp), %rax
	movq	%rax, %rcx
	call	_ZNSaIcED1Ev
	.loc 16 86 46 discriminator 1
	leaq	1375(%rbp), %rax
	movq	%rax, %rcx
	call	_ZNSaIcEC1Ev
	leaq	1375(%rbp), %rdx
	leaq	-16(%rbp), %rax
	movq	%rdx, %r8
	leaq	.LC15(%rip), %rdx
	movq	%rax, %rcx
.LEHB46:
	call	_ZNSt7__cxx1112basic_stringIcSt11char_traitsIcESaIcEEC1EPKcRKS3_
.LEHE46:
	leaq	1375(%rbp), %rax
	movq	%rax, %rcx
	call	_ZNSaIcED1Ev
	.loc 16 87 38
	cvtsi2sd	2636(%rbp), %xmm0
	movq	2712(%rbp), %rax
	movapd	%xmm0, %xmm1
	movq	%rax, %rcx
	call	_ZN21CalculadorAtmosferico13setLancamentoEd
	.loc 16 88 143
	movq	2712(%rbp), %rbx
	leaq	112(%rbp), %rax
	movq	%rax, %rcx
	call	_ZN16ElementosDisparo11getElevacaoEv
	movq	%xmm0, %rdx
	leaq	16(%rbp), %rax
	movsd	2720(%rbp), %xmm1
	movl	$1, 48(%rsp)
	movsd	2736(%rbp), %xmm0
	movsd	%xmm0, 40(%rsp)
	pxor	%xmm0, %xmm0
	movsd	%xmm0, 32(%rsp)
	movapd	%xmm1, %xmm3
	movq	%rdx, %xmm2
	movq	%rbx, %rdx
	movq	%rax, %rcx
.LEHB47:
	call	_ZN10Calculador27solucaoDiretaUltimoElementoEdddd4RAMO
.LEHE47:
	.loc 16 89 42
	movsd	176(%rbp), %xmm0
	.loc 16 89 68
	movsd	48(%rbp), %xmm1
	.loc 16 89 45
	subsd	%xmm1, %xmm0
	.loc 16 89 71
	cvtsi2sd	2640(%rbp), %xmm1
	.loc 16 89 20
	divsd	%xmm1, %xmm0
	movsd	%xmm0, 2584(%rbp)
	.loc 16 90 56
	movq	2584(%rbp), %rax
	movq	%rax, %xmm0
	call	atan
	movapd	%xmm0, %xmm1
	.loc 16 90 19
	movsd	.LC16(%rip), %xmm0
	mulsd	%xmm1, %xmm0
	movsd	%xmm0, 2584(%rbp)
	.loc 16 91 13
	movsd	2584(%rbp), %xmm0
	pxor	%xmm1, %xmm1
	comisd	%xmm1, %xmm0
	jbe	.L240
	.loc 16 93 28
	leaq	-48(%rbp), %rax
	leaq	.LC17(%rip), %rdx
	movq	%rax, %rcx
.LEHB48:
	call	_ZNSt7__cxx1112basic_stringIcSt11char_traitsIcESaIcEEaSEPKc
	.loc 16 94 28
	leaq	-16(%rbp), %rax
	leaq	.LC18(%rip), %rdx
	movq	%rax, %rcx
	call	_ZNSt7__cxx1112basic_stringIcSt11char_traitsIcESaIcEEaSEPKc
	jmp	.L114
.L240:
	.loc 16 98 17
	pxor	%xmm0, %xmm0
	comisd	2584(%rbp), %xmm0
	jbe	.L114
	.loc 16 100 32
	leaq	-48(%rbp), %rax
	leaq	.LC18(%rip), %rdx
	movq	%rax, %rcx
	call	_ZNSt7__cxx1112basic_stringIcSt11char_traitsIcESaIcEEaSEPKc
	.loc 16 101 32
	leaq	-16(%rbp), %rax
	leaq	.LC17(%rip), %rdx
	movq	%rax, %rcx
	call	_ZNSt7__cxx1112basic_stringIcSt11char_traitsIcESaIcEEaSEPKc
.L114:
	.loc 16 106 13
	movq	2704(%rbp), %rax
	movq	8(%rax), %rsi
	movq	2704(%rbp), %rax
	movq	8(%rax), %rax
	.loc 16 106 102
	movq	(%rax), %rax
	addq	$1928, %rax
	movq	(%rax), %rbx
	.loc 16 106 85
	leaq	-16(%rbp), %rdx
	leaq	1472(%rbp), %rax
	movq	%rax, %rcx
	call	_ZN8wxStringC1ERKNSt7__cxx1112basic_stringIcSt11char_traitsIcESaIcEEE
.LEHE48:
	.loc 16 106 68 discriminator 1
	movsd	2584(%rbp), %xmm0
	movq	.LC8(%rip), %xmm1
	andpd	%xmm1, %xmm0
	leaq	1568(%rbp), %rax
	movl	$1, %r8d
	movapd	%xmm0, %xmm1
	movq	%rax, %rcx
.LEHB49:
	call	_ZN8wxString10FromDoubleEdi
.LEHE49:
	.loc 16 106 46 discriminator 3
	leaq	-48(%rbp), %rdx
	leaq	1616(%rbp), %rax
	movq	%rax, %rcx
.LEHB50:
	call	_ZN8wxStringC1ERKNSt7__cxx1112basic_stringIcSt11char_traitsIcESaIcEEE
.LEHE50:
	.loc 16 106 46 is_stmt 0 discriminator 5
	leaq	1520(%rbp), %rax
	leaq	1568(%rbp), %rcx
	leaq	1616(%rbp), %rdx
	movq	%rcx, %r8
	movq	%rax, %rcx
.LEHB51:
	call	_ZplRK8wxStringS1_
.LEHE51:
	.loc 16 106 85 is_stmt 1 discriminator 7
	leaq	1424(%rbp), %rax
	leaq	1472(%rbp), %rcx
	leaq	1520(%rbp), %rdx
	movq	%rcx, %r8
	movq	%rax, %rcx
.LEHB52:
	call	_ZplRK8wxStringS1_
.LEHE52:
	.loc 16 106 96 discriminator 9
	leaq	1376(%rbp), %rax
	leaq	1424(%rbp), %rdx
	leaq	.LC12(%rip), %r8
	movq	%rax, %rcx
.LEHB53:
	call	_ZplRK8wxStringPKc
.LEHE53:
	.loc 16 106 36 discriminator 11
	leaq	1376(%rbp), %rax
	movq	%rax, %rdx
	movq	%rsi, %rcx
.LEHB54:
	call	*%rbx
.LVL12:
.LEHE54:
	.loc 16 106 96 discriminator 13
	leaq	1376(%rbp), %rax
	movq	%rax, %rcx
	call	_ZN8wxStringD1Ev
	.loc 16 106 85 discriminator 13
	leaq	1424(%rbp), %rax
	movq	%rax, %rcx
	call	_ZN8wxStringD1Ev
	.loc 16 106 46 discriminator 13
	leaq	1520(%rbp), %rax
	movq	%rax, %rcx
	call	_ZN8wxStringD1Ev
	leaq	1616(%rbp), %rax
	movq	%rax, %rcx
	call	_ZN8wxStringD1Ev
	.loc 16 106 68 discriminator 13
	leaq	1568(%rbp), %rax
	movq	%rax, %rcx
	call	_ZN8wxStringD1Ev
	.loc 16 106 85 discriminator 13
	leaq	1472(%rbp), %rax
	movq	%rax, %rcx
	call	_ZN8wxStringD1Ev
	.loc 16 88 143 discriminator 13
	leaq	16(%rbp), %rax
	movq	%rax, %rcx
	call	_ZN12ElementosVooD1Ev
	.loc 16 86 46 discriminator 13
	leaq	-16(%rbp), %rax
	movq	%rax, %rcx
	call	_ZNSt7__cxx1112basic_stringIcSt11char_traitsIcESaIcEED1Ev
	.loc 16 86 31 discriminator 13
	leaq	-48(%rbp), %rax
	movq	%rax, %rcx
	call	_ZNSt7__cxx1112basic_stringIcSt11char_traitsIcESaIcEED1Ev
.LBE22:
	.loc 16 84 46 discriminator 13
	addl	$400, 2636(%rbp)
	.loc 16 84 9 discriminator 13
	jmp	.L116
.L111:
.LBE21:
	.loc 16 108 9
	movq	2704(%rbp), %rax
	movq	8(%rax), %rsi
	movq	2704(%rbp), %rax
	movq	8(%rax), %rax
	.loc 16 108 37
	movq	(%rax), %rax
	addq	$1928, %rax
	movq	(%rax), %rbx
	.loc 16 108 32
	leaq	1664(%rbp), %rax
	leaq	.LC13(%rip), %rdx
	movq	%rax, %rcx
.LEHB55:
	call	_ZN8wxStringC1EPKc
.LEHE55:
	.loc 16 108 32 is_stmt 0 discriminator 1
	leaq	1664(%rbp), %rax
	movq	%rax, %rdx
	movq	%rsi, %rcx
.LEHB56:
	call	*%rbx
.LVL13:
.LEHE56:
	.loc 16 108 32 discriminator 3
	leaq	1664(%rbp), %rax
	movq	%rax, %rcx
	call	_ZN8wxStringD1Ev
.LEHB57:
	.loc 16 110 16 is_stmt 1 discriminator 3
	call	_Z7wxYieldv
	.loc 16 112 12
	movq	2704(%rbp), %rax
	movzbl	16(%rax), %eax
	.loc 16 112 9
	testb	%al, %al
	jne	.L242
.LBE20:
	.loc 16 59 113 discriminator 6
	movl	2644(%rbp), %eax
	addl	%eax, 2640(%rbp)
	.loc 16 59 5 discriminator 6
	jmp	.L118
.L242:
.LBB27:
	.loc 16 114 13
	nop
.L110:
.LBE27:
.LBE19:
	.loc 16 117 30
	movsd	2600(%rbp), %xmm0
	movq	2712(%rbp), %rax
	movapd	%xmm0, %xmm1
	movq	%rax, %rcx
	call	_ZN21CalculadorAtmosferico13setLancamentoEd
	.loc 16 118 28
	movq	2712(%rbp), %rax
	movsd	2592(%rbp), %xmm0
	movapd	%xmm0, %xmm1
	movq	%rax, %rcx
	call	_ZN10Calculador11setLatitudeEd
	.loc 16 119 28
	movzbl	2615(%rbp), %eax
	movq	2712(%rbp), %rcx
	movl	%eax, %edx
	call	_ZN21CalculadorAtmosferico11setCoriolisEb
	.loc 16 120 32
	movq	2712(%rbp), %rax
	movl	$1, %edx
	movq	%rax, %rcx
	call	_ZN21CalculadorAtmosferico15setChecarLimiteEb
	.loc 16 123 9
	movq	2704(%rbp), %rax
	movq	8(%rax), %rsi
	movq	2704(%rbp), %rax
	movq	8(%rax), %rax
	.loc 16 123 37
	movq	(%rax), %rax
	addq	$1928, %rax
	movq	(%rax), %rbx
	.loc 16 123 32
	leaq	1712(%rbp), %rax
	leaq	.LC13(%rip), %rdx
	movq	%rax, %rcx
	call	_ZN8wxStringC1EPKc
.LEHE57:
	.loc 16 123 32 is_stmt 0 discriminator 1
	leaq	1712(%rbp), %rax
	movq	%rax, %rdx
	movq	%rsi, %rcx
.LEHB58:
	call	*%rbx
.LVL14:
.LEHE58:
	.loc 16 123 32 discriminator 3
	leaq	1712(%rbp), %rax
	movq	%rax, %rcx
	call	_ZN8wxStringD1Ev
.LBB29:
	.loc 16 124 13 is_stmt 1 discriminator 3
	movl	$3200, 2632(%rbp)
.L120:
	.loc 16 124 24 discriminator 2
	cmpl	$0, 2632(%rbp)
	js	.L119
	.loc 16 125 9
	movq	2704(%rbp), %rax
	movq	8(%rax), %rsi
	movq	2704(%rbp), %rax
	movq	8(%rax), %rax
	.loc 16 125 59
	movq	(%rax), %rax
	addq	$1928, %rax
	movq	(%rax), %rbx
	.loc 16 125 55
	leaq	1840(%rbp), %rax
	movl	2632(%rbp), %edx
	movq	%rax, %rcx
.LEHB59:
	call	_ZNSt7__cxx119to_stringEi
.LEHE59:
	.loc 16 125 39 discriminator 1
	leaq	1808(%rbp), %rax
	leaq	1840(%rbp), %rdx
	movq	%rdx, %r8
	leaq	.LC12(%rip), %rdx
	movq	%rax, %rcx
.LEHB60:
	call	_ZStplIcSt11char_traitsIcESaIcEENSt7__cxx1112basic_stringIT_T0_T1_EEPKS5_OS8_
.LEHE60:
	.loc 16 125 32 discriminator 3
	leaq	1808(%rbp), %rdx
	leaq	1760(%rbp), %rax
	movq	%rax, %rcx
.LEHB61:
	call	_ZN8wxStringC1ERKNSt7__cxx1112basic_stringIcSt11char_traitsIcESaIcEEE
.LEHE61:
	.loc 16 125 32 is_stmt 0 discriminator 5
	leaq	1760(%rbp), %rax
	movq	%rax, %rdx
	movq	%rsi, %rcx
.LEHB62:
	call	*%rbx
.LVL15:
.LEHE62:
	.loc 16 125 32 discriminator 7
	leaq	1760(%rbp), %rax
	movq	%rax, %rcx
	call	_ZN8wxStringD1Ev
	.loc 16 125 39 is_stmt 1 discriminator 7
	leaq	1808(%rbp), %rax
	movq	%rax, %rcx
	call	_ZNSt7__cxx1112basic_stringIcSt11char_traitsIcESaIcEED1Ev
	.loc 16 125 55 discriminator 7
	leaq	1840(%rbp), %rax
	movq	%rax, %rcx
	call	_ZNSt7__cxx1112basic_stringIcSt11char_traitsIcESaIcEED1Ev
	.loc 16 124 32 discriminator 7
	subl	$400, 2632(%rbp)
	.loc 16 124 5 discriminator 7
	jmp	.L120
.L119:
.LBE29:
	.loc 16 126 5
	movq	2704(%rbp), %rax
	movq	8(%rax), %rsi
	movq	2704(%rbp), %rax
	movq	8(%rax), %rax
	.loc 16 126 33
	movq	(%rax), %rax
	addq	$1928, %rax
	movq	(%rax), %rbx
	.loc 16 126 28
	leaq	1872(%rbp), %rax
	leaq	.LC13(%rip), %rdx
	movq	%rax, %rcx
.LEHB63:
	call	_ZN8wxStringC1EPKc
.LEHE63:
	.loc 16 126 28 is_stmt 0 discriminator 1
	leaq	1872(%rbp), %rax
	movq	%rax, %rdx
	movq	%rsi, %rcx
.LEHB64:
	call	*%rbx
.LVL16:
.LEHE64:
	.loc 16 126 28 discriminator 3
	leaq	1872(%rbp), %rax
	movq	%rax, %rcx
	call	_ZN8wxStringD1Ev
.LBB30:
	.loc 16 127 13 is_stmt 1 discriminator 3
	movl	$3200, 2628(%rbp)
.L122:
	.loc 16 127 25 discriminator 2
	cmpl	$6400, 2628(%rbp)
	jg	.L121
	.loc 16 128 9
	movq	2704(%rbp), %rax
	movq	8(%rax), %rsi
	movq	2704(%rbp), %rax
	movq	8(%rax), %rax
	.loc 16 128 58
	movq	(%rax), %rax
	addq	$1928, %rax
	movq	(%rax), %rbx
	.loc 16 128 55
	leaq	2000(%rbp), %rax
	movl	2628(%rbp), %edx
	movq	%rax, %rcx
.LEHB65:
	call	_ZNSt7__cxx119to_stringEi
.LEHE65:
	.loc 16 128 39 discriminator 1
	leaq	1968(%rbp), %rax
	leaq	2000(%rbp), %rdx
	movq	%rdx, %r8
	leaq	.LC12(%rip), %rdx
	movq	%rax, %rcx
.LEHB66:
	call	_ZStplIcSt11char_traitsIcESaIcEENSt7__cxx1112basic_stringIT_T0_T1_EEPKS5_OS8_
.LEHE66:
	.loc 16 128 32 discriminator 3
	leaq	1968(%rbp), %rdx
	leaq	1920(%rbp), %rax
	movq	%rax, %rcx
.LEHB67:
	call	_ZN8wxStringC1ERKNSt7__cxx1112basic_stringIcSt11char_traitsIcESaIcEEE
.LEHE67:
	.loc 16 128 32 is_stmt 0 discriminator 5
	leaq	1920(%rbp), %rax
	movq	%rax, %rdx
	movq	%rsi, %rcx
.LEHB68:
	call	*%rbx
.LVL17:
.LEHE68:
	.loc 16 128 32 discriminator 7
	leaq	1920(%rbp), %rax
	movq	%rax, %rcx
	call	_ZN8wxStringD1Ev
	.loc 16 128 39 is_stmt 1 discriminator 7
	leaq	1968(%rbp), %rax
	movq	%rax, %rcx
	call	_ZNSt7__cxx1112basic_stringIcSt11char_traitsIcESaIcEED1Ev
	.loc 16 128 55 discriminator 7
	leaq	2000(%rbp), %rax
	movq	%rax, %rcx
	call	_ZNSt7__cxx1112basic_stringIcSt11char_traitsIcESaIcEED1Ev
	.loc 16 127 36 discriminator 7
	addl	$400, 2628(%rbp)
	.loc 16 127 5 discriminator 7
	jmp	.L122
.L121:
.LBE30:
	.loc 16 129 5
	movq	2704(%rbp), %rax
	movq	8(%rax), %rsi
	movq	2704(%rbp), %rax
	movq	8(%rax), %rax
	.loc 16 129 35
	movq	(%rax), %rax
	addq	$1928, %rax
	movq	(%rax), %rbx
	.loc 16 129 28
	leaq	2032(%rbp), %rax
	leaq	.LC7(%rip), %rdx
	movq	%rax, %rcx
.LEHB69:
	call	_ZN8wxStringC1EPKc
.LEHE69:
	.loc 16 129 28 is_stmt 0 discriminator 1
	leaq	2032(%rbp), %rax
	movq	%rax, %rdx
	movq	%rsi, %rcx
.LEHB70:
	call	*%rbx
.LVL18:
.LEHE70:
	.loc 16 129 28 discriminator 3
	leaq	2032(%rbp), %rax
	movq	%rax, %rcx
	call	_ZN8wxStringD1Ev
	.loc 16 130 5 is_stmt 1 discriminator 3
	movq	2704(%rbp), %rax
	movq	8(%rax), %rsi
	movq	2704(%rbp), %rax
	movq	8(%rax), %rax
	.loc 16 130 66 discriminator 3
	movq	(%rax), %rax
	addq	$1928, %rax
	movq	(%rax), %rbx
	.loc 16 130 28 discriminator 3
	leaq	2080(%rbp), %rax
	leaq	.LC19(%rip), %rdx
	movq	%rax, %rcx
.LEHB71:
	call	_ZN8wxStringC1EPKc
.LEHE71:
	.loc 16 130 28 is_stmt 0 discriminator 1
	leaq	2080(%rbp), %rax
	movq	%rax, %rdx
	movq	%rsi, %rcx
.LEHB72:
	call	*%rbx
.LVL19:
.LEHE72:
	.loc 16 130 28 discriminator 3
	leaq	2080(%rbp), %rax
	movq	%rax, %rcx
	call	_ZN8wxStringD1Ev
	.loc 16 131 5 is_stmt 1 discriminator 3
	movq	2704(%rbp), %rax
	movq	8(%rax), %rsi
	movq	2704(%rbp), %rax
	movq	8(%rax), %rax
	.loc 16 131 123 discriminator 3
	movq	(%rax), %rax
	addq	$1928, %rax
	movq	(%rax), %rbx
	.loc 16 131 85 discriminator 3
	movq	.refptr.config(%rip), %rax
	movq	(%rax), %rax
	movq	%rax, %rcx
	call	_ZN12Configuracao11getLatitudeEv
	movapd	%xmm0, %xmm1
	.loc 16 131 60 discriminator 3
	movq	.LC8(%rip), %xmm0
	andpd	%xmm1, %xmm0
	leaq	2224(%rbp), %rax
	movl	$1, %r8d
	movapd	%xmm0, %xmm1
	movq	%rax, %rcx
.LEHB73:
	call	_ZN8wxString10FromDoubleEdi
.LEHE73:
	.loc 16 131 38 discriminator 1
	leaq	2176(%rbp), %rax
	leaq	2224(%rbp), %rdx
	movq	%rdx, %r8
	leaq	.LC9(%rip), %rdx
	movq	%rax, %rcx
.LEHB74:
	call	_ZplPKcRK8wxString
.LEHE74:
	.loc 16 131 93 discriminator 3
	leaq	2128(%rbp), %rax
	leaq	2176(%rbp), %rdx
	leaq	.LC20(%rip), %r8
	movq	%rax, %rcx
.LEHB75:
	call	_ZplRK8wxStringPKc
.LEHE75:
	.loc 16 131 28 discriminator 5
	leaq	2128(%rbp), %rax
	movq	%rax, %rdx
	movq	%rsi, %rcx
.LEHB76:
	call	*%rbx
.LVL20:
.LEHE76:
	.loc 16 131 93 discriminator 7
	leaq	2128(%rbp), %rax
	movq	%rax, %rcx
	call	_ZN8wxStringD1Ev
	.loc 16 131 38 discriminator 7
	leaq	2176(%rbp), %rax
	movq	%rax, %rcx
	call	_ZN8wxStringD1Ev
	.loc 16 131 60 discriminator 7
	leaq	2224(%rbp), %rax
	movq	%rax, %rcx
	call	_ZN8wxStringD1Ev
	.loc 16 133 5 discriminator 7
	movq	2704(%rbp), %rax
	movq	8(%rax), %rsi
	movq	2704(%rbp), %rax
	movq	8(%rax), %rax
	.loc 16 133 95 discriminator 7
	movq	(%rax), %rax
	addq	$1928, %rax
	movq	(%rax), %rbx
	.loc 16 133 28 discriminator 7
	leaq	2272(%rbp), %rax
	leaq	.LC21(%rip), %rdx
	movq	%rax, %rcx
.LEHB77:
	call	_ZN8wxStringC1EPKc
.LEHE77:
	.loc 16 133 28 is_stmt 0 discriminator 1
	leaq	2272(%rbp), %rax
	movq	%rax, %rdx
	movq	%rsi, %rcx
.LEHB78:
	call	*%rbx
.LVL21:
.LEHE78:
	.loc 16 133 28 discriminator 3
	leaq	2272(%rbp), %rax
	movq	%rax, %rcx
	call	_ZN8wxStringD1Ev
	.loc 16 134 5 is_stmt 1 discriminator 3
	movq	2704(%rbp), %rax
	movq	8(%rax), %rsi
	movq	2704(%rbp), %rax
	movq	8(%rax), %rax
	.loc 16 134 92 discriminator 3
	movq	(%rax), %rax
	addq	$1928, %rax
	movq	(%rax), %rbx
	.loc 16 134 28 discriminator 3
	leaq	2320(%rbp), %rax
	leaq	.LC22(%rip), %rdx
	movq	%rax, %rcx
.LEHB79:
	call	_ZN8wxStringC1EPKc
.LEHE79:
	.loc 16 134 28 is_stmt 0 discriminator 1
	leaq	2320(%rbp), %rax
	movq	%rax, %rdx
	movq	%rsi, %rcx
.LEHB80:
	call	*%rbx
.LVL22:
.LEHE80:
	.loc 16 134 28 discriminator 3
	leaq	2320(%rbp), %rax
	movq	%rax, %rcx
	call	_ZN8wxStringD1Ev
	.loc 16 135 5 is_stmt 1 discriminator 3
	movq	2704(%rbp), %rax
	movq	8(%rax), %rsi
	movq	2704(%rbp), %rax
	movq	8(%rax), %rax
	.loc 16 135 85 discriminator 3
	movq	(%rax), %rax
	addq	$1928, %rax
	movq	(%rax), %rbx
	.loc 16 135 28 discriminator 3
	leaq	2368(%rbp), %rax
	leaq	.LC23(%rip), %rdx
	movq	%rax, %rcx
.LEHB81:
	call	_ZN8wxStringC1EPKc
.LEHE81:
	.loc 16 135 28 is_stmt 0 discriminator 1
	leaq	2368(%rbp), %rax
	movq	%rax, %rdx
	movq	%rsi, %rcx
.LEHB82:
	call	*%rbx
.LVL23:
.LEHE82:
	.loc 16 135 28 discriminator 3
	leaq	2368(%rbp), %rax
	movq	%rax, %rcx
	call	_ZN8wxStringD1Ev
	.loc 16 136 5 is_stmt 1 discriminator 3
	movq	2704(%rbp), %rax
	movq	8(%rax), %rsi
	movq	2704(%rbp), %rax
	movq	8(%rax), %rax
	.loc 16 136 96 discriminator 3
	movq	(%rax), %rax
	addq	$1928, %rax
	movq	(%rax), %rbx
	.loc 16 136 28 discriminator 3
	leaq	2416(%rbp), %rax
	leaq	.LC24(%rip), %rdx
	movq	%rax, %rcx
.LEHB83:
	call	_ZN8wxStringC1EPKc
.LEHE83:
	.loc 16 136 28 is_stmt 0 discriminator 1
	leaq	2416(%rbp), %rax
	movq	%rax, %rdx
	movq	%rsi, %rcx
.LEHB84:
	call	*%rbx
.LVL24:
.LEHE84:
	.loc 16 136 28 discriminator 3
	leaq	2416(%rbp), %rax
	movq	%rax, %rcx
	call	_ZN8wxStringD1Ev
	.loc 16 138 5 is_stmt 1 discriminator 3
	movq	2704(%rbp), %rax
	movq	8(%rax), %rsi
	movq	2704(%rbp), %rax
	movq	8(%rax), %rax
	.loc 16 138 35 discriminator 3
	movq	(%rax), %rax
	addq	$1928, %rax
	movq	(%rax), %rbx
	.loc 16 138 28 discriminator 3
	leaq	2464(%rbp), %rax
	leaq	.LC7(%rip), %rdx
	movq	%rax, %rcx
.LEHB85:
	call	_ZN8wxStringC1EPKc
.LEHE85:
	.loc 16 138 28 is_stmt 0 discriminator 1
	leaq	2464(%rbp), %rax
	movq	%rax, %rdx
	movq	%rsi, %rcx
.LEHB86:
	call	*%rbx
.LVL25:
.LEHE86:
	.loc 16 138 28 discriminator 3
	leaq	2464(%rbp), %rax
	movq	%rax, %rcx
	call	_ZN8wxStringD1Ev
	.loc 16 141 5 is_stmt 1 discriminator 3
	movq	2704(%rbp), %rax
	movq	8(%rax), %rsi
	movq	2704(%rbp), %rax
	movq	8(%rax), %rax
	.loc 16 141 37 discriminator 3
	movq	(%rax), %rax
	addq	$1928, %rax
	movq	(%rax), %rbx
	.loc 16 141 28 discriminator 3
	leaq	2512(%rbp), %rax
	leaq	.LC25(%rip), %rdx
	movq	%rax, %rcx
.LEHB87:
	call	_ZN8wxStringC1EPKc
.LEHE87:
	.loc 16 141 28 is_stmt 0 discriminator 1
	leaq	2512(%rbp), %rax
	movq	%rax, %rdx
	movq	%rsi, %rcx
.LEHB88:
	call	*%rbx
.LVL26:
.LEHE88:
	.loc 16 141 28 discriminator 3
	leaq	2512(%rbp), %rax
	movq	%rax, %rcx
	call	_ZN8wxStringD1Ev
	.loc 16 19 19 is_stmt 1 discriminator 3
	leaq	112(%rbp), %rax
	movq	%rax, %rcx
	call	_ZN16ElementosDisparoD1Ev
	.loc 16 18 18 discriminator 3
	leaq	144(%rbp), %rax
	movq	%rax, %rcx
	call	_ZN12ElementosVooD1Ev
	.loc 16 145 1 discriminator 3
	jmp	.L241
.L184:
	movq	%rax, %rbx
	.loc 16 28 28
	leaq	336(%rbp), %rax
	movq	%rax, %rcx
	call	_ZN8wxStringD1Ev
	jmp	.L124
.L189:
	movq	%rax, %rbx
	.loc 16 29 28
	leaq	384(%rbp), %rax
	movq	%rax, %rcx
	call	_ZN8wxStringD1Ev
	jmp	.L126
.L188:
	movq	%rax, %rbx
.L126:
	.loc 16 29 159 discriminator 12
	leaq	432(%rbp), %rax
	movq	%rax, %rcx
	call	_ZNSt7__cxx1112basic_stringIcSt11char_traitsIcESaIcEED1Ev
	jmp	.L127
.L187:
	movq	%rax, %rbx
.L127:
	.loc 16 29 83 discriminator 10
	leaq	464(%rbp), %rax
	movq	%rax, %rcx
	call	_ZNSt7__cxx1112basic_stringIcSt11char_traitsIcESaIcEED1Ev
	jmp	.L128
.L186:
	movq	%rax, %rbx
.L128:
	.loc 16 29 72 discriminator 8
	leaq	496(%rbp), %rax
	movq	%rax, %rcx
	call	_ZNSt7__cxx1112basic_stringIcSt11char_traitsIcESaIcEED1Ev
	jmp	.L129
.L185:
	movq	%rax, %rbx
.L129:
	.loc 16 29 43 discriminator 6
	leaq	528(%rbp), %rax
	movq	%rax, %rcx
	call	_ZNSt7__cxx1112basic_stringIcSt11char_traitsIcESaIcEED1Ev
	jmp	.L124
.L192:
	movq	%rax, %rbx
	.loc 16 30 93
	leaq	560(%rbp), %rax
	movq	%rax, %rcx
	call	_ZN8wxStringD1Ev
	jmp	.L131
.L191:
	movq	%rax, %rbx
.L131:
	.loc 16 30 38 discriminator 4
	leaq	608(%rbp), %rax
	movq	%rax, %rcx
	call	_ZN8wxStringD1Ev
	jmp	.L132
.L190:
	movq	%rax, %rbx
.L132:
	.loc 16 30 60 discriminator 2
	leaq	656(%rbp), %rax
	movq	%rax, %rcx
	call	_ZN8wxStringD1Ev
	jmp	.L124
.L193:
	movq	%rax, %rbx
	.loc 16 31 28
	leaq	704(%rbp), %rax
	movq	%rax, %rcx
	call	_ZN8wxStringD1Ev
	jmp	.L124
.L196:
	movq	%rax, %rbx
.LBB31:
	.loc 16 33 32
	leaq	752(%rbp), %rax
	movq	%rax, %rcx
	call	_ZN8wxStringD1Ev
	jmp	.L135
.L195:
	movq	%rax, %rbx
.L135:
	.loc 16 33 39 discriminator 4
	leaq	800(%rbp), %rax
	movq	%rax, %rcx
	call	_ZNSt7__cxx1112basic_stringIcSt11char_traitsIcESaIcEED1Ev
	jmp	.L136
.L194:
	movq	%rax, %rbx
.L136:
	.loc 16 33 55 discriminator 2
	leaq	832(%rbp), %rax
	movq	%rax, %rcx
	call	_ZNSt7__cxx1112basic_stringIcSt11char_traitsIcESaIcEED1Ev
	jmp	.L124
.L197:
	movq	%rax, %rbx
.LBE31:
	.loc 16 34 28
	leaq	864(%rbp), %rax
	movq	%rax, %rcx
	call	_ZN8wxStringD1Ev
	jmp	.L124
.L200:
	movq	%rax, %rbx
.LBB32:
	.loc 16 36 32
	leaq	912(%rbp), %rax
	movq	%rax, %rcx
	call	_ZN8wxStringD1Ev
	jmp	.L139
.L199:
	movq	%rax, %rbx
.L139:
	.loc 16 36 39 discriminator 4
	leaq	960(%rbp), %rax
	movq	%rax, %rcx
	call	_ZNSt7__cxx1112basic_stringIcSt11char_traitsIcESaIcEED1Ev
	jmp	.L140
.L198:
	movq	%rax, %rbx
.L140:
	.loc 16 36 55 discriminator 2
	leaq	992(%rbp), %rax
	movq	%rax, %rcx
	call	_ZNSt7__cxx1112basic_stringIcSt11char_traitsIcESaIcEED1Ev
	jmp	.L124
.L201:
	movq	%rax, %rbx
.LBE32:
	.loc 16 37 28
	leaq	1024(%rbp), %rax
	movq	%rax, %rcx
	call	_ZN8wxStringD1Ev
	jmp	.L124
.L202:
	cmpq	$1, %rdx
	je	.L143
	cmpq	$2, %rdx
	je	.L144
	movq	%rax, %rbx
	jmp	.L124
.L143:
.LBB33:
.LBB28:
.LBB24:
	.loc 16 68 38
	movq	%rax, %rcx
	call	__cxa_begin_catch
	movq	%rax, 2576(%rbp)
	.loc 16 70 13
	nop
.LEHB89:
	.loc 16 68 38
	call	__cxa_end_catch
.LEHE89:
	jmp	.L110
.L144:
.LBE24:
.LBB25:
	.loc 16 72 35
	movq	%rax, %rcx
	call	__cxa_begin_catch
	movq	%rax, 2568(%rbp)
	.loc 16 74 13
	movq	2704(%rbp), %rax
	movq	8(%rax), %rsi
	movq	2704(%rbp), %rax
	movq	8(%rax), %rax
	.loc 16 74 72
	movq	(%rax), %rax
	addq	$1928, %rax
	movq	(%rax), %rbx
	.loc 16 74 36
	leaq	1104(%rbp), %rax
	leaq	.LC26(%rip), %rdx
	movq	%rax, %rcx
.LEHB90:
	call	_ZN8wxStringC1EPKc
.LEHE90:
	.loc 16 74 36 is_stmt 0 discriminator 1
	leaq	1104(%rbp), %rax
	movq	%rax, %rdx
	movq	%rsi, %rcx
.LEHB91:
	call	*%rbx
.LVL27:
.LEHE91:
	.loc 16 74 36 discriminator 3
	leaq	1104(%rbp), %rax
	movq	%rax, %rcx
	call	_ZN8wxStringD1Ev
	.loc 16 75 13 is_stmt 1 discriminator 3
	nop
.LEHB92:
	.loc 16 72 35 discriminator 3
	call	__cxa_end_catch
.LEHE92:
	.loc 16 72 35 is_stmt 0
	jmp	.L110
.L204:
	movq	%rax, %rbx
	.loc 16 74 36 is_stmt 1
	leaq	1104(%rbp), %rax
	movq	%rax, %rcx
	call	_ZN8wxStringD1Ev
	jmp	.L146
.L203:
	movq	%rax, %rbx
.L146:
	.loc 16 72 35
	call	__cxa_end_catch
	jmp	.L124
.L207:
	movq	%rax, %rbx
.LBE25:
	.loc 16 81 32
	leaq	1248(%rbp), %rax
	movq	%rax, %rcx
	call	_ZN8wxStringD1Ev
	jmp	.L148
.L206:
	movq	%rax, %rbx
.L148:
	.loc 16 81 57 discriminator 4
	leaq	1296(%rbp), %rax
	movq	%rax, %rcx
	call	_ZNSt7__cxx1112basic_stringIcSt11char_traitsIcESaIcEED1Ev
	jmp	.L149
.L205:
	movq	%rax, %rbx
.L149:
	.loc 16 81 47 discriminator 2
	leaq	1328(%rbp), %rax
	movq	%rax, %rcx
	call	_ZNSt7__cxx1112basic_stringIcSt11char_traitsIcESaIcEED1Ev
	jmp	.L124
.L208:
	movq	%rax, %rbx
.LBB26:
.LBB23:
	leaq	1374(%rbp), %rax
	movq	%rax, %rcx
	call	_ZNSaIcED1Ev
	jmp	.L124
.L209:
	movq	%rax, %rbx
	leaq	1375(%rbp), %rax
	movq	%rax, %rcx
	call	_ZNSaIcED1Ev
	jmp	.L152
.L217:
	movq	%rax, %rbx
	.loc 16 106 96
	leaq	1376(%rbp), %rax
	movq	%rax, %rcx
	call	_ZN8wxStringD1Ev
	jmp	.L154
.L216:
	movq	%rax, %rbx
.L154:
	.loc 16 106 85 discriminator 10
	leaq	1424(%rbp), %rax
	movq	%rax, %rcx
	call	_ZN8wxStringD1Ev
	jmp	.L155
.L215:
	movq	%rax, %rbx
.L155:
	.loc 16 106 46 discriminator 8
	leaq	1520(%rbp), %rax
	movq	%rax, %rcx
	call	_ZN8wxStringD1Ev
	jmp	.L156
.L214:
	movq	%rax, %rbx
.L156:
	.loc 16 106 46 is_stmt 0 discriminator 6
	leaq	1616(%rbp), %rax
	movq	%rax, %rcx
	call	_ZN8wxStringD1Ev
	jmp	.L157
.L213:
	movq	%rax, %rbx
.L157:
	.loc 16 106 68 is_stmt 1 discriminator 4
	leaq	1568(%rbp), %rax
	movq	%rax, %rcx
	call	_ZN8wxStringD1Ev
	jmp	.L158
.L212:
	movq	%rax, %rbx
.L158:
	.loc 16 106 85 discriminator 2
	leaq	1472(%rbp), %rax
	movq	%rax, %rcx
	call	_ZN8wxStringD1Ev
	jmp	.L159
.L211:
	movq	%rax, %rbx
.L159:
	.loc 16 88 143
	leaq	16(%rbp), %rax
	movq	%rax, %rcx
	call	_ZN12ElementosVooD1Ev
	jmp	.L160
.L210:
	movq	%rax, %rbx
.L160:
	.loc 16 86 46
	leaq	-16(%rbp), %rax
	movq	%rax, %rcx
	call	_ZNSt7__cxx1112basic_stringIcSt11char_traitsIcESaIcEED1Ev
.L152:
	.loc 16 86 31
	leaq	-48(%rbp), %rax
	movq	%rax, %rcx
	call	_ZNSt7__cxx1112basic_stringIcSt11char_traitsIcESaIcEED1Ev
	jmp	.L124
.L218:
	movq	%rax, %rbx
.LBE23:
.LBE26:
	.loc 16 108 32
	leaq	1664(%rbp), %rax
	movq	%rax, %rcx
	call	_ZN8wxStringD1Ev
	jmp	.L124
.L219:
	movq	%rax, %rbx
.LBE28:
.LBE33:
	.loc 16 123 32
	leaq	1712(%rbp), %rax
	movq	%rax, %rcx
	call	_ZN8wxStringD1Ev
	jmp	.L124
.L222:
	movq	%rax, %rbx
.LBB34:
	.loc 16 125 32
	leaq	1760(%rbp), %rax
	movq	%rax, %rcx
	call	_ZN8wxStringD1Ev
	jmp	.L164
.L221:
	movq	%rax, %rbx
.L164:
	.loc 16 125 39 discriminator 4
	leaq	1808(%rbp), %rax
	movq	%rax, %rcx
	call	_ZNSt7__cxx1112basic_stringIcSt11char_traitsIcESaIcEED1Ev
	jmp	.L165
.L220:
	movq	%rax, %rbx
.L165:
	.loc 16 125 55 discriminator 2
	leaq	1840(%rbp), %rax
	movq	%rax, %rcx
	call	_ZNSt7__cxx1112basic_stringIcSt11char_traitsIcESaIcEED1Ev
	jmp	.L124
.L223:
	movq	%rax, %rbx
.LBE34:
	.loc 16 126 28
	leaq	1872(%rbp), %rax
	movq	%rax, %rcx
	call	_ZN8wxStringD1Ev
	jmp	.L124
.L226:
	movq	%rax, %rbx
.LBB35:
	.loc 16 128 32
	leaq	1920(%rbp), %rax
	movq	%rax, %rcx
	call	_ZN8wxStringD1Ev
	jmp	.L168
.L225:
	movq	%rax, %rbx
.L168:
	.loc 16 128 39 discriminator 4
	leaq	1968(%rbp), %rax
	movq	%rax, %rcx
	call	_ZNSt7__cxx1112basic_stringIcSt11char_traitsIcESaIcEED1Ev
	jmp	.L169
.L224:
	movq	%rax, %rbx
.L169:
	.loc 16 128 55 discriminator 2
	leaq	2000(%rbp), %rax
	movq	%rax, %rcx
	call	_ZNSt7__cxx1112basic_stringIcSt11char_traitsIcESaIcEED1Ev
	jmp	.L124
.L227:
	movq	%rax, %rbx
.LBE35:
	.loc 16 129 28
	leaq	2032(%rbp), %rax
	movq	%rax, %rcx
	call	_ZN8wxStringD1Ev
	jmp	.L124
.L228:
	movq	%rax, %rbx
	.loc 16 130 28
	leaq	2080(%rbp), %rax
	movq	%rax, %rcx
	call	_ZN8wxStringD1Ev
	jmp	.L124
.L231:
	movq	%rax, %rbx
	.loc 16 131 93
	leaq	2128(%rbp), %rax
	movq	%rax, %rcx
	call	_ZN8wxStringD1Ev
	jmp	.L173
.L230:
	movq	%rax, %rbx
.L173:
	.loc 16 131 38 discriminator 4
	leaq	2176(%rbp), %rax
	movq	%rax, %rcx
	call	_ZN8wxStringD1Ev
	jmp	.L174
.L229:
	movq	%rax, %rbx
.L174:
	.loc 16 131 60 discriminator 2
	leaq	2224(%rbp), %rax
	movq	%rax, %rcx
	call	_ZN8wxStringD1Ev
	jmp	.L124
.L232:
	movq	%rax, %rbx
	.loc 16 133 28
	leaq	2272(%rbp), %rax
	movq	%rax, %rcx
	call	_ZN8wxStringD1Ev
	jmp	.L124
.L233:
	movq	%rax, %rbx
	.loc 16 134 28
	leaq	2320(%rbp), %rax
	movq	%rax, %rcx
	call	_ZN8wxStringD1Ev
	jmp	.L124
.L234:
	movq	%rax, %rbx
	.loc 16 135 28
	leaq	2368(%rbp), %rax
	movq	%rax, %rcx
	call	_ZN8wxStringD1Ev
	jmp	.L124
.L235:
	movq	%rax, %rbx
	.loc 16 136 28
	leaq	2416(%rbp), %rax
	movq	%rax, %rcx
	call	_ZN8wxStringD1Ev
	jmp	.L124
.L236:
	movq	%rax, %rbx
	.loc 16 138 28
	leaq	2464(%rbp), %rax
	movq	%rax, %rcx
	call	_ZN8wxStringD1Ev
	jmp	.L124
.L237:
	movq	%rax, %rbx
	.loc 16 141 28
	leaq	2512(%rbp), %rax
	movq	%rax, %rcx
	call	_ZN8wxStringD1Ev
	jmp	.L124
.L183:
	movq	%rax, %rbx
.L124:
	.loc 16 19 19
	leaq	112(%rbp), %rax
	movq	%rax, %rcx
	call	_ZN16ElementosDisparoD1Ev
	jmp	.L181
.L182:
	movq	%rax, %rbx
.L181:
	.loc 16 18 18
	leaq	144(%rbp), %rax
	movq	%rax, %rcx
	call	_ZN12ElementosVooD1Ev
	movq	%rbx, %rax
	movq	%rax, %rcx
.LEHB93:
	call	_Unwind_Resume
	nop
.LEHE93:
.L241:
	.loc 16 145 1
	addq	$2792, %rsp
	popq	%rbx
	.cfi_restore 3
	popq	%rsi
	.cfi_restore 4
	popq	%rdi
	.cfi_restore 5
	popq	%rbp
	.cfi_restore 6
	.cfi_def_cfa 7, -2760
	ret
	.cfi_endproc
.LFE11301:
	.seh_handler	__gxx_personality_seh0, @unwind, @except
	.seh_handlerdata
	.align 4
.LLSDA11301:
	.byte	0xff
	.byte	0x9b
	.uleb128 .LLSDATT11301-.LLSDATTD11301
.LLSDATTD11301:
	.byte	0x1
	.uleb128 .LLSDACSE11301-.LLSDACSB11301
.LLSDACSB11301:
	.uleb128 .LEHB11-.LFB11301
	.uleb128 .LEHE11-.LEHB11
	.uleb128 0
	.uleb128 0
	.uleb128 .LEHB12-.LFB11301
	.uleb128 .LEHE12-.LEHB12
	.uleb128 .L182-.LFB11301
	.uleb128 0
	.uleb128 .LEHB13-.LFB11301
	.uleb128 .LEHE13-.LEHB13
	.uleb128 .L183-.LFB11301
	.uleb128 0
	.uleb128 .LEHB14-.LFB11301
	.uleb128 .LEHE14-.LEHB14
	.uleb128 .L184-.LFB11301
	.uleb128 0
	.uleb128 .LEHB15-.LFB11301
	.uleb128 .LEHE15-.LEHB15
	.uleb128 .L183-.LFB11301
	.uleb128 0
	.uleb128 .LEHB16-.LFB11301
	.uleb128 .LEHE16-.LEHB16
	.uleb128 .L185-.LFB11301
	.uleb128 0
	.uleb128 .LEHB17-.LFB11301
	.uleb128 .LEHE17-.LEHB17
	.uleb128 .L186-.LFB11301
	.uleb128 0
	.uleb128 .LEHB18-.LFB11301
	.uleb128 .LEHE18-.LEHB18
	.uleb128 .L187-.LFB11301
	.uleb128 0
	.uleb128 .LEHB19-.LFB11301
	.uleb128 .LEHE19-.LEHB19
	.uleb128 .L188-.LFB11301
	.uleb128 0
	.uleb128 .LEHB20-.LFB11301
	.uleb128 .LEHE20-.LEHB20
	.uleb128 .L189-.LFB11301
	.uleb128 0
	.uleb128 .LEHB21-.LFB11301
	.uleb128 .LEHE21-.LEHB21
	.uleb128 .L183-.LFB11301
	.uleb128 0
	.uleb128 .LEHB22-.LFB11301
	.uleb128 .LEHE22-.LEHB22
	.uleb128 .L190-.LFB11301
	.uleb128 0
	.uleb128 .LEHB23-.LFB11301
	.uleb128 .LEHE23-.LEHB23
	.uleb128 .L191-.LFB11301
	.uleb128 0
	.uleb128 .LEHB24-.LFB11301
	.uleb128 .LEHE24-.LEHB24
	.uleb128 .L192-.LFB11301
	.uleb128 0
	.uleb128 .LEHB25-.LFB11301
	.uleb128 .LEHE25-.LEHB25
	.uleb128 .L183-.LFB11301
	.uleb128 0
	.uleb128 .LEHB26-.LFB11301
	.uleb128 .LEHE26-.LEHB26
	.uleb128 .L193-.LFB11301
	.uleb128 0
	.uleb128 .LEHB27-.LFB11301
	.uleb128 .LEHE27-.LEHB27
	.uleb128 .L183-.LFB11301
	.uleb128 0
	.uleb128 .LEHB28-.LFB11301
	.uleb128 .LEHE28-.LEHB28
	.uleb128 .L194-.LFB11301
	.uleb128 0
	.uleb128 .LEHB29-.LFB11301
	.uleb128 .LEHE29-.LEHB29
	.uleb128 .L195-.LFB11301
	.uleb128 0
	.uleb128 .LEHB30-.LFB11301
	.uleb128 .LEHE30-.LEHB30
	.uleb128 .L196-.LFB11301
	.uleb128 0
	.uleb128 .LEHB31-.LFB11301
	.uleb128 .LEHE31-.LEHB31
	.uleb128 .L183-.LFB11301
	.uleb128 0
	.uleb128 .LEHB32-.LFB11301
	.uleb128 .LEHE32-.LEHB32
	.uleb128 .L197-.LFB11301
	.uleb128 0
	.uleb128 .LEHB33-.LFB11301
	.uleb128 .LEHE33-.LEHB33
	.uleb128 .L183-.LFB11301
	.uleb128 0
	.uleb128 .LEHB34-.LFB11301
	.uleb128 .LEHE34-.LEHB34
	.uleb128 .L198-.LFB11301
	.uleb128 0
	.uleb128 .LEHB35-.LFB11301
	.uleb128 .LEHE35-.LEHB35
	.uleb128 .L199-.LFB11301
	.uleb128 0
	.uleb128 .LEHB36-.LFB11301
	.uleb128 .LEHE36-.LEHB36
	.uleb128 .L200-.LFB11301
	.uleb128 0
	.uleb128 .LEHB37-.LFB11301
	.uleb128 .LEHE37-.LEHB37
	.uleb128 .L183-.LFB11301
	.uleb128 0
	.uleb128 .LEHB38-.LFB11301
	.uleb128 .LEHE38-.LEHB38
	.uleb128 .L201-.LFB11301
	.uleb128 0
	.uleb128 .LEHB39-.LFB11301
	.uleb128 .LEHE39-.LEHB39
	.uleb128 .L183-.LFB11301
	.uleb128 0
	.uleb128 .LEHB40-.LFB11301
	.uleb128 .LEHE40-.LEHB40
	.uleb128 .L202-.LFB11301
	.uleb128 0x5
	.uleb128 .LEHB41-.LFB11301
	.uleb128 .LEHE41-.LEHB41
	.uleb128 .L183-.LFB11301
	.uleb128 0
	.uleb128 .LEHB42-.LFB11301
	.uleb128 .LEHE42-.LEHB42
	.uleb128 .L205-.LFB11301
	.uleb128 0
	.uleb128 .LEHB43-.LFB11301
	.uleb128 .LEHE43-.LEHB43
	.uleb128 .L206-.LFB11301
	.uleb128 0
	.uleb128 .LEHB44-.LFB11301
	.uleb128 .LEHE44-.LEHB44
	.uleb128 .L207-.LFB11301
	.uleb128 0
	.uleb128 .LEHB45-.LFB11301
	.uleb128 .LEHE45-.LEHB45
	.uleb128 .L208-.LFB11301
	.uleb128 0
	.uleb128 .LEHB46-.LFB11301
	.uleb128 .LEHE46-.LEHB46
	.uleb128 .L209-.LFB11301
	.uleb128 0
	.uleb128 .LEHB47-.LFB11301
	.uleb128 .LEHE47-.LEHB47
	.uleb128 .L210-.LFB11301
	.uleb128 0
	.uleb128 .LEHB48-.LFB11301
	.uleb128 .LEHE48-.LEHB48
	.uleb128 .L211-.LFB11301
	.uleb128 0
	.uleb128 .LEHB49-.LFB11301
	.uleb128 .LEHE49-.LEHB49
	.uleb128 .L212-.LFB11301
	.uleb128 0
	.uleb128 .LEHB50-.LFB11301
	.uleb128 .LEHE50-.LEHB50
	.uleb128 .L213-.LFB11301
	.uleb128 0
	.uleb128 .LEHB51-.LFB11301
	.uleb128 .LEHE51-.LEHB51
	.uleb128 .L214-.LFB11301
	.uleb128 0
	.uleb128 .LEHB52-.LFB11301
	.uleb128 .LEHE52-.LEHB52
	.uleb128 .L215-.LFB11301
	.uleb128 0
	.uleb128 .LEHB53-.LFB11301
	.uleb128 .LEHE53-.LEHB53
	.uleb128 .L216-.LFB11301
	.uleb128 0
	.uleb128 .LEHB54-.LFB11301
	.uleb128 .LEHE54-.LEHB54
	.uleb128 .L217-.LFB11301
	.uleb128 0
	.uleb128 .LEHB55-.LFB11301
	.uleb128 .LEHE55-.LEHB55
	.uleb128 .L183-.LFB11301
	.uleb128 0
	.uleb128 .LEHB56-.LFB11301
	.uleb128 .LEHE56-.LEHB56
	.uleb128 .L218-.LFB11301
	.uleb128 0
	.uleb128 .LEHB57-.LFB11301
	.uleb128 .LEHE57-.LEHB57
	.uleb128 .L183-.LFB11301
	.uleb128 0
	.uleb128 .LEHB58-.LFB11301
	.uleb128 .LEHE58-.LEHB58
	.uleb128 .L219-.LFB11301
	.uleb128 0
	.uleb128 .LEHB59-.LFB11301
	.uleb128 .LEHE59-.LEHB59
	.uleb128 .L183-.LFB11301
	.uleb128 0
	.uleb128 .LEHB60-.LFB11301
	.uleb128 .LEHE60-.LEHB60
	.uleb128 .L220-.LFB11301
	.uleb128 0
	.uleb128 .LEHB61-.LFB11301
	.uleb128 .LEHE61-.LEHB61
	.uleb128 .L221-.LFB11301
	.uleb128 0
	.uleb128 .LEHB62-.LFB11301
	.uleb128 .LEHE62-.LEHB62
	.uleb128 .L222-.LFB11301
	.uleb128 0
	.uleb128 .LEHB63-.LFB11301
	.uleb128 .LEHE63-.LEHB63
	.uleb128 .L183-.LFB11301
	.uleb128 0
	.uleb128 .LEHB64-.LFB11301
	.uleb128 .LEHE64-.LEHB64
	.uleb128 .L223-.LFB11301
	.uleb128 0
	.uleb128 .LEHB65-.LFB11301
	.uleb128 .LEHE65-.LEHB65
	.uleb128 .L183-.LFB11301
	.uleb128 0
	.uleb128 .LEHB66-.LFB11301
	.uleb128 .LEHE66-.LEHB66
	.uleb128 .L224-.LFB11301
	.uleb128 0
	.uleb128 .LEHB67-.LFB11301
	.uleb128 .LEHE67-.LEHB67
	.uleb128 .L225-.LFB11301
	.uleb128 0
	.uleb128 .LEHB68-.LFB11301
	.uleb128 .LEHE68-.LEHB68
	.uleb128 .L226-.LFB11301
	.uleb128 0
	.uleb128 .LEHB69-.LFB11301
	.uleb128 .LEHE69-.LEHB69
	.uleb128 .L183-.LFB11301
	.uleb128 0
	.uleb128 .LEHB70-.LFB11301
	.uleb128 .LEHE70-.LEHB70
	.uleb128 .L227-.LFB11301
	.uleb128 0
	.uleb128 .LEHB71-.LFB11301
	.uleb128 .LEHE71-.LEHB71
	.uleb128 .L183-.LFB11301
	.uleb128 0
	.uleb128 .LEHB72-.LFB11301
	.uleb128 .LEHE72-.LEHB72
	.uleb128 .L228-.LFB11301
	.uleb128 0
	.uleb128 .LEHB73-.LFB11301
	.uleb128 .LEHE73-.LEHB73
	.uleb128 .L183-.LFB11301
	.uleb128 0
	.uleb128 .LEHB74-.LFB11301
	.uleb128 .LEHE74-.LEHB74
	.uleb128 .L229-.LFB11301
	.uleb128 0
	.uleb128 .LEHB75-.LFB11301
	.uleb128 .LEHE75-.LEHB75
	.uleb128 .L230-.LFB11301
	.uleb128 0
	.uleb128 .LEHB76-.LFB11301
	.uleb128 .LEHE76-.LEHB76
	.uleb128 .L231-.LFB11301
	.uleb128 0
	.uleb128 .LEHB77-.LFB11301
	.uleb128 .LEHE77-.LEHB77
	.uleb128 .L183-.LFB11301
	.uleb128 0
	.uleb128 .LEHB78-.LFB11301
	.uleb128 .LEHE78-.LEHB78
	.uleb128 .L232-.LFB11301
	.uleb128 0
	.uleb128 .LEHB79-.LFB11301
	.uleb128 .LEHE79-.LEHB79
	.uleb128 .L183-.LFB11301
	.uleb128 0
	.uleb128 .LEHB80-.LFB11301
	.uleb128 .LEHE80-.LEHB80
	.uleb128 .L233-.LFB11301
	.uleb128 0
	.uleb128 .LEHB81-.LFB11301
	.uleb128 .LEHE81-.LEHB81
	.uleb128 .L183-.LFB11301
	.uleb128 0
	.uleb128 .LEHB82-.LFB11301
	.uleb128 .LEHE82-.LEHB82
	.uleb128 .L234-.LFB11301
	.uleb128 0
	.uleb128 .LEHB83-.LFB11301
	.uleb128 .LEHE83-.LEHB83
	.uleb128 .L183-.LFB11301
	.uleb128 0
	.uleb128 .LEHB84-.LFB11301
	.uleb128 .LEHE84-.LEHB84
	.uleb128 .L235-.LFB11301
	.uleb128 0
	.uleb128 .LEHB85-.LFB11301
	.uleb128 .LEHE85-.LEHB85
	.uleb128 .L183-.LFB11301
	.uleb128 0
	.uleb128 .LEHB86-.LFB11301
	.uleb128 .LEHE86-.LEHB86
	.uleb128 .L236-.LFB11301
	.uleb128 0
	.uleb128 .LEHB87-.LFB11301
	.uleb128 .LEHE87-.LEHB87
	.uleb128 .L183-.LFB11301
	.uleb128 0
	.uleb128 .LEHB88-.LFB11301
	.uleb128 .LEHE88-.LEHB88
	.uleb128 .L237-.LFB11301
	.uleb128 0
	.uleb128 .LEHB89-.LFB11301
	.uleb128 .LEHE89-.LEHB89
	.uleb128 .L183-.LFB11301
	.uleb128 0
	.uleb128 .LEHB90-.LFB11301
	.uleb128 .LEHE90-.LEHB90
	.uleb128 .L203-.LFB11301
	.uleb128 0
	.uleb128 .LEHB91-.LFB11301
	.uleb128 .LEHE91-.LEHB91
	.uleb128 .L204-.LFB11301
	.uleb128 0
	.uleb128 .LEHB92-.LFB11301
	.uleb128 .LEHE92-.LEHB92
	.uleb128 .L183-.LFB11301
	.uleb128 0
	.uleb128 .LEHB93-.LFB11301
	.uleb128 .LEHE93-.LEHB93
	.uleb128 0
	.uleb128 0
.LLSDACSE11301:
	.byte	0
	.byte	0
	.byte	0x2
	.byte	0x7d
	.byte	0x1
	.byte	0x7d
	.align 4
	.long	.LDFCM0-.
	.long	.LDFCM1-.
.LLSDATT11301:
	.text
	.seh_endproc
	.section	.text$_ZN9__gnu_cxx12__to_xstringINSt7__cxx1112basic_stringIcSt11char_traitsIcESaIcEEEcEET_PFiPT0_yPKS8_PcEySB_z,"x"
	.linkonce discard
	.globl	_ZN9__gnu_cxx12__to_xstringINSt7__cxx1112basic_stringIcSt11char_traitsIcESaIcEEEcEET_PFiPT0_yPKS8_PcEySB_z
	.def	_ZN9__gnu_cxx12__to_xstringINSt7__cxx1112basic_stringIcSt11char_traitsIcESaIcEEEcEET_PFiPT0_yPKS8_PcEySB_z;	.scl	2;	.type	32;	.endef
	.seh_proc	_ZN9__gnu_cxx12__to_xstringINSt7__cxx1112basic_stringIcSt11char_traitsIcESaIcEEEcEET_PFiPT0_yPKS8_PcEySB_z
_ZN9__gnu_cxx12__to_xstringINSt7__cxx1112basic_stringIcSt11char_traitsIcESaIcEEEcEET_PFiPT0_yPKS8_PcEySB_z:
.LFB11382:
	.file 18 "C:/Program Files/CodeBlocks/MinGW/lib/gcc/x86_64-w64-mingw32/8.1.0/include/c++/ext/string_conversions.h"
	.loc 18 99 5
	.cfi_startproc
	pushq	%rbp
	.seh_pushreg	%rbp
	.cfi_def_cfa_offset 16
	.cfi_offset 6, -16
	pushq	%rbx
	.seh_pushreg	%rbx
	.cfi_def_cfa_offset 24
	.cfi_offset 3, -24
	subq	$72, %rsp
	.seh_stackalloc	72
	.cfi_def_cfa_offset 96
	leaq	128(%rsp), %rbp
	.seh_setframe	%rbp, 128
	.cfi_def_cfa 6, -32
	.seh_endprologue
	movq	%rcx, -32(%rbp)
	movq	%rdx, -24(%rbp)
	movq	%r8, -16(%rbp)
	movq	%r9, -8(%rbp)
	.loc 18 105 58
	movq	-16(%rbp), %rax
	addq	$15, %rax
	shrq	$4, %rax
	salq	$4, %rax
	call	___chkstk_ms
	subq	%rax, %rsp
	leaq	32(%rsp), %rax
	addq	$15, %rax
	shrq	$4, %rax
	salq	$4, %rax
	movq	%rax, -72(%rbp)
	.loc 18 109 25
	movq	%rbp, %rax
	movq	%rax, -88(%rbp)
	.loc 18 111 32
	movq	-88(%rbp), %r9
	movq	-8(%rbp), %r8
	movq	-16(%rbp), %rdx
	movq	-72(%rbp), %rcx
	movq	-24(%rbp), %rax
.LEHB94:
	call	*%rax
.LVL28:
.LEHE94:
	movl	%eax, -76(%rbp)
	.loc 18 115 38
	leaq	-77(%rbp), %rax
	movq	%rax, %rcx
	call	_ZNSaIcEC1Ev
	movl	-76(%rbp), %eax
	cltq
	movq	-72(%rbp), %rdx
	leaq	(%rax,%rdx), %rcx
	leaq	-77(%rbp), %rdx
	movq	-72(%rbp), %rax
	movq	%rdx, %r9
	movq	%rcx, %r8
	movq	%rax, %rdx
	movq	-32(%rbp), %rcx
.LEHB95:
	call	_ZNSt7__cxx1112basic_stringIcSt11char_traitsIcESaIcEEC1IPcvEET_S7_RKS3_
.LEHE95:
	leaq	-77(%rbp), %rax
	movq	%rax, %rcx
	call	_ZNSaIcED1Ev
	jmp	.L247
.L246:
	movq	%rax, %rbx
	leaq	-77(%rbp), %rax
	movq	%rax, %rcx
	call	_ZNSaIcED1Ev
	movq	%rbx, %rax
	movq	%rax, %rcx
.LEHB96:
	call	_Unwind_Resume
.LEHE96:
.L247:
	.loc 18 116 5
	movq	-32(%rbp), %rax
	leaq	-56(%rbp), %rsp
	popq	%rbx
	.cfi_restore 3
	popq	%rbp
	.cfi_restore 6
	.cfi_def_cfa 7, -56
	ret
	.cfi_endproc
.LFE11382:
	.seh_handler	__gxx_personality_seh0, @unwind, @except
	.seh_handlerdata
.LLSDA11382:
	.byte	0xff
	.byte	0xff
	.byte	0x1
	.uleb128 .LLSDACSE11382-.LLSDACSB11382
.LLSDACSB11382:
	.uleb128 .LEHB94-.LFB11382
	.uleb128 .LEHE94-.LEHB94
	.uleb128 0
	.uleb128 0
	.uleb128 .LEHB95-.LFB11382
	.uleb128 .LEHE95-.LEHB95
	.uleb128 .L246-.LFB11382
	.uleb128 0
	.uleb128 .LEHB96-.LFB11382
	.uleb128 .LEHE96-.LEHB96
	.uleb128 0
	.uleb128 0
.LLSDACSE11382:
	.section	.text$_ZN9__gnu_cxx12__to_xstringINSt7__cxx1112basic_stringIcSt11char_traitsIcESaIcEEEcEET_PFiPT0_yPKS8_PcEySB_z,"x"
	.linkonce discard
	.seh_endproc
	.section	.text$_ZNSt7__cxx1112basic_stringIcSt11char_traitsIcESaIcEE12_Alloc_hiderD1Ev,"x"
	.linkonce discard
	.align 2
	.globl	_ZNSt7__cxx1112basic_stringIcSt11char_traitsIcESaIcEE12_Alloc_hiderD1Ev
	.def	_ZNSt7__cxx1112basic_stringIcSt11char_traitsIcESaIcEE12_Alloc_hiderD1Ev;	.scl	2;	.type	32;	.endef
	.seh_proc	_ZNSt7__cxx1112basic_stringIcSt11char_traitsIcESaIcEE12_Alloc_hiderD1Ev
_ZNSt7__cxx1112basic_stringIcSt11char_traitsIcESaIcEE12_Alloc_hiderD1Ev:
.LFB11386:
	.loc 3 139 14
	.cfi_startproc
	pushq	%rbp
	.seh_pushreg	%rbp
	.cfi_def_cfa_offset 16
	.cfi_offset 6, -16
	movq	%rsp, %rbp
	.seh_setframe	%rbp, 0
	.cfi_def_cfa_register 6
	subq	$32, %rsp
	.seh_stackalloc	32
	.seh_endprologue
	movq	%rcx, 16(%rbp)
.LBB36:
	.loc 3 139 14
	movq	16(%rbp), %rcx
	call	_ZNSaIcED2Ev
.LBE36:
	nop
	addq	$32, %rsp
	popq	%rbp
	.cfi_restore 6
	.cfi_def_cfa 7, 8
	ret
	.cfi_endproc
.LFE11386:
	.seh_endproc
	.section	.text$_ZN22wxScopedCharTypeBufferIwED1Ev,"x"
	.linkonce discard
	.align 2
	.globl	_ZN22wxScopedCharTypeBufferIwED1Ev
	.def	_ZN22wxScopedCharTypeBufferIwED1Ev;	.scl	2;	.type	32;	.endef
	.seh_proc	_ZN22wxScopedCharTypeBufferIwED1Ev
_ZN22wxScopedCharTypeBufferIwED1Ev:
.LFB11532:
	.loc 8 125 5
	.cfi_startproc
	pushq	%rbp
	.seh_pushreg	%rbp
	.cfi_def_cfa_offset 16
	.cfi_offset 6, -16
	movq	%rsp, %rbp
	.seh_setframe	%rbp, 0
	.cfi_def_cfa_register 6
	subq	$32, %rsp
	.seh_stackalloc	32
	.seh_endprologue
	movq	%rcx, 16(%rbp)
.LBB37:
	.loc 8 127 9
	movq	16(%rbp), %rcx
	call	_ZN22wxScopedCharTypeBufferIwE6DecRefEv
.LBE37:
	.loc 8 128 5
	nop
	addq	$32, %rsp
	popq	%rbp
	.cfi_restore 6
	.cfi_def_cfa 7, 8
	ret
	.cfi_endproc
.LFE11532:
	.seh_handler	__gxx_personality_seh0, @unwind, @except
	.seh_handlerdata
.LLSDA11532:
	.byte	0xff
	.byte	0xff
	.byte	0x1
	.uleb128 .LLSDACSE11532-.LLSDACSB11532
.LLSDACSB11532:
.LLSDACSE11532:
	.section	.text$_ZN22wxScopedCharTypeBufferIwED1Ev,"x"
	.linkonce discard
	.seh_endproc
	.section	.text$_ZN22wxScopedCharTypeBufferIwEC1ERKS0_,"x"
	.linkonce discard
	.align 2
	.globl	_ZN22wxScopedCharTypeBufferIwEC1ERKS0_
	.def	_ZN22wxScopedCharTypeBufferIwEC1ERKS0_;	.scl	2;	.type	32;	.endef
	.seh_proc	_ZN22wxScopedCharTypeBufferIwEC1ERKS0_
_ZN22wxScopedCharTypeBufferIwEC1ERKS0_:
.LFB11556:
	.loc 8 107 5
	.cfi_startproc
	pushq	%rbp
	.seh_pushreg	%rbp
	.cfi_def_cfa_offset 16
	.cfi_offset 6, -16
	movq	%rsp, %rbp
	.seh_setframe	%rbp, 0
	.cfi_def_cfa_register 6
	subq	$32, %rsp
	.seh_stackalloc	32
	.seh_endprologue
	movq	%rcx, 16(%rbp)
	movq	%rdx, 24(%rbp)
.LBB38:
	.loc 8 109 22
	movq	24(%rbp), %rax
	movq	(%rax), %rdx
	.loc 8 109 9
	movq	16(%rbp), %rax
	movq	%rdx, (%rax)
	.loc 8 110 9
	movq	16(%rbp), %rcx
	call	_ZN22wxScopedCharTypeBufferIwE6IncRefEv
.LBE38:
	.loc 8 111 5
	nop
	addq	$32, %rsp
	popq	%rbp
	.cfi_restore 6
	.cfi_def_cfa 7, 8
	ret
	.cfi_endproc
.LFE11556:
	.seh_endproc
	.section	.text$_ZN8wxString15ConvertedBufferIcED1Ev,"x"
	.linkonce discard
	.align 2
	.globl	_ZN8wxString15ConvertedBufferIcED1Ev
	.def	_ZN8wxString15ConvertedBufferIcED1Ev;	.scl	2;	.type	32;	.endef
	.seh_proc	_ZN8wxString15ConvertedBufferIcED1Ev
_ZN8wxString15ConvertedBufferIcED1Ev:
.LFB11625:
	.loc 10 3489 7
	.cfi_startproc
	pushq	%rbp
	.seh_pushreg	%rbp
	.cfi_def_cfa_offset 16
	.cfi_offset 6, -16
	movq	%rsp, %rbp
	.seh_setframe	%rbp, 0
	.cfi_def_cfa_register 6
	subq	$32, %rsp
	.seh_stackalloc	32
	.seh_endprologue
	movq	%rcx, 16(%rbp)
.LBB39:
	.loc 10 3490 18
	movq	16(%rbp), %rax
	movq	(%rax), %rax
	.loc 10 3490 17
	movq	%rax, %rcx
	call	free
.LBE39:
	.loc 10 3490 26
	nop
	addq	$32, %rsp
	popq	%rbp
	.cfi_restore 6
	.cfi_def_cfa 7, 8
	ret
	.cfi_endproc
.LFE11625:
	.seh_endproc
	.section	.text$_ZN8wxString15ConvertedBufferIcEC1Ev,"x"
	.linkonce discard
	.align 2
	.globl	_ZN8wxString15ConvertedBufferIcEC1Ev
	.def	_ZN8wxString15ConvertedBufferIcEC1Ev;	.scl	2;	.type	32;	.endef
	.seh_proc	_ZN8wxString15ConvertedBufferIcEC1Ev
_ZN8wxString15ConvertedBufferIcEC1Ev:
.LFB11631:
	.loc 10 3488 7
	.cfi_startproc
	pushq	%rbp
	.seh_pushreg	%rbp
	.cfi_def_cfa_offset 16
	.cfi_offset 6, -16
	movq	%rsp, %rbp
	.seh_setframe	%rbp, 0
	.cfi_def_cfa_register 6
	.seh_endprologue
	movq	%rcx, 16(%rbp)
.LBB40:
	.loc 10 3488 36
	movq	16(%rbp), %rax
	movq	$0, (%rax)
.LBE40:
	.loc 10 3488 39
	nop
	popq	%rbp
	.cfi_restore 6
	.cfi_def_cfa 7, 8
	ret
	.cfi_endproc
.LFE11631:
	.seh_endproc
	.section	.text$_ZNK22wxScopedCharTypeBufferIwEcvPKwEv,"x"
	.linkonce discard
	.align 2
	.globl	_ZNK22wxScopedCharTypeBufferIwEcvPKwEv
	.def	_ZNK22wxScopedCharTypeBufferIwEcvPKwEv;	.scl	2;	.type	32;	.endef
	.seh_proc	_ZNK22wxScopedCharTypeBufferIwEcvPKwEv
_ZNK22wxScopedCharTypeBufferIwEcvPKwEv:
.LFB11635:
	.loc 8 157 5
	.cfi_startproc
	pushq	%rbp
	.seh_pushreg	%rbp
	.cfi_def_cfa_offset 16
	.cfi_offset 6, -16
	movq	%rsp, %rbp
	.seh_setframe	%rbp, 0
	.cfi_def_cfa_register 6
	subq	$32, %rsp
	.seh_stackalloc	32
	.seh_endprologue
	movq	%rcx, 16(%rbp)
	.loc 8 157 53
	movq	16(%rbp), %rcx
	call	_ZNK22wxScopedCharTypeBufferIwE4dataEv
	.loc 8 157 56
	addq	$32, %rsp
	popq	%rbp
	.cfi_restore 6
	.cfi_def_cfa 7, 8
	ret
	.cfi_endproc
.LFE11635:
	.seh_endproc
	.section	.text$_ZNK22wxScopedCharTypeBufferIwE4dataEv,"x"
	.linkonce discard
	.align 2
	.globl	_ZNK22wxScopedCharTypeBufferIwE4dataEv
	.def	_ZNK22wxScopedCharTypeBufferIwE4dataEv;	.scl	2;	.type	32;	.endef
	.seh_proc	_ZNK22wxScopedCharTypeBufferIwE4dataEv
_ZNK22wxScopedCharTypeBufferIwE4dataEv:
.LFB11648:
	.loc 8 156 21
	.cfi_startproc
	pushq	%rbp
	.seh_pushreg	%rbp
	.cfi_def_cfa_offset 16
	.cfi_offset 6, -16
	movq	%rsp, %rbp
	.seh_setframe	%rbp, 0
	.cfi_def_cfa_register 6
	subq	$32, %rsp
	.seh_stackalloc	32
	.seh_endprologue
	movq	%rcx, 16(%rbp)
	.loc 8 156 43
	movq	16(%rbp), %rax
	movq	(%rax), %rax
	.loc 8 156 55
	movq	%rax, %rcx
	call	_ZNK22wxScopedCharTypeBufferIwE4Data3GetEv
	.loc 8 156 58
	addq	$32, %rsp
	popq	%rbp
	.cfi_restore 6
	.cfi_def_cfa 7, 8
	ret
	.cfi_endproc
.LFE11648:
	.seh_endproc
	.section	.text$_ZStplIcSt11char_traitsIcESaIcEENSt7__cxx1112basic_stringIT_T0_T1_EEPKS5_OS8_,"x"
	.linkonce discard
	.globl	_ZStplIcSt11char_traitsIcESaIcEENSt7__cxx1112basic_stringIT_T0_T1_EEPKS5_OS8_
	.def	_ZStplIcSt11char_traitsIcESaIcEENSt7__cxx1112basic_stringIT_T0_T1_EEPKS5_OS8_;	.scl	2;	.type	32;	.endef
	.seh_proc	_ZStplIcSt11char_traitsIcESaIcEENSt7__cxx1112basic_stringIT_T0_T1_EEPKS5_OS8_
_ZStplIcSt11char_traitsIcESaIcEENSt7__cxx1112basic_stringIT_T0_T1_EEPKS5_OS8_:
.LFB11818:
	.loc 3 5977 5
	.cfi_startproc
	pushq	%rbp
	.seh_pushreg	%rbp
	.cfi_def_cfa_offset 16
	.cfi_offset 6, -16
	movq	%rsp, %rbp
	.seh_setframe	%rbp, 0
	.cfi_def_cfa_register 6
	subq	$32, %rsp
	.seh_stackalloc	32
	.seh_endprologue
	movq	%rcx, 16(%rbp)
	movq	%rdx, 24(%rbp)
	movq	%r8, 32(%rbp)
	.loc 3 5979 23
	movq	24(%rbp), %rdx
	movq	32(%rbp), %rax
	movq	%rdx, %r8
	movl	$0, %edx
	movq	%rax, %rcx
	call	_ZNSt7__cxx1112basic_stringIcSt11char_traitsIcESaIcEE6insertEyPKc
	movq	%rax, %rcx
	call	_ZSt4moveIRNSt7__cxx1112basic_stringIcSt11char_traitsIcESaIcEEEEONSt16remove_referenceIT_E4typeEOS8_
	.loc 3 5979 46
	movq	%rax, %rdx
	movq	16(%rbp), %rcx
	call	_ZNSt7__cxx1112basic_stringIcSt11char_traitsIcESaIcEEC1EOS4_
	.loc 3 5979 49
	movq	16(%rbp), %rax
	addq	$32, %rsp
	popq	%rbp
	.cfi_restore 6
	.cfi_def_cfa 7, 8
	ret
	.cfi_endproc
.LFE11818:
	.seh_endproc
	.section	.text$_ZStplIcSt11char_traitsIcESaIcEENSt7__cxx1112basic_stringIT_T0_T1_EEOS8_PKS5_,"x"
	.linkonce discard
	.globl	_ZStplIcSt11char_traitsIcESaIcEENSt7__cxx1112basic_stringIT_T0_T1_EEOS8_PKS5_
	.def	_ZStplIcSt11char_traitsIcESaIcEENSt7__cxx1112basic_stringIT_T0_T1_EEOS8_PKS5_;	.scl	2;	.type	32;	.endef
	.seh_proc	_ZStplIcSt11char_traitsIcESaIcEENSt7__cxx1112basic_stringIT_T0_T1_EEOS8_PKS5_
_ZStplIcSt11char_traitsIcESaIcEENSt7__cxx1112basic_stringIT_T0_T1_EEOS8_PKS5_:
.LFB11957:
	.loc 3 5989 5
	.cfi_startproc
	pushq	%rbp
	.seh_pushreg	%rbp
	.cfi_def_cfa_offset 16
	.cfi_offset 6, -16
	movq	%rsp, %rbp
	.seh_setframe	%rbp, 0
	.cfi_def_cfa_register 6
	subq	$32, %rsp
	.seh_stackalloc	32
	.seh_endprologue
	movq	%rcx, 16(%rbp)
	movq	%rdx, 24(%rbp)
	movq	%r8, 32(%rbp)
	.loc 3 5991 23
	movq	32(%rbp), %rdx
	movq	24(%rbp), %rax
	movq	%rax, %rcx
	call	_ZNSt7__cxx1112basic_stringIcSt11char_traitsIcESaIcEE6appendEPKc
	movq	%rax, %rcx
	call	_ZSt4moveIRNSt7__cxx1112basic_stringIcSt11char_traitsIcESaIcEEEEONSt16remove_referenceIT_E4typeEOS8_
	.loc 3 5991 43
	movq	%rax, %rdx
	movq	16(%rbp), %rcx
	call	_ZNSt7__cxx1112basic_stringIcSt11char_traitsIcESaIcEEC1EOS4_
	.loc 3 5991 46
	movq	16(%rbp), %rax
	addq	$32, %rsp
	popq	%rbp
	.cfi_restore 6
	.cfi_def_cfa 7, 8
	ret
	.cfi_endproc
.LFE11957:
	.seh_endproc
	.section	.text$_ZNSt7__cxx1112basic_stringIcSt11char_traitsIcESaIcEEC1IPcvEET_S7_RKS3_,"x"
	.linkonce discard
	.align 2
	.globl	_ZNSt7__cxx1112basic_stringIcSt11char_traitsIcESaIcEEC1IPcvEET_S7_RKS3_
	.def	_ZNSt7__cxx1112basic_stringIcSt11char_traitsIcESaIcEEC1IPcvEET_S7_RKS3_;	.scl	2;	.type	32;	.endef
	.seh_proc	_ZNSt7__cxx1112basic_stringIcSt11char_traitsIcESaIcEEC1IPcvEET_S7_RKS3_
_ZNSt7__cxx1112basic_stringIcSt11char_traitsIcESaIcEEC1IPcvEET_S7_RKS3_:
.LFB11961:
	.loc 3 604 9
	.cfi_startproc
	pushq	%rbp
	.seh_pushreg	%rbp
	.cfi_def_cfa_offset 16
	.cfi_offset 6, -16
	pushq	%rbx
	.seh_pushreg	%rbx
	.cfi_def_cfa_offset 24
	.cfi_offset 3, -24
	subq	$40, %rsp
	.seh_stackalloc	40
	.cfi_def_cfa_offset 64
	leaq	128(%rsp), %rbp
	.seh_setframe	%rbp, 128
	.cfi_def_cfa 6, -64
	.seh_endprologue
	movq	%rcx, -64(%rbp)
	movq	%rdx, -56(%rbp)
	movq	%r8, -48(%rbp)
	movq	%r9, -40(%rbp)
.LBB41:
	.loc 3 606 36
	movq	-64(%rbp), %rbx
	movq	-64(%rbp), %rcx
.LEHB97:
	call	_ZNSt7__cxx1112basic_stringIcSt11char_traitsIcESaIcEE13_M_local_dataEv
	movq	%rax, %rdx
	movq	-40(%rbp), %rax
	movq	%rax, %r8
	movq	%rbx, %rcx
	call	_ZNSt7__cxx1112basic_stringIcSt11char_traitsIcESaIcEE12_Alloc_hiderC1EPcRKS3_
.LEHE97:
	.loc 3 607 4
	movq	-48(%rbp), %rdx
	movq	-56(%rbp), %rax
	movq	%rdx, %r8
	movq	%rax, %rdx
	movq	-64(%rbp), %rcx
.LEHB98:
	call	_ZNSt7__cxx1112basic_stringIcSt11char_traitsIcESaIcEE12_M_constructIPcEEvT_S7_
.LEHE98:
.LBE41:
	.loc 3 607 32
	jmp	.L264
.L263:
	movq	%rax, %rbx
.LBB42:
	.loc 3 606 36
	movq	-64(%rbp), %rax
	movq	%rax, %rcx
	call	_ZNSt7__cxx1112basic_stringIcSt11char_traitsIcESaIcEE12_Alloc_hiderD1Ev
	movq	%rbx, %rax
	movq	%rax, %rcx
.LEHB99:
	call	_Unwind_Resume
	nop
.LEHE99:
.L264:
.LBE42:
	.loc 3 607 32
	addq	$40, %rsp
	popq	%rbx
	.cfi_restore 3
	popq	%rbp
	.cfi_restore 6
	.cfi_def_cfa 7, -24
	ret
	.cfi_endproc
.LFE11961:
	.seh_handler	__gxx_personality_seh0, @unwind, @except
	.seh_handlerdata
.LLSDA11961:
	.byte	0xff
	.byte	0xff
	.byte	0x1
	.uleb128 .LLSDACSE11961-.LLSDACSB11961
.LLSDACSB11961:
	.uleb128 .LEHB97-.LFB11961
	.uleb128 .LEHE97-.LEHB97
	.uleb128 0
	.uleb128 0
	.uleb128 .LEHB98-.LFB11961
	.uleb128 .LEHE98-.LEHB98
	.uleb128 .L263-.LFB11961
	.uleb128 0
	.uleb128 .LEHB99-.LFB11961
	.uleb128 .LEHE99-.LEHB99
	.uleb128 0
	.uleb128 0
.LLSDACSE11961:
	.section	.text$_ZNSt7__cxx1112basic_stringIcSt11char_traitsIcESaIcEEC1IPcvEET_S7_RKS3_,"x"
	.linkonce discard
	.seh_endproc
	.section	.text$_ZNSt7__cxx1112basic_stringIcSt11char_traitsIcESaIcEE12_M_constructIPcEEvT_S7_,"x"
	.linkonce discard
	.align 2
	.globl	_ZNSt7__cxx1112basic_stringIcSt11char_traitsIcESaIcEE12_M_constructIPcEEvT_S7_
	.def	_ZNSt7__cxx1112basic_stringIcSt11char_traitsIcESaIcEE12_M_constructIPcEEvT_S7_;	.scl	2;	.type	32;	.endef
	.seh_proc	_ZNSt7__cxx1112basic_stringIcSt11char_traitsIcESaIcEE12_M_constructIPcEEvT_S7_
_ZNSt7__cxx1112basic_stringIcSt11char_traitsIcESaIcEE12_M_constructIPcEEvT_S7_:
.LFB12010:
	.loc 3 252 9
	.cfi_startproc
	pushq	%rbp
	.seh_pushreg	%rbp
	.cfi_def_cfa_offset 16
	.cfi_offset 6, -16
	movq	%rsp, %rbp
	.seh_setframe	%rbp, 0
	.cfi_def_cfa_register 6
	subq	$48, %rsp
	.seh_stackalloc	48
	.seh_endprologue
	movq	%rcx, 16(%rbp)
	movq	%rdx, 24(%rbp)
	movq	%r8, 32(%rbp)
	.loc 3 255 4
	movq	32(%rbp), %rdx
	movq	24(%rbp), %rax
	movq	%rdx, %r8
	movq	%rax, %rdx
	movq	16(%rbp), %rcx
	call	_ZNSt7__cxx1112basic_stringIcSt11char_traitsIcESaIcEE16_M_construct_auxIPcEEvT_S7_St12__false_type
	.loc 3 256 9
	nop
	addq	$48, %rsp
	popq	%rbp
	.cfi_restore 6
	.cfi_def_cfa 7, 8
	ret
	.cfi_endproc
.LFE12010:
	.seh_endproc
	.section	.text$_ZN22wxScopedCharTypeBufferIwE4DataD1Ev,"x"
	.linkonce discard
	.align 2
	.globl	_ZN22wxScopedCharTypeBufferIwE4DataD1Ev
	.def	_ZN22wxScopedCharTypeBufferIwE4DataD1Ev;	.scl	2;	.type	32;	.endef
	.seh_proc	_ZN22wxScopedCharTypeBufferIwE4DataD1Ev
_ZN22wxScopedCharTypeBufferIwE4DataD1Ev:
.LFB12044:
	.loc 8 164 12
	.cfi_startproc
	pushq	%rbp
	.seh_pushreg	%rbp
	.cfi_def_cfa_offset 16
	.cfi_offset 6, -16
	movq	%rsp, %rbp
	.seh_setframe	%rbp, 0
	.cfi_def_cfa_register 6
	subq	$32, %rsp
	.seh_stackalloc	32
	.seh_endprologue
	movq	%rcx, 16(%rbp)
.LBB43:
	.loc 8 164 12
	movq	16(%rbp), %rax
	movq	%rax, %rcx
	call	_ZN9wxPrivate17UntypedBufferDataD2Ev
.LBE43:
	nop
	addq	$32, %rsp
	popq	%rbp
	.cfi_restore 6
	.cfi_def_cfa 7, 8
	ret
	.cfi_endproc
.LFE12044:
	.seh_endproc
	.section	.text$_ZN22wxScopedCharTypeBufferIwE6DecRefEv,"x"
	.linkonce discard
	.align 2
	.globl	_ZN22wxScopedCharTypeBufferIwE6DecRefEv
	.def	_ZN22wxScopedCharTypeBufferIwE6DecRefEv;	.scl	2;	.type	32;	.endef
	.seh_proc	_ZN22wxScopedCharTypeBufferIwE6DecRefEv
_ZN22wxScopedCharTypeBufferIwE6DecRefEv:
.LFB12041:
	.loc 8 192 10
	.cfi_startproc
	pushq	%rbp
	.seh_pushreg	%rbp
	.cfi_def_cfa_offset 16
	.cfi_offset 6, -16
	pushq	%rbx
	.seh_pushreg	%rbx
	.cfi_def_cfa_offset 24
	.cfi_offset 3, -24
	subq	$40, %rsp
	.seh_stackalloc	40
	.cfi_def_cfa_offset 64
	leaq	128(%rsp), %rbp
	.seh_setframe	%rbp, 128
	.cfi_def_cfa 6, -64
	.seh_endprologue
	movq	%rcx, -64(%rbp)
	.loc 8 194 14
	movq	-64(%rbp), %rax
	movq	(%rax), %rbx
	.loc 8 194 35
	call	_ZN22wxScopedCharTypeBufferIwE11GetNullDataEv
	.loc 8 194 21
	cmpq	%rax, %rbx
	sete	%al
	.loc 8 194 9
	testb	%al, %al
	jne	.L271
	.loc 8 196 16
	movq	-64(%rbp), %rax
	movq	(%rax), %rax
	.loc 8 196 24
	movzwl	16(%rax), %edx
	.loc 8 196 30
	subl	$1, %edx
	movw	%dx, 16(%rax)
	.loc 8 196 24
	movzwl	16(%rax), %eax
	.loc 8 196 30
	testw	%ax, %ax
	sete	%al
	.loc 8 196 9
	testb	%al, %al
	je	.L270
	.loc 8 197 20
	movq	-64(%rbp), %rax
	movq	(%rax), %rbx
	.loc 8 197 13
	testq	%rbx, %rbx
	je	.L270
	.loc 8 197 13 is_stmt 0 discriminator 1
	movq	%rbx, %rcx
	call	_ZN22wxScopedCharTypeBufferIwE4DataD1Ev
	movq	%rbx, %rcx
	call	_ZdlPv
.L270:
	.loc 8 198 29 is_stmt 1
	call	_ZN22wxScopedCharTypeBufferIwE11GetNullDataEv
	movq	%rax, %rdx
	.loc 8 198 9
	movq	-64(%rbp), %rax
	movq	%rdx, (%rax)
	jmp	.L267
.L271:
	.loc 8 195 13
	nop
.L267:
	.loc 8 199 5
	addq	$40, %rsp
	popq	%rbx
	.cfi_restore 3
	popq	%rbp
	.cfi_restore 6
	.cfi_def_cfa 7, -24
	ret
	.cfi_endproc
.LFE12041:
	.seh_endproc
	.section	.text$_ZN22wxScopedCharTypeBufferIwE11GetNullDataEv,"x"
	.linkonce discard
	.globl	_ZN22wxScopedCharTypeBufferIwE11GetNullDataEv
	.def	_ZN22wxScopedCharTypeBufferIwE11GetNullDataEv;	.scl	2;	.type	32;	.endef
	.seh_proc	_ZN22wxScopedCharTypeBufferIwE11GetNullDataEv
_ZN22wxScopedCharTypeBufferIwE11GetNullDataEv:
.LFB12050:
	.loc 8 180 18
	.cfi_startproc
	pushq	%rbp
	.seh_pushreg	%rbp
	.cfi_def_cfa_offset 16
	.cfi_offset 6, -16
	movq	%rsp, %rbp
	.seh_setframe	%rbp, 0
	.cfi_def_cfa_register 6
	subq	$32, %rsp
	.seh_stackalloc	32
	.seh_endprologue
	.loc 8 182 65
	call	_ZN9wxPrivate18GetUntypedNullDataEv
	.loc 8 183 5
	addq	$32, %rsp
	popq	%rbp
	.cfi_restore 6
	.cfi_def_cfa 7, 8
	ret
	.cfi_endproc
.LFE12050:
	.seh_endproc
	.section	.text$_ZN22wxScopedCharTypeBufferIwE6IncRefEv,"x"
	.linkonce discard
	.align 2
	.globl	_ZN22wxScopedCharTypeBufferIwE6IncRefEv
	.def	_ZN22wxScopedCharTypeBufferIwE6IncRefEv;	.scl	2;	.type	32;	.endef
	.seh_proc	_ZN22wxScopedCharTypeBufferIwE6IncRefEv
_ZN22wxScopedCharTypeBufferIwE6IncRefEv:
.LFB12052:
	.loc 8 185 10
	.cfi_startproc
	pushq	%rbp
	.seh_pushreg	%rbp
	.cfi_def_cfa_offset 16
	.cfi_offset 6, -16
	pushq	%rbx
	.seh_pushreg	%rbx
	.cfi_def_cfa_offset 24
	.cfi_offset 3, -24
	subq	$40, %rsp
	.seh_stackalloc	40
	.cfi_def_cfa_offset 64
	leaq	128(%rsp), %rbp
	.seh_setframe	%rbp, 128
	.cfi_def_cfa 6, -64
	.seh_endprologue
	movq	%rcx, -64(%rbp)
	.loc 8 187 14
	movq	-64(%rbp), %rax
	movq	(%rax), %rbx
	.loc 8 187 35
	call	_ZN22wxScopedCharTypeBufferIwE11GetNullDataEv
	.loc 8 187 21
	cmpq	%rax, %rbx
	sete	%al
	.loc 8 187 9
	testb	%al, %al
	jne	.L277
	.loc 8 189 9
	movq	-64(%rbp), %rax
	movq	(%rax), %rax
	.loc 8 189 17
	movzwl	16(%rax), %edx
	.loc 8 189 9
	addl	$1, %edx
	movw	%dx, 16(%rax)
	jmp	.L274
.L277:
	.loc 8 188 13
	nop
.L274:
	.loc 8 190 5
	addq	$40, %rsp
	popq	%rbx
	.cfi_restore 3
	popq	%rbp
	.cfi_restore 6
	.cfi_def_cfa 7, -24
	ret
	.cfi_endproc
.LFE12052:
	.seh_endproc
	.section	.text$_ZNK22wxScopedCharTypeBufferIwE4Data3GetEv,"x"
	.linkonce discard
	.align 2
	.globl	_ZNK22wxScopedCharTypeBufferIwE4Data3GetEv
	.def	_ZNK22wxScopedCharTypeBufferIwE4Data3GetEv;	.scl	2;	.type	32;	.endef
	.seh_proc	_ZNK22wxScopedCharTypeBufferIwE4Data3GetEv
_ZNK22wxScopedCharTypeBufferIwE4Data3GetEv:
.LFB12080:
	.loc 8 171 19
	.cfi_startproc
	pushq	%rbp
	.seh_pushreg	%rbp
	.cfi_def_cfa_offset 16
	.cfi_offset 6, -16
	movq	%rsp, %rbp
	.seh_setframe	%rbp, 0
	.cfi_def_cfa_register 6
	.seh_endprologue
	movq	%rcx, 16(%rbp)
	.loc 8 171 69
	movq	16(%rbp), %rax
	movq	(%rax), %rax
	.loc 8 171 72
	popq	%rbp
	.cfi_restore 6
	.cfi_def_cfa 7, 8
	ret
	.cfi_endproc
.LFE12080:
	.seh_endproc
	.section	.text$_ZSt4moveIRNSt7__cxx1112basic_stringIcSt11char_traitsIcESaIcEEEEONSt16remove_referenceIT_E4typeEOS8_,"x"
	.linkonce discard
	.globl	_ZSt4moveIRNSt7__cxx1112basic_stringIcSt11char_traitsIcESaIcEEEEONSt16remove_referenceIT_E4typeEOS8_
	.def	_ZSt4moveIRNSt7__cxx1112basic_stringIcSt11char_traitsIcESaIcEEEEONSt16remove_referenceIT_E4typeEOS8_;	.scl	2;	.type	32;	.endef
	.seh_proc	_ZSt4moveIRNSt7__cxx1112basic_stringIcSt11char_traitsIcESaIcEEEEONSt16remove_referenceIT_E4typeEOS8_
_ZSt4moveIRNSt7__cxx1112basic_stringIcSt11char_traitsIcESaIcEEEEONSt16remove_referenceIT_E4typeEOS8_:
.LFB12143:
	.file 19 "C:/Program Files/CodeBlocks/MinGW/lib/gcc/x86_64-w64-mingw32/8.1.0/include/c++/bits/move.h"
	.loc 19 99 5
	.cfi_startproc
	pushq	%rbp
	.seh_pushreg	%rbp
	.cfi_def_cfa_offset 16
	.cfi_offset 6, -16
	movq	%rsp, %rbp
	.seh_setframe	%rbp, 0
	.cfi_def_cfa_register 6
	.seh_endprologue
	movq	%rcx, 16(%rbp)
	.loc 19 100 74
	movq	16(%rbp), %rax
	.loc 19 100 77
	popq	%rbp
	.cfi_restore 6
	.cfi_def_cfa 7, 8
	ret
	.cfi_endproc
.LFE12143:
	.seh_endproc
	.section	.text$_ZNSt7__cxx1112basic_stringIcSt11char_traitsIcESaIcEE16_M_construct_auxIPcEEvT_S7_St12__false_type,"x"
	.linkonce discard
	.align 2
	.globl	_ZNSt7__cxx1112basic_stringIcSt11char_traitsIcESaIcEE16_M_construct_auxIPcEEvT_S7_St12__false_type
	.def	_ZNSt7__cxx1112basic_stringIcSt11char_traitsIcESaIcEE16_M_construct_auxIPcEEvT_S7_St12__false_type;	.scl	2;	.type	32;	.endef
	.seh_proc	_ZNSt7__cxx1112basic_stringIcSt11char_traitsIcESaIcEE16_M_construct_auxIPcEEvT_S7_St12__false_type
_ZNSt7__cxx1112basic_stringIcSt11char_traitsIcESaIcEE16_M_construct_auxIPcEEvT_S7_St12__false_type:
.LFB12216:
	.loc 3 232 9
	.cfi_startproc
	pushq	%rbp
	.seh_pushreg	%rbp
	.cfi_def_cfa_offset 16
	.cfi_offset 6, -16
	movq	%rsp, %rbp
	.seh_setframe	%rbp, 0
	.cfi_def_cfa_register 6
	subq	$48, %rsp
	.seh_stackalloc	48
	.seh_endprologue
	movq	%rcx, 16(%rbp)
	movq	%rdx, 24(%rbp)
	movq	%r8, 32(%rbp)
	movb	%r9b, 40(%rbp)
	.loc 3 236 11
	movq	32(%rbp), %rdx
	movq	24(%rbp), %rax
	movl	%r10d, %r9d
	movq	%rdx, %r8
	movq	%rax, %rdx
	movq	16(%rbp), %rcx
	call	_ZNSt7__cxx1112basic_stringIcSt11char_traitsIcESaIcEE12_M_constructIPcEEvT_S7_St20forward_iterator_tag
	.loc 3 237 2
	nop
	addq	$48, %rsp
	popq	%rbp
	.cfi_restore 6
	.cfi_def_cfa 7, 8
	ret
	.cfi_endproc
.LFE12216:
	.seh_endproc
	.section .rdata,"dr"
	.align 8
.LC27:
	.ascii "basic_string::_M_construct null not valid\0"
	.section	.text$_ZNSt7__cxx1112basic_stringIcSt11char_traitsIcESaIcEE12_M_constructIPcEEvT_S7_St20forward_iterator_tag,"x"
	.linkonce discard
	.align 2
	.globl	_ZNSt7__cxx1112basic_stringIcSt11char_traitsIcESaIcEE12_M_constructIPcEEvT_S7_St20forward_iterator_tag
	.def	_ZNSt7__cxx1112basic_stringIcSt11char_traitsIcESaIcEE12_M_constructIPcEEvT_S7_St20forward_iterator_tag;	.scl	2;	.type	32;	.endef
	.seh_proc	_ZNSt7__cxx1112basic_stringIcSt11char_traitsIcESaIcEE12_M_constructIPcEEvT_S7_St20forward_iterator_tag
_ZNSt7__cxx1112basic_stringIcSt11char_traitsIcESaIcEE12_M_constructIPcEEvT_S7_St20forward_iterator_tag:
.LFB12315:
	.file 20 "C:/Program Files/CodeBlocks/MinGW/lib/gcc/x86_64-w64-mingw32/8.1.0/include/c++/bits/basic_string.tcc"
	.loc 20 206 7
	.cfi_startproc
	pushq	%rbp
	.seh_pushreg	%rbp
	.cfi_def_cfa_offset 16
	.cfi_offset 6, -16
	pushq	%rbx
	.seh_pushreg	%rbx
	.cfi_def_cfa_offset 24
	.cfi_offset 3, -24
	subq	$56, %rsp
	.seh_stackalloc	56
	.cfi_def_cfa_offset 80
	leaq	128(%rsp), %rbp
	.seh_setframe	%rbp, 128
	.cfi_def_cfa 6, -48
	.seh_endprologue
	movq	%rcx, -48(%rbp)
	movq	%rdx, -40(%rbp)
	movq	%r8, -32(%rbp)
	movb	%r9b, -24(%rbp)
	.loc 20 211 34
	movq	-40(%rbp), %rax
	movq	%rax, %rcx
	call	_ZN9__gnu_cxx17__is_null_pointerIcEEbPT_
	.loc 20 211 42
	testb	%al, %al
	je	.L284
	.loc 20 211 42 is_stmt 0 discriminator 1
	movq	-40(%rbp), %rax
	cmpq	-32(%rbp), %rax
	je	.L284
	.loc 20 211 42 discriminator 3
	movl	$1, %eax
	jmp	.L285
.L284:
	.loc 20 211 42 discriminator 4
	movl	$0, %eax
.L285:
	.loc 20 211 2 is_stmt 1 discriminator 6
	testb	%al, %al
	je	.L286
	.loc 20 212 28
	leaq	.LC27(%rip), %rcx
.LEHB100:
	call	_ZSt19__throw_logic_errorPKc
.L286:
	.loc 20 215 57
	movq	-32(%rbp), %rdx
	movq	-40(%rbp), %rax
	movq	%rax, %rcx
	call	_ZSt8distanceIPcENSt15iterator_traitsIT_E15difference_typeES2_S2_
	.loc 20 215 12
	movq	%rax, -88(%rbp)
	.loc 20 217 13
	movq	-88(%rbp), %rax
	.loc 20 217 2
	cmpq	$15, %rax
	jbe	.L287
	.loc 20 219 6
	leaq	-88(%rbp), %rax
	movl	$0, %r8d
	movq	%rax, %rdx
	movq	-48(%rbp), %rcx
	call	_ZNSt7__cxx1112basic_stringIcSt11char_traitsIcESaIcEE9_M_createERyy
	movq	%rax, %rdx
	movq	-48(%rbp), %rcx
	call	_ZNSt7__cxx1112basic_stringIcSt11char_traitsIcESaIcEE7_M_dataEPc
	.loc 20 220 6
	movq	-88(%rbp), %rax
	movq	%rax, %rdx
	movq	-48(%rbp), %rcx
	call	_ZNSt7__cxx1112basic_stringIcSt11char_traitsIcESaIcEE11_M_capacityEy
.LEHE100:
.L287:
	.loc 20 225 6
	movq	-48(%rbp), %rcx
.LEHB101:
	call	_ZNKSt7__cxx1112basic_stringIcSt11char_traitsIcESaIcEE7_M_dataEv
.LEHE101:
	movq	%rax, %rcx
	movq	-32(%rbp), %rdx
	movq	-40(%rbp), %rax
	movq	%rdx, %r8
	movq	%rax, %rdx
	call	_ZNSt7__cxx1112basic_stringIcSt11char_traitsIcESaIcEE13_S_copy_charsEPcS5_S5_
	.loc 20 232 2
	movq	-88(%rbp), %rax
	movq	%rax, %rdx
	movq	-48(%rbp), %rcx
.LEHB102:
	call	_ZNSt7__cxx1112basic_stringIcSt11char_traitsIcESaIcEE13_M_set_lengthEy
.LEHE102:
	.loc 20 233 7
	jmp	.L292
.L290:
	.loc 20 226 2
	movq	%rax, %rcx
	call	__cxa_begin_catch
	.loc 20 228 6
	movq	-48(%rbp), %rcx
.LEHB103:
	call	_ZNSt7__cxx1112basic_stringIcSt11char_traitsIcESaIcEE10_M_disposeEv
	.loc 20 229 6
	call	__cxa_rethrow
.LEHE103:
.L291:
	movq	%rax, %rbx
	.loc 20 226 2
	call	__cxa_end_catch
	movq	%rbx, %rax
	movq	%rax, %rcx
.LEHB104:
	call	_Unwind_Resume
	nop
.LEHE104:
.L292:
	.loc 20 233 7
	addq	$56, %rsp
	popq	%rbx
	.cfi_restore 3
	popq	%rbp
	.cfi_restore 6
	.cfi_def_cfa 7, -40
	ret
	.cfi_endproc
.LFE12315:
	.seh_handler	__gxx_personality_seh0, @unwind, @except
	.seh_handlerdata
	.align 4
.LLSDA12315:
	.byte	0xff
	.byte	0x9b
	.uleb128 .LLSDATT12315-.LLSDATTD12315
.LLSDATTD12315:
	.byte	0x1
	.uleb128 .LLSDACSE12315-.LLSDACSB12315
.LLSDACSB12315:
	.uleb128 .LEHB100-.LFB12315
	.uleb128 .LEHE100-.LEHB100
	.uleb128 0
	.uleb128 0
	.uleb128 .LEHB101-.LFB12315
	.uleb128 .LEHE101-.LEHB101
	.uleb128 .L290-.LFB12315
	.uleb128 0x1
	.uleb128 .LEHB102-.LFB12315
	.uleb128 .LEHE102-.LEHB102
	.uleb128 0
	.uleb128 0
	.uleb128 .LEHB103-.LFB12315
	.uleb128 .LEHE103-.LEHB103
	.uleb128 .L291-.LFB12315
	.uleb128 0
	.uleb128 .LEHB104-.LFB12315
	.uleb128 .LEHE104-.LEHB104
	.uleb128 0
	.uleb128 0
.LLSDACSE12315:
	.byte	0x1
	.byte	0
	.align 4
	.long	0

.LLSDATT12315:
	.section	.text$_ZNSt7__cxx1112basic_stringIcSt11char_traitsIcESaIcEE12_M_constructIPcEEvT_S7_St20forward_iterator_tag,"x"
	.linkonce discard
	.seh_endproc
	.section	.text$_ZN9__gnu_cxx17__is_null_pointerIcEEbPT_,"x"
	.linkonce discard
	.globl	_ZN9__gnu_cxx17__is_null_pointerIcEEbPT_
	.def	_ZN9__gnu_cxx17__is_null_pointerIcEEbPT_;	.scl	2;	.type	32;	.endef
	.seh_proc	_ZN9__gnu_cxx17__is_null_pointerIcEEbPT_
_ZN9__gnu_cxx17__is_null_pointerIcEEbPT_:
.LFB12360:
	.file 21 "C:/Program Files/CodeBlocks/MinGW/lib/gcc/x86_64-w64-mingw32/8.1.0/include/c++/ext/type_traits.h"
	.loc 21 152 5
	.cfi_startproc
	pushq	%rbp
	.seh_pushreg	%rbp
	.cfi_def_cfa_offset 16
	.cfi_offset 6, -16
	movq	%rsp, %rbp
	.seh_setframe	%rbp, 0
	.cfi_def_cfa_register 6
	.seh_endprologue
	movq	%rcx, 16(%rbp)
	.loc 21 153 23
	cmpq	$0, 16(%rbp)
	sete	%al
	.loc 21 153 26
	popq	%rbp
	.cfi_restore 6
	.cfi_def_cfa 7, 8
	ret
	.cfi_endproc
.LFE12360:
	.seh_endproc
	.section	.text$_ZSt19__iterator_categoryIPcENSt15iterator_traitsIT_E17iterator_categoryERKS2_,"x"
	.linkonce discard
	.globl	_ZSt19__iterator_categoryIPcENSt15iterator_traitsIT_E17iterator_categoryERKS2_
	.def	_ZSt19__iterator_categoryIPcENSt15iterator_traitsIT_E17iterator_categoryERKS2_;	.scl	2;	.type	32;	.endef
	.seh_proc	_ZSt19__iterator_categoryIPcENSt15iterator_traitsIT_E17iterator_categoryERKS2_
_ZSt19__iterator_categoryIPcENSt15iterator_traitsIT_E17iterator_categoryERKS2_:
.LFB12362:
	.file 22 "C:/Program Files/CodeBlocks/MinGW/lib/gcc/x86_64-w64-mingw32/8.1.0/include/c++/bits/stl_iterator_base_types.h"
	.loc 22 205 5
	.cfi_startproc
	pushq	%rbp
	.seh_pushreg	%rbp
	.cfi_def_cfa_offset 16
	.cfi_offset 6, -16
	movq	%rsp, %rbp
	.seh_setframe	%rbp, 0
	.cfi_def_cfa_register 6
	.seh_endprologue
	movq	%rcx, 16(%rbp)
	.loc 22 206 68
	popq	%rbp
	.cfi_restore 6
	.cfi_def_cfa 7, 8
	ret
	.cfi_endproc
.LFE12362:
	.seh_endproc
	.section	.text$_ZSt8distanceIPcENSt15iterator_traitsIT_E15difference_typeES2_S2_,"x"
	.linkonce discard
	.globl	_ZSt8distanceIPcENSt15iterator_traitsIT_E15difference_typeES2_S2_
	.def	_ZSt8distanceIPcENSt15iterator_traitsIT_E15difference_typeES2_S2_;	.scl	2;	.type	32;	.endef
	.seh_proc	_ZSt8distanceIPcENSt15iterator_traitsIT_E15difference_typeES2_S2_
_ZSt8distanceIPcENSt15iterator_traitsIT_E15difference_typeES2_S2_:
.LFB12361:
	.file 23 "C:/Program Files/CodeBlocks/MinGW/lib/gcc/x86_64-w64-mingw32/8.1.0/include/c++/bits/stl_iterator_base_funcs.h"
	.loc 23 138 5
	.cfi_startproc
	pushq	%rbp
	.seh_pushreg	%rbp
	.cfi_def_cfa_offset 16
	.cfi_offset 6, -16
	pushq	%rbx
	.seh_pushreg	%rbx
	.cfi_def_cfa_offset 24
	.cfi_offset 3, -24
	subq	$56, %rsp
	.seh_stackalloc	56
	.cfi_def_cfa_offset 80
	leaq	128(%rsp), %rbp
	.seh_setframe	%rbp, 128
	.cfi_def_cfa 6, -48
	.seh_endprologue
	movq	%rcx, -48(%rbp)
	movq	%rdx, -40(%rbp)
	.loc 23 142 33
	leaq	-48(%rbp), %rcx
	call	_ZSt19__iterator_categoryIPcENSt15iterator_traitsIT_E17iterator_categoryERKS2_
	.loc 23 141 29
	movq	-48(%rbp), %rax
	movq	-40(%rbp), %rdx
	movl	%ebx, %r8d
	movq	%rax, %rcx
	call	_ZSt10__distanceIPcENSt15iterator_traitsIT_E15difference_typeES2_S2_St26random_access_iterator_tag
	.loc 23 142 42
	nop
	.loc 23 143 5
	addq	$56, %rsp
	popq	%rbx
	.cfi_restore 3
	popq	%rbp
	.cfi_restore 6
	.cfi_def_cfa 7, -40
	ret
	.cfi_endproc
.LFE12361:
	.seh_endproc
	.section	.text$_ZSt10__distanceIPcENSt15iterator_traitsIT_E15difference_typeES2_S2_St26random_access_iterator_tag,"x"
	.linkonce discard
	.globl	_ZSt10__distanceIPcENSt15iterator_traitsIT_E15difference_typeES2_S2_St26random_access_iterator_tag
	.def	_ZSt10__distanceIPcENSt15iterator_traitsIT_E15difference_typeES2_S2_St26random_access_iterator_tag;	.scl	2;	.type	32;	.endef
	.seh_proc	_ZSt10__distanceIPcENSt15iterator_traitsIT_E15difference_typeES2_S2_St26random_access_iterator_tag
_ZSt10__distanceIPcENSt15iterator_traitsIT_E15difference_typeES2_S2_St26random_access_iterator_tag:
.LFB12394:
	.loc 23 98 5
	.cfi_startproc
	pushq	%rbp
	.seh_pushreg	%rbp
	.cfi_def_cfa_offset 16
	.cfi_offset 6, -16
	movq	%rsp, %rbp
	.seh_setframe	%rbp, 0
	.cfi_def_cfa_register 6
	.seh_endprologue
	movq	%rcx, 16(%rbp)
	movq	%rdx, 24(%rbp)
	movb	%r8b, 32(%rbp)
	.loc 23 104 23
	movq	24(%rbp), %rax
	subq	16(%rbp), %rax
	.loc 23 105 5
	popq	%rbp
	.cfi_restore 6
	.cfi_def_cfa 7, 8
	ret
	.cfi_endproc
.LFE12394:
	.seh_endproc
	.globl	_ZTV15GeradorTabularI
	.section	.rdata$_ZTV15GeradorTabularI,"dr"
	.linkonce same_size
	.align 8
_ZTV15GeradorTabularI:
	.quad	0
	.quad	_ZTI15GeradorTabularI
	.quad	_ZN15GeradorTabularI11gerarTabelaEP21CalculadorAtmosfericod15TIPO_TRAJETORIAdd
	.globl	_ZTV20wxObjectEventFunctor
	.section	.rdata$_ZTV20wxObjectEventFunctor,"dr"
	.linkonce same_size
	.align 8
_ZTV20wxObjectEventFunctor:
	.quad	0
	.quad	_ZTI20wxObjectEventFunctor
	.quad	_ZN20wxObjectEventFunctorD1Ev
	.quad	_ZN20wxObjectEventFunctorD0Ev
	.quad	_ZN20wxObjectEventFunctorclEP12wxEvtHandlerR7wxEvent
	.quad	_ZNK20wxObjectEventFunctor10IsMatchingERK14wxEventFunctor
	.quad	_ZNK20wxObjectEventFunctor13GetEvtHandlerEv
	.quad	_ZNK20wxObjectEventFunctor12GetEvtMethodEv
	.section	.text$_ZN20wxObjectEventFunctorD1Ev,"x"
	.linkonce discard
	.align 2
	.globl	_ZN20wxObjectEventFunctorD1Ev
	.def	_ZN20wxObjectEventFunctorD1Ev;	.scl	2;	.type	32;	.endef
	.seh_proc	_ZN20wxObjectEventFunctorD1Ev
_ZN20wxObjectEventFunctorD1Ev:
.LFB12422:
	.loc 13 240 7
	.cfi_startproc
	pushq	%rbp
	.seh_pushreg	%rbp
	.cfi_def_cfa_offset 16
	.cfi_offset 6, -16
	movq	%rsp, %rbp
	.seh_setframe	%rbp, 0
	.cfi_def_cfa_register 6
	subq	$32, %rsp
	.seh_stackalloc	32
	.seh_endprologue
	movq	%rcx, 16(%rbp)
.LBB44:
	.loc 13 240 7
	leaq	16+_ZTV20wxObjectEventFunctor(%rip), %rdx
	movq	16(%rbp), %rax
	movq	%rdx, (%rax)
	movq	16(%rbp), %rax
	movq	%rax, %rcx
	call	_ZN14wxEventFunctorD2Ev
.LBE44:
	nop
	addq	$32, %rsp
	popq	%rbp
	.cfi_restore 6
	.cfi_def_cfa 7, 8
	ret
	.cfi_endproc
.LFE12422:
	.seh_endproc
	.section	.text$_ZN20wxObjectEventFunctorD0Ev,"x"
	.linkonce discard
	.align 2
	.globl	_ZN20wxObjectEventFunctorD0Ev
	.def	_ZN20wxObjectEventFunctorD0Ev;	.scl	2;	.type	32;	.endef
	.seh_proc	_ZN20wxObjectEventFunctorD0Ev
_ZN20wxObjectEventFunctorD0Ev:
.LFB12423:
	.loc 13 240 7
	.cfi_startproc
	pushq	%rbp
	.seh_pushreg	%rbp
	.cfi_def_cfa_offset 16
	.cfi_offset 6, -16
	movq	%rsp, %rbp
	.seh_setframe	%rbp, 0
	.cfi_def_cfa_register 6
	subq	$32, %rsp
	.seh_stackalloc	32
	.seh_endprologue
	movq	%rcx, 16(%rbp)
	.loc 13 240 7
	movq	16(%rbp), %rcx
	call	_ZN20wxObjectEventFunctorD1Ev
	movq	16(%rbp), %rcx
	call	_ZdlPv
	nop
	addq	$32, %rsp
	popq	%rbp
	.cfi_restore 6
	.cfi_def_cfa 7, 8
	ret
	.cfi_endproc
.LFE12423:
	.seh_endproc
	.globl	_ZTV20wxThreadHelperThread
	.section	.rdata$_ZTV20wxThreadHelperThread,"dr"
	.linkonce same_size
	.align 8
_ZTV20wxThreadHelperThread:
	.quad	0
	.quad	_ZTI20wxThreadHelperThread
	.quad	_ZN8wxThread11TestDestroyEv
	.quad	_ZN20wxThreadHelperThreadD1Ev
	.quad	_ZN20wxThreadHelperThreadD0Ev
	.quad	_ZN20wxThreadHelperThread5EntryEv
	.quad	_ZN8wxThread8OnDeleteEv
	.quad	_ZN8wxThread6OnKillEv
	.quad	_ZN8wxThread6OnExitEv
	.section	.text$_ZN20wxThreadHelperThreadD1Ev,"x"
	.linkonce discard
	.align 2
	.globl	_ZN20wxThreadHelperThreadD1Ev
	.def	_ZN20wxThreadHelperThreadD1Ev;	.scl	2;	.type	32;	.endef
	.seh_proc	_ZN20wxThreadHelperThreadD1Ev
_ZN20wxThreadHelperThreadD1Ev:
.LFB12434:
	.loc 11 663 7
	.cfi_startproc
	pushq	%rbp
	.seh_pushreg	%rbp
	.cfi_def_cfa_offset 16
	.cfi_offset 6, -16
	movq	%rsp, %rbp
	.seh_setframe	%rbp, 0
	.cfi_def_cfa_register 6
	subq	$32, %rsp
	.seh_stackalloc	32
	.seh_endprologue
	movq	%rcx, 16(%rbp)
.LBB45:
	.loc 11 663 7
	leaq	16+_ZTV20wxThreadHelperThread(%rip), %rdx
	movq	16(%rbp), %rax
	movq	%rdx, (%rax)
	movq	16(%rbp), %rax
	movq	%rax, %rcx
	call	_ZN8wxThreadD2Ev
.LBE45:
	nop
	addq	$32, %rsp
	popq	%rbp
	.cfi_restore 6
	.cfi_def_cfa 7, 8
	ret
	.cfi_endproc
.LFE12434:
	.seh_endproc
	.section	.text$_ZN20wxThreadHelperThreadD0Ev,"x"
	.linkonce discard
	.align 2
	.globl	_ZN20wxThreadHelperThreadD0Ev
	.def	_ZN20wxThreadHelperThreadD0Ev;	.scl	2;	.type	32;	.endef
	.seh_proc	_ZN20wxThreadHelperThreadD0Ev
_ZN20wxThreadHelperThreadD0Ev:
.LFB12435:
	.loc 11 663 7
	.cfi_startproc
	pushq	%rbp
	.seh_pushreg	%rbp
	.cfi_def_cfa_offset 16
	.cfi_offset 6, -16
	movq	%rsp, %rbp
	.seh_setframe	%rbp, 0
	.cfi_def_cfa_register 6
	subq	$32, %rsp
	.seh_stackalloc	32
	.seh_endprologue
	movq	%rcx, 16(%rbp)
	.loc 11 663 7
	movq	16(%rbp), %rcx
	call	_ZN20wxThreadHelperThreadD1Ev
	movq	16(%rbp), %rcx
	call	_ZdlPv
	nop
	addq	$32, %rsp
	popq	%rbp
	.cfi_restore 6
	.cfi_def_cfa 7, 8
	ret
	.cfi_endproc
.LFE12435:
	.seh_endproc
	.globl	_ZTV12ElementosVoo
	.section	.rdata$_ZTV12ElementosVoo,"dr"
	.linkonce same_size
	.align 8
_ZTV12ElementosVoo:
	.quad	0
	.quad	_ZTI12ElementosVoo
	.quad	_ZN12ElementosVooD1Ev
	.quad	_ZN12ElementosVooD0Ev
	.section	.text$_ZN12ElementosVooD1Ev,"x"
	.linkonce discard
	.align 2
	.globl	_ZN12ElementosVooD1Ev
	.def	_ZN12ElementosVooD1Ev;	.scl	2;	.type	32;	.endef
	.seh_proc	_ZN12ElementosVooD1Ev
_ZN12ElementosVooD1Ev:
.LFB12458:
	.loc 17 7 7
	.cfi_startproc
	pushq	%rbp
	.seh_pushreg	%rbp
	.cfi_def_cfa_offset 16
	.cfi_offset 6, -16
	movq	%rsp, %rbp
	.seh_setframe	%rbp, 0
	.cfi_def_cfa_register 6
	subq	$32, %rsp
	.seh_stackalloc	32
	.seh_endprologue
	movq	%rcx, 16(%rbp)
.LBB46:
	.loc 17 7 7
	leaq	16+_ZTV12ElementosVoo(%rip), %rdx
	movq	16(%rbp), %rax
	movq	%rdx, (%rax)
	movq	16(%rbp), %rax
	movq	%rax, %rcx
	call	_ZN10BaseObjectD2Ev
.LBE46:
	nop
	addq	$32, %rsp
	popq	%rbp
	.cfi_restore 6
	.cfi_def_cfa 7, 8
	ret
	.cfi_endproc
.LFE12458:
	.seh_endproc
	.section	.text$_ZN12ElementosVooD0Ev,"x"
	.linkonce discard
	.align 2
	.globl	_ZN12ElementosVooD0Ev
	.def	_ZN12ElementosVooD0Ev;	.scl	2;	.type	32;	.endef
	.seh_proc	_ZN12ElementosVooD0Ev
_ZN12ElementosVooD0Ev:
.LFB12459:
	.loc 17 7 7
	.cfi_startproc
	pushq	%rbp
	.seh_pushreg	%rbp
	.cfi_def_cfa_offset 16
	.cfi_offset 6, -16
	movq	%rsp, %rbp
	.seh_setframe	%rbp, 0
	.cfi_def_cfa_register 6
	subq	$32, %rsp
	.seh_stackalloc	32
	.seh_endprologue
	movq	%rcx, 16(%rbp)
	.loc 17 7 7
	movq	16(%rbp), %rcx
	call	_ZN12ElementosVooD1Ev
	movq	16(%rbp), %rcx
	call	_ZdlPv
	nop
	addq	$32, %rsp
	popq	%rbp
	.cfi_restore 6
	.cfi_def_cfa 7, 8
	ret
	.cfi_endproc
.LFE12459:
	.seh_endproc
	.globl	_ZTV16ElementosDisparo
	.section	.rdata$_ZTV16ElementosDisparo,"dr"
	.linkonce same_size
	.align 8
_ZTV16ElementosDisparo:
	.quad	0
	.quad	_ZTI16ElementosDisparo
	.quad	_ZN16ElementosDisparoD1Ev
	.quad	_ZN16ElementosDisparoD0Ev
	.section	.text$_ZN16ElementosDisparoD1Ev,"x"
	.linkonce discard
	.align 2
	.globl	_ZN16ElementosDisparoD1Ev
	.def	_ZN16ElementosDisparoD1Ev;	.scl	2;	.type	32;	.endef
	.seh_proc	_ZN16ElementosDisparoD1Ev
_ZN16ElementosDisparoD1Ev:
.LFB12462:
	.loc 5 6 7
	.cfi_startproc
	pushq	%rbp
	.seh_pushreg	%rbp
	.cfi_def_cfa_offset 16
	.cfi_offset 6, -16
	movq	%rsp, %rbp
	.seh_setframe	%rbp, 0
	.cfi_def_cfa_register 6
	subq	$32, %rsp
	.seh_stackalloc	32
	.seh_endprologue
	movq	%rcx, 16(%rbp)
.LBB47:
	.loc 5 6 7
	leaq	16+_ZTV16ElementosDisparo(%rip), %rdx
	movq	16(%rbp), %rax
	movq	%rdx, (%rax)
	movq	16(%rbp), %rax
	movq	%rax, %rcx
	call	_ZN10BaseObjectD2Ev
.LBE47:
	nop
	addq	$32, %rsp
	popq	%rbp
	.cfi_restore 6
	.cfi_def_cfa 7, 8
	ret
	.cfi_endproc
.LFE12462:
	.seh_endproc
	.section	.text$_ZN16ElementosDisparoD0Ev,"x"
	.linkonce discard
	.align 2
	.globl	_ZN16ElementosDisparoD0Ev
	.def	_ZN16ElementosDisparoD0Ev;	.scl	2;	.type	32;	.endef
	.seh_proc	_ZN16ElementosDisparoD0Ev
_ZN16ElementosDisparoD0Ev:
.LFB12463:
	.loc 5 6 7
	.cfi_startproc
	pushq	%rbp
	.seh_pushreg	%rbp
	.cfi_def_cfa_offset 16
	.cfi_offset 6, -16
	movq	%rsp, %rbp
	.seh_setframe	%rbp, 0
	.cfi_def_cfa_register 6
	subq	$32, %rsp
	.seh_stackalloc	32
	.seh_endprologue
	movq	%rcx, 16(%rbp)
	.loc 5 6 7
	movq	16(%rbp), %rcx
	call	_ZN16ElementosDisparoD1Ev
	movq	16(%rbp), %rcx
	call	_ZdlPv
	nop
	addq	$32, %rsp
	popq	%rbp
	.cfi_restore 6
	.cfi_def_cfa 7, 8
	ret
	.cfi_endproc
.LFE12463:
	.seh_endproc
	.globl	_ZTV10BaseObject
	.section	.rdata$_ZTV10BaseObject,"dr"
	.linkonce same_size
	.align 8
_ZTV10BaseObject:
	.quad	0
	.quad	_ZTI10BaseObject
	.quad	_ZN10BaseObjectD1Ev
	.quad	_ZN10BaseObjectD0Ev
	.globl	_ZTI18ExceptionYawRepose
	.section	.rdata$_ZTI18ExceptionYawRepose,"dr"
	.linkonce same_size
	.align 8
_ZTI18ExceptionYawRepose:
	.quad	_ZTVN10__cxxabiv120__si_class_type_infoE+16
	.quad	_ZTS18ExceptionYawRepose
	.quad	_ZTISt9exception
	.globl	_ZTS18ExceptionYawRepose
	.section	.rdata$_ZTS18ExceptionYawRepose,"dr"
	.linkonce same_size
	.align 16
_ZTS18ExceptionYawRepose:
	.ascii "18ExceptionYawRepose\0"
	.globl	_ZTI20ExceptionConvergence
	.section	.rdata$_ZTI20ExceptionConvergence,"dr"
	.linkonce same_size
	.align 8
_ZTI20ExceptionConvergence:
	.quad	_ZTVN10__cxxabiv120__si_class_type_infoE+16
	.quad	_ZTS20ExceptionConvergence
	.quad	_ZTISt9exception
	.globl	_ZTS20ExceptionConvergence
	.section	.rdata$_ZTS20ExceptionConvergence,"dr"
	.linkonce same_size
	.align 16
_ZTS20ExceptionConvergence:
	.ascii "20ExceptionConvergence\0"
	.globl	_ZTI15GeradorTabularI
	.section	.rdata$_ZTI15GeradorTabularI,"dr"
	.linkonce same_size
	.align 8
_ZTI15GeradorTabularI:
	.quad	_ZTVN10__cxxabiv120__si_class_type_infoE+16
	.quad	_ZTS15GeradorTabularI
	.quad	_ZTI14GeradorTabular
	.globl	_ZTS15GeradorTabularI
	.section	.rdata$_ZTS15GeradorTabularI,"dr"
	.linkonce same_size
	.align 16
_ZTS15GeradorTabularI:
	.ascii "15GeradorTabularI\0"
	.globl	_ZTI14GeradorTabular
	.section	.rdata$_ZTI14GeradorTabular,"dr"
	.linkonce same_size
	.align 8
_ZTI14GeradorTabular:
	.quad	_ZTVN10__cxxabiv117__class_type_infoE+16
	.quad	_ZTS14GeradorTabular
	.globl	_ZTS14GeradorTabular
	.section	.rdata$_ZTS14GeradorTabular,"dr"
	.linkonce same_size
	.align 16
_ZTS14GeradorTabular:
	.ascii "14GeradorTabular\0"
	.globl	_ZTI20wxObjectEventFunctor
	.section	.rdata$_ZTI20wxObjectEventFunctor,"dr"
	.linkonce same_size
	.align 8
_ZTI20wxObjectEventFunctor:
	.quad	_ZTVN10__cxxabiv120__si_class_type_infoE+16
	.quad	_ZTS20wxObjectEventFunctor
	.quad	_ZTI14wxEventFunctor
	.globl	_ZTS20wxObjectEventFunctor
	.section	.rdata$_ZTS20wxObjectEventFunctor,"dr"
	.linkonce same_size
	.align 16
_ZTS20wxObjectEventFunctor:
	.ascii "20wxObjectEventFunctor\0"
	.globl	_ZTI14wxEventFunctor
	.section	.rdata$_ZTI14wxEventFunctor,"dr"
	.linkonce same_size
	.align 8
_ZTI14wxEventFunctor:
	.quad	_ZTVN10__cxxabiv117__class_type_infoE+16
	.quad	_ZTS14wxEventFunctor
	.globl	_ZTS14wxEventFunctor
	.section	.rdata$_ZTS14wxEventFunctor,"dr"
	.linkonce same_size
	.align 16
_ZTS14wxEventFunctor:
	.ascii "14wxEventFunctor\0"
	.globl	_ZTI20wxThreadHelperThread
	.section	.rdata$_ZTI20wxThreadHelperThread,"dr"
	.linkonce same_size
	.align 8
_ZTI20wxThreadHelperThread:
	.quad	_ZTVN10__cxxabiv120__si_class_type_infoE+16
	.quad	_ZTS20wxThreadHelperThread
	.quad	_ZTI8wxThread
	.globl	_ZTS20wxThreadHelperThread
	.section	.rdata$_ZTS20wxThreadHelperThread,"dr"
	.linkonce same_size
	.align 16
_ZTS20wxThreadHelperThread:
	.ascii "20wxThreadHelperThread\0"
	.globl	_ZTI8wxThread
	.section	.rdata$_ZTI8wxThread,"dr"
	.linkonce same_size
	.align 8
_ZTI8wxThread:
	.quad	_ZTVN10__cxxabiv117__class_type_infoE+16
	.quad	_ZTS8wxThread
	.globl	_ZTS8wxThread
	.section	.rdata$_ZTS8wxThread,"dr"
	.linkonce same_size
	.align 8
_ZTS8wxThread:
	.ascii "8wxThread\0"
	.globl	_ZTI12ElementosVoo
	.section	.rdata$_ZTI12ElementosVoo,"dr"
	.linkonce same_size
	.align 8
_ZTI12ElementosVoo:
	.quad	_ZTVN10__cxxabiv120__si_class_type_infoE+16
	.quad	_ZTS12ElementosVoo
	.quad	_ZTI10BaseObject
	.globl	_ZTS12ElementosVoo
	.section	.rdata$_ZTS12ElementosVoo,"dr"
	.linkonce same_size
	.align 8
_ZTS12ElementosVoo:
	.ascii "12ElementosVoo\0"
	.globl	_ZTI16ElementosDisparo
	.section	.rdata$_ZTI16ElementosDisparo,"dr"
	.linkonce same_size
	.align 8
_ZTI16ElementosDisparo:
	.quad	_ZTVN10__cxxabiv120__si_class_type_infoE+16
	.quad	_ZTS16ElementosDisparo
	.quad	_ZTI10BaseObject
	.globl	_ZTS16ElementosDisparo
	.section	.rdata$_ZTS16ElementosDisparo,"dr"
	.linkonce same_size
	.align 16
_ZTS16ElementosDisparo:
	.ascii "16ElementosDisparo\0"
	.globl	_ZTI10BaseObject
	.section	.rdata$_ZTI10BaseObject,"dr"
	.linkonce same_size
	.align 8
_ZTI10BaseObject:
	.quad	_ZTVN10__cxxabiv117__class_type_infoE+16
	.quad	_ZTS10BaseObject
	.globl	_ZTS10BaseObject
	.section	.rdata$_ZTS10BaseObject,"dr"
	.linkonce same_size
	.align 8
_ZTS10BaseObject:
	.ascii "10BaseObject\0"
	.globl	_ZTISt9exception
	.section	.rdata$_ZTISt9exception,"dr"
	.linkonce same_size
	.align 8
_ZTISt9exception:
	.quad	_ZTVN10__cxxabiv117__class_type_infoE+16
	.quad	_ZTSSt9exception
	.globl	_ZTSSt9exception
	.section	.rdata$_ZTSSt9exception,"dr"
	.linkonce same_size
	.align 8
_ZTSSt9exception:
	.ascii "St9exception\0"
	.text
	.def	__tcf_0;	.scl	3;	.type	32;	.endef
	.seh_proc	__tcf_0
__tcf_0:
.LFB12465:
	.file 24 "C:/Program Files/CodeBlocks/MinGW/lib/gcc/x86_64-w64-mingw32/8.1.0/include/c++/iostream"
	.loc 24 74 25
	.cfi_startproc
	pushq	%rbp
	.seh_pushreg	%rbp
	.cfi_def_cfa_offset 16
	.cfi_offset 6, -16
	movq	%rsp, %rbp
	.seh_setframe	%rbp, 0
	.cfi_def_cfa_register 6
	subq	$32, %rsp
	.seh_stackalloc	32
	.seh_endprologue
	.loc 24 74 25
	leaq	_ZStL8__ioinit(%rip), %rcx
	call	_ZNSt8ios_base4InitD1Ev
	nop
	addq	$32, %rsp
	popq	%rbp
	.cfi_restore 6
	.cfi_def_cfa 7, 8
	ret
	.cfi_endproc
.LFE12465:
	.seh_endproc
	.def	_Z41__static_initialization_and_destruction_0ii;	.scl	3;	.type	32;	.endef
	.seh_proc	_Z41__static_initialization_and_destruction_0ii
_Z41__static_initialization_and_destruction_0ii:
.LFB12464:
	.loc 16 145 1
	.cfi_startproc
	pushq	%rbp
	.seh_pushreg	%rbp
	.cfi_def_cfa_offset 16
	.cfi_offset 6, -16
	movq	%rsp, %rbp
	.seh_setframe	%rbp, 0
	.cfi_def_cfa_register 6
	subq	$32, %rsp
	.seh_stackalloc	32
	.seh_endprologue
	movl	%ecx, 16(%rbp)
	movl	%edx, 24(%rbp)
	.loc 16 145 1
	cmpl	$1, 16(%rbp)
	jne	.L312
	.loc 16 145 1 is_stmt 0 discriminator 1
	cmpl	$65535, 24(%rbp)
	jne	.L312
	.loc 24 74 25 is_stmt 1
	leaq	_ZStL8__ioinit(%rip), %rcx
	call	_ZNSt8ios_base4InitC1Ev
	leaq	__tcf_0(%rip), %rcx
	call	atexit
.L312:
	.loc 16 145 1
	nop
	addq	$32, %rsp
	popq	%rbp
	.cfi_restore 6
	.cfi_def_cfa 7, 8
	ret
	.cfi_endproc
.LFE12464:
	.seh_endproc
	.def	_GLOBAL__sub_I__ZN15GeradorTabularIC2EP10wxTextCtrl;	.scl	3;	.type	32;	.endef
	.seh_proc	_GLOBAL__sub_I__ZN15GeradorTabularIC2EP10wxTextCtrl
_GLOBAL__sub_I__ZN15GeradorTabularIC2EP10wxTextCtrl:
.LFB12572:
	.loc 16 145 1
	.cfi_startproc
	pushq	%rbp
	.seh_pushreg	%rbp
	.cfi_def_cfa_offset 16
	.cfi_offset 6, -16
	movq	%rsp, %rbp
	.seh_setframe	%rbp, 0
	.cfi_def_cfa_register 6
	subq	$32, %rsp
	.seh_stackalloc	32
	.seh_endprologue
	.loc 16 145 1
	movl	$65535, %edx
	movl	$1, %ecx
	call	_Z41__static_initialization_and_destruction_0ii
	nop
	addq	$32, %rsp
	popq	%rbp
	.cfi_restore 6
	.cfi_def_cfa 7, 8
	ret
	.cfi_endproc
.LFE12572:
	.seh_endproc
	.section	.ctors,"w"
	.align 8
	.quad	_GLOBAL__sub_I__ZN15GeradorTabularIC2EP10wxTextCtrl
	.section .rdata,"dr"
	.align 8
.LC1:
	.long	0
	.long	1071644672
	.align 16
.LC8:
	.long	-1
	.long	2147483647
	.long	0
	.long	0
	.align 8
.LC14:
	.long	0
	.long	1083129856
	.align 8
.LC16:
	.long	-1416935092
	.long	1083167931
	.text
.Letext0:
	.file 25 "C:/Program Files/CodeBlocks/MinGW/lib/gcc/x86_64-w64-mingw32/8.1.0/include/c++/bits/stringfwd.h"
	.file 26 "C:/Program Files/CodeBlocks/MinGW/lib/gcc/x86_64-w64-mingw32/8.1.0/include/c++/type_traits"
	.file 27 "C:/Program Files/CodeBlocks/MinGW/lib/gcc/x86_64-w64-mingw32/8.1.0/include/c++/bits/stl_pair.h"
	.file 28 "C:/Program Files/CodeBlocks/MinGW/lib/gcc/x86_64-w64-mingw32/8.1.0/include/c++/bits/cpp_type_traits.h"
	.file 29 "C:/Program Files/CodeBlocks/MinGW/lib/gcc/x86_64-w64-mingw32/8.1.0/include/c++/debug/debug.h"
	.file 30 "C:/Program Files/CodeBlocks/MinGW/lib/gcc/x86_64-w64-mingw32/8.1.0/include/c++/bits/exception_ptr.h"
	.file 31 "C:/Program Files/CodeBlocks/MinGW/lib/gcc/x86_64-w64-mingw32/8.1.0/include/c++/x86_64-w64-mingw32/bits/c++config.h"
	.file 32 "C:/Program Files/CodeBlocks/MinGW/lib/gcc/x86_64-w64-mingw32/8.1.0/include/c++/new"
	.file 33 "C:/Program Files/CodeBlocks/MinGW/lib/gcc/x86_64-w64-mingw32/8.1.0/include/c++/bits/allocator.h"
	.file 34 "C:/Program Files/CodeBlocks/MinGW/lib/gcc/x86_64-w64-mingw32/8.1.0/include/c++/cwchar"
	.file 35 "C:/Program Files/CodeBlocks/MinGW/lib/gcc/x86_64-w64-mingw32/8.1.0/include/c++/bits/char_traits.h"
	.file 36 "C:/Program Files/CodeBlocks/MinGW/lib/gcc/x86_64-w64-mingw32/8.1.0/include/c++/cstdint"
	.file 37 "C:/Program Files/CodeBlocks/MinGW/lib/gcc/x86_64-w64-mingw32/8.1.0/include/c++/clocale"
	.file 38 "C:/Program Files/CodeBlocks/MinGW/lib/gcc/x86_64-w64-mingw32/8.1.0/include/c++/cstdlib"
	.file 39 "C:/Program Files/CodeBlocks/MinGW/lib/gcc/x86_64-w64-mingw32/8.1.0/include/c++/cstdio"
	.file 40 "C:/Program Files/CodeBlocks/MinGW/lib/gcc/x86_64-w64-mingw32/8.1.0/include/c++/bits/alloc_traits.h"
	.file 41 "C:/Program Files/CodeBlocks/MinGW/lib/gcc/x86_64-w64-mingw32/8.1.0/include/c++/initializer_list"
	.file 42 "C:/Program Files/CodeBlocks/MinGW/lib/gcc/x86_64-w64-mingw32/8.1.0/include/c++/bits/stl_list.h"
	.file 43 "C:/Program Files/CodeBlocks/MinGW/lib/gcc/x86_64-w64-mingw32/8.1.0/include/c++/bits/std_abs.h"
	.file 44 "C:/Program Files/CodeBlocks/MinGW/lib/gcc/x86_64-w64-mingw32/8.1.0/include/c++/cmath"
	.file 45 "C:/Program Files/CodeBlocks/MinGW/lib/gcc/x86_64-w64-mingw32/8.1.0/include/c++/system_error"
	.file 46 "C:/Program Files/CodeBlocks/MinGW/lib/gcc/x86_64-w64-mingw32/8.1.0/include/c++/bits/ios_base.h"
	.file 47 "C:/Program Files/CodeBlocks/MinGW/lib/gcc/x86_64-w64-mingw32/8.1.0/include/c++/cwctype"
	.file 48 "C:/Program Files/CodeBlocks/MinGW/lib/gcc/x86_64-w64-mingw32/8.1.0/include/c++/iosfwd"
	.file 49 "C:/Program Files/CodeBlocks/MinGW/lib/gcc/x86_64-w64-mingw32/8.1.0/include/c++/bits/stl_vector.h"
	.file 50 "C:/Program Files/CodeBlocks/MinGW/lib/gcc/x86_64-w64-mingw32/8.1.0/include/c++/bits/vector.tcc"
	.file 51 "C:/Program Files/CodeBlocks/MinGW/lib/gcc/x86_64-w64-mingw32/8.1.0/include/c++/bits/uses_allocator.h"
	.file 52 "C:/Program Files/CodeBlocks/MinGW/lib/gcc/x86_64-w64-mingw32/8.1.0/include/c++/tuple"
	.file 53 "C:/Program Files/CodeBlocks/MinGW/lib/gcc/x86_64-w64-mingw32/8.1.0/include/c++/bits/predefined_ops.h"
	.file 54 "C:/Program Files/CodeBlocks/MinGW/lib/gcc/x86_64-w64-mingw32/8.1.0/include/c++/ext/new_allocator.h"
	.file 55 "C:/Program Files/CodeBlocks/MinGW/lib/gcc/x86_64-w64-mingw32/8.1.0/include/c++/ext/numeric_traits.h"
	.file 56 "C:/Program Files/CodeBlocks/MinGW/lib/gcc/x86_64-w64-mingw32/8.1.0/include/c++/ext/alloc_traits.h"
	.file 57 "C:/Program Files/CodeBlocks/MinGW/lib/gcc/x86_64-w64-mingw32/8.1.0/include/c++/bits/stl_iterator.h"
	.file 58 "C:/Program Files/CodeBlocks/MinGW/x86_64-w64-mingw32/include/vadefs.h"
	.file 59 "C:/Program Files/CodeBlocks/MinGW/x86_64-w64-mingw32/include/crtdefs.h"
	.file 60 "C:/Program Files/CodeBlocks/MinGW/x86_64-w64-mingw32/include/locale.h"
	.file 61 "C:/Program Files/CodeBlocks/MinGW/x86_64-w64-mingw32/include/wchar.h"
	.file 62 "C:/Program Files/CodeBlocks/MinGW/x86_64-w64-mingw32/include/swprintf.inl"
	.file 63 "C:/Program Files/CodeBlocks/MinGW/x86_64-w64-mingw32/include/stdint.h"
	.file 64 "C:/Program Files/CodeBlocks/MinGW/x86_64-w64-mingw32/include/ctype.h"
	.file 65 "C:/Program Files/CodeBlocks/MinGW/x86_64-w64-mingw32/include/process.h"
	.file 66 "C:/Program Files/CodeBlocks/MinGW/x86_64-w64-mingw32/include/pthread.h"
	.file 67 "C:/Program Files/CodeBlocks/MinGW/lib/gcc/x86_64-w64-mingw32/8.1.0/include/c++/x86_64-w64-mingw32/bits/atomic_word.h"
	.file 68 "C:/Program Files/CodeBlocks/MinGW/x86_64-w64-mingw32/include/stdlib.h"
	.file 69 "C:/Program Files/CodeBlocks/MinGW/x86_64-w64-mingw32/include/malloc.h"
	.file 70 "../../CalculadorNumerico/calculador/../padroes/observable.h"
	.file 71 "../../CalculadorNumerico/calculador/../projetil/projetil.h"
	.file 72 "C:/Program Files/CodeBlocks/MinGW/lib/gcc/x86_64-w64-mingw32/8.1.0/include/c++/stdlib.h"
	.file 73 "../wxMSW-3.0.5_gcc810_x64_Dev/include/wx/chartype.h"
	.file 74 "../wxMSW-3.0.5_gcc810_x64_Dev/include/wx/debug.h"
	.file 75 "../wxMSW-3.0.5_gcc810_x64_Dev/include/wx/defs.h"
	.file 76 "C:/Program Files/CodeBlocks/MinGW/x86_64-w64-mingw32/include/wctype.h"
	.file 77 "C:/Program Files/CodeBlocks/MinGW/x86_64-w64-mingw32/include/time.h"
	.file 78 "../wxMSW-3.0.5_gcc810_x64_Dev/include/wx/fontenc.h"
	.file 79 "../wxMSW-3.0.5_gcc810_x64_Dev/include/wx/stringimpl.h"
	.file 80 "../wxMSW-3.0.5_gcc810_x64_Dev/include/wx/unichar.h"
	.file 81 "../wxMSW-3.0.5_gcc810_x64_Dev/include/wx/strvararg.h"
	.file 82 "../wxMSW-3.0.5_gcc810_x64_Dev/include/wx/rtti.h"
	.file 83 "../wxMSW-3.0.5_gcc810_x64_Dev/include/wx/object.h"
	.file 84 "../wxMSW-3.0.5_gcc810_x64_Dev/include/wx/hashmap.h"
	.file 85 "../wxMSW-3.0.5_gcc810_x64_Dev/include/wx/list.h"
	.file 86 "C:/Program Files/CodeBlocks/MinGW/x86_64-w64-mingw32/include/math.h"
	.file 87 "C:/Program Files/CodeBlocks/MinGW/lib/gcc/x86_64-w64-mingw32/8.1.0/include/c++/math.h"
	.file 88 "../wxMSW-3.0.5_gcc810_x64_Dev/include/wx/gdicmn.h"
	.file 89 "../wxMSW-3.0.5_gcc810_x64_Dev/include/wx/msw/gdiimage.h"
	.file 90 "../wxMSW-3.0.5_gcc810_x64_Dev/include/wx/filefn.h"
	.file 91 "../wxMSW-3.0.5_gcc810_x64_Dev/include/wx/longlong.h"
	.file 92 "../wxMSW-3.0.5_gcc810_x64_Dev/include/wx/window.h"
	.file 93 "../wxMSW-3.0.5_gcc810_x64_Dev/include/wx/utils.h"
	.file 94 "../wxMSW-3.0.5_gcc810_x64_Dev/include/wx/any.h"
	.file 95 "../wxMSW-3.0.5_gcc810_x64_Dev/include/wx/anystr.h"
	.file 96 "../wxMSW-3.0.5_gcc810_x64_Dev/include/wx/datetime.h"
	.file 97 "../wxMSW-3.0.5_gcc810_x64_Dev/include/wx/variant.h"
	.file 98 "../wxMSW-3.0.5_gcc810_x64_Dev/include/wx/font.h"
	.file 99 "../wxMSW-3.0.5_gcc810_x64_Dev/include/wx/colour.h"
	.file 100 "../wxMSW-3.0.5_gcc810_x64_Dev/include/wx/validate.h"
	.file 101 "../wxMSW-3.0.5_gcc810_x64_Dev/include/wx/accel.h"
	.file 102 "../wxMSW-3.0.5_gcc810_x64_Dev/include/wx/control.h"
	.file 103 "../wxMSW-3.0.5_gcc810_x64_Dev/include/wx/msw/textentry.h"
	.file 104 "../wxMSW-3.0.5_gcc810_x64_Dev/include/wx/textctrl.h"
	.file 105 "../../CalculadorNumerico/projetil/../sql/sqlite3.h"
	.file 106 "../../CalculadorNumerico/projetil/ProjetilDAO.h"
	.file 107 "../../CalculadorNumerico/coeficientes/coeficienteAerodinamico.h"
	.file 108 "../../CalculadorNumerico/coeficientes/coeficientesdao.h"
	.file 109 "../../CalculadorNumerico/fatoresdeajuste/calculadorFator.h"
	.file 110 "C:/temp/ballisticKernelCpp/interfaceGrafica/calculadorBalisiticaGraficoWindows/globais.h"
	.file 111 "../../CalculadorNumerico/coeficientes/CoeficienteDrag.h"
	.file 112 "C:/temp/ballisticKernelCpp/interfaceGrafica/calculadorBalisiticaGraficoWindows/tabelaDialog/geradorTabularI.h"
	.file 113 "C:/temp/ballisticKernelCpp/interfaceGrafica/calculadorBalisiticaGraficoWindows/tabelaDialog/GeradorTabular.h"
	.file 114 "../../CalculadorNumerico/excecoes/ExceptionYawRepose.h"
	.file 115 "../../CalculadorNumerico/excecoes/ExceptionConvergence.h"
	.file 116 "<built-in>"