	.file	"geradorTabularG.cpp"
	.text
.Ltext0:
	.cfi_sections	.debug_frame
	.section .rdata,"dr"
_ZStL19piecewise_construct:
	.space 1
	.section	.text$_ZNKSt9type_info4nameEv,"x"
	.linkonce discard
	.align 2
	.globl	_ZNKSt9type_info4nameEv
	.def	_ZNKSt9type_info4nameEv;	.scl	2;	.type	32;	.endef
	.seh_proc	_ZNKSt9type_info4nameEv
_ZNKSt9type_info4nameEv:
.LFB310:
	.file 1 "C:/Program Files/CodeBlocks/MinGW/lib/gcc/x86_64-w64-mingw32/8.1.0/include/c++/typeinfo"
	.loc 1 99 17
	.cfi_startproc
	pushq	%rbp
	.seh_pushreg	%rbp
	.cfi_def_cfa_offset 16
	.cfi_offset 6, -16
	movq	%rsp, %rbp
	.seh_setframe	%rbp, 0
	.cfi_def_cfa_register 6
	.seh_endprologue
	movq	%rcx, 16(%rbp)
	.loc 1 100 14
	movq	16(%rbp), %rax
	movq	8(%rax), %rax
	.loc 1 100 22
	movzbl	(%rax), %eax
	.loc 1 100 31
	cmpb	$42, %al
	jne	.L2
	.loc 1 100 33 discriminator 1
	movq	16(%rbp), %rax
	movq	8(%rax), %rax
	.loc 1 100 31 discriminator 1
	addq	$1, %rax
	.loc 1 100 46 discriminator 1
	jmp	.L4
.L2:
	.loc 1 100 31 discriminator 2
	movq	16(%rbp), %rax
	movq	8(%rax), %rax
.L4:
	.loc 1 100 54 discriminator 5
	popq	%rbp
	.cfi_restore 6
	.cfi_def_cfa 7, 8
	ret
	.cfi_endproc
.LFE310:
	.seh_endproc
	.text
	.def	_ZL9vsnprintfPcyPKcS_;	.scl	3;	.type	32;	.endef
	.seh_proc	_ZL9vsnprintfPcyPKcS_
_ZL9vsnprintfPcyPKcS_:
.LFB950:
	.file 2 "C:/Program Files/CodeBlocks/MinGW/x86_64-w64-mingw32/include/stdio.h"
	.loc 2 400 1
	.cfi_startproc
	pushq	%rbp
	.seh_pushreg	%rbp
	.cfi_def_cfa_offset 16
	.cfi_offset 6, -16
	movq	%rsp, %rbp
	.seh_setframe	%rbp, 0
	.cfi_def_cfa_register 6
	subq	$32, %rsp
	.seh_stackalloc	32
	.seh_endprologue
	movq	%rcx, 16(%rbp)
	movq	%rdx, 24(%rbp)
	movq	%r8, 32(%rbp)
	movq	%r9, 40(%rbp)
	.loc 2 401 27
	movq	40(%rbp), %rcx
	movq	32(%rbp), %rdx
	movq	24(%rbp), %rax
	movq	%rcx, %r9
	movq	%rdx, %r8
	movq	%rax, %rdx
	movq	16(%rbp), %rcx
	call	__mingw_vsnprintf
	.loc 2 402 1
	addq	$32, %rsp
	popq	%rbp
	.cfi_restore 6
	.cfi_def_cfa 7, 8
	ret
	.cfi_endproc
.LFE950:
	.seh_endproc
	.section .rdata,"dr"
.LC0:
	.ascii "%d\0"
	.section	.text$_ZNSt7__cxx119to_stringEi,"x"
	.linkonce discard
	.globl	_ZNSt7__cxx119to_stringEi
	.def	_ZNSt7__cxx119to_stringEi;	.scl	2;	.type	32;	.endef
	.seh_proc	_ZNSt7__cxx119to_stringEi
_ZNSt7__cxx119to_stringEi:
.LFB1284:
	.file 3 "C:/Program Files/CodeBlocks/MinGW/lib/gcc/x86_64-w64-mingw32/8.1.0/include/c++/bits/basic_string.h"
	.loc 3 6415 3
	.cfi_startproc
	pushq	%rbp
	.seh_pushreg	%rbp
	.cfi_def_cfa_offset 16
	.cfi_offset 6, -16
	movq	%rsp, %rbp
	.seh_setframe	%rbp, 0
	.cfi_def_cfa_register 6
	subq	$48, %rsp
	.seh_stackalloc	48
	.seh_endprologue
	movq	%rcx, 16(%rbp)
	movl	%edx, 24(%rbp)
	.loc 3 6416 20
	movq	16(%rbp), %rax
	movl	24(%rbp), %edx
	movl	%edx, 32(%rsp)
	leaq	.LC0(%rip), %r9
	movl	$16, %r8d
	leaq	_ZL9vsnprintfPcyPKcS_(%rip), %rdx
	movq	%rax, %rcx
	call	_ZN9__gnu_cxx12__to_xstringINSt7__cxx1112basic_stringIcSt11char_traitsIcESaIcEEEcEET_PFiPT0_yPKS8_PcEySB_z
	.loc 3 6416 23
	movq	16(%rbp), %rax
	addq	$48, %rsp
	popq	%rbp
	.cfi_restore 6
	.cfi_def_cfa 7, 8
	ret
	.cfi_endproc
.LFE1284:
	.seh_endproc
	.section	.text$_ZN10BaseObjectD2Ev,"x"
	.linkonce discard
	.align 2
	.globl	_ZN10BaseObjectD2Ev
	.def	_ZN10BaseObjectD2Ev;	.scl	2;	.type	32;	.endef
	.seh_proc	_ZN10BaseObjectD2Ev
_ZN10BaseObjectD2Ev:
.LFB1349:
	.file 4 "../../CalculadorNumerico/calculador/../padroes/baseobject.h"
	.loc 4 8 17
	.cfi_startproc
	pushq	%rbp
	.seh_pushreg	%rbp
	.cfi_def_cfa_offset 16
	.cfi_offset 6, -16
	movq	%rsp, %rbp
	.seh_setframe	%rbp, 0
	.cfi_def_cfa_register 6
	.seh_endprologue
	movq	%rcx, 16(%rbp)
.LBB2:
	.loc 4 8 31
	leaq	16+_ZTV10BaseObject(%rip), %rdx
	movq	16(%rbp), %rax
	movq	%rdx, (%rax)
.LBE2:
	.loc 4 8 32
	nop
	popq	%rbp
	.cfi_restore 6
	.cfi_def_cfa 7, 8
	ret
	.cfi_endproc
.LFE1349:
	.seh_endproc
	.section	.text$_ZN10BaseObjectD1Ev,"x"
	.linkonce discard
	.align 2
	.globl	_ZN10BaseObjectD1Ev
	.def	_ZN10BaseObjectD1Ev;	.scl	2;	.type	32;	.endef
	.seh_proc	_ZN10BaseObjectD1Ev
_ZN10BaseObjectD1Ev:
.LFB1350:
	.loc 4 8 17
	.cfi_startproc
	pushq	%rbp
	.seh_pushreg	%rbp
	.cfi_def_cfa_offset 16
	.cfi_offset 6, -16
	movq	%rsp, %rbp
	.seh_setframe	%rbp, 0
	.cfi_def_cfa_register 6
	.seh_endprologue
	movq	%rcx, 16(%rbp)
.LBB3:
	.loc 4 8 31
	leaq	16+_ZTV10BaseObject(%rip), %rdx
	movq	16(%rbp), %rax
	movq	%rdx, (%rax)
.LBE3:
	.loc 4 8 32
	nop
	popq	%rbp
	.cfi_restore 6
	.cfi_def_cfa 7, 8
	ret
	.cfi_endproc
.LFE1350:
	.seh_endproc
	.section	.text$_ZN10BaseObjectD0Ev,"x"
	.linkonce discard
	.align 2
	.globl	_ZN10BaseObjectD0Ev
	.def	_ZN10BaseObjectD0Ev;	.scl	2;	.type	32;	.endef
	.seh_proc	_ZN10BaseObjectD0Ev
_ZN10BaseObjectD0Ev:
.LFB1351:
	.loc 4 8 17
	.cfi_startproc
	pushq	%rbp
	.seh_pushreg	%rbp
	.cfi_def_cfa_offset 16
	.cfi_offset 6, -16
	movq	%rsp, %rbp
	.seh_setframe	%rbp, 0
	.cfi_def_cfa_register 6
	subq	$32, %rsp
	.seh_stackalloc	32
	.seh_endprologue
	movq	%rcx, 16(%rbp)
	.loc 4 8 32
	movq	16(%rbp), %rcx
	call	_ZN10BaseObjectD1Ev
	movq	16(%rbp), %rcx
	call	_ZdlPv
	nop
	addq	$32, %rsp
	popq	%rbp
	.cfi_restore 6
	.cfi_def_cfa 7, 8
	ret
	.cfi_endproc
.LFE1351:
	.seh_endproc
	.section	.text$_ZN16ElementosDisparo11getElevacaoEv,"x"
	.linkonce discard
	.align 2
	.globl	_ZN16ElementosDisparo11getElevacaoEv
	.def	_ZN16ElementosDisparo11getElevacaoEv;	.scl	2;	.type	32;	.endef
	.seh_proc	_ZN16ElementosDisparo11getElevacaoEv
_ZN16ElementosDisparo11getElevacaoEv:
.LFB1545:
	.file 5 "../../CalculadorNumerico/calculador/elementosdisparo.h"
	.loc 5 12 16
	.cfi_startproc
	pushq	%rbp
	.seh_pushreg	%rbp
	.cfi_def_cfa_offset 16
	.cfi_offset 6, -16
	movq	%rsp, %rbp
	.seh_setframe	%rbp, 0
	.cfi_def_cfa_register 6
	.seh_endprologue
	movq	%rcx, 16(%rbp)
	.loc 5 12 37
	movq	16(%rbp), %rax
	movsd	16(%rax), %xmm0
	movq	%xmm0, %rax
	.loc 5 12 46
	movq	%rax, %xmm0
	popq	%rbp
	.cfi_restore 6
	.cfi_def_cfa 7, 8
	ret
	.cfi_endproc
.LFE1545:
	.seh_endproc
	.section	.text$_ZN21CalculadorAtmosferico15setChecarLimiteEb,"x"
	.linkonce discard
	.align 2
	.globl	_ZN21CalculadorAtmosferico15setChecarLimiteEb
	.def	_ZN21CalculadorAtmosferico15setChecarLimiteEb;	.scl	2;	.type	32;	.endef
	.seh_proc	_ZN21CalculadorAtmosferico15setChecarLimiteEb
_ZN21CalculadorAtmosferico15setChecarLimiteEb:
.LFB1599:
	.file 6 "../../CalculadorNumerico/calculador/calculadorAtmosferico.h"
	.loc 6 37 14
	.cfi_startproc
	pushq	%rbp
	.seh_pushreg	%rbp
	.cfi_def_cfa_offset 16
	.cfi_offset 6, -16
	movq	%rsp, %rbp
	.seh_setframe	%rbp, 0
	.cfi_def_cfa_register 6
	.seh_endprologue
	movq	%rcx, 16(%rbp)
	movl	%edx, %eax
	movb	%al, 24(%rbp)
	.loc 6 37 68
	movq	16(%rbp), %rdx
	movzbl	24(%rbp), %eax
	movb	%al, 298(%rdx)
	.loc 6 37 83
	nop
	popq	%rbp
	.cfi_restore 6
	.cfi_def_cfa 7, 8
	ret
	.cfi_endproc
.LFE1599:
	.seh_endproc
	.section	.text$_ZN9wxPrivate17UntypedBufferDataD2Ev,"x"
	.linkonce discard
	.align 2
	.globl	_ZN9wxPrivate17UntypedBufferDataD2Ev
	.def	_ZN9wxPrivate17UntypedBufferDataD2Ev;	.scl	2;	.type	32;	.endef
	.seh_proc	_ZN9wxPrivate17UntypedBufferDataD2Ev
_ZN9wxPrivate17UntypedBufferDataD2Ev:
.LFB1664:
	.file 7 "../wxMSW-3.0.5_gcc810_x64_Dev/include/wx/buffer.h"
	.loc 7 41 5
	.cfi_startproc
	pushq	%rbp
	.seh_pushreg	%rbp
	.cfi_def_cfa_offset 16
	.cfi_offset 6, -16
	movq	%rsp, %rbp
	.seh_setframe	%rbp, 0
	.cfi_def_cfa_register 6
	subq	$32, %rsp
	.seh_stackalloc	32
	.seh_endprologue
	movq	%rcx, 16(%rbp)
.LBB4:
	.loc 7 43 14
	movq	16(%rbp), %rax
	movzbl	18(%rax), %eax
	.loc 7 43 9
	testb	%al, %al
	je	.L17
	.loc 7 44 17
	movq	16(%rbp), %rax
	movq	(%rax), %rax
	movq	%rax, %rcx
	call	free
.L17:
.LBE4:
	.loc 7 45 5
	nop
	addq	$32, %rsp
	popq	%rbp
	.cfi_restore 6
	.cfi_def_cfa 7, 8
	ret
	.cfi_endproc
.LFE1664:
	.seh_endproc
	.section	.text$_Z16wxGet_wxConvLibcv,"x"
	.linkonce discard
	.globl	_Z16wxGet_wxConvLibcv
	.def	_Z16wxGet_wxConvLibcv;	.scl	2;	.type	32;	.endef
	.seh_proc	_Z16wxGet_wxConvLibcv
_Z16wxGet_wxConvLibcv:
.LFB1852:
	.file 8 "../wxMSW-3.0.5_gcc810_x64_Dev/include/wx/strconv.h"
	.loc 8 576 109
	.cfi_startproc
	pushq	%rbp
	.seh_pushreg	%rbp
	.cfi_def_cfa_offset 16
	.cfi_offset 6, -16
	movq	%rsp, %rbp
	.seh_setframe	%rbp, 0
	.cfi_def_cfa_register 6
	subq	$32, %rsp
	.seh_stackalloc	32
	.seh_endprologue
	.loc 8 576 116
	movq	.refptr.wxConvLibcPtr(%rip), %rax
	movq	(%rax), %rax
	.loc 8 576 111
	testq	%rax, %rax
	jne	.L19
	.loc 8 576 168 discriminator 1
	call	_Z19wxGet_wxConvLibcPtrv
	movq	%rax, %rdx
	.loc 8 576 147 discriminator 1
	movq	.refptr.wxConvLibcPtr(%rip), %rax
	movq	%rdx, (%rax)
.L19:
	.loc 8 576 180 discriminator 3
	movq	.refptr.wxConvLibcPtr(%rip), %rax
	movq	(%rax), %rax
	.loc 8 576 195 discriminator 3
	addq	$32, %rsp
	popq	%rbp
	.cfi_restore 6
	.cfi_def_cfa 7, 8
	ret
	.cfi_endproc
.LFE1852:
	.seh_endproc
	.section	.text$_ZN8wxString17SubstrBufFromTypeI22wxScopedCharTypeBufferIwEED1Ev,"x"
	.linkonce discard
	.align 2
	.globl	_ZN8wxString17SubstrBufFromTypeI22wxScopedCharTypeBufferIwEED1Ev
	.def	_ZN8wxString17SubstrBufFromTypeI22wxScopedCharTypeBufferIwEED1Ev;	.scl	2;	.type	32;	.endef
	.seh_proc	_ZN8wxString17SubstrBufFromTypeI22wxScopedCharTypeBufferIwEED1Ev
_ZN8wxString17SubstrBufFromTypeI22wxScopedCharTypeBufferIwEED1Ev:
.LFB2325:
	.file 9 "../wxMSW-3.0.5_gcc810_x64_Dev/include/wx/string.h"
	.loc 9 425 10
	.cfi_startproc
	pushq	%rbp
	.seh_pushreg	%rbp
	.cfi_def_cfa_offset 16
	.cfi_offset 6, -16
	movq	%rsp, %rbp
	.seh_setframe	%rbp, 0
	.cfi_def_cfa_register 6
	subq	$32, %rsp
	.seh_stackalloc	32
	.seh_endprologue
	movq	%rcx, 16(%rbp)
.LBB5:
	.loc 9 425 10
	movq	16(%rbp), %rax
	movq	%rax, %rcx
	call	_ZN22wxScopedCharTypeBufferIwED1Ev
.LBE5:
	nop
	addq	$32, %rsp
	popq	%rbp
	.cfi_restore 6
	.cfi_def_cfa 7, 8
	ret
	.cfi_endproc
.LFE2325:
	.seh_endproc
	.section	.text$_ZN8wxString7ImplStrEPKcRK8wxMBConv,"x"
	.linkonce discard
	.globl	_ZN8wxString7ImplStrEPKcRK8wxMBConv
	.def	_ZN8wxString7ImplStrEPKcRK8wxMBConv;	.scl	2;	.type	32;	.endef
	.seh_proc	_ZN8wxString7ImplStrEPKcRK8wxMBConv
_ZN8wxString7ImplStrEPKcRK8wxMBConv:
.LFB2322:
	.loc 9 475 30
	.cfi_startproc
	pushq	%rbp
	.seh_pushreg	%rbp
	.cfi_def_cfa_offset 16
	.cfi_offset 6, -16
	pushq	%rbx
	.seh_pushreg	%rbx
	.cfi_def_cfa_offset 24
	.cfi_offset 3, -24
	subq	$56, %rsp
	.seh_stackalloc	56
	.cfi_def_cfa_offset 80
	leaq	128(%rsp), %rbp
	.seh_setframe	%rbp, 128
	.cfi_def_cfa 6, -48
	.seh_endprologue
	movq	%rcx, -48(%rbp)
	movq	%rdx, -40(%rbp)
	movq	%r8, -32(%rbp)
	.loc 9 477 24
	movq	.refptr._ZN8wxString4nposE(%rip), %rax
	movq	(%rax), %rcx
	leaq	-96(%rbp), %rax
	movq	-32(%rbp), %r8
	movq	-40(%rbp), %rdx
	movq	%r8, %r9
	movq	%rcx, %r8
	movq	%rax, %rcx
.LEHB0:
	call	_ZN8wxString10ConvertStrEPKcyRK8wxMBConv
.LEHE0:
	.loc 9 477 42
	leaq	-96(%rbp), %rax
	movq	%rax, %rdx
	movq	-48(%rbp), %rcx
.LEHB1:
	call	_ZN22wxScopedCharTypeBufferIwEC1ERKS0_
.LEHE1:
	nop
	.loc 9 477 24
	leaq	-96(%rbp), %rax
	movq	%rax, %rcx
	call	_ZN8wxString17SubstrBufFromTypeI22wxScopedCharTypeBufferIwEED1Ev
	.loc 9 477 42
	jmp	.L26
.L25:
	movq	%rax, %rbx
	.loc 9 477 24
	leaq	-96(%rbp), %rax
	movq	%rax, %rcx
	call	_ZN8wxString17SubstrBufFromTypeI22wxScopedCharTypeBufferIwEED1Ev
	movq	%rbx, %rax
	movq	%rax, %rcx
.LEHB2:
	call	_Unwind_Resume
.LEHE2:
.L26:
	.loc 9 477 48
	movq	-48(%rbp), %rax
	addq	$56, %rsp
	popq	%rbx
	.cfi_restore 3
	popq	%rbp
	.cfi_restore 6
	.cfi_def_cfa 7, -40
	ret
	.cfi_endproc
.LFE2322:
	.def	__gxx_personality_seh0;	.scl	2;	.type	32;	.endef
	.seh_handler	__gxx_personality_seh0, @unwind, @except
	.seh_handlerdata
.LLSDA2322:
	.byte	0xff
	.byte	0xff
	.byte	0x1
	.uleb128 .LLSDACSE2322-.LLSDACSB2322
.LLSDACSB2322:
	.uleb128 .LEHB0-.LFB2322
	.uleb128 .LEHE0-.LEHB0
	.uleb128 0
	.uleb128 0
	.uleb128 .LEHB1-.LFB2322
	.uleb128 .LEHE1-.LEHB1
	.uleb128 .L25-.LFB2322
	.uleb128 0
	.uleb128 .LEHB2-.LFB2322
	.uleb128 .LEHE2-.LEHB2
	.uleb128 0
	.uleb128 0
.LLSDACSE2322:
	.section	.text$_ZN8wxString7ImplStrEPKcRK8wxMBConv,"x"
	.linkonce discard
	.seh_endproc
	.section	.text$_ZN8wxString7ImplStrEPKcyRK8wxMBConv,"x"
	.linkonce discard
	.globl	_ZN8wxString7ImplStrEPKcyRK8wxMBConv
	.def	_ZN8wxString7ImplStrEPKcyRK8wxMBConv;	.scl	2;	.type	32;	.endef
	.seh_proc	_ZN8wxString7ImplStrEPKcyRK8wxMBConv
_ZN8wxString7ImplStrEPKcyRK8wxMBConv:
.LFB2326:
	.loc 9 478 26
	.cfi_startproc
	pushq	%rbp
	.seh_pushreg	%rbp
	.cfi_def_cfa_offset 16
	.cfi_offset 6, -16
	movq	%rsp, %rbp
	.seh_setframe	%rbp, 0
	.cfi_def_cfa_register 6
	subq	$32, %rsp
	.seh_stackalloc	32
	.seh_endprologue
	movq	%rcx, 16(%rbp)
	movq	%rdx, 24(%rbp)
	movq	%r8, 32(%rbp)
	movq	%r9, 40(%rbp)
	.loc 9 480 37
	movq	16(%rbp), %rax
	movq	40(%rbp), %r8
	movq	32(%rbp), %rcx
	movq	24(%rbp), %rdx
	movq	%r8, %r9
	movq	%rcx, %r8
	movq	%rax, %rcx
	call	_ZN8wxString10ConvertStrEPKcyRK8wxMBConv
	.loc 9 480 40
	movq	16(%rbp), %rax
	addq	$32, %rsp
	popq	%rbp
	.cfi_restore 6
	.cfi_def_cfa 7, 8
	ret
	.cfi_endproc
.LFE2326:
	.seh_endproc
	.section	.text$_ZN8wxStringD1Ev,"x"
	.linkonce discard
	.align 2
	.globl	_ZN8wxStringD1Ev
	.def	_ZN8wxStringD1Ev;	.scl	2;	.type	32;	.endef
	.seh_proc	_ZN8wxStringD1Ev
_ZN8wxStringD1Ev:
.LFB2402:
	.loc 9 393 7
	.cfi_startproc
	pushq	%rbp
	.seh_pushreg	%rbp
	.cfi_def_cfa_offset 16
	.cfi_offset 6, -16
	movq	%rsp, %rbp
	.seh_setframe	%rbp, 0
	.cfi_def_cfa_register 6
	subq	$32, %rsp
	.seh_stackalloc	32
	.seh_endprologue
	movq	%rcx, 16(%rbp)
.LBB6:
	.loc 9 393 7
	movq	16(%rbp), %rax
	addq	$32, %rax
	movq	%rax, %rcx
	call	_ZN8wxString15ConvertedBufferIcED1Ev
	movq	16(%rbp), %rax
	movq	%rax, %rcx
	call	_ZNSt7__cxx1112basic_stringIwSt11char_traitsIwESaIwEED1Ev
.LBE6:
	nop
	addq	$32, %rsp
	popq	%rbp
	.cfi_restore 6
	.cfi_def_cfa 7, 8
	ret
	.cfi_endproc
.LFE2402:
	.seh_endproc
	.section	.text$_ZN8wxStringC1EPKc,"x"
	.linkonce discard
	.align 2
	.globl	_ZN8wxStringC1EPKc
	.def	_ZN8wxStringC1EPKc;	.scl	2;	.type	32;	.endef
	.seh_proc	_ZN8wxStringC1EPKc
_ZN8wxStringC1EPKc:
.LFB2458:
	.loc 9 1241 3
	.cfi_startproc
	pushq	%rbp
	.seh_pushreg	%rbp
	.cfi_def_cfa_offset 16
	.cfi_offset 6, -16
	pushq	%rbx
	.seh_pushreg	%rbx
	.cfi_def_cfa_offset 24
	.cfi_offset 3, -24
	subq	$56, %rsp
	.seh_stackalloc	56
	.cfi_def_cfa_offset 80
	leaq	128(%rsp), %rbp
	.seh_setframe	%rbp, 128
	.cfi_def_cfa 6, -48
	.seh_endprologue
	movq	%rcx, -48(%rbp)
	movq	%rdx, -40(%rbp)
.LBB7:
	.loc 9 1242 26
	movq	-48(%rbp), %rbx
	leaq	-89(%rbp), %rax
	movq	%rax, %rcx
	call	_ZNSaIwEC1Ev
.LEHB3:
	.loc 9 1242 25
	call	_Z16wxGet_wxConvLibcv
	movq	%rax, %rcx
	.loc 9 1242 21
	leaq	-88(%rbp), %rax
	movq	-40(%rbp), %rdx
	movq	%rcx, %r8
	movq	%rax, %rcx
	call	_ZN8wxString7ImplStrEPKcRK8wxMBConv
.LEHE3:
	.loc 9 1242 26 discriminator 4
	leaq	-88(%rbp), %rax
	movq	%rax, %rcx
.LEHB4:
	call	_ZNK22wxScopedCharTypeBufferIwEcvPKwEv
	movq	%rax, %rdx
	leaq	-89(%rbp), %rax
	movq	%rax, %r8
	movq	%rbx, %rcx
	call	_ZNSt7__cxx1112basic_stringIwSt11char_traitsIwESaIwEEC1EPKwRKS3_
.LEHE4:
	.loc 9 1242 21 discriminator 8
	leaq	-88(%rbp), %rax
	movq	%rax, %rcx
	call	_ZN22wxScopedCharTypeBufferIwED1Ev
	.loc 9 1242 26 discriminator 8
	leaq	-89(%rbp), %rax
	movq	%rax, %rcx
	call	_ZNSaIwED1Ev
	movq	-48(%rbp), %rax
	addq	$32, %rax
	movq	%rax, %rcx
	call	_ZN8wxString15ConvertedBufferIcEC1Ev
.LBE7:
	.loc 9 1242 29 discriminator 8
	jmp	.L35
.L34:
	movq	%rax, %rbx
.LBB8:
	.loc 9 1242 21
	leaq	-88(%rbp), %rax
	movq	%rax, %rcx
	call	_ZN22wxScopedCharTypeBufferIwED1Ev
	jmp	.L32
.L33:
	movq	%rax, %rbx
.L32:
	.loc 9 1242 26 discriminator 3
	leaq	-89(%rbp), %rax
	movq	%rax, %rcx
	call	_ZNSaIwED1Ev
	movq	%rbx, %rax
	movq	%rax, %rcx
.LEHB5:
	call	_Unwind_Resume
	nop
.LEHE5:
.L35:
.LBE8:
	.loc 9 1242 29
	addq	$56, %rsp
	popq	%rbx
	.cfi_restore 3
	popq	%rbp
	.cfi_restore 6
	.cfi_def_cfa 7, -40
	ret
	.cfi_endproc
.LFE2458:
	.seh_handler	__gxx_personality_seh0, @unwind, @except
	.seh_handlerdata
.LLSDA2458:
	.byte	0xff
	.byte	0xff
	.byte	0x1
	.uleb128 .LLSDACSE2458-.LLSDACSB2458
.LLSDACSB2458:
	.uleb128 .LEHB3-.LFB2458
	.uleb128 .LEHE3-.LEHB3
	.uleb128 .L33-.LFB2458
	.uleb128 0
	.uleb128 .LEHB4-.LFB2458
	.uleb128 .LEHE4-.LEHB4
	.uleb128 .L34-.LFB2458
	.uleb128 0
	.uleb128 .LEHB5-.LFB2458
	.uleb128 .LEHE5-.LEHB5
	.uleb128 0
	.uleb128 0
.LLSDACSE2458:
	.section	.text$_ZN8wxStringC1EPKc,"x"
	.linkonce discard
	.seh_endproc
	.section	.text$_ZN8wxStringC1ERKNSt7__cxx1112basic_stringIcSt11char_traitsIcESaIcEEE,"x"
	.linkonce discard
	.align 2
	.globl	_ZN8wxStringC1ERKNSt7__cxx1112basic_stringIcSt11char_traitsIcESaIcEEE
	.def	_ZN8wxStringC1ERKNSt7__cxx1112basic_stringIcSt11char_traitsIcESaIcEEE;	.scl	2;	.type	32;	.endef
	.seh_proc	_ZN8wxStringC1ERKNSt7__cxx1112basic_stringIcSt11char_traitsIcESaIcEEE
_ZN8wxStringC1ERKNSt7__cxx1112basic_stringIcSt11char_traitsIcESaIcEEE:
.LFB2512:
	.loc 9 1327 5
	.cfi_startproc
	pushq	%rbp
	.seh_pushreg	%rbp
	.cfi_def_cfa_offset 16
	.cfi_offset 6, -16
	pushq	%rbx
	.seh_pushreg	%rbx
	.cfi_def_cfa_offset 24
	.cfi_offset 3, -24
	subq	$40, %rsp
	.seh_stackalloc	40
	.cfi_def_cfa_offset 64
	leaq	128(%rsp), %rbp
	.seh_setframe	%rbp, 128
	.cfi_def_cfa 6, -64
	.seh_endprologue
	movq	%rcx, -64(%rbp)
	movq	%rdx, -56(%rbp)
.LBB9:
	.loc 9 1328 9
	movq	-64(%rbp), %rax
	movq	%rax, %rcx
	call	_ZNSt7__cxx1112basic_stringIwSt11char_traitsIwESaIwEEC1Ev
	movq	-64(%rbp), %rax
	addq	$32, %rax
	movq	%rax, %rcx
	call	_ZN8wxString15ConvertedBufferIcEC1Ev
	.loc 9 1328 43
	movq	-56(%rbp), %rax
	movq	%rax, %rcx
	call	_ZNKSt7__cxx1112basic_stringIcSt11char_traitsIcESaIcEE6lengthEv
	movq	%rax, %rbx
	movq	-56(%rbp), %rax
	movq	%rax, %rcx
	call	_ZNKSt7__cxx1112basic_stringIcSt11char_traitsIcESaIcEE5c_strEv
	movq	%rbx, %r8
	movq	%rax, %rdx
	movq	-64(%rbp), %rcx
.LEHB6:
	call	_ZN8wxString6assignEPKcy
.LEHE6:
.LBE9:
	.loc 9 1328 46
	jmp	.L39
.L38:
	movq	%rax, %rbx
.LBB10:
	.loc 9 1328 9
	movq	-64(%rbp), %rax
	addq	$32, %rax
	movq	%rax, %rcx
	call	_ZN8wxString15ConvertedBufferIcED1Ev
	movq	-64(%rbp), %rax
	movq	%rax, %rcx
	call	_ZNSt7__cxx1112basic_stringIwSt11char_traitsIwESaIwEED1Ev
	movq	%rbx, %rax
	movq	%rax, %rcx
.LEHB7:
	call	_Unwind_Resume
	nop
.LEHE7:
.L39:
.LBE10:
	.loc 9 1328 46
	addq	$40, %rsp
	popq	%rbx
	.cfi_restore 3
	popq	%rbp
	.cfi_restore 6
	.cfi_def_cfa 7, -24
	ret
	.cfi_endproc
.LFE2512:
	.seh_handler	__gxx_personality_seh0, @unwind, @except
	.seh_handlerdata
.LLSDA2512:
	.byte	0xff
	.byte	0xff
	.byte	0x1
	.uleb128 .LLSDACSE2512-.LLSDACSB2512
.LLSDACSB2512:
	.uleb128 .LEHB6-.LFB2512
	.uleb128 .LEHE6-.LEHB6
	.uleb128 .L38-.LFB2512
	.uleb128 0
	.uleb128 .LEHB7-.LFB2512
	.uleb128 .LEHE7-.LEHB7
	.uleb128 0
	.uleb128 0
.LLSDACSE2512:
	.section	.text$_ZN8wxStringC1ERKNSt7__cxx1112basic_stringIcSt11char_traitsIcESaIcEEE,"x"
	.linkonce discard
	.seh_endproc
	.section	.text$_ZN8wxString6assignEPKcy,"x"
	.linkonce discard
	.align 2
	.globl	_ZN8wxString6assignEPKcy
	.def	_ZN8wxString6assignEPKcy;	.scl	2;	.type	32;	.endef
	.seh_proc	_ZN8wxString6assignEPKcy
_ZN8wxString6assignEPKcy:
.LFB2831:
	.loc 9 2633 13
	.cfi_startproc
	pushq	%rbp
	.seh_pushreg	%rbp
	.cfi_def_cfa_offset 16
	.cfi_offset 6, -16
	pushq	%rsi
	.seh_pushreg	%rsi
	.cfi_def_cfa_offset 24
	.cfi_offset 4, -24
	pushq	%rbx
	.seh_pushreg	%rbx
	.cfi_def_cfa_offset 32
	.cfi_offset 3, -32
	movq	%rsp, %rbp
	.seh_setframe	%rbp, 0
	.cfi_def_cfa_register 6
	subq	$48, %rsp
	.seh_stackalloc	48
	.seh_endprologue
	movq	%rcx, 32(%rbp)
	movq	%rdx, 40(%rbp)
	movq	%r8, 48(%rbp)
.LEHB8:
	.loc 9 2637 40
	call	_Z16wxGet_wxConvLibcv
	movq	%rax, %r8
	.loc 9 2637 41
	leaq	-16(%rbp), %rax
	movq	48(%rbp), %rcx
	movq	40(%rbp), %rdx
	movq	%r8, %r9
	movq	%rcx, %r8
	movq	%rax, %rcx
	call	_ZN8wxString7ImplStrEPKcyRK8wxMBConv
.LEHE8:
	.loc 9 2638 38
	movq	32(%rbp), %rbx
	movq	-8(%rbp), %rsi
	leaq	-16(%rbp), %rax
	movq	%rax, %rcx
.LEHB9:
	call	_ZNK22wxScopedCharTypeBufferIwEcvPKwEv
	movq	%rsi, %r8
	movq	%rax, %rdx
	movq	%rbx, %rcx
	call	_ZNSt7__cxx1112basic_stringIwSt11char_traitsIwESaIwEE6assignEPKwy
.LEHE9:
	.loc 9 2640 15
	movq	32(%rbp), %rbx
	.loc 9 2637 41
	leaq	-16(%rbp), %rax
	movq	%rax, %rcx
	call	_ZN8wxString17SubstrBufFromTypeI22wxScopedCharTypeBufferIwEED1Ev
	.loc 9 2640 15
	movq	%rbx, %rax
	jmp	.L44
.L43:
	movq	%rax, %rbx
	.loc 9 2637 41
	leaq	-16(%rbp), %rax
	movq	%rax, %rcx
	call	_ZN8wxString17SubstrBufFromTypeI22wxScopedCharTypeBufferIwEED1Ev
	movq	%rbx, %rax
	movq	%rax, %rcx
.LEHB10:
	call	_Unwind_Resume
.LEHE10:
.L44:
	.loc 9 2641 3
	addq	$48, %rsp
	popq	%rbx
	.cfi_restore 3
	popq	%rsi
	.cfi_restore 4
	popq	%rbp
	.cfi_restore 6
	.cfi_def_cfa 7, 24
	ret
	.cfi_endproc
.LFE2831:
	.seh_handler	__gxx_personality_seh0, @unwind, @except
	.seh_handlerdata
.LLSDA2831:
	.byte	0xff
	.byte	0xff
	.byte	0x1
	.uleb128 .LLSDACSE2831-.LLSDACSB2831
.LLSDACSB2831:
	.uleb128 .LEHB8-.LFB2831
	.uleb128 .LEHE8-.LEHB8
	.uleb128 0
	.uleb128 0
	.uleb128 .LEHB9-.LFB2831
	.uleb128 .LEHE9-.LEHB9
	.uleb128 .L43-.LFB2831
	.uleb128 0
	.uleb128 .LEHB10-.LFB2831
	.uleb128 .LEHE10-.LEHB10
	.uleb128 0
	.uleb128 0
.LLSDACSE2831:
	.section	.text$_ZN8wxString6assignEPKcy,"x"
	.linkonce discard
	.seh_endproc
	.section .rdata,"dr"
	.align 4
_ZL15wxInvalidOffset:
	.long	-1
	.section	.text$_ZN23wxCriticalSectionLockerC1ER17wxCriticalSection,"x"
	.linkonce discard
	.align 2
	.globl	_ZN23wxCriticalSectionLockerC1ER17wxCriticalSection
	.def	_ZN23wxCriticalSectionLockerC1ER17wxCriticalSection;	.scl	2;	.type	32;	.endef
	.seh_proc	_ZN23wxCriticalSectionLockerC1ER17wxCriticalSection
_ZN23wxCriticalSectionLockerC1ER17wxCriticalSection:
.LFB8060:
	.file 10 "../wxMSW-3.0.5_gcc810_x64_Dev/include/wx/thread.h"
	.loc 10 304 5
	.cfi_startproc
	pushq	%rbp
	.seh_pushreg	%rbp
	.cfi_def_cfa_offset 16
	.cfi_offset 6, -16
	movq	%rsp, %rbp
	.seh_setframe	%rbp, 0
	.cfi_def_cfa_register 6
	subq	$32, %rsp
	.seh_stackalloc	32
	.seh_endprologue
	movq	%rcx, 16(%rbp)
	movq	%rdx, 24(%rbp)
.LBB11:
	.loc 10 305 24
	movq	16(%rbp), %rax
	movq	24(%rbp), %rdx
	movq	%rdx, (%rax)
	.loc 10 307 9
	movq	16(%rbp), %rax
	movq	(%rax), %rax
	.loc 10 307 25
	movq	%rax, %rcx
	call	_ZN17wxCriticalSection5EnterEv
.LBE11:
	.loc 10 308 5
	nop
	addq	$32, %rsp
	popq	%rbp
	.cfi_restore 6
	.cfi_def_cfa 7, 8
	ret
	.cfi_endproc
.LFE8060:
	.seh_endproc
	.section	.text$_ZN23wxCriticalSectionLockerD1Ev,"x"
	.linkonce discard
	.align 2
	.globl	_ZN23wxCriticalSectionLockerD1Ev
	.def	_ZN23wxCriticalSectionLockerD1Ev;	.scl	2;	.type	32;	.endef
	.seh_proc	_ZN23wxCriticalSectionLockerD1Ev
_ZN23wxCriticalSectionLockerD1Ev:
.LFB8063:
	.loc 10 310 5
	.cfi_startproc
	pushq	%rbp
	.seh_pushreg	%rbp
	.cfi_def_cfa_offset 16
	.cfi_offset 6, -16
	movq	%rsp, %rbp
	.seh_setframe	%rbp, 0
	.cfi_def_cfa_register 6
	subq	$32, %rsp
	.seh_stackalloc	32
	.seh_endprologue
	movq	%rcx, 16(%rbp)
.LBB12:
	.loc 10 312 9
	movq	16(%rbp), %rax
	movq	(%rax), %rax
	.loc 10 312 25
	movq	%rax, %rcx
	call	_ZN17wxCriticalSection5LeaveEv
.LBE12:
	.loc 10 313 5
	nop
	addq	$32, %rsp
	popq	%rbp
	.cfi_restore 6
	.cfi_def_cfa 7, 8
	ret
	.cfi_endproc
.LFE8063:
	.seh_handler	__gxx_personality_seh0, @unwind, @except
	.seh_handlerdata
.LLSDA8063:
	.byte	0xff
	.byte	0xff
	.byte	0x1
	.uleb128 .LLSDACSE8063-.LLSDACSB8063
.LLSDACSB8063:
.LLSDACSE8063:
	.section	.text$_ZN23wxCriticalSectionLockerD1Ev,"x"
	.linkonce discard
	.seh_endproc
	.section	.text$_ZN8wxThread8OnDeleteEv,"x"
	.linkonce discard
	.align 2
	.globl	_ZN8wxThread8OnDeleteEv
	.def	_ZN8wxThread8OnDeleteEv;	.scl	2;	.type	32;	.endef
	.seh_proc	_ZN8wxThread8OnDeleteEv
_ZN8wxThread8OnDeleteEv:
.LFB8069:
	.loc 10 627 18
	.cfi_startproc
	pushq	%rbp
	.seh_pushreg	%rbp
	.cfi_def_cfa_offset 16
	.cfi_offset 6, -16
	movq	%rsp, %rbp
	.seh_setframe	%rbp, 0
	.cfi_def_cfa_register 6
	.seh_endprologue
	movq	%rcx, 16(%rbp)
	.loc 10 627 30
	nop
	popq	%rbp
	.cfi_restore 6
	.cfi_def_cfa 7, 8
	ret
	.cfi_endproc
.LFE8069:
	.seh_endproc
	.section	.text$_ZN8wxThread6OnKillEv,"x"
	.linkonce discard
	.align 2
	.globl	_ZN8wxThread6OnKillEv
	.def	_ZN8wxThread6OnKillEv;	.scl	2;	.type	32;	.endef
	.seh_proc	_ZN8wxThread6OnKillEv
_ZN8wxThread6OnKillEv:
.LFB8070:
	.loc 10 631 18
	.cfi_startproc
	pushq	%rbp
	.seh_pushreg	%rbp
	.cfi_def_cfa_offset 16
	.cfi_offset 6, -16
	movq	%rsp, %rbp
	.seh_setframe	%rbp, 0
	.cfi_def_cfa_register 6
	.seh_endprologue
	movq	%rcx, 16(%rbp)
	.loc 10 631 28
	nop
	popq	%rbp
	.cfi_restore 6
	.cfi_def_cfa 7, 8
	ret
	.cfi_endproc
.LFE8070:
	.seh_endproc
	.section	.text$_ZN8wxThread6OnExitEv,"x"
	.linkonce discard
	.align 2
	.globl	_ZN8wxThread6OnExitEv
	.def	_ZN8wxThread6OnExitEv;	.scl	2;	.type	32;	.endef
	.seh_proc	_ZN8wxThread6OnExitEv
_ZN8wxThread6OnExitEv:
.LFB8071:
	.loc 10 641 18
	.cfi_startproc
	pushq	%rbp
	.seh_pushreg	%rbp
	.cfi_def_cfa_offset 16
	.cfi_offset 6, -16
	movq	%rsp, %rbp
	.seh_setframe	%rbp, 0
	.cfi_def_cfa_register 6
	.seh_endprologue
	movq	%rcx, 16(%rbp)
	.loc 10 641 29
	nop
	popq	%rbp
	.cfi_restore 6
	.cfi_def_cfa 7, 8
	ret
	.cfi_endproc
.LFE8071:
	.seh_endproc
	.section	.text$_ZN20wxThreadHelperThread5EntryEv,"x"
	.linkonce discard
	.align 2
	.globl	_ZN20wxThreadHelperThread5EntryEv
	.def	_ZN20wxThreadHelperThread5EntryEv;	.scl	2;	.type	32;	.endef
	.seh_proc	_ZN20wxThreadHelperThread5EntryEv
_ZN20wxThreadHelperThread5EntryEv:
.LFB8086:
	.loc 10 767 1
	.cfi_startproc
	pushq	%rbp
	.seh_pushreg	%rbp
	.cfi_def_cfa_offset 16
	.cfi_offset 6, -16
	pushq	%rbx
	.seh_pushreg	%rbx
	.cfi_def_cfa_offset 24
	.cfi_offset 3, -24
	subq	$56, %rsp
	.seh_stackalloc	56
	.cfi_def_cfa_offset 80
	leaq	128(%rsp), %rbp
	.seh_setframe	%rbp, 128
	.cfi_def_cfa 6, -48
	.seh_endprologue
	movq	%rcx, -48(%rbp)
	.loc 10 768 27
	movq	-48(%rbp), %rax
	movq	64(%rax), %rdx
	movq	-48(%rbp), %rax
	movq	64(%rax), %rax
	.loc 10 768 41
	movq	(%rax), %rax
	addq	$16, %rax
	movq	(%rax), %rax
	.loc 10 768 40
	movq	%rdx, %rcx
	call	*%rax
.LVL0:
	movq	%rax, -88(%rbp)
	.loc 10 770 36
	movq	-48(%rbp), %rax
	movq	64(%rax), %rax
	.loc 10 770 44
	leaq	24(%rax), %rdx
	.loc 10 770 57
	leaq	-96(%rbp), %rax
	movq	%rax, %rcx
	call	_ZN23wxCriticalSectionLockerC1ER17wxCriticalSection
	.loc 10 776 10
	movq	-48(%rbp), %rax
	movq	64(%rax), %rax
	.loc 10 776 18
	movl	16(%rax), %eax
	.loc 10 776 5
	testl	%eax, %eax
	jne	.L51
	.loc 10 777 9
	movq	-48(%rbp), %rax
	movq	64(%rax), %rax
	.loc 10 777 26
	movq	$0, 8(%rax)
.L51:
	.loc 10 779 12
	movq	-88(%rbp), %rbx
	.loc 10 770 57
	leaq	-96(%rbp), %rax
	movq	%rax, %rcx
	call	_ZN23wxCriticalSectionLockerD1Ev
	.loc 10 779 12
	movq	%rbx, %rax
	.loc 10 780 1
	addq	$56, %rsp
	popq	%rbx
	.cfi_restore 3
	popq	%rbp
	.cfi_restore 6
	.cfi_def_cfa 7, -40
	ret
	.cfi_endproc
.LFE8086:
	.seh_endproc
	.section	.text$_ZN16wxTypeIdentifierC1EPKc,"x"
	.linkonce discard
	.align 2
	.globl	_ZN16wxTypeIdentifierC1EPKc
	.def	_ZN16wxTypeIdentifierC1EPKc;	.scl	2;	.type	32;	.endef
	.seh_proc	_ZN16wxTypeIdentifierC1EPKc
_ZN16wxTypeIdentifierC1EPKc:
.LFB8117:
	.file 11 "../wxMSW-3.0.5_gcc810_x64_Dev/include/wx/typeinfo.h"
	.loc 11 66 5
	.cfi_startproc
	pushq	%rbp
	.seh_pushreg	%rbp
	.cfi_def_cfa_offset 16
	.cfi_offset 6, -16
	movq	%rsp, %rbp
	.seh_setframe	%rbp, 0
	.cfi_def_cfa_register 6
	.seh_endprologue
	movq	%rcx, 16(%rbp)
	movq	%rdx, 24(%rbp)
.LBB13:
	.loc 11 68 21
	movq	16(%rbp), %rax
	movq	24(%rbp), %rdx
	movq	%rdx, (%rax)
.LBE13:
	.loc 11 69 5
	nop
	popq	%rbp
	.cfi_restore 6
	.cfi_def_cfa 7, 8
	ret
	.cfi_endproc
.LFE8117:
	.seh_endproc
	.section	.text$_ZN16wxTypeIdentifiereqERKS_,"x"
	.linkonce discard
	.align 2
	.globl	_ZN16wxTypeIdentifiereqERKS_
	.def	_ZN16wxTypeIdentifiereqERKS_;	.scl	2;	.type	32;	.endef
	.seh_proc	_ZN16wxTypeIdentifiereqERKS_
_ZN16wxTypeIdentifiereqERKS_:
.LFB8118:
	.loc 11 71 10
	.cfi_startproc
	pushq	%rbp
	.seh_pushreg	%rbp
	.cfi_def_cfa_offset 16
	.cfi_offset 6, -16
	movq	%rsp, %rbp
	.seh_setframe	%rbp, 0
	.cfi_def_cfa_register 6
	subq	$32, %rsp
	.seh_stackalloc	32
	.seh_endprologue
	movq	%rcx, 16(%rbp)
	movq	%rdx, 24(%rbp)
	.loc 11 73 42
	movq	24(%rbp), %rax
	movq	(%rax), %rdx
	.loc 11 73 22
	movq	16(%rbp), %rax
	movq	(%rax), %rax
	movq	%rax, %rcx
	call	strcmp
	.loc 11 73 58
	testl	%eax, %eax
	sete	%al
	.loc 11 74 5
	addq	$32, %rsp
	popq	%rbp
	.cfi_restore 6
	.cfi_def_cfa 7, 8
	ret
	.cfi_endproc
.LFE8118:
	.seh_endproc
	.section	.text$_ZNK20wxObjectEventFunctor10IsMatchingERK14wxEventFunctor,"x"
	.linkonce discard
	.align 2
	.globl	_ZNK20wxObjectEventFunctor10IsMatchingERK14wxEventFunctor
	.def	_ZNK20wxObjectEventFunctor10IsMatchingERK14wxEventFunctor;	.scl	2;	.type	32;	.endef
	.seh_proc	_ZNK20wxObjectEventFunctor10IsMatchingERK14wxEventFunctor
_ZNK20wxObjectEventFunctor10IsMatchingERK14wxEventFunctor:
.LFB9149:
	.file 12 "../wxMSW-3.0.5_gcc810_x64_Dev/include/wx/event.h"
	.loc 12 249 18
	.cfi_startproc
	pushq	%rbp
	.seh_pushreg	%rbp
	.cfi_def_cfa_offset 16
	.cfi_offset 6, -16
	movq	%rsp, %rbp
	.seh_setframe	%rbp, 0
	.cfi_def_cfa_register 6
	subq	$64, %rsp
	.seh_stackalloc	64
	.seh_endprologue
	movq	%rcx, 16(%rbp)
	movq	%rdx, 24(%rbp)
.LBB14:
	.loc 12 251 83
	movq	16(%rbp), %rax
	movq	(%rax), %rax
	subq	$8, %rax
	.loc 12 251 58
	movq	(%rax), %rax
	movq	%rax, %rcx
	call	_ZNKSt9type_info4nameEv
	movq	%rax, %rdx
	leaq	-24(%rbp), %rax
	movq	%rax, %rcx
	call	_ZN16wxTypeIdentifierC1EPKc
	.loc 12 251 38
	movq	24(%rbp), %rax
	movq	(%rax), %rax
	subq	$8, %rax
	.loc 12 251 14
	movq	(%rax), %rax
	movq	%rax, %rcx
	call	_ZNKSt9type_info4nameEv
	movq	%rax, %rdx
	leaq	-16(%rbp), %rax
	movq	%rax, %rcx
	call	_ZN16wxTypeIdentifierC1EPKc
	.loc 12 251 55
	leaq	-24(%rbp), %rdx
	leaq	-16(%rbp), %rax
	movq	%rax, %rcx
	call	_ZN16wxTypeIdentifiereqERKS_
	.loc 12 251 9
	testb	%al, %al
	je	.L57
.LBB15:
	.loc 12 253 41
	movq	24(%rbp), %rax
	movq	%rax, -8(%rbp)
	.loc 12 262 40
	movq	16(%rbp), %rax
	movq	16(%rax), %rdx
	movq	-8(%rbp), %rax
	movq	16(%rax), %rax
	.loc 12 262 74
	cmpq	%rax, %rdx
	jne	.L58
	.loc 12 262 40 discriminator 1
	movq	16(%rbp), %rax
	movq	24(%rax), %rdx
	movq	-8(%rbp), %rax
	movq	24(%rax), %rax
	.loc 12 262 31 discriminator 1
	cmpq	%rax, %rdx
	je	.L59
	.loc 12 262 40 discriminator 4
	movq	16(%rbp), %rax
	movq	16(%rax), %rax
	.loc 12 262 31 discriminator 4
	testq	%rax, %rax
	je	.L59
.L58:
	.loc 12 262 70 discriminator 6
	movq	-8(%rbp), %rax
	movq	16(%rax), %rax
	.loc 12 262 49 discriminator 6
	testq	%rax, %rax
	jne	.L60
.L59:
	.loc 12 263 22 discriminator 7
	movq	16(%rbp), %rax
	movq	8(%rax), %rdx
	.loc 12 263 41 discriminator 7
	movq	-8(%rbp), %rax
	movq	8(%rax), %rax
	.loc 12 262 74 discriminator 7
	cmpq	%rax, %rdx
	je	.L61
	.loc 12 263 60
	movq	-8(%rbp), %rax
	movq	8(%rax), %rax
	.loc 12 263 51
	testq	%rax, %rax
	jne	.L60
.L61:
	.loc 12 262 74 discriminator 9
	movl	$1, %eax
	.loc 12 263 77 discriminator 9
	jmp	.L63
.L60:
	.loc 12 262 74 discriminator 8
	movl	$0, %eax
	.loc 12 263 77 discriminator 8
	jmp	.L63
.L57:
.LBE15:
	.loc 12 266 20
	movl	$0, %eax
.L63:
.LBE14:
	.loc 12 267 5
	addq	$64, %rsp
	popq	%rbp
	.cfi_restore 6
	.cfi_def_cfa 7, 8
	ret
	.cfi_endproc
.LFE9149:
	.seh_endproc
	.section	.text$_ZNK20wxObjectEventFunctor13GetEvtHandlerEv,"x"
	.linkonce discard
	.align 2
	.globl	_ZNK20wxObjectEventFunctor13GetEvtHandlerEv
	.def	_ZNK20wxObjectEventFunctor13GetEvtHandlerEv;	.scl	2;	.type	32;	.endef
	.seh_proc	_ZNK20wxObjectEventFunctor13GetEvtHandlerEv
_ZNK20wxObjectEventFunctor13GetEvtHandlerEv:
.LFB9150:
	.loc 12 269 27
	.cfi_startproc
	pushq	%rbp
	.seh_pushreg	%rbp
	.cfi_def_cfa_offset 16
	.cfi_offset 6, -16
	movq	%rsp, %rbp
	.seh_setframe	%rbp, 0
	.cfi_def_cfa_register 6
	.seh_endprologue
	movq	%rcx, 16(%rbp)
	.loc 12 270 18
	movq	16(%rbp), %rax
	movq	8(%rax), %rax
	.loc 12 270 29
	popq	%rbp
	.cfi_restore 6
	.cfi_def_cfa 7, 8
	ret
	.cfi_endproc
.LFE9150:
	.seh_endproc
	.section	.text$_ZNK20wxObjectEventFunctor12GetEvtMethodEv,"x"
	.linkonce discard
	.align 2
	.globl	_ZNK20wxObjectEventFunctor12GetEvtMethodEv
	.def	_ZNK20wxObjectEventFunctor12GetEvtMethodEv;	.scl	2;	.type	32;	.endef
	.seh_proc	_ZNK20wxObjectEventFunctor12GetEvtMethodEv
_ZNK20wxObjectEventFunctor12GetEvtMethodEv:
.LFB9151:
	.loc 12 272 29
	.cfi_startproc
	pushq	%rbp
	.seh_pushreg	%rbp
	.cfi_def_cfa_offset 16
	.cfi_offset 6, -16
	movq	%rsp, %rbp
	.seh_setframe	%rbp, 0
	.cfi_def_cfa_register 6
	.seh_endprologue
	movq	%rcx, 16(%rbp)
	movq	%rdx, 24(%rbp)
	.loc 12 273 18
	movq	16(%rbp), %rcx
	movq	24(%rbp), %rax
	movq	24(%rax), %rdx
	movq	16(%rax), %rax
	movq	%rax, (%rcx)
	movq	%rdx, 8(%rcx)
	.loc 12 273 28
	movq	16(%rbp), %rax
	popq	%rbp
	.cfi_restore 6
	.cfi_def_cfa 7, 8
	ret
	.cfi_endproc
.LFE9151:
	.seh_endproc
	.section	.text$_ZN20wxObjectEventFunctorclEP12wxEvtHandlerR7wxEvent,"x"
	.linkonce discard
	.align 2
	.globl	_ZN20wxObjectEventFunctorclEP12wxEvtHandlerR7wxEvent
	.def	_ZN20wxObjectEventFunctorclEP12wxEvtHandlerR7wxEvent;	.scl	2;	.type	32;	.endef
	.seh_proc	_ZN20wxObjectEventFunctorclEP12wxEvtHandlerR7wxEvent
_ZN20wxObjectEventFunctorclEP12wxEvtHandlerR7wxEvent:
.LFB9949:
	.loc 12 3775 1
	.cfi_startproc
	pushq	%rbp
	.seh_pushreg	%rbp
	.cfi_def_cfa_offset 16
	.cfi_offset 6, -16
	movq	%rsp, %rbp
	.seh_setframe	%rbp, 0
	.cfi_def_cfa_register 6
	subq	$48, %rsp
	.seh_stackalloc	48
	.seh_endprologue
	movq	%rcx, 16(%rbp)
	movq	%rdx, 24(%rbp)
	movq	%r8, 32(%rbp)
	.loc 12 3776 40
	movq	16(%rbp), %rax
	movq	8(%rax), %rax
	.loc 12 3776 50
	testq	%rax, %rax
	je	.L69
	.loc 12 3776 50 is_stmt 0 discriminator 1
	movq	16(%rbp), %rax
	movq	8(%rax), %rax
	jmp	.L70
.L69:
	.loc 12 3776 50 discriminator 2
	movq	24(%rbp), %rax
.L70:
	.loc 12 3776 26 is_stmt 1 discriminator 4
	movq	%rax, -8(%rbp)
	.loc 12 3778 35 discriminator 4
	movq	16(%rbp), %rax
	movq	24(%rax), %rax
	.loc 12 3778 29 discriminator 4
	movq	%rax, %rdx
	movq	-8(%rbp), %rax
	leaq	(%rdx,%rax), %rcx
	.loc 12 3778 35 discriminator 4
	movq	16(%rbp), %rax
	movq	16(%rax), %rax
	andl	$1, %eax
	testq	%rax, %rax
	je	.L71
	.loc 12 3778 35 is_stmt 0 discriminator 1
	movq	16(%rbp), %rax
	movq	24(%rax), %rax
	movq	%rax, %rdx
	movq	-8(%rbp), %rax
	addq	%rdx, %rax
	movq	(%rax), %rdx
	movq	16(%rbp), %rax
	movq	16(%rax), %rax
	subq	$1, %rax
	addq	%rdx, %rax
	movq	(%rax), %rax
	jmp	.L72
.L71:
	.loc 12 3778 35 discriminator 2
	movq	16(%rbp), %rax
	movq	16(%rax), %rax
.L72:
	.loc 12 3778 29 is_stmt 1 discriminator 4
	movq	32(%rbp), %rdx
	call	*%rax
.LVL1:
	.loc 12 3779 1 discriminator 4
	nop
	addq	$48, %rsp
	popq	%rbp
	.cfi_restore 6
	.cfi_def_cfa 7, 8
	ret
	.cfi_endproc
.LFE9949:
	.seh_endproc
	.section .rdata,"dr"
_ZL19wxALPHA_TRANSPARENT:
	.space 1
_ZL14wxALPHA_OPAQUE:
	.byte	-1
.lcomm _ZStL8__ioinit,1,1
	.align 4
_ZL21wxOutOfRangeTextCoord:
	.long	-1
	.align 4
_ZL18wxInvalidTextCoord:
	.long	-2
	.section	.text$_ZN10BaseObjectaSERKS_,"x"
	.linkonce discard
	.align 2
	.globl	_ZN10BaseObjectaSERKS_
	.def	_ZN10BaseObjectaSERKS_;	.scl	2;	.type	32;	.endef
	.seh_proc	_ZN10BaseObjectaSERKS_
_ZN10BaseObjectaSERKS_:
.LFB10933:
	.loc 4 5 7
	.cfi_startproc
	pushq	%rbp
	.seh_pushreg	%rbp
	.cfi_def_cfa_offset 16
	.cfi_offset 6, -16
	movq	%rsp, %rbp
	.seh_setframe	%rbp, 0
	.cfi_def_cfa_register 6
	.seh_endprologue
	movq	%rcx, 16(%rbp)
	movq	%rdx, 24(%rbp)
	.loc 4 5 7
	movq	16(%rbp), %rax
	popq	%rbp
	.cfi_restore 6
	.cfi_def_cfa 7, 8
	ret
	.cfi_endproc
.LFE10933:
	.seh_endproc
	.section .rdata,"dr"
_ZStL13allocator_arg:
	.space 1
_ZStL6ignore:
	.space 1
	.section	.text$_ZN12Configuracao35getDesvioProvavelDirecaoFatorAjusteEv,"x"
	.linkonce discard
	.align 2
	.globl	_ZN12Configuracao35getDesvioProvavelDirecaoFatorAjusteEv
	.def	_ZN12Configuracao35getDesvioProvavelDirecaoFatorAjusteEv;	.scl	2;	.type	32;	.endef
	.seh_proc	_ZN12Configuracao35getDesvioProvavelDirecaoFatorAjusteEv
_ZN12Configuracao35getDesvioProvavelDirecaoFatorAjusteEv:
.LFB11184:
	.file 13 "C:/temp/ballisticKernelCpp/interfaceGrafica/calculadorBalisiticaGraficoWindows/configuracao.h"
	.loc 13 25 16
	.cfi_startproc
	pushq	%rbp
	.seh_pushreg	%rbp
	.cfi_def_cfa_offset 16
	.cfi_offset 6, -16
	movq	%rsp, %rbp
	.seh_setframe	%rbp, 0
	.cfi_def_cfa_register 6
	.seh_endprologue
	movq	%rcx, 16(%rbp)
	.loc 13 25 61
	movq	16(%rbp), %rax
	movsd	56(%rax), %xmm0
	movq	%xmm0, %rax
	.loc 13 25 94
	movq	%rax, %xmm0
	popq	%rbp
	.cfi_restore 6
	.cfi_def_cfa 7, 8
	ret
	.cfi_endproc
.LFE11184:
	.seh_endproc
	.section	.text$_ZN12Configuracao25getDesvioProvavelElevacaoEv,"x"
	.linkonce discard
	.align 2
	.globl	_ZN12Configuracao25getDesvioProvavelElevacaoEv
	.def	_ZN12Configuracao25getDesvioProvavelElevacaoEv;	.scl	2;	.type	32;	.endef
	.seh_proc	_ZN12Configuracao25getDesvioProvavelElevacaoEv
_ZN12Configuracao25getDesvioProvavelElevacaoEv:
.LFB11186:
	.loc 13 27 16
	.cfi_startproc
	pushq	%rbp
	.seh_pushreg	%rbp
	.cfi_def_cfa_offset 16
	.cfi_offset 6, -16
	movq	%rsp, %rbp
	.seh_setframe	%rbp, 0
	.cfi_def_cfa_register 6
	.seh_endprologue
	movq	%rcx, 16(%rbp)
	.loc 13 27 51
	movq	16(%rbp), %rax
	movsd	40(%rax), %xmm0
	movq	%xmm0, %rax
	.loc 13 27 74
	movq	%rax, %xmm0
	popq	%rbp
	.cfi_restore 6
	.cfi_def_cfa 7, 8
	ret
	.cfi_endproc
.LFE11186:
	.seh_endproc
	.section	.text$_ZN12Configuracao24getDesvioProvavelArrastoEv,"x"
	.linkonce discard
	.align 2
	.globl	_ZN12Configuracao24getDesvioProvavelArrastoEv
	.def	_ZN12Configuracao24getDesvioProvavelArrastoEv;	.scl	2;	.type	32;	.endef
	.seh_proc	_ZN12Configuracao24getDesvioProvavelArrastoEv
_ZN12Configuracao24getDesvioProvavelArrastoEv:
.LFB11188:
	.loc 13 29 16
	.cfi_startproc
	pushq	%rbp
	.seh_pushreg	%rbp
	.cfi_def_cfa_offset 16
	.cfi_offset 6, -16
	movq	%rsp, %rbp
	.seh_setframe	%rbp, 0
	.cfi_def_cfa_register 6
	.seh_endprologue
	movq	%rcx, 16(%rbp)
	.loc 13 29 50
	movq	16(%rbp), %rax
	movsd	48(%rax), %xmm0
	movq	%xmm0, %rax
	.loc 13 29 72
	movq	%rax, %xmm0
	popq	%rbp
	.cfi_restore 6
	.cfi_def_cfa 7, 8
	ret
	.cfi_endproc
.LFE11188:
	.seh_endproc
	.section	.text$_ZN12Configuracao27getDesvioProvavelVelocidadeEv,"x"
	.linkonce discard
	.align 2
	.globl	_ZN12Configuracao27getDesvioProvavelVelocidadeEv
	.def	_ZN12Configuracao27getDesvioProvavelVelocidadeEv;	.scl	2;	.type	32;	.endef
	.seh_proc	_ZN12Configuracao27getDesvioProvavelVelocidadeEv
_ZN12Configuracao27getDesvioProvavelVelocidadeEv:
.LFB11190:
	.loc 13 31 16
	.cfi_startproc
	pushq	%rbp
	.seh_pushreg	%rbp
	.cfi_def_cfa_offset 16
	.cfi_offset 6, -16
	movq	%rsp, %rbp
	.seh_setframe	%rbp, 0
	.cfi_def_cfa_register 6
	.seh_endprologue
	movq	%rcx, 16(%rbp)
	.loc 13 31 53
	movq	16(%rbp), %rax
	movsd	64(%rax), %xmm0
	movq	%xmm0, %rax
	.loc 13 31 78
	movq	%rax, %xmm0
	popq	%rbp
	.cfi_restore 6
	.cfi_def_cfa 7, 8
	ret
	.cfi_endproc
.LFE11190:
	.seh_endproc
	.section	.text$_ZN7MathArt5arredEd,"x"
	.linkonce discard
	.globl	_ZN7MathArt5arredEd
	.def	_ZN7MathArt5arredEd;	.scl	2;	.type	32;	.endef
	.seh_proc	_ZN7MathArt5arredEd
_ZN7MathArt5arredEd:
.LFB11282:
	.file 14 "../../MathArt/mathart.h"
	.loc 14 27 16
	.cfi_startproc
	pushq	%rbp
	.seh_pushreg	%rbp
	.cfi_def_cfa_offset 16
	.cfi_offset 6, -16
	movq	%rsp, %rbp
	.seh_setframe	%rbp, 0
	.cfi_def_cfa_register 6
	subq	$32, %rsp
	.seh_stackalloc	32
	.seh_endprologue
	movsd	%xmm0, 16(%rbp)
	.loc 14 30 26
	movsd	16(%rbp), %xmm0
	call	floor
	movapd	%xmm0, %xmm1
	.loc 14 30 19
	movsd	16(%rbp), %xmm0
	subsd	%xmm1, %xmm0
	.loc 14 30 34
	movsd	.LC1(%rip), %xmm1
	subsd	%xmm1, %xmm0
	.loc 14 30 9
	pxor	%xmm1, %xmm1
	comisd	%xmm1, %xmm0
	jbe	.L88
	.loc 14 31 28
	movsd	16(%rbp), %xmm0
	call	ceil
	.loc 14 31 35
	cvttsd2si	%xmm0, %eax
	jmp	.L86
.L88:
	.loc 14 33 29
	movsd	16(%rbp), %xmm0
	call	floor
	.loc 14 33 36
	cvttsd2si	%xmm0, %eax
.L86:
	.loc 14 34 5
	addq	$32, %rsp
	popq	%rbp
	.cfi_restore 6
	.cfi_def_cfa 7, 8
	ret
	.cfi_endproc
.LFE11282:
	.seh_endproc
	.text
	.align 2
	.globl	_ZN15GeradorTabularGC2EP10wxTextCtrl
	.def	_ZN15GeradorTabularGC2EP10wxTextCtrl;	.scl	2;	.type	32;	.endef
	.seh_proc	_ZN15GeradorTabularGC2EP10wxTextCtrl
_ZN15GeradorTabularGC2EP10wxTextCtrl:
.LFB11300:
	.file 15 "C:/temp/ballisticKernelCpp/interfaceGrafica/calculadorBalisiticaGraficoWindows/tabelaDialog/geradorTabularG.cpp"
	.loc 15 9 1
	.cfi_startproc
	pushq	%rbp
	.seh_pushreg	%rbp
	.cfi_def_cfa_offset 16
	.cfi_offset 6, -16
	movq	%rsp, %rbp
	.seh_setframe	%rbp, 0
	.cfi_def_cfa_register 6
	subq	$32, %rsp
	.seh_stackalloc	32
	.seh_endprologue
	movq	%rcx, 16(%rbp)
	movq	%rdx, 24(%rbp)
.LBB16:
	.loc 15 9 85
	movq	16(%rbp), %rax
	movq	24(%rbp), %rdx
	movq	%rax, %rcx
	call	_ZN14GeradorTabularC2EP10wxTextCtrl
	leaq	16+_ZTV15GeradorTabularG(%rip), %rdx
	movq	16(%rbp), %rax
	movq	%rdx, (%rax)
.LBE16:
	.loc 15 12 1
	nop
	addq	$32, %rsp
	popq	%rbp
	.cfi_restore 6
	.cfi_def_cfa 7, 8
	ret
	.cfi_endproc
.LFE11300:
	.seh_endproc
	.globl	_ZN15GeradorTabularGC1EP10wxTextCtrl
	.def	_ZN15GeradorTabularGC1EP10wxTextCtrl;	.scl	2;	.type	32;	.endef
	.set	_ZN15GeradorTabularGC1EP10wxTextCtrl,_ZN15GeradorTabularGC2EP10wxTextCtrl
	.section	.text$_ZN16ElementosDisparoaSEOS_,"x"
	.linkonce discard
	.align 2
	.globl	_ZN16ElementosDisparoaSEOS_
	.def	_ZN16ElementosDisparoaSEOS_;	.scl	2;	.type	32;	.endef
	.seh_proc	_ZN16ElementosDisparoaSEOS_
_ZN16ElementosDisparoaSEOS_:
.LFB11303:
	.loc 5 6 7
	.cfi_startproc
	pushq	%rbp
	.seh_pushreg	%rbp
	.cfi_def_cfa_offset 16
	.cfi_offset 6, -16
	movq	%rsp, %rbp
	.seh_setframe	%rbp, 0
	.cfi_def_cfa_register 6
	subq	$32, %rsp
	.seh_stackalloc	32
	.seh_endprologue
	movq	%rcx, 16(%rbp)
	movq	%rdx, 24(%rbp)
	.loc 5 6 7
	movq	16(%rbp), %rax
	movq	24(%rbp), %rdx
	movq	%rax, %rcx
	call	_ZN10BaseObjectaSERKS_
	movq	24(%rbp), %rax
	movzbl	8(%rax), %eax
	movq	16(%rbp), %rdx
	movb	%al, 8(%rdx)
	movq	24(%rbp), %rax
	movsd	16(%rax), %xmm0
	movq	16(%rbp), %rax
	movsd	%xmm0, 16(%rax)
	movq	24(%rbp), %rax
	movsd	24(%rax), %xmm0
	movq	16(%rbp), %rax
	movsd	%xmm0, 24(%rax)
	movq	16(%rbp), %rax
	addq	$32, %rsp
	popq	%rbp
	.cfi_restore 6
	.cfi_def_cfa 7, 8
	ret
	.cfi_endproc
.LFE11303:
	.seh_endproc
	.section	.text$_ZN12ElementosVooaSEOS_,"x"
	.linkonce discard
	.align 2
	.globl	_ZN12ElementosVooaSEOS_
	.def	_ZN12ElementosVooaSEOS_;	.scl	2;	.type	32;	.endef
	.seh_proc	_ZN12ElementosVooaSEOS_
_ZN12ElementosVooaSEOS_:
.LFB11304:
	.file 16 "../../CalculadorNumerico/calculador/elementosvoo.h"
	.loc 16 7 7
	.cfi_startproc
	pushq	%rbp
	.seh_pushreg	%rbp
	.cfi_def_cfa_offset 16
	.cfi_offset 6, -16
	movq	%rsp, %rbp
	.seh_setframe	%rbp, 0
	.cfi_def_cfa_register 6
	subq	$32, %rsp
	.seh_stackalloc	32
	.seh_endprologue
	movq	%rcx, 16(%rbp)
	movq	%rdx, 24(%rbp)
	.loc 16 7 7
	movq	16(%rbp), %rax
	movq	24(%rbp), %rdx
	movq	%rax, %rcx
	call	_ZN10BaseObjectaSERKS_
	movq	24(%rbp), %rax
	movsd	8(%rax), %xmm0
	movq	16(%rbp), %rax
	movsd	%xmm0, 8(%rax)
	movq	24(%rbp), %rax
	movsd	16(%rax), %xmm0
	movq	16(%rbp), %rax
	movsd	%xmm0, 16(%rax)
	movq	24(%rbp), %rax
	movsd	24(%rax), %xmm0
	movq	16(%rbp), %rax
	movsd	%xmm0, 24(%rax)
	movq	24(%rbp), %rax
	movsd	32(%rax), %xmm0
	movq	16(%rbp), %rax
	movsd	%xmm0, 32(%rax)
	movq	24(%rbp), %rax
	movsd	40(%rax), %xmm0
	movq	16(%rbp), %rax
	movsd	%xmm0, 40(%rax)
	movq	24(%rbp), %rax
	movsd	48(%rax), %xmm0
	movq	16(%rbp), %rax
	movsd	%xmm0, 48(%rax)
	movq	24(%rbp), %rax
	movsd	56(%rax), %xmm0
	movq	16(%rbp), %rax
	movsd	%xmm0, 56(%rax)
	movq	24(%rbp), %rax
	movsd	64(%rax), %xmm0
	movq	16(%rbp), %rax
	movsd	%xmm0, 64(%rax)
	movq	24(%rbp), %rax
	movsd	72(%rax), %xmm0
	movq	16(%rbp), %rax
	movsd	%xmm0, 72(%rax)
	movq	24(%rbp), %rax
	movsd	80(%rax), %xmm0
	movq	16(%rbp), %rax
	movsd	%xmm0, 80(%rax)
	movq	24(%rbp), %rax
	movsd	88(%rax), %xmm0
	movq	16(%rbp), %rax
	movsd	%xmm0, 88(%rax)
	movq	16(%rbp), %rax
	addq	$32, %rsp
	popq	%rbp
	.cfi_restore 6
	.cfi_def_cfa 7, 8
	ret
	.cfi_endproc
.LFE11304:
	.seh_endproc
	.section .rdata,"dr"
.LC4:
	.ascii "Tabela G \0"
.LC5:
	.ascii "Mergulhante\0"
.LC6:
	.ascii "Vertical\0"
.LC7:
	.ascii " m/s  \0"
.LC8:
	.ascii "\12\0"
	.align 8
.LC9:
	.ascii "Alcance\11Elv\11Dpa\11Dpd\11Ang\11Cot\11V Final\11Alt Max\11CCS\11CCS\12\0"
.LC10:
	.ascii "\11\11\11\11Queda\11Ang\11\11\11Pos\11Neg\12\0"
.LC23:
	.ascii "Divide by zero exception\0"
.LC26:
	.ascii "\11\0"
.LC27:
	.ascii "Fim.\12\0"
	.align 8
.LC28:
	.ascii "\12Limite de validade do Modelo.\12\0"
	.text
	.align 2
	.globl	_ZN15GeradorTabularG11gerarTabelaEP21CalculadorAtmosfericod15TIPO_TRAJETORIAdd
	.def	_ZN15GeradorTabularG11gerarTabelaEP21CalculadorAtmosfericod15TIPO_TRAJETORIAdd;	.scl	2;	.type	32;	.endef
	.seh_proc	_ZN15GeradorTabularG11gerarTabelaEP21CalculadorAtmosfericod15TIPO_TRAJETORIAdd
_ZN15GeradorTabularG11gerarTabelaEP21CalculadorAtmosfericod15TIPO_TRAJETORIAdd:
.LFB11302:
	.loc 15 16 1
	.cfi_startproc
	pushq	%rbp
	.seh_pushreg	%rbp
	.cfi_def_cfa_offset 16
	.cfi_offset 6, -16
	pushq	%rdi
	.seh_pushreg	%rdi
	.cfi_def_cfa_offset 24
	.cfi_offset 5, -24
	pushq	%rsi
	.seh_pushreg	%rsi
	.cfi_def_cfa_offset 32
	.cfi_offset 4, -32
	pushq	%rbx
	.seh_pushreg	%rbx
	.cfi_def_cfa_offset 40
	.cfi_offset 3, -40
	subq	$2952, %rsp
	.seh_stackalloc	2952
	.cfi_def_cfa_offset 2992
	leaq	128(%rsp), %rbp
	.seh_setframe	%rbp, 128
	.cfi_def_cfa 6, 2864
	movaps	%xmm6, 2800(%rbp)
	.seh_savexmm	%xmm6, 2928
	.cfi_offset 23, -64
	.seh_endprologue
	movq	%rcx, 2864(%rbp)
	movq	%rdx, 2872(%rbp)
	movsd	%xmm2, 2880(%rbp)
	movl	%r9d, 2888(%rbp)
	.loc 15 18 15
	leaq	112(%rbp), %rax
	movq	%rax, %rcx
.LEHB11:
	call	_ZN12ElementosVooC1Ev
.LEHE11:
	.loc 15 19 19
	leaq	80(%rbp), %rax
	movq	%rax, %rcx
.LEHB12:
	call	_ZN16ElementosDisparoC1Ev
.LEHE12:
	.loc 15 20 40
	leaq	208(%rbp), %rax
	movsd	2896(%rbp), %xmm1
	movsd	2880(%rbp), %xmm0
	movq	2872(%rbp), %rdx
	movapd	%xmm1, %xmm3
	movapd	%xmm0, %xmm2
	movq	%rax, %rcx
.LEHB13:
	call	_ZN21CalculadorAtmosferico6limiteEdd
	.loc 15 20 61 discriminator 1
	movsd	224(%rbp), %xmm0
	cvttsd2si	%xmm0, %eax
	movl	%eax, 2756(%rbp)
	.loc 15 20 40 discriminator 1
	leaq	208(%rbp), %rax
	movq	%rax, %rcx
	call	_ZN12ElementosVooD1Ev
	.loc 15 21 12 discriminator 1
	movl	2756(%rbp), %ecx
	movl	$1374389535, %edx
	movl	%ecx, %eax
	imull	%edx
	sarl	$5, %edx
	movl	%ecx, %eax
	sarl	$31, %eax
	subl	%eax, %edx
	movl	%edx, %eax
	movl	%eax, 2756(%rbp)
	.loc 15 22 12 discriminator 1
	movl	2756(%rbp), %eax
	imull	$100, %eax, %eax
	movl	%eax, 2756(%rbp)
	.loc 15 24 61 discriminator 1
	cmpl	$0, 2888(%rbp)
	je	.L95
	movl	2756(%rbp), %eax
	subl	$100, %eax
	jmp	.L96
.L95:
	.loc 15 24 61 is_stmt 0 discriminator 2
	movl	$100, %eax
.L96:
	.loc 15 24 9 is_stmt 1 discriminator 4
	movl	%eax, 2752(%rbp)
	.loc 15 25 58 discriminator 4
	cmpl	$0, 2888(%rbp)
	jne	.L97
	.loc 15 25 58 is_stmt 0 discriminator 1
	movl	2756(%rbp), %eax
	jmp	.L98
.L97:
	.loc 15 25 58 discriminator 2
	movl	$100, %eax
.L98:
	.loc 15 25 9 is_stmt 1 discriminator 4
	movl	%eax, 2748(%rbp)
	.loc 15 26 9 discriminator 4
	movl	$100, 2796(%rbp)
	.loc 15 27 5 discriminator 4
	cmpl	$0, 2888(%rbp)
	jne	.L99
	.loc 15 28 45
	leaq	80(%rbp), %rax
	movl	$1, %r9d
	pxor	%xmm2, %xmm2
	pxor	%xmm1, %xmm1
	movq	%rax, %rcx
	call	_ZN16ElementosDisparo19setElementosDisparoEddb
	jmp	.L100
.L99:
	.loc 15 31 45
	movsd	.LC3(%rip), %xmm0
	leaq	80(%rbp), %rax
	movl	$1, %r9d
	pxor	%xmm2, %xmm2
	movapd	%xmm0, %xmm1
	movq	%rax, %rcx
	call	_ZN16ElementosDisparo19setElementosDisparoEddb
	.loc 15 32 19
	negl	2796(%rbp)
.L100:
	.loc 15 35 5
	movq	2864(%rbp), %rax
	movq	8(%rax), %rsi
	movq	2864(%rbp), %rax
	movq	8(%rax), %rax
	.loc 15 35 40
	movq	(%rax), %rax
	addq	$1928, %rax
	movq	(%rax), %rbx
	.loc 15 35 28
	leaq	304(%rbp), %rax
	leaq	.LC4(%rip), %rdx
	movq	%rax, %rcx
	call	_ZN8wxStringC1EPKc
.LEHE13:
	.loc 15 35 28 is_stmt 0 discriminator 1
	leaq	304(%rbp), %rax
	movq	%rax, %rdx
	movq	%rsi, %rcx
.LEHB14:
	call	*%rbx
.LVL2:
.LEHE14:
	.loc 15 35 28 discriminator 3
	leaq	304(%rbp), %rax
	movq	%rax, %rcx
	call	_ZN8wxStringD1Ev
	.loc 15 36 5 is_stmt 1 discriminator 3
	movq	2864(%rbp), %rax
	movq	8(%rax), %rdi
	movq	2864(%rbp), %rax
	movq	8(%rax), %rax
	.loc 15 36 165 discriminator 3
	movq	(%rax), %rax
	addq	$1928, %rax
	movq	(%rax), %rsi
	.loc 15 36 83 discriminator 3
	cmpl	$0, 2888(%rbp)
	jne	.L101
	.loc 15 36 83 is_stmt 0 discriminator 1
	leaq	.LC5(%rip), %rbx
	jmp	.L102
.L101:
	.loc 15 36 83 discriminator 2
	leaq	.LC6(%rip), %rbx
.L102:
	.loc 15 36 43 is_stmt 1 discriminator 4
	movq	2880(%rbp), %rax
	movq	%rax, %xmm0
	call	_ZN7MathArt5arredEd
	movl	%eax, %edx
	leaq	496(%rbp), %rax
	movq	%rax, %rcx
.LEHB15:
	call	_ZNSt7__cxx119to_stringEi
.LEHE15:
	.loc 15 36 72 discriminator 5
	leaq	464(%rbp), %rax
	leaq	496(%rbp), %rdx
	leaq	.LC7(%rip), %r8
	movq	%rax, %rcx
.LEHB16:
	call	_ZStplIcSt11char_traitsIcESaIcEENSt7__cxx1112basic_stringIT_T0_T1_EEOS8_PKS5_
.LEHE16:
	.loc 15 36 83 discriminator 7
	leaq	432(%rbp), %rax
	leaq	464(%rbp), %rdx
	movq	%rbx, %r8
	movq	%rax, %rcx
.LEHB17:
	call	_ZStplIcSt11char_traitsIcESaIcEENSt7__cxx1112basic_stringIT_T0_T1_EEOS8_PKS5_
.LEHE17:
	.loc 15 36 159 discriminator 9
	leaq	400(%rbp), %rax
	leaq	432(%rbp), %rdx
	leaq	.LC8(%rip), %r8
	movq	%rax, %rcx
.LEHB18:
	call	_ZStplIcSt11char_traitsIcESaIcEENSt7__cxx1112basic_stringIT_T0_T1_EEOS8_PKS5_
.LEHE18:
	.loc 15 36 28 discriminator 11
	leaq	400(%rbp), %rdx
	leaq	352(%rbp), %rax
	movq	%rax, %rcx
.LEHB19:
	call	_ZN8wxStringC1ERKNSt7__cxx1112basic_stringIcSt11char_traitsIcESaIcEEE
.LEHE19:
	.loc 15 36 28 is_stmt 0 discriminator 13
	leaq	352(%rbp), %rax
	movq	%rax, %rdx
	movq	%rdi, %rcx
.LEHB20:
	call	*%rsi
.LVL3:
.LEHE20:
	.loc 15 36 28 discriminator 15
	leaq	352(%rbp), %rax
	movq	%rax, %rcx
	call	_ZN8wxStringD1Ev
	.loc 15 36 159 is_stmt 1 discriminator 15
	leaq	400(%rbp), %rax
	movq	%rax, %rcx
	call	_ZNSt7__cxx1112basic_stringIcSt11char_traitsIcESaIcEED1Ev
	.loc 15 36 83 discriminator 15
	leaq	432(%rbp), %rax
	movq	%rax, %rcx
	call	_ZNSt7__cxx1112basic_stringIcSt11char_traitsIcESaIcEED1Ev
	.loc 15 36 72 discriminator 15
	leaq	464(%rbp), %rax
	movq	%rax, %rcx
	call	_ZNSt7__cxx1112basic_stringIcSt11char_traitsIcESaIcEED1Ev
	.loc 15 36 43 discriminator 15
	leaq	496(%rbp), %rax
	movq	%rax, %rcx
	call	_ZNSt7__cxx1112basic_stringIcSt11char_traitsIcESaIcEED1Ev
	.loc 15 37 5 discriminator 15
	movq	2864(%rbp), %rax
	movq	8(%rax), %rsi
	movq	2864(%rbp), %rax
	movq	8(%rax), %rax
	.loc 15 37 93 discriminator 15
	movq	(%rax), %rax
	addq	$1928, %rax
	movq	(%rax), %rbx
	.loc 15 37 28 discriminator 15
	leaq	528(%rbp), %rax
	leaq	.LC9(%rip), %rdx
	movq	%rax, %rcx
.LEHB21:
	call	_ZN8wxStringC1EPKc
.LEHE21:
	.loc 15 37 28 is_stmt 0 discriminator 1
	leaq	528(%rbp), %rax
	movq	%rax, %rdx
	movq	%rsi, %rcx
.LEHB22:
	call	*%rbx
.LVL4:
.LEHE22:
	.loc 15 37 28 discriminator 3
	leaq	528(%rbp), %rax
	movq	%rax, %rcx
	call	_ZN8wxStringD1Ev
	.loc 15 38 5 is_stmt 1 discriminator 3
	movq	2864(%rbp), %rax
	movq	8(%rax), %rsi
	movq	2864(%rbp), %rax
	movq	8(%rax), %rax
	.loc 15 38 65 discriminator 3
	movq	(%rax), %rax
	addq	$1928, %rax
	movq	(%rax), %rbx
	.loc 15 38 28 discriminator 3
	leaq	576(%rbp), %rax
	leaq	.LC10(%rip), %rdx
	movq	%rax, %rcx
.LEHB23:
	call	_ZN8wxStringC1EPKc
.LEHE23:
	.loc 15 38 28 is_stmt 0 discriminator 1
	leaq	576(%rbp), %rax
	movq	%rax, %rdx
	movq	%rsi, %rcx
.LEHB24:
	call	*%rbx
.LVL5:
.LEHE24:
	.loc 15 38 28 discriminator 3
	leaq	576(%rbp), %rax
	movq	%rax, %rcx
	call	_ZN8wxStringD1Ev
	.loc 15 40 32 is_stmt 1 discriminator 3
	movq	2872(%rbp), %rax
	movl	$0, %edx
	movq	%rax, %rcx
	call	_ZN21CalculadorAtmosferico15setChecarLimiteEb
.LBB17:
	.loc 15 43 17 discriminator 3
	movl	2752(%rbp), %eax
	movl	%eax, 2792(%rbp)
.L117:
	.loc 15 43 64 discriminator 1
	movl	2792(%rbp), %eax
	cmpl	2748(%rbp), %eax
	jg	.L103
	.loc 15 43 45 discriminator 3
	movl	2752(%rbp), %eax
	cmpl	2748(%rbp), %eax
	jl	.L104
.L103:
	.loc 15 43 64 discriminator 4
	movl	2792(%rbp), %eax
	cmpl	2748(%rbp), %eax
	jle	.L105
	.loc 15 43 84 discriminator 5
	movl	2752(%rbp), %eax
	cmpl	2748(%rbp), %eax
	jle	.L105
.L104:
.LBB18:
	.loc 15 47 152
	movq	2872(%rbp), %rax
	movq	(%rax), %rax
	addq	$8, %rax
	movq	(%rax), %rbx
	.loc 15 47 58
	leaq	80(%rbp), %rax
	movq	%rax, %rcx
	call	_ZN16ElementosDisparo11getElevacaoEv
	movq	%xmm0, %rcx
	cvtsi2sd	2792(%rbp), %xmm1
	leaq	624(%rbp), %rax
	movsd	2880(%rbp), %xmm2
	movq	2872(%rbp), %rdx
	movl	$1, 72(%rsp)
	movq	%rcx, 64(%rsp)
	movsd	2904(%rbp), %xmm0
	movsd	%xmm0, 56(%rsp)
	movsd	2896(%rbp), %xmm0
	movsd	%xmm0, 48(%rsp)
	movl	2888(%rbp), %ecx
	movl	%ecx, 40(%rsp)
	pxor	%xmm0, %xmm0
	movsd	%xmm0, 32(%rsp)
	movapd	%xmm2, %xmm3
	movapd	%xmm1, %xmm2
	movq	%rax, %rcx
.LEHB25:
	call	*%rbx
.LVL6:
.LEHE25:
	.loc 15 47 152 discriminator 1
	leaq	624(%rbp), %rdx
	leaq	80(%rbp), %rax
	movq	%rax, %rcx
	call	_ZN16ElementosDisparoaSEOS_
	.loc 15 47 58 discriminator 1
	leaq	624(%rbp), %rax
	movq	%rax, %rcx
	call	_ZN16ElementosDisparoD1Ev
	.loc 15 61 63 discriminator 1
	movq	2872(%rbp), %rbx
	leaq	80(%rbp), %rax
	movq	%rax, %rcx
	call	_ZN16ElementosDisparo11getElevacaoEv
	movq	%xmm0, %rdx
	leaq	704(%rbp), %rax
	movsd	2880(%rbp), %xmm1
	movl	$1, 48(%rsp)
	movsd	2896(%rbp), %xmm0
	movsd	%xmm0, 40(%rsp)
	pxor	%xmm0, %xmm0
	movsd	%xmm0, 32(%rsp)
	movapd	%xmm1, %xmm3
	movq	%rdx, %xmm2
	movq	%rbx, %rdx
	movq	%rax, %rcx
.LEHB26:
	call	_ZN10Calculador27solucaoDiretaUltimoElementoEdddd4RAMO
	.loc 15 61 118 discriminator 1
	leaq	704(%rbp), %rdx
	leaq	112(%rbp), %rax
	movq	%rax, %rcx
	call	_ZN12ElementosVooaSEOS_
	.loc 15 61 63 discriminator 1
	leaq	704(%rbp), %rax
	movq	%rax, %rcx
	call	_ZN12ElementosVooD1Ev
	.loc 15 64 22 discriminator 1
	leaq	-16(%rbp), %rax
	movq	%rax, %rcx
	call	_ZN12ElementosVooC1Ev
.LEHE26:
	.loc 15 65 16
	movsd	.LC11(%rip), %xmm0
	movsd	%xmm0, 2736(%rbp)
	.loc 15 66 66
	movq	2872(%rbp), %rbx
	.loc 15 66 95
	leaq	80(%rbp), %rax
	movq	%rax, %rcx
	call	_ZN16ElementosDisparo11getElevacaoEv
	.loc 15 66 66
	movapd	%xmm0, %xmm1
	addsd	2736(%rbp), %xmm1
	leaq	800(%rbp), %rax
	movsd	2880(%rbp), %xmm2
	movl	$1, 48(%rsp)
	movsd	2896(%rbp), %xmm0
	movsd	%xmm0, 40(%rsp)
	pxor	%xmm0, %xmm0
	movsd	%xmm0, 32(%rsp)
	movapd	%xmm2, %xmm3
	movapd	%xmm1, %xmm2
	movq	%rbx, %rdx
	movq	%rax, %rcx
.LEHB27:
	call	_ZN10Calculador27solucaoDiretaUltimoElementoEdddd4RAMO
	.loc 15 66 137 discriminator 1
	leaq	800(%rbp), %rdx
	leaq	-16(%rbp), %rax
	movq	%rax, %rcx
	call	_ZN12ElementosVooaSEOS_
	.loc 15 66 66 discriminator 1
	leaq	800(%rbp), %rax
	movq	%rax, %rcx
	call	_ZN12ElementosVooD1Ev
	.loc 15 67 59 discriminator 1
	movsd	0(%rbp), %xmm0
	.loc 15 67 77 discriminator 1
	movsd	128(%rbp), %xmm1
	.loc 15 67 62 discriminator 1
	subsd	%xmm1, %xmm0
	.loc 15 67 42 discriminator 1
	movq	.LC12(%rip), %xmm1
	andpd	%xmm1, %xmm0
	.loc 15 67 16 discriminator 1
	divsd	2736(%rbp), %xmm0
	movsd	%xmm0, 2728(%rbp)
	.loc 15 69 74 discriminator 1
	movl	$16, %ecx
	call	_Znwy
.LEHE27:
	movq	%rax, %rbx
	movsd	.LC13(%rip), %xmm0
	movapd	%xmm0, %xmm1
	movq	%rbx, %rcx
.LEHB28:
	call	_ZN22PesoDensidadeConstanteC1Ed
.LEHE28:
	.loc 15 69 74 is_stmt 0 discriminator 3
	movq	%rbx, 2720(%rbp)
	.loc 15 70 37 is_stmt 1 discriminator 3
	movq	2720(%rbp), %rdx
	movq	2872(%rbp), %rax
	movq	%rax, %rcx
.LEHB29:
	call	_ZN21CalculadorAtmosferico16setPesoDensidadeEP13PesoDensidade
	.loc 15 71 66
	movq	2872(%rbp), %rbx
	leaq	80(%rbp), %rax
	movq	%rax, %rcx
	call	_ZN16ElementosDisparo11getElevacaoEv
	movq	%xmm0, %rdx
	leaq	896(%rbp), %rax
	movsd	2880(%rbp), %xmm1
	movl	$1, 48(%rsp)
	movsd	2896(%rbp), %xmm0
	movsd	%xmm0, 40(%rsp)
	pxor	%xmm0, %xmm0
	movsd	%xmm0, 32(%rsp)
	movapd	%xmm1, %xmm3
	movq	%rdx, %xmm2
	movq	%rbx, %rdx
	movq	%rax, %rcx
	call	_ZN10Calculador27solucaoDiretaUltimoElementoEdddd4RAMO
	.loc 15 71 121 discriminator 1
	leaq	896(%rbp), %rdx
	leaq	-16(%rbp), %rax
	movq	%rax, %rcx
	call	_ZN12ElementosVooaSEOS_
	.loc 15 71 66 discriminator 1
	leaq	896(%rbp), %rax
	movq	%rax, %rcx
	call	_ZN12ElementosVooD1Ev
	.loc 15 72 37 discriminator 1
	movq	2872(%rbp), %rax
	movl	$0, %edx
	movq	%rax, %rcx
	call	_ZN21CalculadorAtmosferico16setPesoDensidadeEP13PesoDensidade
	.loc 15 73 16
	movq	2720(%rbp), %rax
	movq	%rax, %rcx
	call	_ZdlPv
	.loc 15 74 57
	movsd	128(%rbp), %xmm0
	.loc 15 74 78
	movsd	0(%rbp), %xmm1
	.loc 15 74 60
	subsd	%xmm1, %xmm0
	.loc 15 74 43
	movq	.LC12(%rip), %xmm1
	andpd	%xmm1, %xmm0
	.loc 15 74 16
	movsd	.LC11(%rip), %xmm1
	divsd	%xmm1, %xmm0
	movsd	%xmm0, 2712(%rbp)
	.loc 15 76 16
	movsd	.LC14(%rip), %xmm0
	movsd	%xmm0, 2704(%rbp)
	.loc 15 77 66
	movq	2872(%rbp), %rbx
	movsd	2880(%rbp), %xmm0
	movapd	%xmm0, %xmm6
	subsd	2704(%rbp), %xmm6
	leaq	80(%rbp), %rax
	movq	%rax, %rcx
	call	_ZN16ElementosDisparo11getElevacaoEv
	movq	%xmm0, %rdx
	leaq	992(%rbp), %rax
	movl	$1, 48(%rsp)
	movsd	2896(%rbp), %xmm0
	movsd	%xmm0, 40(%rsp)
	pxor	%xmm0, %xmm0
	movsd	%xmm0, 32(%rsp)
	movapd	%xmm6, %xmm3
	movq	%rdx, %xmm2
	movq	%rbx, %rdx
	movq	%rax, %rcx
	call	_ZN10Calculador27solucaoDiretaUltimoElementoEdddd4RAMO
	.loc 15 77 140 discriminator 1
	leaq	992(%rbp), %rdx
	leaq	-16(%rbp), %rax
	movq	%rax, %rcx
	call	_ZN12ElementosVooaSEOS_
	.loc 15 77 66 discriminator 1
	leaq	992(%rbp), %rax
	movq	%rax, %rcx
	call	_ZN12ElementosVooD1Ev
	.loc 15 78 58 discriminator 1
	movsd	128(%rbp), %xmm0
	.loc 15 78 79 discriminator 1
	movsd	0(%rbp), %xmm1
	.loc 15 78 61 discriminator 1
	subsd	%xmm1, %xmm0
	.loc 15 78 44 discriminator 1
	movq	.LC12(%rip), %xmm1
	andpd	%xmm1, %xmm0
	.loc 15 78 16 discriminator 1
	divsd	2704(%rbp), %xmm0
	movsd	%xmm0, 2696(%rbp)
	.loc 15 80 66 discriminator 1
	movq	.refptr.config(%rip), %rax
	movq	(%rax), %rax
	movq	%rax, %rcx
	call	_ZN12Configuracao27getDesvioProvavelVelocidadeEv
	movq	%xmm0, %rax
	movq	%rax, 2688(%rbp)
	.loc 15 81 60 discriminator 1
	movq	.refptr.config(%rip), %rax
	movq	(%rax), %rax
	movq	%rax, %rcx
	call	_ZN12Configuracao24getDesvioProvavelArrastoEv
	movq	%xmm0, %rax
	movq	%rax, 2680(%rbp)
	.loc 15 82 62 discriminator 1
	movq	.refptr.config(%rip), %rax
	movq	(%rax), %rax
	movq	%rax, %rcx
	call	_ZN12Configuracao25getDesvioProvavelElevacaoEv
	movq	%xmm0, %rax
	movq	%rax, 2672(%rbp)
	.loc 15 84 48 discriminator 1
	movsd	2696(%rbp), %xmm0
	mulsd	2688(%rbp), %xmm0
	movl	$2, %edx
	call	_ZSt3powIdiEN9__gnu_cxx11__promote_2IT_T0_NS0_9__promoteIS2_XsrSt12__is_integerIS2_E7__valueEE6__typeENS4_IS3_XsrS5_IS3_E7__valueEE6__typeEE6__typeES2_S3_
	movapd	%xmm0, %xmm6
	.loc 15 84 93 discriminator 1
	movsd	2712(%rbp), %xmm0
	mulsd	2680(%rbp), %xmm0
	movl	$2, %edx
	call	_ZSt3powIdiEN9__gnu_cxx11__promote_2IT_T0_NS0_9__promoteIS2_XsrSt12__is_integerIS2_E7__valueEE6__typeENS4_IS3_XsrS5_IS3_E7__valueEE6__typeEE6__typeES2_S3_
	.loc 15 84 88 discriminator 1
	addsd	%xmm0, %xmm6
	.loc 15 84 134 discriminator 1
	movsd	2728(%rbp), %xmm0
	mulsd	2672(%rbp), %xmm0
	movl	$2, %edx
	call	_ZSt3powIdiEN9__gnu_cxx11__promote_2IT_T0_NS0_9__promoteIS2_XsrSt12__is_integerIS2_E7__valueEE6__typeENS4_IS3_XsrS5_IS3_E7__valueEE6__typeEE6__typeES2_S3_
	.loc 15 84 44 discriminator 1
	addsd	%xmm6, %xmm0
	call	sqrt
	movq	%xmm0, %rax
	movq	%rax, 2664(%rbp)
	.loc 15 86 76 discriminator 1
	movq	.refptr.config(%rip), %rax
	movq	(%rax), %rax
	movq	%rax, %rcx
	call	_ZN12Configuracao35getDesvioProvavelDirecaoFatorAjusteEv
	movq	%xmm0, %rax
	movq	%rax, 2656(%rbp)
	.loc 15 87 54 discriminator 1
	movsd	2656(%rbp), %xmm1
	movsd	.LC15(%rip), %xmm0
	mulsd	%xmm1, %xmm0
	.loc 15 87 78 discriminator 1
	movsd	.LC16(%rip), %xmm1
	divsd	%xmm1, %xmm0
	movapd	%xmm0, %xmm1
	.loc 15 87 85 discriminator 1
	cvtsi2sd	2792(%rbp), %xmm0
	mulsd	%xmm0, %xmm1
	.loc 15 87 93 discriminator 1
	movsd	.LC17(%rip), %xmm0
	movapd	%xmm1, %xmm6
	mulsd	%xmm0, %xmm6
	.loc 15 87 135 discriminator 1
	leaq	80(%rbp), %rax
	movq	%rax, %rcx
	call	_ZN16ElementosDisparo11getElevacaoEv
	movapd	%xmm0, %xmm1
	.loc 15 87 105 discriminator 1
	movsd	.LC17(%rip), %xmm0
	subsd	%xmm1, %xmm0
	.loc 15 87 137 discriminator 1
	divsd	%xmm0, %xmm6
	movapd	%xmm6, %xmm0
	movsd	%xmm0, 2648(%rbp)
	.loc 15 90 45 discriminator 1
	movq	152(%rbp), %rax
	movsd	.LC18(%rip), %xmm0
	movapd	%xmm0, %xmm1
	movq	%rax, %xmm0
	call	pow
	movapd	%xmm0, %xmm6
	.loc 15 90 73 discriminator 1
	movq	160(%rbp), %rax
	movsd	.LC18(%rip), %xmm0
	movapd	%xmm0, %xmm1
	movq	%rax, %xmm0
	call	pow
	.loc 15 90 41 discriminator 1
	addsd	%xmm6, %xmm0
	call	sqrt
	movq	%xmm0, %rax
	movq	%rax, 2640(%rbp)
	.loc 15 91 50 discriminator 1
	movsd	160(%rbp), %xmm0
	.loc 15 91 66 discriminator 1
	movsd	152(%rbp), %xmm1
	.loc 15 91 52 discriminator 1
	divsd	%xmm1, %xmm0
	.loc 15 91 31 discriminator 1
	movq	.LC12(%rip), %xmm1
	andpd	%xmm1, %xmm0
	call	atan
	movapd	%xmm0, %xmm1
	.loc 15 91 71 discriminator 1
	movsd	.LC16(%rip), %xmm0
	mulsd	%xmm1, %xmm0
	.loc 15 91 16 discriminator 1
	movsd	.LC15(%rip), %xmm1
	divsd	%xmm1, %xmm0
	movsd	%xmm0, 2632(%rbp)
	.loc 15 93 16 discriminator 1
	pxor	%xmm0, %xmm0
	movsd	%xmm0, 2784(%rbp)
	.loc 15 93 30 discriminator 1
	pxor	%xmm0, %xmm0
	movsd	%xmm0, 2776(%rbp)
	.loc 15 94 16 discriminator 1
	movsd	.LC19(%rip), %xmm0
	movsd	%xmm0, 2768(%rbp)
	.loc 15 95 16 discriminator 1
	movsd	176(%rbp), %xmm0
	movsd	%xmm0, 2624(%rbp)
	.loc 15 96 9 discriminator 1
	movsd	.LC20(%rip), %xmm0
	comisd	2624(%rbp), %xmm0
	jbe	.L106
	.loc 15 98 22
	movsd	2624(%rbp), %xmm1
	movsd	.LC21(%rip), %xmm0
	mulsd	%xmm1, %xmm0
	movsd	%xmm0, 2768(%rbp)
.L106:
	.loc 15 102 26
	leaq	-48(%rbp), %rax
	movq	%rax, %rcx
	call	_ZN16ElementosDisparoC1Ev
.LEHE29:
	.loc 15 105 160
	movq	2872(%rbp), %rax
	movq	(%rax), %rax
	addq	$8, %rax
	movq	(%rax), %rbx
	.loc 15 105 61
	leaq	80(%rbp), %rax
	movq	%rax, %rcx
	call	_ZN16ElementosDisparo11getElevacaoEv
	movq	%xmm0, %rcx
	cvtsi2sd	2792(%rbp), %xmm1
	leaq	1088(%rbp), %rax
	movsd	2880(%rbp), %xmm2
	movq	2872(%rbp), %rdx
	movl	$1, 72(%rsp)
	movq	%rcx, 64(%rsp)
	movsd	2904(%rbp), %xmm0
	movsd	%xmm0, 56(%rsp)
	movsd	2896(%rbp), %xmm0
	movsd	%xmm0, 48(%rsp)
	movl	2888(%rbp), %ecx
	movl	%ecx, 40(%rsp)
	movsd	2768(%rbp), %xmm0
	movsd	%xmm0, 32(%rsp)
	movapd	%xmm2, %xmm3
	movapd	%xmm1, %xmm2
	movq	%rax, %rcx
.LEHB30:
	call	*%rbx
.LVL7:
.LEHE30:
	.loc 15 105 160 discriminator 1
	leaq	1088(%rbp), %rdx
	leaq	-48(%rbp), %rax
	movq	%rax, %rcx
	call	_ZN16ElementosDisparoaSEOS_
	.loc 15 105 61 discriminator 1
	leaq	1088(%rbp), %rax
	movq	%rax, %rcx
	call	_ZN16ElementosDisparoD1Ev
	.loc 15 106 48 discriminator 1
	movsd	128(%rbp), %xmm1
	.loc 15 106 25 discriminator 1
	movsd	2768(%rbp), %xmm0
	divsd	%xmm1, %xmm0
	call	atan
	movapd	%xmm0, %xmm1
	.loc 15 106 51 discriminator 1
	movsd	.LC16(%rip), %xmm0
	mulsd	%xmm1, %xmm0
	.loc 15 106 19 discriminator 1
	movsd	.LC15(%rip), %xmm1
	divsd	%xmm1, %xmm0
	movsd	%xmm0, 2760(%rbp)
	.loc 15 107 20 discriminator 1
	movsd	2760(%rbp), %xmm0
	movq	.LC12(%rip), %xmm1
	andpd	%xmm0, %xmm1
	.loc 15 107 13 discriminator 1
	movsd	.LC22(%rip), %xmm0
	comisd	%xmm1, %xmm0
	jb	.L227
	.loc 15 108 69
	movl	$16, %ecx
	call	__cxa_allocate_exception
	movq	%rax, %rbx
	leaq	.LC23(%rip), %rdx
	movq	%rbx, %rcx
.LEHB31:
	call	_ZNSt14overflow_errorC1EPKc
.LEHE31:
	.loc 15 108 69 is_stmt 0 discriminator 2
	movq	.refptr._ZNSt14overflow_errorD1Ev(%rip), %r8
	leaq	_ZTISt14overflow_error(%rip), %rdx
	movq	%rbx, %rcx
.LEHB32:
	call	__cxa_throw
.LEHE32:
.L227:
	.loc 15 109 54 is_stmt 1
	leaq	-48(%rbp), %rax
	movq	%rax, %rcx
	call	_ZN16ElementosDisparo11getElevacaoEv
	movapd	%xmm0, %xmm6
	.loc 15 109 87
	leaq	80(%rbp), %rax
	movq	%rax, %rcx
	call	_ZN16ElementosDisparo11getElevacaoEv
	.loc 15 109 57
	subsd	%xmm0, %xmm6
	movapd	%xmm6, %xmm0
	.loc 15 109 90
	subsd	2760(%rbp), %xmm0
	.loc 15 109 20
	divsd	2760(%rbp), %xmm0
	movsd	%xmm0, 2784(%rbp)
.L138:
	.loc 15 118 161
	movq	2872(%rbp), %rax
	movq	(%rax), %rax
	addq	$8, %rax
	movq	(%rax), %rbx
	.loc 15 118 61
	leaq	80(%rbp), %rax
	movq	%rax, %rcx
	call	_ZN16ElementosDisparo11getElevacaoEv
	movq	%xmm0, %rcx
	movsd	2768(%rbp), %xmm0
	movq	.LC24(%rip), %xmm1
	xorpd	%xmm1, %xmm0
	cvtsi2sd	2792(%rbp), %xmm2
	leaq	1120(%rbp), %rax
	movsd	2880(%rbp), %xmm3
	movq	2872(%rbp), %rdx
	movl	$1, 72(%rsp)
	movq	%rcx, 64(%rsp)
	movsd	2904(%rbp), %xmm1
	movsd	%xmm1, 56(%rsp)
	movsd	2896(%rbp), %xmm1
	movsd	%xmm1, 48(%rsp)
	movl	2888(%rbp), %ecx
	movl	%ecx, 40(%rsp)
	movsd	%xmm0, 32(%rsp)
	movq	%rax, %rcx
.LEHB33:
	call	*%rbx
.LVL8:
.LEHE33:
	.loc 15 118 161 discriminator 1
	leaq	1120(%rbp), %rdx
	leaq	-48(%rbp), %rax
	movq	%rax, %rcx
	call	_ZN16ElementosDisparoaSEOS_
	.loc 15 118 61 discriminator 1
	leaq	1120(%rbp), %rax
	movq	%rax, %rcx
	call	_ZN16ElementosDisparoD1Ev
	.loc 15 119 19 discriminator 1
	movsd	2760(%rbp), %xmm0
	movq	.LC24(%rip), %xmm1
	xorpd	%xmm1, %xmm0
	movsd	%xmm0, 2760(%rbp)
	.loc 15 120 20 discriminator 1
	movsd	2760(%rbp), %xmm0
	movq	.LC12(%rip), %xmm1
	andpd	%xmm0, %xmm1
	.loc 15 120 13 discriminator 1
	movsd	.LC22(%rip), %xmm0
	comisd	%xmm1, %xmm0
	jb	.L228
	.loc 15 121 69
	movl	$16, %ecx
	call	__cxa_allocate_exception
	movq	%rax, %rbx
	leaq	.LC23(%rip), %rdx
	movq	%rbx, %rcx
.LEHB34:
	call	_ZNSt14overflow_errorC1EPKc
.LEHE34:
	.loc 15 121 69 is_stmt 0 discriminator 2
	movq	.refptr._ZNSt14overflow_errorD1Ev(%rip), %r8
	leaq	_ZTISt14overflow_error(%rip), %rdx
	movq	%rbx, %rcx
.LEHB35:
	call	__cxa_throw
.LEHE35:
.L228:
	.loc 15 122 54 is_stmt 1
	leaq	-48(%rbp), %rax
	movq	%rax, %rcx
	call	_ZN16ElementosDisparo11getElevacaoEv
	movapd	%xmm0, %xmm6
	.loc 15 122 87
	leaq	80(%rbp), %rax
	movq	%rax, %rcx
	call	_ZN16ElementosDisparo11getElevacaoEv
	.loc 15 122 57
	subsd	%xmm0, %xmm6
	movapd	%xmm6, %xmm0
	.loc 15 122 90
	subsd	2760(%rbp), %xmm0
	.loc 15 122 104
	movsd	2760(%rbp), %xmm1
	movq	.LC12(%rip), %xmm2
	andpd	%xmm2, %xmm1
	.loc 15 122 20
	divsd	%xmm1, %xmm0
	movsd	%xmm0, 2776(%rbp)
.L142:
	.loc 15 129 9
	movq	2864(%rbp), %rax
	movq	8(%rax), %rsi
	movq	2864(%rbp), %rax
	movq	8(%rax), %rax
	.loc 15 133 106
	movq	(%rax), %rax
	addq	$1928, %rax
	movq	(%rax), %rbx
	.loc 15 133 88
	leaq	1248(%rbp), %rax
	movsd	2776(%rbp), %xmm0
	movl	$3, %r8d
	movapd	%xmm0, %xmm1
	movq	%rax, %rcx
.LEHB36:
	call	_ZN8wxString10FromDoubleEdi
.LEHE36:
	.loc 15 133 47 discriminator 1
	leaq	1392(%rbp), %rax
	movsd	2784(%rbp), %xmm0
	movl	$3, %r8d
	movapd	%xmm0, %xmm1
	movq	%rax, %rcx
.LEHB37:
	call	_ZN8wxString10FromDoubleEdi
.LEHE37:
	.loc 15 132 99
	movsd	176(%rbp), %xmm0
	leaq	1536(%rbp), %rax
	movl	$0, %r8d
	movapd	%xmm0, %xmm1
	movq	%rax, %rcx
.LEHB38:
	call	_ZN8wxString10FromDoubleEdi
.LEHE38:
	.loc 15 132 47 discriminator 1
	leaq	1680(%rbp), %rax
	movsd	2640(%rbp), %xmm0
	movl	$0, %r8d
	movapd	%xmm0, %xmm1
	movq	%rax, %rcx
.LEHB39:
	call	_ZN8wxString10FromDoubleEdi
.LEHE39:
	.loc 15 131 106
	movsd	2632(%rbp), %xmm1
	movsd	.LC15(%rip), %xmm0
	mulsd	%xmm1, %xmm0
	.loc 15 131 97
	movsd	.LC16(%rip), %xmm1
	divsd	%xmm1, %xmm0
	call	tan
	movapd	%xmm0, %xmm1
	.loc 15 131 89
	movsd	.LC25(%rip), %xmm0
	divsd	%xmm1, %xmm0
	leaq	1824(%rbp), %rax
	movl	$1, %r8d
	movapd	%xmm0, %xmm1
	movq	%rax, %rcx
.LEHB40:
	call	_ZN8wxString10FromDoubleEdi
.LEHE40:
	.loc 15 131 47 discriminator 1
	leaq	1968(%rbp), %rax
	movsd	2632(%rbp), %xmm0
	movl	$0, %r8d
	movapd	%xmm0, %xmm1
	movq	%rax, %rcx
.LEHB41:
	call	_ZN8wxString10FromDoubleEdi
.LEHE41:
	.loc 15 130 103
	leaq	2112(%rbp), %rax
	movsd	2648(%rbp), %xmm0
	movl	$0, %r8d
	movapd	%xmm0, %xmm1
	movq	%rax, %rcx
.LEHB42:
	call	_ZN8wxString10FromDoubleEdi
.LEHE42:
	.loc 15 130 47 discriminator 1
	leaq	2256(%rbp), %rax
	movsd	2664(%rbp), %xmm0
	movl	$0, %r8d
	movapd	%xmm0, %xmm1
	movq	%rax, %rcx
.LEHB43:
	call	_ZN8wxString10FromDoubleEdi
.LEHE43:
	.loc 15 129 92
	leaq	80(%rbp), %rax
	movq	%rax, %rcx
	call	_ZN16ElementosDisparo11getElevacaoEv
	movq	%xmm0, %rdx
	leaq	2400(%rbp), %rax
	movl	$1, %r8d
	movq	%rdx, %xmm1
	movq	%rax, %rcx
.LEHB44:
	call	_ZN8wxString10FromDoubleEdi
.LEHE44:
	.loc 15 129 53 discriminator 1
	cvtsi2sd	2792(%rbp), %xmm0
	leaq	2496(%rbp), %rax
	movl	$-1, %r8d
	movapd	%xmm0, %xmm1
	movq	%rax, %rcx
.LEHB45:
	call	_ZN8wxString10FromDoubleEdi
.LEHE45:
	.loc 15 129 63 discriminator 3
	leaq	2448(%rbp), %rax
	leaq	2496(%rbp), %rdx
	leaq	.LC26(%rip), %r8
	movq	%rax, %rcx
.LEHB46:
	call	_ZplRK8wxStringPKc
.LEHE46:
	.loc 15 129 70 discriminator 5
	leaq	2352(%rbp), %rax
	leaq	2400(%rbp), %rcx
	leaq	2448(%rbp), %rdx
	movq	%rcx, %r8
	movq	%rax, %rcx
.LEHB47:
	call	_ZplRK8wxStringS1_
.LEHE47:
	.loc 15 129 128 discriminator 7
	leaq	2304(%rbp), %rax
	leaq	2352(%rbp), %rdx
	leaq	.LC26(%rip), %r8
	movq	%rax, %rcx
.LEHB48:
	call	_ZplRK8wxStringPKc
.LEHE48:
	.loc 15 130 25
	leaq	2208(%rbp), %rax
	leaq	2256(%rbp), %rcx
	leaq	2304(%rbp), %rdx
	movq	%rcx, %r8
	movq	%rax, %rcx
.LEHB49:
	call	_ZplRK8wxStringS1_
.LEHE49:
	.loc 15 130 74 discriminator 3
	leaq	2160(%rbp), %rax
	leaq	2208(%rbp), %rdx
	leaq	.LC26(%rip), %r8
	movq	%rax, %rcx
.LEHB50:
	call	_ZplRK8wxStringPKc
.LEHE50:
	.loc 15 130 81 discriminator 5
	leaq	2064(%rbp), %rax
	leaq	2112(%rbp), %rcx
	leaq	2160(%rbp), %rdx
	movq	%rcx, %r8
	movq	%rax, %rcx
.LEHB51:
	call	_ZplRK8wxStringS1_
.LEHE51:
	.loc 15 130 130 discriminator 7
	leaq	2016(%rbp), %rax
	leaq	2064(%rbp), %rdx
	leaq	.LC26(%rip), %r8
	movq	%rax, %rcx
.LEHB52:
	call	_ZplRK8wxStringPKc
.LEHE52:
	.loc 15 131 25
	leaq	1920(%rbp), %rax
	leaq	1968(%rbp), %rcx
	leaq	2016(%rbp), %rdx
	movq	%rcx, %r8
	movq	%rax, %rcx
.LEHB53:
	call	_ZplRK8wxStringS1_
.LEHE53:
	.loc 15 131 60 discriminator 3
	leaq	1872(%rbp), %rax
	leaq	1920(%rbp), %rdx
	leaq	.LC26(%rip), %r8
	movq	%rax, %rcx
.LEHB54:
	call	_ZplRK8wxStringPKc
.LEHE54:
	.loc 15 131 67 discriminator 5
	leaq	1776(%rbp), %rax
	leaq	1824(%rbp), %rcx
	leaq	1872(%rbp), %rdx
	movq	%rcx, %r8
	movq	%rax, %rcx
.LEHB55:
	call	_ZplRK8wxStringS1_
.LEHE55:
	.loc 15 131 143 discriminator 7
	leaq	1728(%rbp), %rax
	leaq	1776(%rbp), %rdx
	leaq	.LC26(%rip), %r8
	movq	%rax, %rcx
.LEHB56:
	call	_ZplRK8wxStringPKc
.LEHE56:
	.loc 15 132 25
	leaq	1632(%rbp), %rax
	leaq	1680(%rbp), %rcx
	leaq	1728(%rbp), %rdx
	movq	%rcx, %r8
	movq	%rax, %rcx
.LEHB57:
	call	_ZplRK8wxStringS1_
.LEHE57:
	.loc 15 132 70 discriminator 3
	leaq	1584(%rbp), %rax
	leaq	1632(%rbp), %rdx
	leaq	.LC26(%rip), %r8
	movq	%rax, %rcx
.LEHB58:
	call	_ZplRK8wxStringPKc
.LEHE58:
	.loc 15 132 77 discriminator 5
	leaq	1488(%rbp), %rax
	leaq	1536(%rbp), %rcx
	leaq	1584(%rbp), %rdx
	movq	%rcx, %r8
	movq	%rax, %rcx
.LEHB59:
	call	_ZplRK8wxStringS1_
.LEHE59:
	.loc 15 132 127 discriminator 7
	leaq	1440(%rbp), %rax
	leaq	1488(%rbp), %rdx
	leaq	.LC26(%rip), %r8
	movq	%rax, %rcx
.LEHB60:
	call	_ZplRK8wxStringPKc
.LEHE60:
	.loc 15 133 25
	leaq	1344(%rbp), %rax
	leaq	1392(%rbp), %rcx
	leaq	1440(%rbp), %rdx
	movq	%rcx, %r8
	movq	%rax, %rcx
.LEHB61:
	call	_ZplRK8wxStringS1_
.LEHE61:
	.loc 15 133 59 discriminator 3
	leaq	1296(%rbp), %rax
	leaq	1344(%rbp), %rdx
	leaq	.LC26(%rip), %r8
	movq	%rax, %rcx
.LEHB62:
	call	_ZplRK8wxStringPKc
.LEHE62:
	.loc 15 133 66 discriminator 5
	leaq	1200(%rbp), %rax
	leaq	1248(%rbp), %rcx
	leaq	1296(%rbp), %rdx
	movq	%rcx, %r8
	movq	%rax, %rcx
.LEHB63:
	call	_ZplRK8wxStringS1_
.LEHE63:
	.loc 15 133 100 discriminator 7
	leaq	1152(%rbp), %rax
	leaq	1200(%rbp), %rdx
	leaq	.LC8(%rip), %r8
	movq	%rax, %rcx
.LEHB64:
	call	_ZplRK8wxStringPKc
.LEHE64:
	.loc 15 129 32
	leaq	1152(%rbp), %rax
	movq	%rax, %rdx
	movq	%rsi, %rcx
.LEHB65:
	call	*%rbx
.LVL9:
.LEHE65:
	.loc 15 133 100
	leaq	1152(%rbp), %rax
	movq	%rax, %rcx
	call	_ZN8wxStringD1Ev
	.loc 15 133 66
	leaq	1200(%rbp), %rax
	movq	%rax, %rcx
	call	_ZN8wxStringD1Ev
	.loc 15 133 59
	leaq	1296(%rbp), %rax
	movq	%rax, %rcx
	call	_ZN8wxStringD1Ev
	.loc 15 133 25
	leaq	1344(%rbp), %rax
	movq	%rax, %rcx
	call	_ZN8wxStringD1Ev
	.loc 15 132 127
	leaq	1440(%rbp), %rax
	movq	%rax, %rcx
	call	_ZN8wxStringD1Ev
	.loc 15 132 77
	leaq	1488(%rbp), %rax
	movq	%rax, %rcx
	call	_ZN8wxStringD1Ev
	.loc 15 132 70
	leaq	1584(%rbp), %rax
	movq	%rax, %rcx
	call	_ZN8wxStringD1Ev
	.loc 15 132 25
	leaq	1632(%rbp), %rax
	movq	%rax, %rcx
	call	_ZN8wxStringD1Ev
	.loc 15 131 143
	leaq	1728(%rbp), %rax
	movq	%rax, %rcx
	call	_ZN8wxStringD1Ev
	.loc 15 131 67
	leaq	1776(%rbp), %rax
	movq	%rax, %rcx
	call	_ZN8wxStringD1Ev
	.loc 15 131 60
	leaq	1872(%rbp), %rax
	movq	%rax, %rcx
	call	_ZN8wxStringD1Ev
	.loc 15 131 25
	leaq	1920(%rbp), %rax
	movq	%rax, %rcx
	call	_ZN8wxStringD1Ev
	.loc 15 130 130
	leaq	2016(%rbp), %rax
	movq	%rax, %rcx
	call	_ZN8wxStringD1Ev
	.loc 15 130 81
	leaq	2064(%rbp), %rax
	movq	%rax, %rcx
	call	_ZN8wxStringD1Ev
	.loc 15 130 74
	leaq	2160(%rbp), %rax
	movq	%rax, %rcx
	call	_ZN8wxStringD1Ev
	.loc 15 130 25
	leaq	2208(%rbp), %rax
	movq	%rax, %rcx
	call	_ZN8wxStringD1Ev
	.loc 15 129 128
	leaq	2304(%rbp), %rax
	movq	%rax, %rcx
	call	_ZN8wxStringD1Ev
	.loc 15 129 70
	leaq	2352(%rbp), %rax
	movq	%rax, %rcx
	call	_ZN8wxStringD1Ev
	.loc 15 129 63
	leaq	2448(%rbp), %rax
	movq	%rax, %rcx
	call	_ZN8wxStringD1Ev
	.loc 15 129 53
	leaq	2496(%rbp), %rax
	movq	%rax, %rcx
	call	_ZN8wxStringD1Ev
	.loc 15 129 92
	leaq	2400(%rbp), %rax
	movq	%rax, %rcx
	call	_ZN8wxStringD1Ev
	.loc 15 130 47
	leaq	2256(%rbp), %rax
	movq	%rax, %rcx
	call	_ZN8wxStringD1Ev
	.loc 15 130 103
	leaq	2112(%rbp), %rax
	movq	%rax, %rcx
	call	_ZN8wxStringD1Ev
	.loc 15 131 47
	leaq	1968(%rbp), %rax
	movq	%rax, %rcx
	call	_ZN8wxStringD1Ev
	.loc 15 131 89
	leaq	1824(%rbp), %rax
	movq	%rax, %rcx
	call	_ZN8wxStringD1Ev
	.loc 15 132 47
	leaq	1680(%rbp), %rax
	movq	%rax, %rcx
	call	_ZN8wxStringD1Ev
	.loc 15 132 99
	leaq	1536(%rbp), %rax
	movq	%rax, %rcx
	call	_ZN8wxStringD1Ev
	.loc 15 133 47
	leaq	1392(%rbp), %rax
	movq	%rax, %rcx
	call	_ZN8wxStringD1Ev
	.loc 15 133 88
	leaq	1248(%rbp), %rax
	movq	%rax, %rcx
	call	_ZN8wxStringD1Ev
.LEHB66:
	.loc 15 136 16
	call	_Z7wxYieldv
.LEHE66:
	.loc 15 138 12
	movq	2864(%rbp), %rax
	movzbl	16(%rax), %eax
	.loc 15 138 9
	testb	%al, %al
	je	.L112
	movl	$0, %ebx
	.loc 15 140 13
	jmp	.L113
.L112:
	movl	$1, %ebx
.L113:
	leaq	-48(%rbp), %rax
	movq	%rax, %rcx
	call	_ZN16ElementosDisparoD1Ev
	cmpl	$1, %ebx
	jne	.L114
	movl	$1, %ebx
	jmp	.L115
.L114:
	movl	$0, %ebx
.L115:
	leaq	-16(%rbp), %rax
	movq	%rax, %rcx
	call	_ZN12ElementosVooD1Ev
	cmpl	$1, %ebx
	jne	.L105
.LBE18:
	.loc 15 43 113 discriminator 6
	movl	2796(%rbp), %eax
	addl	%eax, 2792(%rbp)
	.loc 15 43 5 discriminator 6
	jmp	.L117
.L105:
.LBE17:
	.loc 15 143 32
	movq	2872(%rbp), %rax
	movl	$1, %edx
	movq	%rax, %rcx
	call	_ZN21CalculadorAtmosferico15setChecarLimiteEb
	.loc 15 144 5
	movq	2864(%rbp), %rax
	movq	8(%rax), %rsi
	movq	2864(%rbp), %rax
	movq	8(%rax), %rax
	.loc 15 144 37
	movq	(%rax), %rax
	addq	$1928, %rax
	movq	(%rax), %rbx
	.loc 15 144 28
	leaq	2544(%rbp), %rax
	leaq	.LC27(%rip), %rdx
	movq	%rax, %rcx
.LEHB67:
	call	_ZN8wxStringC1EPKc
.LEHE67:
	.loc 15 144 28 is_stmt 0 discriminator 1
	leaq	2544(%rbp), %rax
	movq	%rax, %rdx
	movq	%rsi, %rcx
.LEHB68:
	call	*%rbx
.LVL10:
.LEHE68:
	.loc 15 144 28 discriminator 3
	leaq	2544(%rbp), %rax
	movq	%rax, %rcx
	call	_ZN8wxStringD1Ev
	.loc 15 19 19 is_stmt 1 discriminator 3
	leaq	80(%rbp), %rax
	movq	%rax, %rcx
	call	_ZN16ElementosDisparoD1Ev
	.loc 15 18 15 discriminator 3
	leaq	112(%rbp), %rax
	movq	%rax, %rcx
	call	_ZN12ElementosVooD1Ev
	.loc 15 146 1 discriminator 3
	jmp	.L229
.L176:
	movq	%rax, %rbx
	.loc 15 35 28
	leaq	304(%rbp), %rax
	movq	%rax, %rcx
	call	_ZN8wxStringD1Ev
	jmp	.L119
.L181:
	movq	%rax, %rbx
	.loc 15 36 28
	leaq	352(%rbp), %rax
	movq	%rax, %rcx
	call	_ZN8wxStringD1Ev
	jmp	.L121
.L180:
	movq	%rax, %rbx
.L121:
	.loc 15 36 159 discriminator 12
	leaq	400(%rbp), %rax
	movq	%rax, %rcx
	call	_ZNSt7__cxx1112basic_stringIcSt11char_traitsIcESaIcEED1Ev
	jmp	.L122
.L179:
	movq	%rax, %rbx
.L122:
	.loc 15 36 83 discriminator 10
	leaq	432(%rbp), %rax
	movq	%rax, %rcx
	call	_ZNSt7__cxx1112basic_stringIcSt11char_traitsIcESaIcEED1Ev
	jmp	.L123
.L178:
	movq	%rax, %rbx
.L123:
	.loc 15 36 72 discriminator 8
	leaq	464(%rbp), %rax
	movq	%rax, %rcx
	call	_ZNSt7__cxx1112basic_stringIcSt11char_traitsIcESaIcEED1Ev
	jmp	.L124
.L177:
	movq	%rax, %rbx
.L124:
	.loc 15 36 43 discriminator 6
	leaq	496(%rbp), %rax
	movq	%rax, %rcx
	call	_ZNSt7__cxx1112basic_stringIcSt11char_traitsIcESaIcEED1Ev
	jmp	.L119
.L182:
	movq	%rax, %rbx
	.loc 15 37 28
	leaq	528(%rbp), %rax
	movq	%rax, %rcx
	call	_ZN8wxStringD1Ev
	jmp	.L119
.L183:
	movq	%rax, %rbx
	.loc 15 38 28
	leaq	576(%rbp), %rax
	movq	%rax, %rcx
	call	_ZN8wxStringD1Ev
	jmp	.L119
.L184:
	cmpq	$1, %rdx
	je	.L128
	cmpq	$2, %rdx
	je	.L129
	movq	%rax, %rbx
	jmp	.L119
.L128:
.LBB24:
.LBB23:
.LBB19:
	.loc 15 49 38
	movq	%rax, %rcx
	call	__cxa_begin_catch
	movq	%rax, 2600(%rbp)
	.loc 15 51 13
	nop
.LEHB69:
	.loc 15 49 38
	call	__cxa_end_catch
.LEHE69:
	jmp	.L105
.L129:
.LBE19:
.LBB20:
	.loc 15 53 35
	movq	%rax, %rcx
	call	__cxa_begin_catch
	movq	%rax, 2592(%rbp)
	.loc 15 55 13
	movq	2864(%rbp), %rax
	movq	8(%rax), %rsi
	movq	2864(%rbp), %rax
	movq	8(%rax), %rax
	.loc 15 55 72
	movq	(%rax), %rax
	addq	$1928, %rax
	movq	(%rax), %rbx
	.loc 15 55 36
	leaq	656(%rbp), %rax
	leaq	.LC28(%rip), %rdx
	movq	%rax, %rcx
.LEHB70:
	call	_ZN8wxStringC1EPKc
.LEHE70:
	.loc 15 55 36 is_stmt 0 discriminator 1
	leaq	656(%rbp), %rax
	movq	%rax, %rdx
	movq	%rsi, %rcx
.LEHB71:
	call	*%rbx
.LVL11:
.LEHE71:
	.loc 15 55 36 discriminator 3
	leaq	656(%rbp), %rax
	movq	%rax, %rcx
	call	_ZN8wxStringD1Ev
	.loc 15 56 13 is_stmt 1 discriminator 3
	nop
.LEHB72:
	.loc 15 53 35 discriminator 3
	call	__cxa_end_catch
.LEHE72:
	.loc 15 53 35 is_stmt 0
	jmp	.L105
.L186:
	movq	%rax, %rbx
	.loc 15 55 36 is_stmt 1
	leaq	656(%rbp), %rax
	movq	%rax, %rcx
	call	_ZN8wxStringD1Ev
	jmp	.L131
.L185:
	movq	%rax, %rbx
.L131:
	.loc 15 53 35
	call	__cxa_end_catch
	jmp	.L119
.L188:
	movq	%rax, %rsi
.LBE20:
	.loc 15 69 74
	movq	%rbx, %rcx
	call	_ZdlPv
	movq	%rsi, %rbx
	jmp	.L133
.L190:
	movq	%rax, %rdi
	movq	%rdx, %rsi
	.loc 15 108 69
	movq	%rbx, %rcx
	call	__cxa_free_exception
	movq	%rdi, %rax
	movq	%rsi, %rdx
	jmp	.L135
.L189:
.L135:
	cmpq	$3, %rdx
	je	.L136
	movq	%rax, %rbx
	jmp	.L137
.L136:
.LBB21:
	.loc 15 111 36
	movq	%rax, %rcx
	call	__cxa_begin_catch
	movq	%rax, 2608(%rbp)
	.loc 15 113 20
	pxor	%xmm0, %xmm0
	movsd	%xmm0, 2784(%rbp)
	.loc 15 111 36
	call	__cxa_end_catch
	jmp	.L138
.L193:
	movq	%rax, %rdi
	movq	%rdx, %rsi
.LBE21:
	.loc 15 121 69
	movq	%rbx, %rcx
	call	__cxa_free_exception
	movq	%rdi, %rax
	movq	%rsi, %rdx
	jmp	.L140
.L192:
.L140:
	cmpq	$3, %rdx
	je	.L141
	movq	%rax, %rbx
	jmp	.L137
.L141:
.LBB22:
	.loc 15 124 36
	movq	%rax, %rcx
	call	__cxa_begin_catch
	movq	%rax, 2616(%rbp)
	.loc 15 126 20
	pxor	%xmm0, %xmm0
	movsd	%xmm0, 2776(%rbp)
	.loc 15 124 36
	call	__cxa_end_catch
	jmp	.L142
.L222:
	movq	%rax, %rbx
.LBE22:
	.loc 15 133 100
	leaq	1152(%rbp), %rax
	movq	%rax, %rcx
	call	_ZN8wxStringD1Ev
	jmp	.L144
.L221:
	movq	%rax, %rbx
.L144:
	.loc 15 133 66 discriminator 8
	leaq	1200(%rbp), %rax
	movq	%rax, %rcx
	call	_ZN8wxStringD1Ev
	jmp	.L145
.L220:
	movq	%rax, %rbx
.L145:
	.loc 15 133 59 discriminator 6
	leaq	1296(%rbp), %rax
	movq	%rax, %rcx
	call	_ZN8wxStringD1Ev
	jmp	.L146
.L219:
	movq	%rax, %rbx
.L146:
	.loc 15 133 25 discriminator 4
	leaq	1344(%rbp), %rax
	movq	%rax, %rcx
	call	_ZN8wxStringD1Ev
	jmp	.L147
.L218:
	movq	%rax, %rbx
.L147:
	.loc 15 132 127
	leaq	1440(%rbp), %rax
	movq	%rax, %rcx
	call	_ZN8wxStringD1Ev
	jmp	.L148
.L217:
	movq	%rax, %rbx
.L148:
	.loc 15 132 77 discriminator 8
	leaq	1488(%rbp), %rax
	movq	%rax, %rcx
	call	_ZN8wxStringD1Ev
	jmp	.L149
.L216:
	movq	%rax, %rbx
.L149:
	.loc 15 132 70 discriminator 6
	leaq	1584(%rbp), %rax
	movq	%rax, %rcx
	call	_ZN8wxStringD1Ev
	jmp	.L150
.L215:
	movq	%rax, %rbx
.L150:
	.loc 15 132 25 discriminator 4
	leaq	1632(%rbp), %rax
	movq	%rax, %rcx
	call	_ZN8wxStringD1Ev
	jmp	.L151
.L214:
	movq	%rax, %rbx
.L151:
	.loc 15 131 143
	leaq	1728(%rbp), %rax
	movq	%rax, %rcx
	call	_ZN8wxStringD1Ev
	jmp	.L152
.L213:
	movq	%rax, %rbx
.L152:
	.loc 15 131 67 discriminator 8
	leaq	1776(%rbp), %rax
	movq	%rax, %rcx
	call	_ZN8wxStringD1Ev
	jmp	.L153
.L212:
	movq	%rax, %rbx
.L153:
	.loc 15 131 60 discriminator 6
	leaq	1872(%rbp), %rax
	movq	%rax, %rcx
	call	_ZN8wxStringD1Ev
	jmp	.L154
.L211:
	movq	%rax, %rbx
.L154:
	.loc 15 131 25 discriminator 4
	leaq	1920(%rbp), %rax
	movq	%rax, %rcx
	call	_ZN8wxStringD1Ev
	jmp	.L155
.L210:
	movq	%rax, %rbx
.L155:
	.loc 15 130 130
	leaq	2016(%rbp), %rax
	movq	%rax, %rcx
	call	_ZN8wxStringD1Ev
	jmp	.L156
.L209:
	movq	%rax, %rbx
.L156:
	.loc 15 130 81 discriminator 8
	leaq	2064(%rbp), %rax
	movq	%rax, %rcx
	call	_ZN8wxStringD1Ev
	jmp	.L157
.L208:
	movq	%rax, %rbx
.L157:
	.loc 15 130 74 discriminator 6
	leaq	2160(%rbp), %rax
	movq	%rax, %rcx
	call	_ZN8wxStringD1Ev
	jmp	.L158
.L207:
	movq	%rax, %rbx
.L158:
	.loc 15 130 25 discriminator 4
	leaq	2208(%rbp), %rax
	movq	%rax, %rcx
	call	_ZN8wxStringD1Ev
	jmp	.L159
.L206:
	movq	%rax, %rbx
.L159:
	.loc 15 129 128
	leaq	2304(%rbp), %rax
	movq	%rax, %rcx
	call	_ZN8wxStringD1Ev
	jmp	.L160
.L205:
	movq	%rax, %rbx
.L160:
	.loc 15 129 70 discriminator 8
	leaq	2352(%rbp), %rax
	movq	%rax, %rcx
	call	_ZN8wxStringD1Ev
	jmp	.L161
.L204:
	movq	%rax, %rbx
.L161:
	.loc 15 129 63 discriminator 6
	leaq	2448(%rbp), %rax
	movq	%rax, %rcx
	call	_ZN8wxStringD1Ev
	jmp	.L162
.L203:
	movq	%rax, %rbx
.L162:
	.loc 15 129 53 discriminator 4
	leaq	2496(%rbp), %rax
	movq	%rax, %rcx
	call	_ZN8wxStringD1Ev
	jmp	.L163
.L202:
	movq	%rax, %rbx
.L163:
	.loc 15 129 92 discriminator 2
	leaq	2400(%rbp), %rax
	movq	%rax, %rcx
	call	_ZN8wxStringD1Ev
	jmp	.L164
.L201:
	movq	%rax, %rbx
.L164:
	.loc 15 130 47
	leaq	2256(%rbp), %rax
	movq	%rax, %rcx
	call	_ZN8wxStringD1Ev
	jmp	.L165
.L200:
	movq	%rax, %rbx
.L165:
	.loc 15 130 103 discriminator 2
	leaq	2112(%rbp), %rax
	movq	%rax, %rcx
	call	_ZN8wxStringD1Ev
	jmp	.L166
.L199:
	movq	%rax, %rbx
.L166:
	.loc 15 131 47
	leaq	1968(%rbp), %rax
	movq	%rax, %rcx
	call	_ZN8wxStringD1Ev
	jmp	.L167
.L198:
	movq	%rax, %rbx
.L167:
	.loc 15 131 89 discriminator 2
	leaq	1824(%rbp), %rax
	movq	%rax, %rcx
	call	_ZN8wxStringD1Ev
	jmp	.L168
.L197:
	movq	%rax, %rbx
.L168:
	.loc 15 132 47
	leaq	1680(%rbp), %rax
	movq	%rax, %rcx
	call	_ZN8wxStringD1Ev
	jmp	.L169
.L196:
	movq	%rax, %rbx
.L169:
	.loc 15 132 99 discriminator 2
	leaq	1536(%rbp), %rax
	movq	%rax, %rcx
	call	_ZN8wxStringD1Ev
	jmp	.L170
.L195:
	movq	%rax, %rbx
.L170:
	.loc 15 133 47
	leaq	1392(%rbp), %rax
	movq	%rax, %rcx
	call	_ZN8wxStringD1Ev
	jmp	.L171
.L194:
	movq	%rax, %rbx
.L171:
	.loc 15 133 88 discriminator 2
	leaq	1248(%rbp), %rax
	movq	%rax, %rcx
	call	_ZN8wxStringD1Ev
	jmp	.L137
.L191:
	movq	%rax, %rbx
.L137:
	.loc 15 102 26
	leaq	-48(%rbp), %rax
	movq	%rax, %rcx
	call	_ZN16ElementosDisparoD1Ev
	jmp	.L133
.L187:
	movq	%rax, %rbx
.L133:
	.loc 15 64 22
	leaq	-16(%rbp), %rax
	movq	%rax, %rcx
	call	_ZN12ElementosVooD1Ev
	jmp	.L119
.L223:
	movq	%rax, %rbx
.LBE23:
.LBE24:
	.loc 15 144 28
	leaq	2544(%rbp), %rax
	movq	%rax, %rcx
	call	_ZN8wxStringD1Ev
	jmp	.L119
.L175:
	movq	%rax, %rbx
.L119:
	.loc 15 19 19
	leaq	80(%rbp), %rax
	movq	%rax, %rcx
	call	_ZN16ElementosDisparoD1Ev
	jmp	.L173
.L174:
	movq	%rax, %rbx
.L173:
	.loc 15 18 15
	leaq	112(%rbp), %rax
	movq	%rax, %rcx
	call	_ZN12ElementosVooD1Ev
	movq	%rbx, %rax
	movq	%rax, %rcx
.LEHB73:
	call	_Unwind_Resume
	nop
.LEHE73:
.L229:
	.loc 15 146 1
	movaps	2800(%rbp), %xmm6
	addq	$2952, %rsp
	.cfi_restore 23
	popq	%rbx
	.cfi_restore 3
	popq	%rsi
	.cfi_restore 4
	popq	%rdi
	.cfi_restore 5
	popq	%rbp
	.cfi_restore 6
	.cfi_def_cfa 7, -2920
	ret
	.cfi_endproc
.LFE11302:
	.seh_handler	__gxx_personality_seh0, @unwind, @except
	.seh_handlerdata
	.align 4
.LLSDA11302:
	.byte	0xff
	.byte	0x9b
	.uleb128 .LLSDATT11302-.LLSDATTD11302
.LLSDATTD11302:
	.byte	0x1
	.uleb128 .LLSDACSE11302-.LLSDACSB11302
.LLSDACSB11302:
	.uleb128 .LEHB11-.LFB11302
	.uleb128 .LEHE11-.LEHB11
	.uleb128 0
	.uleb128 0
	.uleb128 .LEHB12-.LFB11302
	.uleb128 .LEHE12-.LEHB12
	.uleb128 .L174-.LFB11302
	.uleb128 0
	.uleb128 .LEHB13-.LFB11302
	.uleb128 .LEHE13-.LEHB13
	.uleb128 .L175-.LFB11302
	.uleb128 0
	.uleb128 .LEHB14-.LFB11302
	.uleb128 .LEHE14-.LEHB14
	.uleb128 .L176-.LFB11302
	.uleb128 0
	.uleb128 .LEHB15-.LFB11302
	.uleb128 .LEHE15-.LEHB15
	.uleb128 .L175-.LFB11302
	.uleb128 0
	.uleb128 .LEHB16-.LFB11302
	.uleb128 .LEHE16-.LEHB16
	.uleb128 .L177-.LFB11302
	.uleb128 0
	.uleb128 .LEHB17-.LFB11302
	.uleb128 .LEHE17-.LEHB17
	.uleb128 .L178-.LFB11302
	.uleb128 0
	.uleb128 .LEHB18-.LFB11302
	.uleb128 .LEHE18-.LEHB18
	.uleb128 .L179-.LFB11302
	.uleb128 0
	.uleb128 .LEHB19-.LFB11302
	.uleb128 .LEHE19-.LEHB19
	.uleb128 .L180-.LFB11302
	.uleb128 0
	.uleb128 .LEHB20-.LFB11302
	.uleb128 .LEHE20-.LEHB20
	.uleb128 .L181-.LFB11302
	.uleb128 0
	.uleb128 .LEHB21-.LFB11302
	.uleb128 .LEHE21-.LEHB21
	.uleb128 .L175-.LFB11302
	.uleb128 0
	.uleb128 .LEHB22-.LFB11302
	.uleb128 .LEHE22-.LEHB22
	.uleb128 .L182-.LFB11302
	.uleb128 0
	.uleb128 .LEHB23-.LFB11302
	.uleb128 .LEHE23-.LEHB23
	.uleb128 .L175-.LFB11302
	.uleb128 0
	.uleb128 .LEHB24-.LFB11302
	.uleb128 .LEHE24-.LEHB24
	.uleb128 .L183-.LFB11302
	.uleb128 0
	.uleb128 .LEHB25-.LFB11302
	.uleb128 .LEHE25-.LEHB25
	.uleb128 .L184-.LFB11302
	.uleb128 0x5
	.uleb128 .LEHB26-.LFB11302
	.uleb128 .LEHE26-.LEHB26
	.uleb128 .L175-.LFB11302
	.uleb128 0
	.uleb128 .LEHB27-.LFB11302
	.uleb128 .LEHE27-.LEHB27
	.uleb128 .L187-.LFB11302
	.uleb128 0
	.uleb128 .LEHB28-.LFB11302
	.uleb128 .LEHE28-.LEHB28
	.uleb128 .L188-.LFB11302
	.uleb128 0
	.uleb128 .LEHB29-.LFB11302
	.uleb128 .LEHE29-.LEHB29
	.uleb128 .L187-.LFB11302
	.uleb128 0
	.uleb128 .LEHB30-.LFB11302
	.uleb128 .LEHE30-.LEHB30
	.uleb128 .L189-.LFB11302
	.uleb128 0x7
	.uleb128 .LEHB31-.LFB11302
	.uleb128 .LEHE31-.LEHB31
	.uleb128 .L190-.LFB11302
	.uleb128 0x7
	.uleb128 .LEHB32-.LFB11302
	.uleb128 .LEHE32-.LEHB32
	.uleb128 .L189-.LFB11302
	.uleb128 0x7
	.uleb128 .LEHB33-.LFB11302
	.uleb128 .LEHE33-.LEHB33
	.uleb128 .L192-.LFB11302
	.uleb128 0x7
	.uleb128 .LEHB34-.LFB11302
	.uleb128 .LEHE34-.LEHB34
	.uleb128 .L193-.LFB11302
	.uleb128 0x7
	.uleb128 .LEHB35-.LFB11302
	.uleb128 .LEHE35-.LEHB35
	.uleb128 .L192-.LFB11302
	.uleb128 0x7
	.uleb128 .LEHB36-.LFB11302
	.uleb128 .LEHE36-.LEHB36
	.uleb128 .L191-.LFB11302
	.uleb128 0
	.uleb128 .LEHB37-.LFB11302
	.uleb128 .LEHE37-.LEHB37
	.uleb128 .L194-.LFB11302
	.uleb128 0
	.uleb128 .LEHB38-.LFB11302
	.uleb128 .LEHE38-.LEHB38
	.uleb128 .L195-.LFB11302
	.uleb128 0
	.uleb128 .LEHB39-.LFB11302
	.uleb128 .LEHE39-.LEHB39
	.uleb128 .L196-.LFB11302
	.uleb128 0
	.uleb128 .LEHB40-.LFB11302
	.uleb128 .LEHE40-.LEHB40
	.uleb128 .L197-.LFB11302
	.uleb128 0
	.uleb128 .LEHB41-.LFB11302
	.uleb128 .LEHE41-.LEHB41
	.uleb128 .L198-.LFB11302
	.uleb128 0
	.uleb128 .LEHB42-.LFB11302
	.uleb128 .LEHE42-.LEHB42
	.uleb128 .L199-.LFB11302
	.uleb128 0
	.uleb128 .LEHB43-.LFB11302
	.uleb128 .LEHE43-.LEHB43
	.uleb128 .L200-.LFB11302
	.uleb128 0
	.uleb128 .LEHB44-.LFB11302
	.uleb128 .LEHE44-.LEHB44
	.uleb128 .L201-.LFB11302
	.uleb128 0
	.uleb128 .LEHB45-.LFB11302
	.uleb128 .LEHE45-.LEHB45
	.uleb128 .L202-.LFB11302
	.uleb128 0
	.uleb128 .LEHB46-.LFB11302
	.uleb128 .LEHE46-.LEHB46
	.uleb128 .L203-.LFB11302
	.uleb128 0
	.uleb128 .LEHB47-.LFB11302
	.uleb128 .LEHE47-.LEHB47
	.uleb128 .L204-.LFB11302
	.uleb128 0
	.uleb128 .LEHB48-.LFB11302
	.uleb128 .LEHE48-.LEHB48
	.uleb128 .L205-.LFB11302
	.uleb128 0
	.uleb128 .LEHB49-.LFB11302
	.uleb128 .LEHE49-.LEHB49
	.uleb128 .L206-.LFB11302
	.uleb128 0
	.uleb128 .LEHB50-.LFB11302
	.uleb128 .LEHE50-.LEHB50
	.uleb128 .L207-.LFB11302
	.uleb128 0
	.uleb128 .LEHB51-.LFB11302
	.uleb128 .LEHE51-.LEHB51
	.uleb128 .L208-.LFB11302
	.uleb128 0
	.uleb128 .LEHB52-.LFB11302
	.uleb128 .LEHE52-.LEHB52
	.uleb128 .L209-.LFB11302
	.uleb128 0
	.uleb128 .LEHB53-.LFB11302
	.uleb128 .LEHE53-.LEHB53
	.uleb128 .L210-.LFB11302
	.uleb128 0
	.uleb128 .LEHB54-.LFB11302
	.uleb128 .LEHE54-.LEHB54
	.uleb128 .L211-.LFB11302
	.uleb128 0
	.uleb128 .LEHB55-.LFB11302
	.uleb128 .LEHE55-.LEHB55
	.uleb128 .L212-.LFB11302
	.uleb128 0
	.uleb128 .LEHB56-.LFB11302
	.uleb128 .LEHE56-.LEHB56
	.uleb128 .L213-.LFB11302
	.uleb128 0
	.uleb128 .LEHB57-.LFB11302
	.uleb128 .LEHE57-.LEHB57
	.uleb128 .L214-.LFB11302
	.uleb128 0
	.uleb128 .LEHB58-.LFB11302
	.uleb128 .LEHE58-.LEHB58
	.uleb128 .L215-.LFB11302
	.uleb128 0
	.uleb128 .LEHB59-.LFB11302
	.uleb128 .LEHE59-.LEHB59
	.uleb128 .L216-.LFB11302
	.uleb128 0
	.uleb128 .LEHB60-.LFB11302
	.uleb128 .LEHE60-.LEHB60
	.uleb128 .L217-.LFB11302
	.uleb128 0
	.uleb128 .LEHB61-.LFB11302
	.uleb128 .LEHE61-.LEHB61
	.uleb128 .L218-.LFB11302
	.uleb128 0
	.uleb128 .LEHB62-.LFB11302
	.uleb128 .LEHE62-.LEHB62
	.uleb128 .L219-.LFB11302
	.uleb128 0
	.uleb128 .LEHB63-.LFB11302
	.uleb128 .LEHE63-.LEHB63
	.uleb128 .L220-.LFB11302
	.uleb128 0
	.uleb128 .LEHB64-.LFB11302
	.uleb128 .LEHE64-.LEHB64
	.uleb128 .L221-.LFB11302
	.uleb128 0
	.uleb128 .LEHB65-.LFB11302
	.uleb128 .LEHE65-.LEHB65
	.uleb128 .L222-.LFB11302
	.uleb128 0
	.uleb128 .LEHB66-.LFB11302
	.uleb128 .LEHE66-.LEHB66
	.uleb128 .L191-.LFB11302
	.uleb128 0
	.uleb128 .LEHB67-.LFB11302
	.uleb128 .LEHE67-.LEHB67
	.uleb128 .L175-.LFB11302
	.uleb128 0
	.uleb128 .LEHB68-.LFB11302
	.uleb128 .LEHE68-.LEHB68
	.uleb128 .L223-.LFB11302
	.uleb128 0
	.uleb128 .LEHB69-.LFB11302
	.uleb128 .LEHE69-.LEHB69
	.uleb128 .L175-.LFB11302
	.uleb128 0
	.uleb128 .LEHB70-.LFB11302
	.uleb128 .LEHE70-.LEHB70
	.uleb128 .L185-.LFB11302
	.uleb128 0
	.uleb128 .LEHB71-.LFB11302
	.uleb128 .LEHE71-.LEHB71
	.uleb128 .L186-.LFB11302
	.uleb128 0
	.uleb128 .LEHB72-.LFB11302
	.uleb128 .LEHE72-.LEHB72
	.uleb128 .L175-.LFB11302
	.uleb128 0
	.uleb128 .LEHB73-.LFB11302
	.uleb128 .LEHE73-.LEHB73
	.uleb128 0
	.uleb128 0
.LLSDACSE11302:
	.byte	0
	.byte	0
	.byte	0x2
	.byte	0x7d
	.byte	0x1
	.byte	0x7d
	.byte	0x3
	.byte	0x79
	.align 4
	.long	.LDFCM0-.
	.long	.LDFCM1-.
	.long	.LDFCM2-.
.LLSDATT11302:
	.text
	.seh_endproc
	.section	.text$_ZN9__gnu_cxx12__to_xstringINSt7__cxx1112basic_stringIcSt11char_traitsIcESaIcEEEcEET_PFiPT0_yPKS8_PcEySB_z,"x"
	.linkonce discard
	.globl	_ZN9__gnu_cxx12__to_xstringINSt7__cxx1112basic_stringIcSt11char_traitsIcESaIcEEEcEET_PFiPT0_yPKS8_PcEySB_z
	.def	_ZN9__gnu_cxx12__to_xstringINSt7__cxx1112basic_stringIcSt11char_traitsIcESaIcEEEcEET_PFiPT0_yPKS8_PcEySB_z;	.scl	2;	.type	32;	.endef
	.seh_proc	_ZN9__gnu_cxx12__to_xstringINSt7__cxx1112basic_stringIcSt11char_traitsIcESaIcEEEcEET_PFiPT0_yPKS8_PcEySB_z
_ZN9__gnu_cxx12__to_xstringINSt7__cxx1112basic_stringIcSt11char_traitsIcESaIcEEEcEET_PFiPT0_yPKS8_PcEySB_z:
.LFB11383:
	.file 17 "C:/Program Files/CodeBlocks/MinGW/lib/gcc/x86_64-w64-mingw32/8.1.0/include/c++/ext/string_conversions.h"
	.loc 17 99 5
	.cfi_startproc
	pushq	%rbp
	.seh_pushreg	%rbp
	.cfi_def_cfa_offset 16
	.cfi_offset 6, -16
	pushq	%rbx
	.seh_pushreg	%rbx
	.cfi_def_cfa_offset 24
	.cfi_offset 3, -24
	subq	$72, %rsp
	.seh_stackalloc	72
	.cfi_def_cfa_offset 96
	leaq	128(%rsp), %rbp
	.seh_setframe	%rbp, 128
	.cfi_def_cfa 6, -32
	.seh_endprologue
	movq	%rcx, -32(%rbp)
	movq	%rdx, -24(%rbp)
	movq	%r8, -16(%rbp)
	movq	%r9, -8(%rbp)
	.loc 17 105 58
	movq	-16(%rbp), %rax
	addq	$15, %rax
	shrq	$4, %rax
	salq	$4, %rax
	call	___chkstk_ms
	subq	%rax, %rsp
	leaq	32(%rsp), %rax
	addq	$15, %rax
	shrq	$4, %rax
	salq	$4, %rax
	movq	%rax, -72(%rbp)
	.loc 17 109 25
	movq	%rbp, %rax
	movq	%rax, -88(%rbp)
	.loc 17 111 32
	movq	-88(%rbp), %r9
	movq	-8(%rbp), %r8
	movq	-16(%rbp), %rdx
	movq	-72(%rbp), %rcx
	movq	-24(%rbp), %rax
.LEHB74:
	call	*%rax
.LVL12:
.LEHE74:
	movl	%eax, -76(%rbp)
	.loc 17 115 38
	leaq	-77(%rbp), %rax
	movq	%rax, %rcx
	call	_ZNSaIcEC1Ev
	movl	-76(%rbp), %eax
	cltq
	movq	-72(%rbp), %rdx
	leaq	(%rax,%rdx), %rcx
	leaq	-77(%rbp), %rdx
	movq	-72(%rbp), %rax
	movq	%rdx, %r9
	movq	%rcx, %r8
	movq	%rax, %rdx
	movq	-32(%rbp), %rcx
.LEHB75:
	call	_ZNSt7__cxx1112basic_stringIcSt11char_traitsIcESaIcEEC1IPcvEET_S7_RKS3_
.LEHE75:
	leaq	-77(%rbp), %rax
	movq	%rax, %rcx
	call	_ZNSaIcED1Ev
	jmp	.L234
.L233:
	movq	%rax, %rbx
	leaq	-77(%rbp), %rax
	movq	%rax, %rcx
	call	_ZNSaIcED1Ev
	movq	%rbx, %rax
	movq	%rax, %rcx
.LEHB76:
	call	_Unwind_Resume
.LEHE76:
.L234:
	.loc 17 116 5
	movq	-32(%rbp), %rax
	leaq	-56(%rbp), %rsp
	popq	%rbx
	.cfi_restore 3
	popq	%rbp
	.cfi_restore 6
	.cfi_def_cfa 7, -56
	ret
	.cfi_endproc
.LFE11383:
	.seh_handler	__gxx_personality_seh0, @unwind, @except
	.seh_handlerdata
.LLSDA11383:
	.byte	0xff
	.byte	0xff
	.byte	0x1
	.uleb128 .LLSDACSE11383-.LLSDACSB11383
.LLSDACSB11383:
	.uleb128 .LEHB74-.LFB11383
	.uleb128 .LEHE74-.LEHB74
	.uleb128 0
	.uleb128 0
	.uleb128 .LEHB75-.LFB11383
	.uleb128 .LEHE75-.LEHB75
	.uleb128 .L233-.LFB11383
	.uleb128 0
	.uleb128 .LEHB76-.LFB11383
	.uleb128 .LEHE76-.LEHB76
	.uleb128 0
	.uleb128 0
.LLSDACSE11383:
	.section	.text$_ZN9__gnu_cxx12__to_xstringINSt7__cxx1112basic_stringIcSt11char_traitsIcESaIcEEEcEET_PFiPT0_yPKS8_PcEySB_z,"x"
	.linkonce discard
	.seh_endproc
	.section	.text$_ZNSt7__cxx1112basic_stringIcSt11char_traitsIcESaIcEE12_Alloc_hiderD1Ev,"x"
	.linkonce discard
	.align 2
	.globl	_ZNSt7__cxx1112basic_stringIcSt11char_traitsIcESaIcEE12_Alloc_hiderD1Ev
	.def	_ZNSt7__cxx1112basic_stringIcSt11char_traitsIcESaIcEE12_Alloc_hiderD1Ev;	.scl	2;	.type	32;	.endef
	.seh_proc	_ZNSt7__cxx1112basic_stringIcSt11char_traitsIcESaIcEE12_Alloc_hiderD1Ev
_ZNSt7__cxx1112basic_stringIcSt11char_traitsIcESaIcEE12_Alloc_hiderD1Ev:
.LFB11387:
	.loc 3 139 14
	.cfi_startproc
	pushq	%rbp
	.seh_pushreg	%rbp
	.cfi_def_cfa_offset 16
	.cfi_offset 6, -16
	movq	%rsp, %rbp
	.seh_setframe	%rbp, 0
	.cfi_def_cfa_register 6
	subq	$32, %rsp
	.seh_stackalloc	32
	.seh_endprologue
	movq	%rcx, 16(%rbp)
.LBB25:
	.loc 3 139 14
	movq	16(%rbp), %rcx
	call	_ZNSaIcED2Ev
.LBE25:
	nop
	addq	$32, %rsp
	popq	%rbp
	.cfi_restore 6
	.cfi_def_cfa 7, 8
	ret
	.cfi_endproc
.LFE11387:
	.seh_endproc
	.section	.text$_ZN22wxScopedCharTypeBufferIwED1Ev,"x"
	.linkonce discard
	.align 2
	.globl	_ZN22wxScopedCharTypeBufferIwED1Ev
	.def	_ZN22wxScopedCharTypeBufferIwED1Ev;	.scl	2;	.type	32;	.endef
	.seh_proc	_ZN22wxScopedCharTypeBufferIwED1Ev
_ZN22wxScopedCharTypeBufferIwED1Ev:
.LFB11533:
	.loc 7 125 5
	.cfi_startproc
	pushq	%rbp
	.seh_pushreg	%rbp
	.cfi_def_cfa_offset 16
	.cfi_offset 6, -16
	movq	%rsp, %rbp
	.seh_setframe	%rbp, 0
	.cfi_def_cfa_register 6
	subq	$32, %rsp
	.seh_stackalloc	32
	.seh_endprologue
	movq	%rcx, 16(%rbp)
.LBB26:
	.loc 7 127 9
	movq	16(%rbp), %rcx
	call	_ZN22wxScopedCharTypeBufferIwE6DecRefEv
.LBE26:
	.loc 7 128 5
	nop
	addq	$32, %rsp
	popq	%rbp
	.cfi_restore 6
	.cfi_def_cfa 7, 8
	ret
	.cfi_endproc
.LFE11533:
	.seh_handler	__gxx_personality_seh0, @unwind, @except
	.seh_handlerdata
.LLSDA11533:
	.byte	0xff
	.byte	0xff
	.byte	0x1
	.uleb128 .LLSDACSE11533-.LLSDACSB11533
.LLSDACSB11533:
.LLSDACSE11533:
	.section	.text$_ZN22wxScopedCharTypeBufferIwED1Ev,"x"
	.linkonce discard
	.seh_endproc
	.section	.text$_ZN22wxScopedCharTypeBufferIwEC1ERKS0_,"x"
	.linkonce discard
	.align 2
	.globl	_ZN22wxScopedCharTypeBufferIwEC1ERKS0_
	.def	_ZN22wxScopedCharTypeBufferIwEC1ERKS0_;	.scl	2;	.type	32;	.endef
	.seh_proc	_ZN22wxScopedCharTypeBufferIwEC1ERKS0_
_ZN22wxScopedCharTypeBufferIwEC1ERKS0_:
.LFB11557:
	.loc 7 107 5
	.cfi_startproc
	pushq	%rbp
	.seh_pushreg	%rbp
	.cfi_def_cfa_offset 16
	.cfi_offset 6, -16
	movq	%rsp, %rbp
	.seh_setframe	%rbp, 0
	.cfi_def_cfa_register 6
	subq	$32, %rsp
	.seh_stackalloc	32
	.seh_endprologue
	movq	%rcx, 16(%rbp)
	movq	%rdx, 24(%rbp)
.LBB27:
	.loc 7 109 22
	movq	24(%rbp), %rax
	movq	(%rax), %rdx
	.loc 7 109 9
	movq	16(%rbp), %rax
	movq	%rdx, (%rax)
	.loc 7 110 9
	movq	16(%rbp), %rcx
	call	_ZN22wxScopedCharTypeBufferIwE6IncRefEv
.LBE27:
	.loc 7 111 5
	nop
	addq	$32, %rsp
	popq	%rbp
	.cfi_restore 6
	.cfi_def_cfa 7, 8
	ret
	.cfi_endproc
.LFE11557:
	.seh_endproc
	.section	.text$_ZN8wxString15ConvertedBufferIcED1Ev,"x"
	.linkonce discard
	.align 2
	.globl	_ZN8wxString15ConvertedBufferIcED1Ev
	.def	_ZN8wxString15ConvertedBufferIcED1Ev;	.scl	2;	.type	32;	.endef
	.seh_proc	_ZN8wxString15ConvertedBufferIcED1Ev
_ZN8wxString15ConvertedBufferIcED1Ev:
.LFB11626:
	.loc 9 3489 7
	.cfi_startproc
	pushq	%rbp
	.seh_pushreg	%rbp
	.cfi_def_cfa_offset 16
	.cfi_offset 6, -16
	movq	%rsp, %rbp
	.seh_setframe	%rbp, 0
	.cfi_def_cfa_register 6
	subq	$32, %rsp
	.seh_stackalloc	32
	.seh_endprologue
	movq	%rcx, 16(%rbp)
.LBB28:
	.loc 9 3490 18
	movq	16(%rbp), %rax
	movq	(%rax), %rax
	.loc 9 3490 17
	movq	%rax, %rcx
	call	free
.LBE28:
	.loc 9 3490 26
	nop
	addq	$32, %rsp
	popq	%rbp
	.cfi_restore 6
	.cfi_def_cfa 7, 8
	ret
	.cfi_endproc
.LFE11626:
	.seh_endproc
	.section	.text$_ZN8wxString15ConvertedBufferIcEC1Ev,"x"
	.linkonce discard
	.align 2
	.globl	_ZN8wxString15ConvertedBufferIcEC1Ev
	.def	_ZN8wxString15ConvertedBufferIcEC1Ev;	.scl	2;	.type	32;	.endef
	.seh_proc	_ZN8wxString15ConvertedBufferIcEC1Ev
_ZN8wxString15ConvertedBufferIcEC1Ev:
.LFB11632:
	.loc 9 3488 7
	.cfi_startproc
	pushq	%rbp
	.seh_pushreg	%rbp
	.cfi_def_cfa_offset 16
	.cfi_offset 6, -16
	movq	%rsp, %rbp
	.seh_setframe	%rbp, 0
	.cfi_def_cfa_register 6
	.seh_endprologue
	movq	%rcx, 16(%rbp)
.LBB29:
	.loc 9 3488 36
	movq	16(%rbp), %rax
	movq	$0, (%rax)
.LBE29:
	.loc 9 3488 39
	nop
	popq	%rbp
	.cfi_restore 6
	.cfi_def_cfa 7, 8
	ret
	.cfi_endproc
.LFE11632:
	.seh_endproc
	.section	.text$_ZNK22wxScopedCharTypeBufferIwEcvPKwEv,"x"
	.linkonce discard
	.align 2
	.globl	_ZNK22wxScopedCharTypeBufferIwEcvPKwEv
	.def	_ZNK22wxScopedCharTypeBufferIwEcvPKwEv;	.scl	2;	.type	32;	.endef
	.seh_proc	_ZNK22wxScopedCharTypeBufferIwEcvPKwEv
_ZNK22wxScopedCharTypeBufferIwEcvPKwEv:
.LFB11636:
	.loc 7 157 5
	.cfi_startproc
	pushq	%rbp
	.seh_pushreg	%rbp
	.cfi_def_cfa_offset 16
	.cfi_offset 6, -16
	movq	%rsp, %rbp
	.seh_setframe	%rbp, 0
	.cfi_def_cfa_register 6
	subq	$32, %rsp
	.seh_stackalloc	32
	.seh_endprologue
	movq	%rcx, 16(%rbp)
	.loc 7 157 53
	movq	16(%rbp), %rcx
	call	_ZNK22wxScopedCharTypeBufferIwE4dataEv
	.loc 7 157 56
	addq	$32, %rsp
	popq	%rbp
	.cfi_restore 6
	.cfi_def_cfa 7, 8
	ret
	.cfi_endproc
.LFE11636:
	.seh_endproc
	.section	.text$_ZNK22wxScopedCharTypeBufferIwE4dataEv,"x"
	.linkonce discard
	.align 2
	.globl	_ZNK22wxScopedCharTypeBufferIwE4dataEv
	.def	_ZNK22wxScopedCharTypeBufferIwE4dataEv;	.scl	2;	.type	32;	.endef
	.seh_proc	_ZNK22wxScopedCharTypeBufferIwE4dataEv
_ZNK22wxScopedCharTypeBufferIwE4dataEv:
.LFB11649:
	.loc 7 156 21
	.cfi_startproc
	pushq	%rbp
	.seh_pushreg	%rbp
	.cfi_def_cfa_offset 16
	.cfi_offset 6, -16
	movq	%rsp, %rbp
	.seh_setframe	%rbp, 0
	.cfi_def_cfa_register 6
	subq	$32, %rsp
	.seh_stackalloc	32
	.seh_endprologue
	movq	%rcx, 16(%rbp)
	.loc 7 156 43
	movq	16(%rbp), %rax
	movq	(%rax), %rax
	.loc 7 156 55
	movq	%rax, %rcx
	call	_ZNK22wxScopedCharTypeBufferIwE4Data3GetEv
	.loc 7 156 58
	addq	$32, %rsp
	popq	%rbp
	.cfi_restore 6
	.cfi_def_cfa 7, 8
	ret
	.cfi_endproc
.LFE11649:
	.seh_endproc
	.section	.text$_ZStplIcSt11char_traitsIcESaIcEENSt7__cxx1112basic_stringIT_T0_T1_EEOS8_PKS5_,"x"
	.linkonce discard
	.globl	_ZStplIcSt11char_traitsIcESaIcEENSt7__cxx1112basic_stringIT_T0_T1_EEOS8_PKS5_
	.def	_ZStplIcSt11char_traitsIcESaIcEENSt7__cxx1112basic_stringIT_T0_T1_EEOS8_PKS5_;	.scl	2;	.type	32;	.endef
	.seh_proc	_ZStplIcSt11char_traitsIcESaIcEENSt7__cxx1112basic_stringIT_T0_T1_EEOS8_PKS5_
_ZStplIcSt11char_traitsIcESaIcEENSt7__cxx1112basic_stringIT_T0_T1_EEOS8_PKS5_:
.LFB11958:
	.loc 3 5989 5
	.cfi_startproc
	pushq	%rbp
	.seh_pushreg	%rbp
	.cfi_def_cfa_offset 16
	.cfi_offset 6, -16
	movq	%rsp, %rbp
	.seh_setframe	%rbp, 0
	.cfi_def_cfa_register 6
	subq	$32, %rsp
	.seh_stackalloc	32
	.seh_endprologue
	movq	%rcx, 16(%rbp)
	movq	%rdx, 24(%rbp)
	movq	%r8, 32(%rbp)
	.loc 3 5991 23
	movq	32(%rbp), %rdx
	movq	24(%rbp), %rax
	movq	%rax, %rcx
	call	_ZNSt7__cxx1112basic_stringIcSt11char_traitsIcESaIcEE6appendEPKc
	movq	%rax, %rcx
	call	_ZSt4moveIRNSt7__cxx1112basic_stringIcSt11char_traitsIcESaIcEEEEONSt16remove_referenceIT_E4typeEOS8_
	.loc 3 5991 43
	movq	%rax, %rdx
	movq	16(%rbp), %rcx
	call	_ZNSt7__cxx1112basic_stringIcSt11char_traitsIcESaIcEEC1EOS4_
	.loc 3 5991 46
	movq	16(%rbp), %rax
	addq	$32, %rsp
	popq	%rbp
	.cfi_restore 6
	.cfi_def_cfa 7, 8
	ret
	.cfi_endproc
.LFE11958:
	.seh_endproc
	.section	.text$_ZSt3powIdiEN9__gnu_cxx11__promote_2IT_T0_NS0_9__promoteIS2_XsrSt12__is_integerIS2_E7__valueEE6__typeENS4_IS3_XsrS5_IS3_E7__valueEE6__typeEE6__typeES2_S3_,"x"
	.linkonce discard
	.globl	_ZSt3powIdiEN9__gnu_cxx11__promote_2IT_T0_NS0_9__promoteIS2_XsrSt12__is_integerIS2_E7__valueEE6__typeENS4_IS3_XsrS5_IS3_E7__valueEE6__typeEE6__typeES2_S3_
	.def	_ZSt3powIdiEN9__gnu_cxx11__promote_2IT_T0_NS0_9__promoteIS2_XsrSt12__is_integerIS2_E7__valueEE6__typeENS4_IS3_XsrS5_IS3_E7__valueEE6__typeEE6__typeES2_S3_;	.scl	2;	.type	32;	.endef
	.seh_proc	_ZSt3powIdiEN9__gnu_cxx11__promote_2IT_T0_NS0_9__promoteIS2_XsrSt12__is_integerIS2_E7__valueEE6__typeENS4_IS3_XsrS5_IS3_E7__valueEE6__typeEE6__typeES2_S3_
_ZSt3powIdiEN9__gnu_cxx11__promote_2IT_T0_NS0_9__promoteIS2_XsrSt12__is_integerIS2_E7__valueEE6__typeENS4_IS3_XsrS5_IS3_E7__valueEE6__typeEE6__typeES2_S3_:
.LFB11959:
	.file 18 "C:/Program Files/CodeBlocks/MinGW/lib/gcc/x86_64-w64-mingw32/8.1.0/include/c++/cmath"
	.loc 18 415 5
	.cfi_startproc
	pushq	%rbp
	.seh_pushreg	%rbp
	.cfi_def_cfa_offset 16
	.cfi_offset 6, -16
	movq	%rsp, %rbp
	.seh_setframe	%rbp, 0
	.cfi_def_cfa_register 6
	subq	$32, %rsp
	.seh_stackalloc	32
	.seh_endprologue
	movsd	%xmm0, 16(%rbp)
	movl	%edx, 24(%rbp)
	.loc 18 418 17
	cvtsi2sd	24(%rbp), %xmm0
	movapd	%xmm0, %xmm1
	movsd	16(%rbp), %xmm0
	call	pow
	movq	%xmm0, %rax
	.loc 18 419 5
	movq	%rax, %xmm0
	addq	$32, %rsp
	popq	%rbp
	.cfi_restore 6
	.cfi_def_cfa 7, 8
	ret
	.cfi_endproc
.LFE11959:
	.seh_endproc
	.section	.text$_ZNSt7__cxx1112basic_stringIcSt11char_traitsIcESaIcEEC1IPcvEET_S7_RKS3_,"x"
	.linkonce discard
	.align 2
	.globl	_ZNSt7__cxx1112basic_stringIcSt11char_traitsIcESaIcEEC1IPcvEET_S7_RKS3_
	.def	_ZNSt7__cxx1112basic_stringIcSt11char_traitsIcESaIcEEC1IPcvEET_S7_RKS3_;	.scl	2;	.type	32;	.endef
	.seh_proc	_ZNSt7__cxx1112basic_stringIcSt11char_traitsIcESaIcEEC1IPcvEET_S7_RKS3_
_ZNSt7__cxx1112basic_stringIcSt11char_traitsIcESaIcEEC1IPcvEET_S7_RKS3_:
.LFB11963:
	.loc 3 604 9
	.cfi_startproc
	pushq	%rbp
	.seh_pushreg	%rbp
	.cfi_def_cfa_offset 16
	.cfi_offset 6, -16
	pushq	%rbx
	.seh_pushreg	%rbx
	.cfi_def_cfa_offset 24
	.cfi_offset 3, -24
	subq	$40, %rsp
	.seh_stackalloc	40
	.cfi_def_cfa_offset 64
	leaq	128(%rsp), %rbp
	.seh_setframe	%rbp, 128
	.cfi_def_cfa 6, -64
	.seh_endprologue
	movq	%rcx, -64(%rbp)
	movq	%rdx, -56(%rbp)
	movq	%r8, -48(%rbp)
	movq	%r9, -40(%rbp)
.LBB30:
	.loc 3 606 36
	movq	-64(%rbp), %rbx
	movq	-64(%rbp), %rcx
.LEHB77:
	call	_ZNSt7__cxx1112basic_stringIcSt11char_traitsIcESaIcEE13_M_local_dataEv
	movq	%rax, %rdx
	movq	-40(%rbp), %rax
	movq	%rax, %r8
	movq	%rbx, %rcx
	call	_ZNSt7__cxx1112basic_stringIcSt11char_traitsIcESaIcEE12_Alloc_hiderC1EPcRKS3_
.LEHE77:
	.loc 3 607 4
	movq	-48(%rbp), %rdx
	movq	-56(%rbp), %rax
	movq	%rdx, %r8
	movq	%rax, %rdx
	movq	-64(%rbp), %rcx
.LEHB78:
	call	_ZNSt7__cxx1112basic_stringIcSt11char_traitsIcESaIcEE12_M_constructIPcEEvT_S7_
.LEHE78:
.LBE30:
	.loc 3 607 32
	jmp	.L251
.L250:
	movq	%rax, %rbx
.LBB31:
	.loc 3 606 36
	movq	-64(%rbp), %rax
	movq	%rax, %rcx
	call	_ZNSt7__cxx1112basic_stringIcSt11char_traitsIcESaIcEE12_Alloc_hiderD1Ev
	movq	%rbx, %rax
	movq	%rax, %rcx
.LEHB79:
	call	_Unwind_Resume
	nop
.LEHE79:
.L251:
.LBE31:
	.loc 3 607 32
	addq	$40, %rsp
	popq	%rbx
	.cfi_restore 3
	popq	%rbp
	.cfi_restore 6
	.cfi_def_cfa 7, -24
	ret
	.cfi_endproc
.LFE11963:
	.seh_handler	__gxx_personality_seh0, @unwind, @except
	.seh_handlerdata
.LLSDA11963:
	.byte	0xff
	.byte	0xff
	.byte	0x1
	.uleb128 .LLSDACSE11963-.LLSDACSB11963
.LLSDACSB11963:
	.uleb128 .LEHB77-.LFB11963
	.uleb128 .LEHE77-.LEHB77
	.uleb128 0
	.uleb128 0
	.uleb128 .LEHB78-.LFB11963
	.uleb128 .LEHE78-.LEHB78
	.uleb128 .L250-.LFB11963
	.uleb128 0
	.uleb128 .LEHB79-.LFB11963
	.uleb128 .LEHE79-.LEHB79
	.uleb128 0
	.uleb128 0
.LLSDACSE11963:
	.section	.text$_ZNSt7__cxx1112basic_stringIcSt11char_traitsIcESaIcEEC1IPcvEET_S7_RKS3_,"x"
	.linkonce discard
	.seh_endproc
	.section	.text$_ZNSt7__cxx1112basic_stringIcSt11char_traitsIcESaIcEE12_M_constructIPcEEvT_S7_,"x"
	.linkonce discard
	.align 2
	.globl	_ZNSt7__cxx1112basic_stringIcSt11char_traitsIcESaIcEE12_M_constructIPcEEvT_S7_
	.def	_ZNSt7__cxx1112basic_stringIcSt11char_traitsIcESaIcEE12_M_constructIPcEEvT_S7_;	.scl	2;	.type	32;	.endef
	.seh_proc	_ZNSt7__cxx1112basic_stringIcSt11char_traitsIcESaIcEE12_M_constructIPcEEvT_S7_
_ZNSt7__cxx1112basic_stringIcSt11char_traitsIcESaIcEE12_M_constructIPcEEvT_S7_:
.LFB12012:
	.loc 3 252 9
	.cfi_startproc
	pushq	%rbp
	.seh_pushreg	%rbp
	.cfi_def_cfa_offset 16
	.cfi_offset 6, -16
	movq	%rsp, %rbp
	.seh_setframe	%rbp, 0
	.cfi_def_cfa_register 6
	subq	$48, %rsp
	.seh_stackalloc	48
	.seh_endprologue
	movq	%rcx, 16(%rbp)
	movq	%rdx, 24(%rbp)
	movq	%r8, 32(%rbp)
	.loc 3 255 4
	movq	32(%rbp), %rdx
	movq	24(%rbp), %rax
	movq	%rdx, %r8
	movq	%rax, %rdx
	movq	16(%rbp), %rcx
	call	_ZNSt7__cxx1112basic_stringIcSt11char_traitsIcESaIcEE16_M_construct_auxIPcEEvT_S7_St12__false_type
	.loc 3 256 9
	nop
	addq	$48, %rsp
	popq	%rbp
	.cfi_restore 6
	.cfi_def_cfa 7, 8
	ret
	.cfi_endproc
.LFE12012:
	.seh_endproc
	.section	.text$_ZN22wxScopedCharTypeBufferIwE4DataD1Ev,"x"
	.linkonce discard
	.align 2
	.globl	_ZN22wxScopedCharTypeBufferIwE4DataD1Ev
	.def	_ZN22wxScopedCharTypeBufferIwE4DataD1Ev;	.scl	2;	.type	32;	.endef
	.seh_proc	_ZN22wxScopedCharTypeBufferIwE4DataD1Ev
_ZN22wxScopedCharTypeBufferIwE4DataD1Ev:
.LFB12046:
	.loc 7 164 12
	.cfi_startproc
	pushq	%rbp
	.seh_pushreg	%rbp
	.cfi_def_cfa_offset 16
	.cfi_offset 6, -16
	movq	%rsp, %rbp
	.seh_setframe	%rbp, 0
	.cfi_def_cfa_register 6
	subq	$32, %rsp
	.seh_stackalloc	32
	.seh_endprologue
	movq	%rcx, 16(%rbp)
.LBB32:
	.loc 7 164 12
	movq	16(%rbp), %rax
	movq	%rax, %rcx
	call	_ZN9wxPrivate17UntypedBufferDataD2Ev
.LBE32:
	nop
	addq	$32, %rsp
	popq	%rbp
	.cfi_restore 6
	.cfi_def_cfa 7, 8
	ret
	.cfi_endproc
.LFE12046:
	.seh_endproc
	.section	.text$_ZN22wxScopedCharTypeBufferIwE6DecRefEv,"x"
	.linkonce discard
	.align 2
	.globl	_ZN22wxScopedCharTypeBufferIwE6DecRefEv
	.def	_ZN22wxScopedCharTypeBufferIwE6DecRefEv;	.scl	2;	.type	32;	.endef
	.seh_proc	_ZN22wxScopedCharTypeBufferIwE6DecRefEv
_ZN22wxScopedCharTypeBufferIwE6DecRefEv:
.LFB12043:
	.loc 7 192 10
	.cfi_startproc
	pushq	%rbp
	.seh_pushreg	%rbp
	.cfi_def_cfa_offset 16
	.cfi_offset 6, -16
	pushq	%rbx
	.seh_pushreg	%rbx
	.cfi_def_cfa_offset 24
	.cfi_offset 3, -24
	subq	$40, %rsp
	.seh_stackalloc	40
	.cfi_def_cfa_offset 64
	leaq	128(%rsp), %rbp
	.seh_setframe	%rbp, 128
	.cfi_def_cfa 6, -64
	.seh_endprologue
	movq	%rcx, -64(%rbp)
	.loc 7 194 14
	movq	-64(%rbp), %rax
	movq	(%rax), %rbx
	.loc 7 194 35
	call	_ZN22wxScopedCharTypeBufferIwE11GetNullDataEv
	.loc 7 194 21
	cmpq	%rax, %rbx
	sete	%al
	.loc 7 194 9
	testb	%al, %al
	jne	.L258
	.loc 7 196 16
	movq	-64(%rbp), %rax
	movq	(%rax), %rax
	.loc 7 196 24
	movzwl	16(%rax), %edx
	.loc 7 196 30
	subl	$1, %edx
	movw	%dx, 16(%rax)
	.loc 7 196 24
	movzwl	16(%rax), %eax
	.loc 7 196 30
	testw	%ax, %ax
	sete	%al
	.loc 7 196 9
	testb	%al, %al
	je	.L257
	.loc 7 197 20
	movq	-64(%rbp), %rax
	movq	(%rax), %rbx
	.loc 7 197 13
	testq	%rbx, %rbx
	je	.L257
	.loc 7 197 13 is_stmt 0 discriminator 1
	movq	%rbx, %rcx
	call	_ZN22wxScopedCharTypeBufferIwE4DataD1Ev
	movq	%rbx, %rcx
	call	_ZdlPv
.L257:
	.loc 7 198 29 is_stmt 1
	call	_ZN22wxScopedCharTypeBufferIwE11GetNullDataEv
	movq	%rax, %rdx
	.loc 7 198 9
	movq	-64(%rbp), %rax
	movq	%rdx, (%rax)
	jmp	.L254
.L258:
	.loc 7 195 13
	nop
.L254:
	.loc 7 199 5
	addq	$40, %rsp
	popq	%rbx
	.cfi_restore 3
	popq	%rbp
	.cfi_restore 6
	.cfi_def_cfa 7, -24
	ret
	.cfi_endproc
.LFE12043:
	.seh_endproc
	.section	.text$_ZN22wxScopedCharTypeBufferIwE11GetNullDataEv,"x"
	.linkonce discard
	.globl	_ZN22wxScopedCharTypeBufferIwE11GetNullDataEv
	.def	_ZN22wxScopedCharTypeBufferIwE11GetNullDataEv;	.scl	2;	.type	32;	.endef
	.seh_proc	_ZN22wxScopedCharTypeBufferIwE11GetNullDataEv
_ZN22wxScopedCharTypeBufferIwE11GetNullDataEv:
.LFB12052:
	.loc 7 180 18
	.cfi_startproc
	pushq	%rbp
	.seh_pushreg	%rbp
	.cfi_def_cfa_offset 16
	.cfi_offset 6, -16
	movq	%rsp, %rbp
	.seh_setframe	%rbp, 0
	.cfi_def_cfa_register 6
	subq	$32, %rsp
	.seh_stackalloc	32
	.seh_endprologue
	.loc 7 182 65
	call	_ZN9wxPrivate18GetUntypedNullDataEv
	.loc 7 183 5
	addq	$32, %rsp
	popq	%rbp
	.cfi_restore 6
	.cfi_def_cfa 7, 8
	ret
	.cfi_endproc
.LFE12052:
	.seh_endproc
	.section	.text$_ZN22wxScopedCharTypeBufferIwE6IncRefEv,"x"
	.linkonce discard
	.align 2
	.globl	_ZN22wxScopedCharTypeBufferIwE6IncRefEv
	.def	_ZN22wxScopedCharTypeBufferIwE6IncRefEv;	.scl	2;	.type	32;	.endef
	.seh_proc	_ZN22wxScopedCharTypeBufferIwE6IncRefEv
_ZN22wxScopedCharTypeBufferIwE6IncRefEv:
.LFB12054:
	.loc 7 185 10
	.cfi_startproc
	pushq	%rbp
	.seh_pushreg	%rbp
	.cfi_def_cfa_offset 16
	.cfi_offset 6, -16
	pushq	%rbx
	.seh_pushreg	%rbx
	.cfi_def_cfa_offset 24
	.cfi_offset 3, -24
	subq	$40, %rsp
	.seh_stackalloc	40
	.cfi_def_cfa_offset 64
	leaq	128(%rsp), %rbp
	.seh_setframe	%rbp, 128
	.cfi_def_cfa 6, -64
	.seh_endprologue
	movq	%rcx, -64(%rbp)
	.loc 7 187 14
	movq	-64(%rbp), %rax
	movq	(%rax), %rbx
	.loc 7 187 35
	call	_ZN22wxScopedCharTypeBufferIwE11GetNullDataEv
	.loc 7 187 21
	cmpq	%rax, %rbx
	sete	%al
	.loc 7 187 9
	testb	%al, %al
	jne	.L264
	.loc 7 189 9
	movq	-64(%rbp), %rax
	movq	(%rax), %rax
	.loc 7 189 17
	movzwl	16(%rax), %edx
	.loc 7 189 9
	addl	$1, %edx
	movw	%dx, 16(%rax)
	jmp	.L261
.L264:
	.loc 7 188 13
	nop
.L261:
	.loc 7 190 5
	addq	$40, %rsp
	popq	%rbx
	.cfi_restore 3
	popq	%rbp
	.cfi_restore 6
	.cfi_def_cfa 7, -24
	ret
	.cfi_endproc
.LFE12054:
	.seh_endproc
	.section	.text$_ZNK22wxScopedCharTypeBufferIwE4Data3GetEv,"x"
	.linkonce discard
	.align 2
	.globl	_ZNK22wxScopedCharTypeBufferIwE4Data3GetEv
	.def	_ZNK22wxScopedCharTypeBufferIwE4Data3GetEv;	.scl	2;	.type	32;	.endef
	.seh_proc	_ZNK22wxScopedCharTypeBufferIwE4Data3GetEv
_ZNK22wxScopedCharTypeBufferIwE4Data3GetEv:
.LFB12082:
	.loc 7 171 19
	.cfi_startproc
	pushq	%rbp
	.seh_pushreg	%rbp
	.cfi_def_cfa_offset 16
	.cfi_offset 6, -16
	movq	%rsp, %rbp
	.seh_setframe	%rbp, 0
	.cfi_def_cfa_register 6
	.seh_endprologue
	movq	%rcx, 16(%rbp)
	.loc 7 171 69
	movq	16(%rbp), %rax
	movq	(%rax), %rax
	.loc 7 171 72
	popq	%rbp
	.cfi_restore 6
	.cfi_def_cfa 7, 8
	ret
	.cfi_endproc
.LFE12082:
	.seh_endproc
	.section	.text$_ZSt4moveIRNSt7__cxx1112basic_stringIcSt11char_traitsIcESaIcEEEEONSt16remove_referenceIT_E4typeEOS8_,"x"
	.linkonce discard
	.globl	_ZSt4moveIRNSt7__cxx1112basic_stringIcSt11char_traitsIcESaIcEEEEONSt16remove_referenceIT_E4typeEOS8_
	.def	_ZSt4moveIRNSt7__cxx1112basic_stringIcSt11char_traitsIcESaIcEEEEONSt16remove_referenceIT_E4typeEOS8_;	.scl	2;	.type	32;	.endef
	.seh_proc	_ZSt4moveIRNSt7__cxx1112basic_stringIcSt11char_traitsIcESaIcEEEEONSt16remove_referenceIT_E4typeEOS8_
_ZSt4moveIRNSt7__cxx1112basic_stringIcSt11char_traitsIcESaIcEEEEONSt16remove_referenceIT_E4typeEOS8_:
.LFB12145:
	.file 19 "C:/Program Files/CodeBlocks/MinGW/lib/gcc/x86_64-w64-mingw32/8.1.0/include/c++/bits/move.h"
	.loc 19 99 5
	.cfi_startproc
	pushq	%rbp
	.seh_pushreg	%rbp
	.cfi_def_cfa_offset 16
	.cfi_offset 6, -16
	movq	%rsp, %rbp
	.seh_setframe	%rbp, 0
	.cfi_def_cfa_register 6
	.seh_endprologue
	movq	%rcx, 16(%rbp)
	.loc 19 100 74
	movq	16(%rbp), %rax
	.loc 19 100 77
	popq	%rbp
	.cfi_restore 6
	.cfi_def_cfa 7, 8
	ret
	.cfi_endproc
.LFE12145:
	.seh_endproc
	.section	.text$_ZNSt7__cxx1112basic_stringIcSt11char_traitsIcESaIcEE16_M_construct_auxIPcEEvT_S7_St12__false_type,"x"
	.linkonce discard
	.align 2
	.globl	_ZNSt7__cxx1112basic_stringIcSt11char_traitsIcESaIcEE16_M_construct_auxIPcEEvT_S7_St12__false_type
	.def	_ZNSt7__cxx1112basic_stringIcSt11char_traitsIcESaIcEE16_M_construct_auxIPcEEvT_S7_St12__false_type;	.scl	2;	.type	32;	.endef
	.seh_proc	_ZNSt7__cxx1112basic_stringIcSt11char_traitsIcESaIcEE16_M_construct_auxIPcEEvT_S7_St12__false_type
_ZNSt7__cxx1112basic_stringIcSt11char_traitsIcESaIcEE16_M_construct_auxIPcEEvT_S7_St12__false_type:
.LFB12218:
	.loc 3 232 9
	.cfi_startproc
	pushq	%rbp
	.seh_pushreg	%rbp
	.cfi_def_cfa_offset 16
	.cfi_offset 6, -16
	movq	%rsp, %rbp
	.seh_setframe	%rbp, 0
	.cfi_def_cfa_register 6
	subq	$48, %rsp
	.seh_stackalloc	48
	.seh_endprologue
	movq	%rcx, 16(%rbp)
	movq	%rdx, 24(%rbp)
	movq	%r8, 32(%rbp)
	movb	%r9b, 40(%rbp)
	.loc 3 236 11
	movq	32(%rbp), %rdx
	movq	24(%rbp), %rax
	movl	%r10d, %r9d
	movq	%rdx, %r8
	movq	%rax, %rdx
	movq	16(%rbp), %rcx
	call	_ZNSt7__cxx1112basic_stringIcSt11char_traitsIcESaIcEE12_M_constructIPcEEvT_S7_St20forward_iterator_tag
	.loc 3 237 2
	nop
	addq	$48, %rsp
	popq	%rbp
	.cfi_restore 6
	.cfi_def_cfa 7, 8
	ret
	.cfi_endproc
.LFE12218:
	.seh_endproc
	.section .rdata,"dr"
	.align 8
.LC29:
	.ascii "basic_string::_M_construct null not valid\0"
	.section	.text$_ZNSt7__cxx1112basic_stringIcSt11char_traitsIcESaIcEE12_M_constructIPcEEvT_S7_St20forward_iterator_tag,"x"
	.linkonce discard
	.align 2
	.globl	_ZNSt7__cxx1112basic_stringIcSt11char_traitsIcESaIcEE12_M_constructIPcEEvT_S7_St20forward_iterator_tag
	.def	_ZNSt7__cxx1112basic_stringIcSt11char_traitsIcESaIcEE12_M_constructIPcEEvT_S7_St20forward_iterator_tag;	.scl	2;	.type	32;	.endef
	.seh_proc	_ZNSt7__cxx1112basic_stringIcSt11char_traitsIcESaIcEE12_M_constructIPcEEvT_S7_St20forward_iterator_tag
_ZNSt7__cxx1112basic_stringIcSt11char_traitsIcESaIcEE12_M_constructIPcEEvT_S7_St20forward_iterator_tag:
.LFB12317:
	.file 20 "C:/Program Files/CodeBlocks/MinGW/lib/gcc/x86_64-w64-mingw32/8.1.0/include/c++/bits/basic_string.tcc"
	.loc 20 206 7
	.cfi_startproc
	pushq	%rbp
	.seh_pushreg	%rbp
	.cfi_def_cfa_offset 16
	.cfi_offset 6, -16
	pushq	%rbx
	.seh_pushreg	%rbx
	.cfi_def_cfa_offset 24
	.cfi_offset 3, -24
	subq	$56, %rsp
	.seh_stackalloc	56
	.cfi_def_cfa_offset 80
	leaq	128(%rsp), %rbp
	.seh_setframe	%rbp, 128
	.cfi_def_cfa 6, -48
	.seh_endprologue
	movq	%rcx, -48(%rbp)
	movq	%rdx, -40(%rbp)
	movq	%r8, -32(%rbp)
	movb	%r9b, -24(%rbp)
	.loc 20 211 34
	movq	-40(%rbp), %rax
	movq	%rax, %rcx
	call	_ZN9__gnu_cxx17__is_null_pointerIcEEbPT_
	.loc 20 211 42
	testb	%al, %al
	je	.L271
	.loc 20 211 42 is_stmt 0 discriminator 1
	movq	-40(%rbp), %rax
	cmpq	-32(%rbp), %rax
	je	.L271
	.loc 20 211 42 discriminator 3
	movl	$1, %eax
	jmp	.L272
.L271:
	.loc 20 211 42 discriminator 4
	movl	$0, %eax
.L272:
	.loc 20 211 2 is_stmt 1 discriminator 6
	testb	%al, %al
	je	.L273
	.loc 20 212 28
	leaq	.LC29(%rip), %rcx
.LEHB80:
	call	_ZSt19__throw_logic_errorPKc
.L273:
	.loc 20 215 57
	movq	-32(%rbp), %rdx
	movq	-40(%rbp), %rax
	movq	%rax, %rcx
	call	_ZSt8distanceIPcENSt15iterator_traitsIT_E15difference_typeES2_S2_
	.loc 20 215 12
	movq	%rax, -88(%rbp)
	.loc 20 217 13
	movq	-88(%rbp), %rax
	.loc 20 217 2
	cmpq	$15, %rax
	jbe	.L274
	.loc 20 219 6
	leaq	-88(%rbp), %rax
	movl	$0, %r8d
	movq	%rax, %rdx
	movq	-48(%rbp), %rcx
	call	_ZNSt7__cxx1112basic_stringIcSt11char_traitsIcESaIcEE9_M_createERyy
	movq	%rax, %rdx
	movq	-48(%rbp), %rcx
	call	_ZNSt7__cxx1112basic_stringIcSt11char_traitsIcESaIcEE7_M_dataEPc
	.loc 20 220 6
	movq	-88(%rbp), %rax
	movq	%rax, %rdx
	movq	-48(%rbp), %rcx
	call	_ZNSt7__cxx1112basic_stringIcSt11char_traitsIcESaIcEE11_M_capacityEy
.LEHE80:
.L274:
	.loc 20 225 6
	movq	-48(%rbp), %rcx
.LEHB81:
	call	_ZNKSt7__cxx1112basic_stringIcSt11char_traitsIcESaIcEE7_M_dataEv
.LEHE81:
	movq	%rax, %rcx
	movq	-32(%rbp), %rdx
	movq	-40(%rbp), %rax
	movq	%rdx, %r8
	movq	%rax, %rdx
	call	_ZNSt7__cxx1112basic_stringIcSt11char_traitsIcESaIcEE13_S_copy_charsEPcS5_S5_
	.loc 20 232 2
	movq	-88(%rbp), %rax
	movq	%rax, %rdx
	movq	-48(%rbp), %rcx
.LEHB82:
	call	_ZNSt7__cxx1112basic_stringIcSt11char_traitsIcESaIcEE13_M_set_lengthEy
.LEHE82:
	.loc 20 233 7
	jmp	.L279
.L277:
	.loc 20 226 2
	movq	%rax, %rcx
	call	__cxa_begin_catch
	.loc 20 228 6
	movq	-48(%rbp), %rcx
.LEHB83:
	call	_ZNSt7__cxx1112basic_stringIcSt11char_traitsIcESaIcEE10_M_disposeEv
	.loc 20 229 6
	call	__cxa_rethrow
.LEHE83:
.L278:
	movq	%rax, %rbx
	.loc 20 226 2
	call	__cxa_end_catch
	movq	%rbx, %rax
	movq	%rax, %rcx
.LEHB84:
	call	_Unwind_Resume
	nop
.LEHE84:
.L279:
	.loc 20 233 7
	addq	$56, %rsp
	popq	%rbx
	.cfi_restore 3
	popq	%rbp
	.cfi_restore 6
	.cfi_def_cfa 7, -40
	ret
	.cfi_endproc
.LFE12317:
	.seh_handler	__gxx_personality_seh0, @unwind, @except
	.seh_handlerdata
	.align 4
.LLSDA12317:
	.byte	0xff
	.byte	0x9b
	.uleb128 .LLSDATT12317-.LLSDATTD12317
.LLSDATTD12317:
	.byte	0x1
	.uleb128 .LLSDACSE12317-.LLSDACSB12317
.LLSDACSB12317:
	.uleb128 .LEHB80-.LFB12317
	.uleb128 .LEHE80-.LEHB80
	.uleb128 0
	.uleb128 0
	.uleb128 .LEHB81-.LFB12317
	.uleb128 .LEHE81-.LEHB81
	.uleb128 .L277-.LFB12317
	.uleb128 0x1
	.uleb128 .LEHB82-.LFB12317
	.uleb128 .LEHE82-.LEHB82
	.uleb128 0
	.uleb128 0
	.uleb128 .LEHB83-.LFB12317
	.uleb128 .LEHE83-.LEHB83
	.uleb128 .L278-.LFB12317
	.uleb128 0
	.uleb128 .LEHB84-.LFB12317
	.uleb128 .LEHE84-.LEHB84
	.uleb128 0
	.uleb128 0
.LLSDACSE12317:
	.byte	0x1
	.byte	0
	.align 4
	.long	0

.LLSDATT12317:
	.section	.text$_ZNSt7__cxx1112basic_stringIcSt11char_traitsIcESaIcEE12_M_constructIPcEEvT_S7_St20forward_iterator_tag,"x"
	.linkonce discard
	.seh_endproc
	.section	.text$_ZN9__gnu_cxx17__is_null_pointerIcEEbPT_,"x"
	.linkonce discard
	.globl	_ZN9__gnu_cxx17__is_null_pointerIcEEbPT_
	.def	_ZN9__gnu_cxx17__is_null_pointerIcEEbPT_;	.scl	2;	.type	32;	.endef
	.seh_proc	_ZN9__gnu_cxx17__is_null_pointerIcEEbPT_
_ZN9__gnu_cxx17__is_null_pointerIcEEbPT_:
.LFB12362:
	.file 21 "C:/Program Files/CodeBlocks/MinGW/lib/gcc/x86_64-w64-mingw32/8.1.0/include/c++/ext/type_traits.h"
	.loc 21 152 5
	.cfi_startproc
	pushq	%rbp
	.seh_pushreg	%rbp
	.cfi_def_cfa_offset 16
	.cfi_offset 6, -16
	movq	%rsp, %rbp
	.seh_setframe	%rbp, 0
	.cfi_def_cfa_register 6
	.seh_endprologue
	movq	%rcx, 16(%rbp)
	.loc 21 153 23
	cmpq	$0, 16(%rbp)
	sete	%al
	.loc 21 153 26
	popq	%rbp
	.cfi_restore 6
	.cfi_def_cfa 7, 8
	ret
	.cfi_endproc
.LFE12362:
	.seh_endproc
	.section	.text$_ZSt19__iterator_categoryIPcENSt15iterator_traitsIT_E17iterator_categoryERKS2_,"x"
	.linkonce discard
	.globl	_ZSt19__iterator_categoryIPcENSt15iterator_traitsIT_E17iterator_categoryERKS2_
	.def	_ZSt19__iterator_categoryIPcENSt15iterator_traitsIT_E17iterator_categoryERKS2_;	.scl	2;	.type	32;	.endef
	.seh_proc	_ZSt19__iterator_categoryIPcENSt15iterator_traitsIT_E17iterator_categoryERKS2_
_ZSt19__iterator_categoryIPcENSt15iterator_traitsIT_E17iterator_categoryERKS2_:
.LFB12364:
	.file 22 "C:/Program Files/CodeBlocks/MinGW/lib/gcc/x86_64-w64-mingw32/8.1.0/include/c++/bits/stl_iterator_base_types.h"
	.loc 22 205 5
	.cfi_startproc
	pushq	%rbp
	.seh_pushreg	%rbp
	.cfi_def_cfa_offset 16
	.cfi_offset 6, -16
	movq	%rsp, %rbp
	.seh_setframe	%rbp, 0
	.cfi_def_cfa_register 6
	.seh_endprologue
	movq	%rcx, 16(%rbp)
	.loc 22 206 68
	popq	%rbp
	.cfi_restore 6
	.cfi_def_cfa 7, 8
	ret
	.cfi_endproc
.LFE12364:
	.seh_endproc
	.section	.text$_ZSt8distanceIPcENSt15iterator_traitsIT_E15difference_typeES2_S2_,"x"
	.linkonce discard
	.globl	_ZSt8distanceIPcENSt15iterator_traitsIT_E15difference_typeES2_S2_
	.def	_ZSt8distanceIPcENSt15iterator_traitsIT_E15difference_typeES2_S2_;	.scl	2;	.type	32;	.endef
	.seh_proc	_ZSt8distanceIPcENSt15iterator_traitsIT_E15difference_typeES2_S2_
_ZSt8distanceIPcENSt15iterator_traitsIT_E15difference_typeES2_S2_:
.LFB12363:
	.file 23 "C:/Program Files/CodeBlocks/MinGW/lib/gcc/x86_64-w64-mingw32/8.1.0/include/c++/bits/stl_iterator_base_funcs.h"
	.loc 23 138 5
	.cfi_startproc
	pushq	%rbp
	.seh_pushreg	%rbp
	.cfi_def_cfa_offset 16
	.cfi_offset 6, -16
	pushq	%rbx
	.seh_pushreg	%rbx
	.cfi_def_cfa_offset 24
	.cfi_offset 3, -24
	subq	$56, %rsp
	.seh_stackalloc	56
	.cfi_def_cfa_offset 80
	leaq	128(%rsp), %rbp
	.seh_setframe	%rbp, 128
	.cfi_def_cfa 6, -48
	.seh_endprologue
	movq	%rcx, -48(%rbp)
	movq	%rdx, -40(%rbp)
	.loc 23 142 33
	leaq	-48(%rbp), %rcx
	call	_ZSt19__iterator_categoryIPcENSt15iterator_traitsIT_E17iterator_categoryERKS2_
	.loc 23 141 29
	movq	-48(%rbp), %rax
	movq	-40(%rbp), %rdx
	movl	%ebx, %r8d
	movq	%rax, %rcx
	call	_ZSt10__distanceIPcENSt15iterator_traitsIT_E15difference_typeES2_S2_St26random_access_iterator_tag
	.loc 23 142 42
	nop
	.loc 23 143 5
	addq	$56, %rsp
	popq	%rbx
	.cfi_restore 3
	popq	%rbp
	.cfi_restore 6
	.cfi_def_cfa 7, -40
	ret
	.cfi_endproc
.LFE12363:
	.seh_endproc
	.section	.text$_ZSt10__distanceIPcENSt15iterator_traitsIT_E15difference_typeES2_S2_St26random_access_iterator_tag,"x"
	.linkonce discard
	.globl	_ZSt10__distanceIPcENSt15iterator_traitsIT_E15difference_typeES2_S2_St26random_access_iterator_tag
	.def	_ZSt10__distanceIPcENSt15iterator_traitsIT_E15difference_typeES2_S2_St26random_access_iterator_tag;	.scl	2;	.type	32;	.endef
	.seh_proc	_ZSt10__distanceIPcENSt15iterator_traitsIT_E15difference_typeES2_S2_St26random_access_iterator_tag
_ZSt10__distanceIPcENSt15iterator_traitsIT_E15difference_typeES2_S2_St26random_access_iterator_tag:
.LFB12396:
	.loc 23 98 5
	.cfi_startproc
	pushq	%rbp
	.seh_pushreg	%rbp
	.cfi_def_cfa_offset 16
	.cfi_offset 6, -16
	movq	%rsp, %rbp
	.seh_setframe	%rbp, 0
	.cfi_def_cfa_register 6
	.seh_endprologue
	movq	%rcx, 16(%rbp)
	movq	%rdx, 24(%rbp)
	movb	%r8b, 32(%rbp)
	.loc 23 104 23
	movq	24(%rbp), %rax
	subq	16(%rbp), %rax
	.loc 23 105 5
	popq	%rbp
	.cfi_restore 6
	.cfi_def_cfa 7, 8
	ret
	.cfi_endproc
.LFE12396:
	.seh_endproc
	.globl	_ZTV15GeradorTabularG
	.section	.rdata$_ZTV15GeradorTabularG,"dr"
	.linkonce same_size
	.align 8
_ZTV15GeradorTabularG:
	.quad	0
	.quad	_ZTI15GeradorTabularG
	.quad	_ZN15GeradorTabularG11gerarTabelaEP21CalculadorAtmosfericod15TIPO_TRAJETORIAdd
	.globl	_ZTV20wxObjectEventFunctor
	.section	.rdata$_ZTV20wxObjectEventFunctor,"dr"
	.linkonce same_size
	.align 8
_ZTV20wxObjectEventFunctor:
	.quad	0
	.quad	_ZTI20wxObjectEventFunctor
	.quad	_ZN20wxObjectEventFunctorD1Ev
	.quad	_ZN20wxObjectEventFunctorD0Ev
	.quad	_ZN20wxObjectEventFunctorclEP12wxEvtHandlerR7wxEvent
	.quad	_ZNK20wxObjectEventFunctor10IsMatchingERK14wxEventFunctor
	.quad	_ZNK20wxObjectEventFunctor13GetEvtHandlerEv
	.quad	_ZNK20wxObjectEventFunctor12GetEvtMethodEv
	.section	.text$_ZN20wxObjectEventFunctorD1Ev,"x"
	.linkonce discard
	.align 2
	.globl	_ZN20wxObjectEventFunctorD1Ev
	.def	_ZN20wxObjectEventFunctorD1Ev;	.scl	2;	.type	32;	.endef
	.seh_proc	_ZN20wxObjectEventFunctorD1Ev
_ZN20wxObjectEventFunctorD1Ev:
.LFB12424:
	.loc 12 240 7
	.cfi_startproc
	pushq	%rbp
	.seh_pushreg	%rbp
	.cfi_def_cfa_offset 16
	.cfi_offset 6, -16
	movq	%rsp, %rbp
	.seh_setframe	%rbp, 0
	.cfi_def_cfa_register 6
	subq	$32, %rsp
	.seh_stackalloc	32
	.seh_endprologue
	movq	%rcx, 16(%rbp)
.LBB33:
	.loc 12 240 7
	leaq	16+_ZTV20wxObjectEventFunctor(%rip), %rdx
	movq	16(%rbp), %rax
	movq	%rdx, (%rax)
	movq	16(%rbp), %rax
	movq	%rax, %rcx
	call	_ZN14wxEventFunctorD2Ev
.LBE33:
	nop
	addq	$32, %rsp
	popq	%rbp
	.cfi_restore 6
	.cfi_def_cfa 7, 8
	ret
	.cfi_endproc
.LFE12424:
	.seh_endproc
	.section	.text$_ZN20wxObjectEventFunctorD0Ev,"x"
	.linkonce discard
	.align 2
	.globl	_ZN20wxObjectEventFunctorD0Ev
	.def	_ZN20wxObjectEventFunctorD0Ev;	.scl	2;	.type	32;	.endef
	.seh_proc	_ZN20wxObjectEventFunctorD0Ev
_ZN20wxObjectEventFunctorD0Ev:
.LFB12425:
	.loc 12 240 7
	.cfi_startproc
	pushq	%rbp
	.seh_pushreg	%rbp
	.cfi_def_cfa_offset 16
	.cfi_offset 6, -16
	movq	%rsp, %rbp
	.seh_setframe	%rbp, 0
	.cfi_def_cfa_register 6
	subq	$32, %rsp
	.seh_stackalloc	32
	.seh_endprologue
	movq	%rcx, 16(%rbp)
	.loc 12 240 7
	movq	16(%rbp), %rcx
	call	_ZN20wxObjectEventFunctorD1Ev
	movq	16(%rbp), %rcx
	call	_ZdlPv
	nop
	addq	$32, %rsp
	popq	%rbp
	.cfi_restore 6
	.cfi_def_cfa 7, 8
	ret
	.cfi_endproc
.LFE12425:
	.seh_endproc
	.globl	_ZTV20wxThreadHelperThread
	.section	.rdata$_ZTV20wxThreadHelperThread,"dr"
	.linkonce same_size
	.align 8
_ZTV20wxThreadHelperThread:
	.quad	0
	.quad	_ZTI20wxThreadHelperThread
	.quad	_ZN8wxThread11TestDestroyEv
	.quad	_ZN20wxThreadHelperThreadD1Ev
	.quad	_ZN20wxThreadHelperThreadD0Ev
	.quad	_ZN20wxThreadHelperThread5EntryEv
	.quad	_ZN8wxThread8OnDeleteEv
	.quad	_ZN8wxThread6OnKillEv
	.quad	_ZN8wxThread6OnExitEv
	.section	.text$_ZN20wxThreadHelperThreadD1Ev,"x"
	.linkonce discard
	.align 2
	.globl	_ZN20wxThreadHelperThreadD1Ev
	.def	_ZN20wxThreadHelperThreadD1Ev;	.scl	2;	.type	32;	.endef
	.seh_proc	_ZN20wxThreadHelperThreadD1Ev
_ZN20wxThreadHelperThreadD1Ev:
.LFB12436:
	.loc 10 663 7
	.cfi_startproc
	pushq	%rbp
	.seh_pushreg	%rbp
	.cfi_def_cfa_offset 16
	.cfi_offset 6, -16
	movq	%rsp, %rbp
	.seh_setframe	%rbp, 0
	.cfi_def_cfa_register 6
	subq	$32, %rsp
	.seh_stackalloc	32
	.seh_endprologue
	movq	%rcx, 16(%rbp)
.LBB34:
	.loc 10 663 7
	leaq	16+_ZTV20wxThreadHelperThread(%rip), %rdx
	movq	16(%rbp), %rax
	movq	%rdx, (%rax)
	movq	16(%rbp), %rax
	movq	%rax, %rcx
	call	_ZN8wxThreadD2Ev
.LBE34:
	nop
	addq	$32, %rsp
	popq	%rbp
	.cfi_restore 6
	.cfi_def_cfa 7, 8
	ret
	.cfi_endproc
.LFE12436:
	.seh_endproc
	.section	.text$_ZN20wxThreadHelperThreadD0Ev,"x"
	.linkonce discard
	.align 2
	.globl	_ZN20wxThreadHelperThreadD0Ev
	.def	_ZN20wxThreadHelperThreadD0Ev;	.scl	2;	.type	32;	.endef
	.seh_proc	_ZN20wxThreadHelperThreadD0Ev
_ZN20wxThreadHelperThreadD0Ev:
.LFB12437:
	.loc 10 663 7
	.cfi_startproc
	pushq	%rbp
	.seh_pushreg	%rbp
	.cfi_def_cfa_offset 16
	.cfi_offset 6, -16
	movq	%rsp, %rbp
	.seh_setframe	%rbp, 0
	.cfi_def_cfa_register 6
	subq	$32, %rsp
	.seh_stackalloc	32
	.seh_endprologue
	movq	%rcx, 16(%rbp)
	.loc 10 663 7
	movq	16(%rbp), %rcx
	call	_ZN20wxThreadHelperThreadD1Ev
	movq	16(%rbp), %rcx
	call	_ZdlPv
	nop
	addq	$32, %rsp
	popq	%rbp
	.cfi_restore 6
	.cfi_def_cfa 7, 8
	ret
	.cfi_endproc
.LFE12437:
	.seh_endproc
	.globl	_ZTV12ElementosVoo
	.section	.rdata$_ZTV12ElementosVoo,"dr"
	.linkonce same_size
	.align 8
_ZTV12ElementosVoo:
	.quad	0
	.quad	_ZTI12ElementosVoo
	.quad	_ZN12ElementosVooD1Ev
	.quad	_ZN12ElementosVooD0Ev
	.globl	_ZTV16ElementosDisparo
	.section	.rdata$_ZTV16ElementosDisparo,"dr"
	.linkonce same_size
	.align 8
_ZTV16ElementosDisparo:
	.quad	0
	.quad	_ZTI16ElementosDisparo
	.quad	_ZN16ElementosDisparoD1Ev
	.quad	_ZN16ElementosDisparoD0Ev
	.section	.text$_ZN16ElementosDisparoD1Ev,"x"
	.linkonce discard
	.align 2
	.globl	_ZN16ElementosDisparoD1Ev
	.def	_ZN16ElementosDisparoD1Ev;	.scl	2;	.type	32;	.endef
	.seh_proc	_ZN16ElementosDisparoD1Ev
_ZN16ElementosDisparoD1Ev:
.LFB12460:
	.loc 5 6 7
	.cfi_startproc
	pushq	%rbp
	.seh_pushreg	%rbp
	.cfi_def_cfa_offset 16
	.cfi_offset 6, -16
	movq	%rsp, %rbp
	.seh_setframe	%rbp, 0
	.cfi_def_cfa_register 6
	subq	$32, %rsp
	.seh_stackalloc	32
	.seh_endprologue
	movq	%rcx, 16(%rbp)
.LBB35:
	.loc 5 6 7
	leaq	16+_ZTV16ElementosDisparo(%rip), %rdx
	movq	16(%rbp), %rax
	movq	%rdx, (%rax)
	movq	16(%rbp), %rax
	movq	%rax, %rcx
	call	_ZN10BaseObjectD2Ev
.LBE35:
	nop
	addq	$32, %rsp
	popq	%rbp
	.cfi_restore 6
	.cfi_def_cfa 7, 8
	ret
	.cfi_endproc
.LFE12460:
	.seh_endproc
	.section	.text$_ZN16ElementosDisparoD0Ev,"x"
	.linkonce discard
	.align 2
	.globl	_ZN16ElementosDisparoD0Ev
	.def	_ZN16ElementosDisparoD0Ev;	.scl	2;	.type	32;	.endef
	.seh_proc	_ZN16ElementosDisparoD0Ev
_ZN16ElementosDisparoD0Ev:
.LFB12461:
	.loc 5 6 7
	.cfi_startproc
	pushq	%rbp
	.seh_pushreg	%rbp
	.cfi_def_cfa_offset 16
	.cfi_offset 6, -16
	movq	%rsp, %rbp
	.seh_setframe	%rbp, 0
	.cfi_def_cfa_register 6
	subq	$32, %rsp
	.seh_stackalloc	32
	.seh_endprologue
	movq	%rcx, 16(%rbp)
	.loc 5 6 7
	movq	16(%rbp), %rcx
	call	_ZN16ElementosDisparoD1Ev
	movq	16(%rbp), %rcx
	call	_ZdlPv
	nop
	addq	$32, %rsp
	popq	%rbp
	.cfi_restore 6
	.cfi_def_cfa 7, 8
	ret
	.cfi_endproc
.LFE12461:
	.seh_endproc
	.globl	_ZTV10BaseObject
	.section	.rdata$_ZTV10BaseObject,"dr"
	.linkonce same_size
	.align 8
_ZTV10BaseObject:
	.quad	0
	.quad	_ZTI10BaseObject
	.quad	_ZN10BaseObjectD1Ev
	.quad	_ZN10BaseObjectD0Ev
	.globl	_ZTI18ExceptionYawRepose
	.section	.rdata$_ZTI18ExceptionYawRepose,"dr"
	.linkonce same_size
	.align 8
_ZTI18ExceptionYawRepose:
	.quad	_ZTVN10__cxxabiv120__si_class_type_infoE+16
	.quad	_ZTS18ExceptionYawRepose
	.quad	_ZTISt9exception
	.globl	_ZTS18ExceptionYawRepose
	.section	.rdata$_ZTS18ExceptionYawRepose,"dr"
	.linkonce same_size
	.align 16
_ZTS18ExceptionYawRepose:
	.ascii "18ExceptionYawRepose\0"
	.globl	_ZTI20ExceptionConvergence
	.section	.rdata$_ZTI20ExceptionConvergence,"dr"
	.linkonce same_size
	.align 8
_ZTI20ExceptionConvergence:
	.quad	_ZTVN10__cxxabiv120__si_class_type_infoE+16
	.quad	_ZTS20ExceptionConvergence
	.quad	_ZTISt9exception
	.globl	_ZTS20ExceptionConvergence
	.section	.rdata$_ZTS20ExceptionConvergence,"dr"
	.linkonce same_size
	.align 16
_ZTS20ExceptionConvergence:
	.ascii "20ExceptionConvergence\0"
	.globl	_ZTI15GeradorTabularG
	.section	.rdata$_ZTI15GeradorTabularG,"dr"
	.linkonce same_size
	.align 8
_ZTI15GeradorTabularG:
	.quad	_ZTVN10__cxxabiv120__si_class_type_infoE+16
	.quad	_ZTS15GeradorTabularG
	.quad	_ZTI14GeradorTabular
	.globl	_ZTS15GeradorTabularG
	.section	.rdata$_ZTS15GeradorTabularG,"dr"
	.linkonce same_size
	.align 16
_ZTS15GeradorTabularG:
	.ascii "15GeradorTabularG\0"
	.globl	_ZTI14GeradorTabular
	.section	.rdata$_ZTI14GeradorTabular,"dr"
	.linkonce same_size
	.align 8
_ZTI14GeradorTabular:
	.quad	_ZTVN10__cxxabiv117__class_type_infoE+16
	.quad	_ZTS14GeradorTabular
	.globl	_ZTS14GeradorTabular
	.section	.rdata$_ZTS14GeradorTabular,"dr"
	.linkonce same_size
	.align 16
_ZTS14GeradorTabular:
	.ascii "14GeradorTabular\0"
	.globl	_ZTI20wxObjectEventFunctor
	.section	.rdata$_ZTI20wxObjectEventFunctor,"dr"
	.linkonce same_size
	.align 8
_ZTI20wxObjectEventFunctor:
	.quad	_ZTVN10__cxxabiv120__si_class_type_infoE+16
	.quad	_ZTS20wxObjectEventFunctor
	.quad	_ZTI14wxEventFunctor
	.globl	_ZTS20wxObjectEventFunctor
	.section	.rdata$_ZTS20wxObjectEventFunctor,"dr"
	.linkonce same_size
	.align 16
_ZTS20wxObjectEventFunctor:
	.ascii "20wxObjectEventFunctor\0"
	.globl	_ZTI14wxEventFunctor
	.section	.rdata$_ZTI14wxEventFunctor,"dr"
	.linkonce same_size
	.align 8
_ZTI14wxEventFunctor:
	.quad	_ZTVN10__cxxabiv117__class_type_infoE+16
	.quad	_ZTS14wxEventFunctor
	.globl	_ZTS14wxEventFunctor
	.section	.rdata$_ZTS14wxEventFunctor,"dr"
	.linkonce same_size
	.align 16
_ZTS14wxEventFunctor:
	.ascii "14wxEventFunctor\0"
	.globl	_ZTI20wxThreadHelperThread
	.section	.rdata$_ZTI20wxThreadHelperThread,"dr"
	.linkonce same_size
	.align 8
_ZTI20wxThreadHelperThread:
	.quad	_ZTVN10__cxxabiv120__si_class_type_infoE+16
	.quad	_ZTS20wxThreadHelperThread
	.quad	_ZTI8wxThread
	.globl	_ZTS20wxThreadHelperThread
	.section	.rdata$_ZTS20wxThreadHelperThread,"dr"
	.linkonce same_size
	.align 16
_ZTS20wxThreadHelperThread:
	.ascii "20wxThreadHelperThread\0"
	.globl	_ZTI8wxThread
	.section	.rdata$_ZTI8wxThread,"dr"
	.linkonce same_size
	.align 8
_ZTI8wxThread:
	.quad	_ZTVN10__cxxabiv117__class_type_infoE+16
	.quad	_ZTS8wxThread
	.globl	_ZTS8wxThread
	.section	.rdata$_ZTS8wxThread,"dr"
	.linkonce same_size
	.align 8
_ZTS8wxThread:
	.ascii "8wxThread\0"
	.globl	_ZTISt14overflow_error
	.section	.rdata$_ZTISt14overflow_error,"dr"
	.linkonce same_size
	.align 8
_ZTISt14overflow_error:
	.quad	_ZTVN10__cxxabiv120__si_class_type_infoE+16
	.quad	_ZTSSt14overflow_error
	.quad	_ZTISt13runtime_error
	.globl	_ZTSSt14overflow_error
	.section	.rdata$_ZTSSt14overflow_error,"dr"
	.linkonce same_size
	.align 16
_ZTSSt14overflow_error:
	.ascii "St14overflow_error\0"
	.globl	_ZTISt13runtime_error
	.section	.rdata$_ZTISt13runtime_error,"dr"
	.linkonce same_size
	.align 8
_ZTISt13runtime_error:
	.quad	_ZTVN10__cxxabiv120__si_class_type_infoE+16
	.quad	_ZTSSt13runtime_error
	.quad	_ZTISt9exception
	.globl	_ZTSSt13runtime_error
	.section	.rdata$_ZTSSt13runtime_error,"dr"
	.linkonce same_size
	.align 16
_ZTSSt13runtime_error:
	.ascii "St13runtime_error\0"
	.globl	_ZTI12ElementosVoo
	.section	.rdata$_ZTI12ElementosVoo,"dr"
	.linkonce same_size
	.align 8
_ZTI12ElementosVoo:
	.quad	_ZTVN10__cxxabiv120__si_class_type_infoE+16
	.quad	_ZTS12ElementosVoo
	.quad	_ZTI10BaseObject
	.globl	_ZTI16ElementosDisparo
	.section	.rdata$_ZTI16ElementosDisparo,"dr"
	.linkonce same_size
	.align 8
_ZTI16ElementosDisparo:
	.quad	_ZTVN10__cxxabiv120__si_class_type_infoE+16
	.quad	_ZTS16ElementosDisparo
	.quad	_ZTI10BaseObject
	.globl	_ZTS16ElementosDisparo
	.section	.rdata$_ZTS16ElementosDisparo,"dr"
	.linkonce same_size
	.align 16
_ZTS16ElementosDisparo:
	.ascii "16ElementosDisparo\0"
	.globl	_ZTI10BaseObject
	.section	.rdata$_ZTI10BaseObject,"dr"
	.linkonce same_size
	.align 8
_ZTI10BaseObject:
	.quad	_ZTVN10__cxxabiv117__class_type_infoE+16
	.quad	_ZTS10BaseObject
	.globl	_ZTS10BaseObject
	.section	.rdata$_ZTS10BaseObject,"dr"
	.linkonce same_size
	.align 8
_ZTS10BaseObject:
	.ascii "10BaseObject\0"
	.globl	_ZTISt9exception
	.section	.rdata$_ZTISt9exception,"dr"
	.linkonce same_size
	.align 8
_ZTISt9exception:
	.quad	_ZTVN10__cxxabiv117__class_type_infoE+16
	.quad	_ZTSSt9exception
	.globl	_ZTSSt9exception
	.section	.rdata$_ZTSSt9exception,"dr"
	.linkonce same_size
	.align 8
_ZTSSt9exception:
	.ascii "St9exception\0"
	.text
	.def	__tcf_0;	.scl	3;	.type	32;	.endef
	.seh_proc	__tcf_0
__tcf_0:
.LFB12463:
	.file 24 "C:/Program Files/CodeBlocks/MinGW/lib/gcc/x86_64-w64-mingw32/8.1.0/include/c++/iostream"
	.loc 24 74 25
	.cfi_startproc
	pushq	%rbp
	.seh_pushreg	%rbp
	.cfi_def_cfa_offset 16
	.cfi_offset 6, -16
	movq	%rsp, %rbp
	.seh_setframe	%rbp, 0
	.cfi_def_cfa_register 6
	subq	$32, %rsp
	.seh_stackalloc	32
	.seh_endprologue
	.loc 24 74 25
	leaq	_ZStL8__ioinit(%rip), %rcx
	call	_ZNSt8ios_base4InitD1Ev
	nop
	addq	$32, %rsp
	popq	%rbp
	.cfi_restore 6
	.cfi_def_cfa 7, 8
	ret
	.cfi_endproc
.LFE12463:
	.seh_endproc
	.def	_Z41__static_initialization_and_destruction_0ii;	.scl	3;	.type	32;	.endef
	.seh_proc	_Z41__static_initialization_and_destruction_0ii
_Z41__static_initialization_and_destruction_0ii:
.LFB12462:
	.loc 15 146 1
	.cfi_startproc
	pushq	%rbp
	.seh_pushreg	%rbp
	.cfi_def_cfa_offset 16
	.cfi_offset 6, -16
	movq	%rsp, %rbp
	.seh_setframe	%rbp, 0
	.cfi_def_cfa_register 6
	subq	$32, %rsp
	.seh_stackalloc	32
	.seh_endprologue
	movl	%ecx, 16(%rbp)
	movl	%edx, 24(%rbp)
	.loc 15 146 1
	cmpl	$1, 16(%rbp)
	jne	.L297
	.loc 15 146 1 is_stmt 0 discriminator 1
	cmpl	$65535, 24(%rbp)
	jne	.L297
	.loc 24 74 25 is_stmt 1
	leaq	_ZStL8__ioinit(%rip), %rcx
	call	_ZNSt8ios_base4InitC1Ev
	leaq	__tcf_0(%rip), %rcx
	call	atexit
.L297:
	.loc 15 146 1
	nop
	addq	$32, %rsp
	popq	%rbp
	.cfi_restore 6
	.cfi_def_cfa 7, 8
	ret
	.cfi_endproc
.LFE12462:
	.seh_endproc
	.section	.text$_ZN12ElementosVooD1Ev,"x"
	.linkonce discard
	.align 2
	.globl	_ZN12ElementosVooD1Ev
	.def	_ZN12ElementosVooD1Ev;	.scl	2;	.type	32;	.endef
	.seh_proc	_ZN12ElementosVooD1Ev
_ZN12ElementosVooD1Ev:
.LFB12518:
	.loc 16 7 7
	.cfi_startproc
	pushq	%rbp
	.seh_pushreg	%rbp
	.cfi_def_cfa_offset 16
	.cfi_offset 6, -16
	movq	%rsp, %rbp
	.seh_setframe	%rbp, 0
	.cfi_def_cfa_register 6
	subq	$32, %rsp
	.seh_stackalloc	32
	.seh_endprologue
	movq	%rcx, 16(%rbp)
.LBB36:
	.loc 16 7 7
	leaq	16+_ZTV12ElementosVoo(%rip), %rdx
	movq	16(%rbp), %rax
	movq	%rdx, (%rax)
	movq	16(%rbp), %rax
	movq	%rax, %rcx
	call	_ZN10BaseObjectD2Ev
.LBE36:
	nop
	addq	$32, %rsp
	popq	%rbp
	.cfi_restore 6
	.cfi_def_cfa 7, 8
	ret
	.cfi_endproc
.LFE12518:
	.seh_endproc
	.section	.text$_ZN12ElementosVooD0Ev,"x"
	.linkonce discard
	.align 2
	.globl	_ZN12ElementosVooD0Ev
	.def	_ZN12ElementosVooD0Ev;	.scl	2;	.type	32;	.endef
	.seh_proc	_ZN12ElementosVooD0Ev
_ZN12ElementosVooD0Ev:
.LFB12519:
	.loc 16 7 7
	.cfi_startproc
	pushq	%rbp
	.seh_pushreg	%rbp
	.cfi_def_cfa_offset 16
	.cfi_offset 6, -16
	movq	%rsp, %rbp
	.seh_setframe	%rbp, 0
	.cfi_def_cfa_register 6
	subq	$32, %rsp
	.seh_stackalloc	32
	.seh_endprologue
	movq	%rcx, 16(%rbp)
	.loc 16 7 7
	movq	16(%rbp), %rcx
	call	_ZN12ElementosVooD1Ev
	movq	16(%rbp), %rcx
	call	_ZdlPv
	nop
	addq	$32, %rsp
	popq	%rbp
	.cfi_restore 6
	.cfi_def_cfa 7, 8
	ret
	.cfi_endproc
.LFE12519:
	.seh_endproc
	.globl	_ZTS12ElementosVoo
	.section	.rdata$_ZTS12ElementosVoo,"dr"
	.linkonce same_size
	.align 8
_ZTS12ElementosVoo:
	.ascii "12ElementosVoo\0"
	.text
	.def	_GLOBAL__sub_I__ZN15GeradorTabularGC2EP10wxTextCtrl;	.scl	3;	.type	32;	.endef
	.seh_proc	_GLOBAL__sub_I__ZN15GeradorTabularGC2EP10wxTextCtrl
_GLOBAL__sub_I__ZN15GeradorTabularGC2EP10wxTextCtrl:
.LFB12574:
	.loc 15 146 1
	.cfi_startproc
	pushq	%rbp
	.seh_pushreg	%rbp
	.cfi_def_cfa_offset 16
	.cfi_offset 6, -16
	movq	%rsp, %rbp
	.seh_setframe	%rbp, 0
	.cfi_def_cfa_register 6
	subq	$32, %rsp
	.seh_stackalloc	32
	.seh_endprologue
	.loc 15 146 1
	movl	$65535, %edx
	movl	$1, %ecx
	call	_Z41__static_initialization_and_destruction_0ii
	nop
	addq	$32, %rsp
	popq	%rbp
	.cfi_restore 6
	.cfi_def_cfa 7, 8
	ret
	.cfi_endproc
.LFE12574:
	.seh_endproc
	.section	.ctors,"w"
	.align 8
	.quad	_GLOBAL__sub_I__ZN15GeradorTabularGC2EP10wxTextCtrl
	.section .rdata,"dr"
	.align 8
.LC1:
	.long	0
	.long	1071644672
	.align 8
.LC3:
	.long	0
	.long	1083129856
	.align 8
.LC11:
	.long	0
	.long	1076101120
	.align 16
.LC12:
	.long	-1
	.long	2147483647
	.long	0
	.long	0
	.align 8
.LC13:
	.long	-1717986918
	.long	1072798105
	.align 8
.LC14:
	.long	0
	.long	1076756480
	.align 8
.LC15:
	.long	1413754136
	.long	1074340347
	.align 8
.LC16:
	.long	0
	.long	1084817408
	.align 8
.LC17:
	.long	0
	.long	1084178432
	.align 8
.LC18:
	.long	0
	.long	1073741824
	.align 8
.LC19:
	.long	0
	.long	1078525952
	.align 8
.LC20:
	.long	0
	.long	1082081280
	.align 8
.LC21:
	.long	-1717986918
	.long	1069128089
	.align 8
.LC22:
	.long	-350469331
	.long	1058682594
	.align 16
.LC24:
	.long	0
	.long	-2147483648
	.long	0
	.long	0
	.align 8
.LC25:
	.long	0
	.long	1072693248
	.text
.Letext0:
	.file 25 "C:/Program Files/CodeBlocks/MinGW/lib/gcc/x86_64-w64-mingw32/8.1.0/include/c++/bits/stringfwd.h"
	.file 26 "C:/Program Files/CodeBlocks/MinGW/lib/gcc/x86_64-w64-mingw32/8.1.0/include/c++/type_traits"
	.file 27 "C:/Program Files/CodeBlocks/MinGW/lib/gcc/x86_64-w64-mingw32/8.1.0/include/c++/bits/stl_pair.h"
	.file 28 "C:/Program Files/CodeBlocks/MinGW/lib/gcc/x86_64-w64-mingw32/8.1.0/include/c++/bits/cpp_type_traits.h"
	.file 29 "C:/Program Files/CodeBlocks/MinGW/lib/gcc/x86_64-w64-mingw32/8.1.0/include/c++/debug/debug.h"
	.file 30 "C:/Program Files/CodeBlocks/MinGW/lib/gcc/x86_64-w64-mingw32/8.1.0/include/c++/bits/exception_ptr.h"
	.file 31 "C:/Program Files/CodeBlocks/MinGW/lib/gcc/x86_64-w64-mingw32/8.1.0/include/c++/x86_64-w64-mingw32/bits/c++config.h"
	.file 32 "C:/Program Files/CodeBlocks/MinGW/lib/gcc/x86_64-w64-mingw32/8.1.0/include/c++/new"
	.file 33 "C:/Program Files/CodeBlocks/MinGW/lib/gcc/x86_64-w64-mingw32/8.1.0/include/c++/bits/allocator.h"
	.file 34 "C:/Program Files/CodeBlocks/MinGW/lib/gcc/x86_64-w64-mingw32/8.1.0/include/c++/cwchar"
	.file 35 "C:/Program Files/CodeBlocks/MinGW/lib/gcc/x86_64-w64-mingw32/8.1.0/include/c++/bits/char_traits.h"
	.file 36 "C:/Program Files/CodeBlocks/MinGW/lib/gcc/x86_64-w64-mingw32/8.1.0/include/c++/cstdint"
	.file 37 "C:/Program Files/CodeBlocks/MinGW/lib/gcc/x86_64-w64-mingw32/8.1.0/include/c++/clocale"
	.file 38 "C:/Program Files/CodeBlocks/MinGW/lib/gcc/x86_64-w64-mingw32/8.1.0/include/c++/cstdlib"
	.file 39 "C:/Program Files/CodeBlocks/MinGW/lib/gcc/x86_64-w64-mingw32/8.1.0/include/c++/cstdio"
	.file 40 "C:/Program Files/CodeBlocks/MinGW/lib/gcc/x86_64-w64-mingw32/8.1.0/include/c++/bits/alloc_traits.h"
	.file 41 "C:/Program Files/CodeBlocks/MinGW/lib/gcc/x86_64-w64-mingw32/8.1.0/include/c++/initializer_list"
	.file 42 "C:/Program Files/CodeBlocks/MinGW/lib/gcc/x86_64-w64-mingw32/8.1.0/include/c++/bits/stl_list.h"
	.file 43 "C:/Program Files/CodeBlocks/MinGW/lib/gcc/x86_64-w64-mingw32/8.1.0/include/c++/bits/std_abs.h"
	.file 44 "C:/Program Files/CodeBlocks/MinGW/lib/gcc/x86_64-w64-mingw32/8.1.0/include/c++/system_error"
	.file 45 "C:/Program Files/CodeBlocks/MinGW/lib/gcc/x86_64-w64-mingw32/8.1.0/include/c++/bits/ios_base.h"
	.file 46 "C:/Program Files/CodeBlocks/MinGW/lib/gcc/x86_64-w64-mingw32/8.1.0/include/c++/cwctype"
	.file 47 "C:/Program Files/CodeBlocks/MinGW/lib/gcc/x86_64-w64-mingw32/8.1.0/include/c++/iosfwd"
	.file 48 "C:/Program Files/CodeBlocks/MinGW/lib/gcc/x86_64-w64-mingw32/8.1.0/include/c++/bits/stl_vector.h"
	.file 49 "C:/Program Files/CodeBlocks/MinGW/lib/gcc/x86_64-w64-mingw32/8.1.0/include/c++/bits/vector.tcc"
	.file 50 "C:/Program Files/CodeBlocks/MinGW/lib/gcc/x86_64-w64-mingw32/8.1.0/include/c++/bits/uses_allocator.h"
	.file 51 "C:/Program Files/CodeBlocks/MinGW/lib/gcc/x86_64-w64-mingw32/8.1.0/include/c++/tuple"
	.file 52 "C:/Program Files/CodeBlocks/MinGW/lib/gcc/x86_64-w64-mingw32/8.1.0/include/c++/bits/predefined_ops.h"
	.file 53 "C:/Program Files/CodeBlocks/MinGW/lib/gcc/x86_64-w64-mingw32/8.1.0/include/c++/ext/new_allocator.h"
	.file 54 "C:/Program Files/CodeBlocks/MinGW/lib/gcc/x86_64-w64-mingw32/8.1.0/include/c++/ext/numeric_traits.h"
	.file 55 "C:/Program Files/CodeBlocks/MinGW/lib/gcc/x86_64-w64-mingw32/8.1.0/include/c++/ext/alloc_traits.h"
	.file 56 "C:/Program Files/CodeBlocks/MinGW/lib/gcc/x86_64-w64-mingw32/8.1.0/include/c++/bits/stl_iterator.h"
	.file 57 "C:/Program Files/CodeBlocks/MinGW/x86_64-w64-mingw32/include/vadefs.h"
	.file 58 "C:/Program Files/CodeBlocks/MinGW/x86_64-w64-mingw32/include/crtdefs.h"
	.file 59 "C:/Program Files/CodeBlocks/MinGW/x86_64-w64-mingw32/include/locale.h"
	.file 60 "C:/Program Files/CodeBlocks/MinGW/x86_64-w64-mingw32/include/wchar.h"
	.file 61 "C:/Program Files/CodeBlocks/MinGW/x86_64-w64-mingw32/include/swprintf.inl"
	.file 62 "C:/Program Files/CodeBlocks/MinGW/x86_64-w64-mingw32/include/stdint.h"
	.file 63 "C:/Program Files/CodeBlocks/MinGW/x86_64-w64-mingw32/include/ctype.h"
	.file 64 "C:/Program Files/CodeBlocks/MinGW/x86_64-w64-mingw32/include/process.h"
	.file 65 "C:/Program Files/CodeBlocks/MinGW/x86_64-w64-mingw32/include/pthread.h"
	.file 66 "C:/Program Files/CodeBlocks/MinGW/lib/gcc/x86_64-w64-mingw32/8.1.0/include/c++/x86_64-w64-mingw32/bits/atomic_word.h"
	.file 67 "C:/Program Files/CodeBlocks/MinGW/x86_64-w64-mingw32/include/stdlib.h"
	.file 68 "C:/Program Files/CodeBlocks/MinGW/x86_64-w64-mingw32/include/malloc.h"
	.file 69 "../../CalculadorNumerico/calculador/../padroes/observable.h"
	.file 70 "../../CalculadorNumerico/calculador/../projetil/projetil.h"
	.file 71 "../../CalculadorNumerico/calculador/calculador.h"
	.file 72 "C:/Program Files/CodeBlocks/MinGW/lib/gcc/x86_64-w64-mingw32/8.1.0/include/c++/stdlib.h"
	.file 73 "../wxMSW-3.0.5_gcc810_x64_Dev/include/wx/chartype.h"
	.file 74 "../wxMSW-3.0.5_gcc810_x64_Dev/include/wx/debug.h"
	.file 75 "../wxMSW-3.0.5_gcc810_x64_Dev/include/wx/defs.h"
	.file 76 "C:/Program Files/CodeBlocks/MinGW/x86_64-w64-mingw32/include/wctype.h"
	.file 77 "C:/Program Files/CodeBlocks/MinGW/x86_64-w64-mingw32/include/time.h"
	.file 78 "../wxMSW-3.0.5_gcc810_x64_Dev/include/wx/fontenc.h"
	.file 79 "../wxMSW-3.0.5_gcc810_x64_Dev/include/wx/stringimpl.h"
	.file 80 "../wxMSW-3.0.5_gcc810_x64_Dev/include/wx/unichar.h"
	.file 81 "../wxMSW-3.0.5_gcc810_x64_Dev/include/wx/strvararg.h"
	.file 82 "../wxMSW-3.0.5_gcc810_x64_Dev/include/wx/rtti.h"
	.file 83 "../wxMSW-3.0.5_gcc810_x64_Dev/include/wx/object.h"
	.file 84 "../wxMSW-3.0.5_gcc810_x64_Dev/include/wx/hashmap.h"
	.file 85 "../wxMSW-3.0.5_gcc810_x64_Dev/include/wx/list.h"
	.file 86 "C:/Program Files/CodeBlocks/MinGW/x86_64-w64-mingw32/include/math.h"
	.file 87 "C:/Program Files/CodeBlocks/MinGW/lib/gcc/x86_64-w64-mingw32/8.1.0/include/c++/math.h"
	.file 88 "../wxMSW-3.0.5_gcc810_x64_Dev/include/wx/gdicmn.h"
	.file 89 "../wxMSW-3.0.5_gcc810_x64_Dev/include/wx/msw/gdiimage.h"
	.file 90 "../wxMSW-3.0.5_gcc810_x64_Dev/include/wx/filefn.h"
	.file 91 "../wxMSW-3.0.5_gcc810_x64_Dev/include/wx/longlong.h"
	.file 92 "../wxMSW-3.0.5_gcc810_x64_Dev/include/wx/window.h"
	.file 93 "../wxMSW-3.0.5_gcc810_x64_Dev/include/wx/utils.h"
	.file 94 "../wxMSW-3.0.5_gcc810_x64_Dev/include/wx/any.h"
	.file 95 "../wxMSW-3.0.5_gcc810_x64_Dev/include/wx/anystr.h"
	.file 96 "../wxMSW-3.0.5_gcc810_x64_Dev/include/wx/datetime.h"
	.file 97 "../wxMSW-3.0.5_gcc810_x64_Dev/include/wx/variant.h"
	.file 98 "../wxMSW-3.0.5_gcc810_x64_Dev/include/wx/font.h"
	.file 99 "../wxMSW-3.0.5_gcc810_x64_Dev/include/wx/colour.h"
	.file 100 "../wxMSW-3.0.5_gcc810_x64_Dev/include/wx/validate.h"
	.file 101 "../wxMSW-3.0.5_gcc810_x64_Dev/include/wx/accel.h"
	.file 102 "../wxMSW-3.0.5_gcc810_x64_Dev/include/wx/control.h"
	.file 103 "../wxMSW-3.0.5_gcc810_x64_Dev/include/wx/msw/textentry.h"
	.file 104 "../wxMSW-3.0.5_gcc810_x64_Dev/include/wx/textctrl.h"
	.file 105 "../../CalculadorNumerico/projetil/../sql/sqlite3.h"
	.file 106 "../../CalculadorNumerico/projetil/ProjetilDAO.h"
	.file 107 "../../CalculadorNumerico/coeficientes/coeficienteAerodinamico.h"
	.file 108 "../../CalculadorNumerico/coeficientes/coeficientesdao.h"
	.file 109 "../../CalculadorNumerico/fatoresdeajuste/calculadorFator.h"
	.file 110 "C:/temp/ballisticKernelCpp/interfaceGrafica/calculadorBalisiticaGraficoWindows/globais.h"
	.file 111 "../../CalculadorNumerico/coeficientes/CoeficienteDrag.h"
	.file 112 "C:/temp/ballisticKernelCpp/interfaceGrafica/calculadorBalisiticaGraficoWindows/tabelaDialog/geradorTabularG.h"
	.file 113 "C:/temp/ballisticKernelCpp/interfaceGrafica/calculadorBalisiticaGraficoWindows/tabelaDialog/GeradorTabular.h"
	.file 114 "../../CalculadorNumerico/excecoes/ExceptionYawRepose.h"
	.file 115 "../../CalculadorNumerico/excecoes/ExceptionConvergence.h"
	.file 116 "<built-in>"