	.file	"geradorTabularB.cpp"
	.text
.Ltext0:
	.cfi_sections	.debug_frame
	.section .rdata,"dr"
_ZStL19piecewise_construct:
	.space 1
	.section	.text$_ZNKSt9type_info4nameEv,"x"
	.linkonce discard
	.align 2
	.globl	_ZNKSt9type_info4nameEv
	.def	_ZNKSt9type_info4nameEv;	.scl	2;	.type	32;	.endef
	.seh_proc	_ZNKSt9type_info4nameEv
_ZNKSt9type_info4nameEv:
.LFB310:
	.file 1 "C:/Program Files/CodeBlocks/MinGW/lib/gcc/x86_64-w64-mingw32/8.1.0/include/c++/typeinfo"
	.loc 1 99 17
	.cfi_startproc
	pushq	%rbp
	.seh_pushreg	%rbp
	.cfi_def_cfa_offset 16
	.cfi_offset 6, -16
	movq	%rsp, %rbp
	.seh_setframe	%rbp, 0
	.cfi_def_cfa_register 6
	.seh_endprologue
	movq	%rcx, 16(%rbp)
	.loc 1 100 14
	movq	16(%rbp), %rax
	movq	8(%rax), %rax
	.loc 1 100 22
	movzbl	(%rax), %eax
	.loc 1 100 31
	cmpb	$42, %al
	jne	.L2
	.loc 1 100 33 discriminator 1
	movq	16(%rbp), %rax
	movq	8(%rax), %rax
	.loc 1 100 31 discriminator 1
	addq	$1, %rax
	.loc 1 100 46 discriminator 1
	jmp	.L4
.L2:
	.loc 1 100 31 discriminator 2
	movq	16(%rbp), %rax
	movq	8(%rax), %rax
.L4:
	.loc 1 100 54 discriminator 5
	popq	%rbp
	.cfi_restore 6
	.cfi_def_cfa 7, 8
	ret
	.cfi_endproc
.LFE310:
	.seh_endproc
	.text
	.def	_ZL9vsnprintfPcyPKcS_;	.scl	3;	.type	32;	.endef
	.seh_proc	_ZL9vsnprintfPcyPKcS_
_ZL9vsnprintfPcyPKcS_:
.LFB950:
	.file 2 "C:/Program Files/CodeBlocks/MinGW/x86_64-w64-mingw32/include/stdio.h"
	.loc 2 400 1
	.cfi_startproc
	pushq	%rbp
	.seh_pushreg	%rbp
	.cfi_def_cfa_offset 16
	.cfi_offset 6, -16
	movq	%rsp, %rbp
	.seh_setframe	%rbp, 0
	.cfi_def_cfa_register 6
	subq	$32, %rsp
	.seh_stackalloc	32
	.seh_endprologue
	movq	%rcx, 16(%rbp)
	movq	%rdx, 24(%rbp)
	movq	%r8, 32(%rbp)
	movq	%r9, 40(%rbp)
	.loc 2 401 27
	movq	40(%rbp), %rcx
	movq	32(%rbp), %rdx
	movq	24(%rbp), %rax
	movq	%rcx, %r9
	movq	%rdx, %r8
	movq	%rax, %rdx
	movq	16(%rbp), %rcx
	call	__mingw_vsnprintf
	.loc 2 402 1
	addq	$32, %rsp
	popq	%rbp
	.cfi_restore 6
	.cfi_def_cfa 7, 8
	ret
	.cfi_endproc
.LFE950:
	.seh_endproc
	.section .rdata,"dr"
.LC0:
	.ascii "%d\0"
	.section	.text$_ZNSt7__cxx119to_stringEi,"x"
	.linkonce discard
	.globl	_ZNSt7__cxx119to_stringEi
	.def	_ZNSt7__cxx119to_stringEi;	.scl	2;	.type	32;	.endef
	.seh_proc	_ZNSt7__cxx119to_stringEi
_ZNSt7__cxx119to_stringEi:
.LFB1284:
	.file 3 "C:/Program Files/CodeBlocks/MinGW/lib/gcc/x86_64-w64-mingw32/8.1.0/include/c++/bits/basic_string.h"
	.loc 3 6415 3
	.cfi_startproc
	pushq	%rbp
	.seh_pushreg	%rbp
	.cfi_def_cfa_offset 16
	.cfi_offset 6, -16
	movq	%rsp, %rbp
	.seh_setframe	%rbp, 0
	.cfi_def_cfa_register 6
	subq	$48, %rsp
	.seh_stackalloc	48
	.seh_endprologue
	movq	%rcx, 16(%rbp)
	movl	%edx, 24(%rbp)
	.loc 3 6416 20
	movq	16(%rbp), %rax
	movl	24(%rbp), %edx
	movl	%edx, 32(%rsp)
	leaq	.LC0(%rip), %r9
	movl	$16, %r8d
	leaq	_ZL9vsnprintfPcyPKcS_(%rip), %rdx
	movq	%rax, %rcx
	call	_ZN9__gnu_cxx12__to_xstringINSt7__cxx1112basic_stringIcSt11char_traitsIcESaIcEEEcEET_PFiPT0_yPKS8_PcEySB_z
	.loc 3 6416 23
	movq	16(%rbp), %rax
	addq	$48, %rsp
	popq	%rbp
	.cfi_restore 6
	.cfi_def_cfa 7, 8
	ret
	.cfi_endproc
.LFE1284:
	.seh_endproc
	.section	.text$_ZN10BaseObjectD2Ev,"x"
	.linkonce discard
	.align 2
	.globl	_ZN10BaseObjectD2Ev
	.def	_ZN10BaseObjectD2Ev;	.scl	2;	.type	32;	.endef
	.seh_proc	_ZN10BaseObjectD2Ev
_ZN10BaseObjectD2Ev:
.LFB1349:
	.file 4 "../../CalculadorNumerico/calculador/../padroes/baseobject.h"
	.loc 4 8 17
	.cfi_startproc
	pushq	%rbp
	.seh_pushreg	%rbp
	.cfi_def_cfa_offset 16
	.cfi_offset 6, -16
	movq	%rsp, %rbp
	.seh_setframe	%rbp, 0
	.cfi_def_cfa_register 6
	.seh_endprologue
	movq	%rcx, 16(%rbp)
.LBB2:
	.loc 4 8 31
	leaq	16+_ZTV10BaseObject(%rip), %rdx
	movq	16(%rbp), %rax
	movq	%rdx, (%rax)
.LBE2:
	.loc 4 8 32
	nop
	popq	%rbp
	.cfi_restore 6
	.cfi_def_cfa 7, 8
	ret
	.cfi_endproc
.LFE1349:
	.seh_endproc
	.section	.text$_ZN10BaseObjectD1Ev,"x"
	.linkonce discard
	.align 2
	.globl	_ZN10BaseObjectD1Ev
	.def	_ZN10BaseObjectD1Ev;	.scl	2;	.type	32;	.endef
	.seh_proc	_ZN10BaseObjectD1Ev
_ZN10BaseObjectD1Ev:
.LFB1350:
	.loc 4 8 17
	.cfi_startproc
	pushq	%rbp
	.seh_pushreg	%rbp
	.cfi_def_cfa_offset 16
	.cfi_offset 6, -16
	movq	%rsp, %rbp
	.seh_setframe	%rbp, 0
	.cfi_def_cfa_register 6
	.seh_endprologue
	movq	%rcx, 16(%rbp)
.LBB3:
	.loc 4 8 31
	leaq	16+_ZTV10BaseObject(%rip), %rdx
	movq	16(%rbp), %rax
	movq	%rdx, (%rax)
.LBE3:
	.loc 4 8 32
	nop
	popq	%rbp
	.cfi_restore 6
	.cfi_def_cfa 7, 8
	ret
	.cfi_endproc
.LFE1350:
	.seh_endproc
	.section	.text$_ZN10BaseObjectD0Ev,"x"
	.linkonce discard
	.align 2
	.globl	_ZN10BaseObjectD0Ev
	.def	_ZN10BaseObjectD0Ev;	.scl	2;	.type	32;	.endef
	.seh_proc	_ZN10BaseObjectD0Ev
_ZN10BaseObjectD0Ev:
.LFB1351:
	.loc 4 8 17
	.cfi_startproc
	pushq	%rbp
	.seh_pushreg	%rbp
	.cfi_def_cfa_offset 16
	.cfi_offset 6, -16
	movq	%rsp, %rbp
	.seh_setframe	%rbp, 0
	.cfi_def_cfa_register 6
	subq	$32, %rsp
	.seh_stackalloc	32
	.seh_endprologue
	movq	%rcx, 16(%rbp)
	.loc 4 8 32
	movq	16(%rbp), %rcx
	call	_ZN10BaseObjectD1Ev
	movq	16(%rbp), %rcx
	call	_ZdlPv
	nop
	addq	$32, %rsp
	popq	%rbp
	.cfi_restore 6
	.cfi_def_cfa 7, 8
	ret
	.cfi_endproc
.LFE1351:
	.seh_endproc
	.section	.text$_ZN16ElementosDisparo11getElevacaoEv,"x"
	.linkonce discard
	.align 2
	.globl	_ZN16ElementosDisparo11getElevacaoEv
	.def	_ZN16ElementosDisparo11getElevacaoEv;	.scl	2;	.type	32;	.endef
	.seh_proc	_ZN16ElementosDisparo11getElevacaoEv
_ZN16ElementosDisparo11getElevacaoEv:
.LFB1545:
	.file 5 "../../CalculadorNumerico/calculador/elementosdisparo.h"
	.loc 5 12 16
	.cfi_startproc
	pushq	%rbp
	.seh_pushreg	%rbp
	.cfi_def_cfa_offset 16
	.cfi_offset 6, -16
	movq	%rsp, %rbp
	.seh_setframe	%rbp, 0
	.cfi_def_cfa_register 6
	.seh_endprologue
	movq	%rcx, 16(%rbp)
	.loc 5 12 37
	movq	16(%rbp), %rax
	movsd	16(%rax), %xmm0
	movq	%xmm0, %rax
	.loc 5 12 46
	movq	%rax, %xmm0
	popq	%rbp
	.cfi_restore 6
	.cfi_def_cfa 7, 8
	ret
	.cfi_endproc
.LFE1545:
	.seh_endproc
	.section	.text$_ZN21CalculadorAtmosferico15setChecarLimiteEb,"x"
	.linkonce discard
	.align 2
	.globl	_ZN21CalculadorAtmosferico15setChecarLimiteEb
	.def	_ZN21CalculadorAtmosferico15setChecarLimiteEb;	.scl	2;	.type	32;	.endef
	.seh_proc	_ZN21CalculadorAtmosferico15setChecarLimiteEb
_ZN21CalculadorAtmosferico15setChecarLimiteEb:
.LFB1599:
	.file 6 "../../CalculadorNumerico/calculador/calculadorAtmosferico.h"
	.loc 6 37 14
	.cfi_startproc
	pushq	%rbp
	.seh_pushreg	%rbp
	.cfi_def_cfa_offset 16
	.cfi_offset 6, -16
	movq	%rsp, %rbp
	.seh_setframe	%rbp, 0
	.cfi_def_cfa_register 6
	.seh_endprologue
	movq	%rcx, 16(%rbp)
	movl	%edx, %eax
	movb	%al, 24(%rbp)
	.loc 6 37 68
	movq	16(%rbp), %rdx
	movzbl	24(%rbp), %eax
	movb	%al, 298(%rdx)
	.loc 6 37 83
	nop
	popq	%rbp
	.cfi_restore 6
	.cfi_def_cfa 7, 8
	ret
	.cfi_endproc
.LFE1599:
	.seh_endproc
	.section	.text$_ZN9wxPrivate17UntypedBufferDataD2Ev,"x"
	.linkonce discard
	.align 2
	.globl	_ZN9wxPrivate17UntypedBufferDataD2Ev
	.def	_ZN9wxPrivate17UntypedBufferDataD2Ev;	.scl	2;	.type	32;	.endef
	.seh_proc	_ZN9wxPrivate17UntypedBufferDataD2Ev
_ZN9wxPrivate17UntypedBufferDataD2Ev:
.LFB1664:
	.file 7 "../wxMSW-3.0.5_gcc810_x64_Dev/include/wx/buffer.h"
	.loc 7 41 5
	.cfi_startproc
	pushq	%rbp
	.seh_pushreg	%rbp
	.cfi_def_cfa_offset 16
	.cfi_offset 6, -16
	movq	%rsp, %rbp
	.seh_setframe	%rbp, 0
	.cfi_def_cfa_register 6
	subq	$32, %rsp
	.seh_stackalloc	32
	.seh_endprologue
	movq	%rcx, 16(%rbp)
.LBB4:
	.loc 7 43 14
	movq	16(%rbp), %rax
	movzbl	18(%rax), %eax
	.loc 7 43 9
	testb	%al, %al
	je	.L17
	.loc 7 44 17
	movq	16(%rbp), %rax
	movq	(%rax), %rax
	movq	%rax, %rcx
	call	free
.L17:
.LBE4:
	.loc 7 45 5
	nop
	addq	$32, %rsp
	popq	%rbp
	.cfi_restore 6
	.cfi_def_cfa 7, 8
	ret
	.cfi_endproc
.LFE1664:
	.seh_endproc
	.section	.text$_Z16wxGet_wxConvLibcv,"x"
	.linkonce discard
	.globl	_Z16wxGet_wxConvLibcv
	.def	_Z16wxGet_wxConvLibcv;	.scl	2;	.type	32;	.endef
	.seh_proc	_Z16wxGet_wxConvLibcv
_Z16wxGet_wxConvLibcv:
.LFB1852:
	.file 8 "../wxMSW-3.0.5_gcc810_x64_Dev/include/wx/strconv.h"
	.loc 8 576 109
	.cfi_startproc
	pushq	%rbp
	.seh_pushreg	%rbp
	.cfi_def_cfa_offset 16
	.cfi_offset 6, -16
	movq	%rsp, %rbp
	.seh_setframe	%rbp, 0
	.cfi_def_cfa_register 6
	subq	$32, %rsp
	.seh_stackalloc	32
	.seh_endprologue
	.loc 8 576 116
	movq	.refptr.wxConvLibcPtr(%rip), %rax
	movq	(%rax), %rax
	.loc 8 576 111
	testq	%rax, %rax
	jne	.L19
	.loc 8 576 168 discriminator 1
	call	_Z19wxGet_wxConvLibcPtrv
	movq	%rax, %rdx
	.loc 8 576 147 discriminator 1
	movq	.refptr.wxConvLibcPtr(%rip), %rax
	movq	%rdx, (%rax)
.L19:
	.loc 8 576 180 discriminator 3
	movq	.refptr.wxConvLibcPtr(%rip), %rax
	movq	(%rax), %rax
	.loc 8 576 195 discriminator 3
	addq	$32, %rsp
	popq	%rbp
	.cfi_restore 6
	.cfi_def_cfa 7, 8
	ret
	.cfi_endproc
.LFE1852:
	.seh_endproc
	.section	.text$_ZN8wxString17SubstrBufFromTypeI22wxScopedCharTypeBufferIwEED1Ev,"x"
	.linkonce discard
	.align 2
	.globl	_ZN8wxString17SubstrBufFromTypeI22wxScopedCharTypeBufferIwEED1Ev
	.def	_ZN8wxString17SubstrBufFromTypeI22wxScopedCharTypeBufferIwEED1Ev;	.scl	2;	.type	32;	.endef
	.seh_proc	_ZN8wxString17SubstrBufFromTypeI22wxScopedCharTypeBufferIwEED1Ev
_ZN8wxString17SubstrBufFromTypeI22wxScopedCharTypeBufferIwEED1Ev:
.LFB2325:
	.file 9 "../wxMSW-3.0.5_gcc810_x64_Dev/include/wx/string.h"
	.loc 9 425 10
	.cfi_startproc
	pushq	%rbp
	.seh_pushreg	%rbp
	.cfi_def_cfa_offset 16
	.cfi_offset 6, -16
	movq	%rsp, %rbp
	.seh_setframe	%rbp, 0
	.cfi_def_cfa_register 6
	subq	$32, %rsp
	.seh_stackalloc	32
	.seh_endprologue
	movq	%rcx, 16(%rbp)
.LBB5:
	.loc 9 425 10
	movq	16(%rbp), %rax
	movq	%rax, %rcx
	call	_ZN22wxScopedCharTypeBufferIwED1Ev
.LBE5:
	nop
	addq	$32, %rsp
	popq	%rbp
	.cfi_restore 6
	.cfi_def_cfa 7, 8
	ret
	.cfi_endproc
.LFE2325:
	.seh_endproc
	.section	.text$_ZN8wxString7ImplStrEPKcRK8wxMBConv,"x"
	.linkonce discard
	.globl	_ZN8wxString7ImplStrEPKcRK8wxMBConv
	.def	_ZN8wxString7ImplStrEPKcRK8wxMBConv;	.scl	2;	.type	32;	.endef
	.seh_proc	_ZN8wxString7ImplStrEPKcRK8wxMBConv
_ZN8wxString7ImplStrEPKcRK8wxMBConv:
.LFB2322:
	.loc 9 475 30
	.cfi_startproc
	pushq	%rbp
	.seh_pushreg	%rbp
	.cfi_def_cfa_offset 16
	.cfi_offset 6, -16
	pushq	%rbx
	.seh_pushreg	%rbx
	.cfi_def_cfa_offset 24
	.cfi_offset 3, -24
	subq	$56, %rsp
	.seh_stackalloc	56
	.cfi_def_cfa_offset 80
	leaq	128(%rsp), %rbp
	.seh_setframe	%rbp, 128
	.cfi_def_cfa 6, -48
	.seh_endprologue
	movq	%rcx, -48(%rbp)
	movq	%rdx, -40(%rbp)
	movq	%r8, -32(%rbp)
	.loc 9 477 24
	movq	.refptr._ZN8wxString4nposE(%rip), %rax
	movq	(%rax), %rcx
	leaq	-96(%rbp), %rax
	movq	-32(%rbp), %r8
	movq	-40(%rbp), %rdx
	movq	%r8, %r9
	movq	%rcx, %r8
	movq	%rax, %rcx
.LEHB0:
	call	_ZN8wxString10ConvertStrEPKcyRK8wxMBConv
.LEHE0:
	.loc 9 477 42
	leaq	-96(%rbp), %rax
	movq	%rax, %rdx
	movq	-48(%rbp), %rcx
.LEHB1:
	call	_ZN22wxScopedCharTypeBufferIwEC1ERKS0_
.LEHE1:
	nop
	.loc 9 477 24
	leaq	-96(%rbp), %rax
	movq	%rax, %rcx
	call	_ZN8wxString17SubstrBufFromTypeI22wxScopedCharTypeBufferIwEED1Ev
	.loc 9 477 42
	jmp	.L26
.L25:
	movq	%rax, %rbx
	.loc 9 477 24
	leaq	-96(%rbp), %rax
	movq	%rax, %rcx
	call	_ZN8wxString17SubstrBufFromTypeI22wxScopedCharTypeBufferIwEED1Ev
	movq	%rbx, %rax
	movq	%rax, %rcx
.LEHB2:
	call	_Unwind_Resume
.LEHE2:
.L26:
	.loc 9 477 48
	movq	-48(%rbp), %rax
	addq	$56, %rsp
	popq	%rbx
	.cfi_restore 3
	popq	%rbp
	.cfi_restore 6
	.cfi_def_cfa 7, -40
	ret
	.cfi_endproc
.LFE2322:
	.def	__gxx_personality_seh0;	.scl	2;	.type	32;	.endef
	.seh_handler	__gxx_personality_seh0, @unwind, @except
	.seh_handlerdata
.LLSDA2322:
	.byte	0xff
	.byte	0xff
	.byte	0x1
	.uleb128 .LLSDACSE2322-.LLSDACSB2322
.LLSDACSB2322:
	.uleb128 .LEHB0-.LFB2322
	.uleb128 .LEHE0-.LEHB0
	.uleb128 0
	.uleb128 0
	.uleb128 .LEHB1-.LFB2322
	.uleb128 .LEHE1-.LEHB1
	.uleb128 .L25-.LFB2322
	.uleb128 0
	.uleb128 .LEHB2-.LFB2322
	.uleb128 .LEHE2-.LEHB2
	.uleb128 0
	.uleb128 0
.LLSDACSE2322:
	.section	.text$_ZN8wxString7ImplStrEPKcRK8wxMBConv,"x"
	.linkonce discard
	.seh_endproc
	.section	.text$_ZN8wxString7ImplStrEPKcyRK8wxMBConv,"x"
	.linkonce discard
	.globl	_ZN8wxString7ImplStrEPKcyRK8wxMBConv
	.def	_ZN8wxString7ImplStrEPKcyRK8wxMBConv;	.scl	2;	.type	32;	.endef
	.seh_proc	_ZN8wxString7ImplStrEPKcyRK8wxMBConv
_ZN8wxString7ImplStrEPKcyRK8wxMBConv:
.LFB2326:
	.loc 9 478 26
	.cfi_startproc
	pushq	%rbp
	.seh_pushreg	%rbp
	.cfi_def_cfa_offset 16
	.cfi_offset 6, -16
	movq	%rsp, %rbp
	.seh_setframe	%rbp, 0
	.cfi_def_cfa_register 6
	subq	$32, %rsp
	.seh_stackalloc	32
	.seh_endprologue
	movq	%rcx, 16(%rbp)
	movq	%rdx, 24(%rbp)
	movq	%r8, 32(%rbp)
	movq	%r9, 40(%rbp)
	.loc 9 480 37
	movq	16(%rbp), %rax
	movq	40(%rbp), %r8
	movq	32(%rbp), %rcx
	movq	24(%rbp), %rdx
	movq	%r8, %r9
	movq	%rcx, %r8
	movq	%rax, %rcx
	call	_ZN8wxString10ConvertStrEPKcyRK8wxMBConv
	.loc 9 480 40
	movq	16(%rbp), %rax
	addq	$32, %rsp
	popq	%rbp
	.cfi_restore 6
	.cfi_def_cfa 7, 8
	ret
	.cfi_endproc
.LFE2326:
	.seh_endproc
	.section	.text$_ZN8wxStringD1Ev,"x"
	.linkonce discard
	.align 2
	.globl	_ZN8wxStringD1Ev
	.def	_ZN8wxStringD1Ev;	.scl	2;	.type	32;	.endef
	.seh_proc	_ZN8wxStringD1Ev
_ZN8wxStringD1Ev:
.LFB2402:
	.loc 9 393 7
	.cfi_startproc
	pushq	%rbp
	.seh_pushreg	%rbp
	.cfi_def_cfa_offset 16
	.cfi_offset 6, -16
	movq	%rsp, %rbp
	.seh_setframe	%rbp, 0
	.cfi_def_cfa_register 6
	subq	$32, %rsp
	.seh_stackalloc	32
	.seh_endprologue
	movq	%rcx, 16(%rbp)
.LBB6:
	.loc 9 393 7
	movq	16(%rbp), %rax
	addq	$32, %rax
	movq	%rax, %rcx
	call	_ZN8wxString15ConvertedBufferIcED1Ev
	movq	16(%rbp), %rax
	movq	%rax, %rcx
	call	_ZNSt7__cxx1112basic_stringIwSt11char_traitsIwESaIwEED1Ev
.LBE6:
	nop
	addq	$32, %rsp
	popq	%rbp
	.cfi_restore 6
	.cfi_def_cfa 7, 8
	ret
	.cfi_endproc
.LFE2402:
	.seh_endproc
	.section	.text$_ZN8wxStringC1EPKc,"x"
	.linkonce discard
	.align 2
	.globl	_ZN8wxStringC1EPKc
	.def	_ZN8wxStringC1EPKc;	.scl	2;	.type	32;	.endef
	.seh_proc	_ZN8wxStringC1EPKc
_ZN8wxStringC1EPKc:
.LFB2458:
	.loc 9 1241 3
	.cfi_startproc
	pushq	%rbp
	.seh_pushreg	%rbp
	.cfi_def_cfa_offset 16
	.cfi_offset 6, -16
	pushq	%rbx
	.seh_pushreg	%rbx
	.cfi_def_cfa_offset 24
	.cfi_offset 3, -24
	subq	$56, %rsp
	.seh_stackalloc	56
	.cfi_def_cfa_offset 80
	leaq	128(%rsp), %rbp
	.seh_setframe	%rbp, 128
	.cfi_def_cfa 6, -48
	.seh_endprologue
	movq	%rcx, -48(%rbp)
	movq	%rdx, -40(%rbp)
.LBB7:
	.loc 9 1242 26
	movq	-48(%rbp), %rbx
	leaq	-89(%rbp), %rax
	movq	%rax, %rcx
	call	_ZNSaIwEC1Ev
.LEHB3:
	.loc 9 1242 25
	call	_Z16wxGet_wxConvLibcv
	movq	%rax, %rcx
	.loc 9 1242 21
	leaq	-88(%rbp), %rax
	movq	-40(%rbp), %rdx
	movq	%rcx, %r8
	movq	%rax, %rcx
	call	_ZN8wxString7ImplStrEPKcRK8wxMBConv
.LEHE3:
	.loc 9 1242 26 discriminator 4
	leaq	-88(%rbp), %rax
	movq	%rax, %rcx
.LEHB4:
	call	_ZNK22wxScopedCharTypeBufferIwEcvPKwEv
	movq	%rax, %rdx
	leaq	-89(%rbp), %rax
	movq	%rax, %r8
	movq	%rbx, %rcx
	call	_ZNSt7__cxx1112basic_stringIwSt11char_traitsIwESaIwEEC1EPKwRKS3_
.LEHE4:
	.loc 9 1242 21 discriminator 8
	leaq	-88(%rbp), %rax
	movq	%rax, %rcx
	call	_ZN22wxScopedCharTypeBufferIwED1Ev
	.loc 9 1242 26 discriminator 8
	leaq	-89(%rbp), %rax
	movq	%rax, %rcx
	call	_ZNSaIwED1Ev
	movq	-48(%rbp), %rax
	addq	$32, %rax
	movq	%rax, %rcx
	call	_ZN8wxString15ConvertedBufferIcEC1Ev
.LBE7:
	.loc 9 1242 29 discriminator 8
	jmp	.L35
.L34:
	movq	%rax, %rbx
.LBB8:
	.loc 9 1242 21
	leaq	-88(%rbp), %rax
	movq	%rax, %rcx
	call	_ZN22wxScopedCharTypeBufferIwED1Ev
	jmp	.L32
.L33:
	movq	%rax, %rbx
.L32:
	.loc 9 1242 26 discriminator 3
	leaq	-89(%rbp), %rax
	movq	%rax, %rcx
	call	_ZNSaIwED1Ev
	movq	%rbx, %rax
	movq	%rax, %rcx
.LEHB5:
	call	_Unwind_Resume
	nop
.LEHE5:
.L35:
.LBE8:
	.loc 9 1242 29
	addq	$56, %rsp
	popq	%rbx
	.cfi_restore 3
	popq	%rbp
	.cfi_restore 6
	.cfi_def_cfa 7, -40
	ret
	.cfi_endproc
.LFE2458:
	.seh_handler	__gxx_personality_seh0, @unwind, @except
	.seh_handlerdata
.LLSDA2458:
	.byte	0xff
	.byte	0xff
	.byte	0x1
	.uleb128 .LLSDACSE2458-.LLSDACSB2458
.LLSDACSB2458:
	.uleb128 .LEHB3-.LFB2458
	.uleb128 .LEHE3-.LEHB3
	.uleb128 .L33-.LFB2458
	.uleb128 0
	.uleb128 .LEHB4-.LFB2458
	.uleb128 .LEHE4-.LEHB4
	.uleb128 .L34-.LFB2458
	.uleb128 0
	.uleb128 .LEHB5-.LFB2458
	.uleb128 .LEHE5-.LEHB5
	.uleb128 0
	.uleb128 0
.LLSDACSE2458:
	.section	.text$_ZN8wxStringC1EPKc,"x"
	.linkonce discard
	.seh_endproc
	.section	.text$_ZN8wxStringC1ERKNSt7__cxx1112basic_stringIcSt11char_traitsIcESaIcEEE,"x"
	.linkonce discard
	.align 2
	.globl	_ZN8wxStringC1ERKNSt7__cxx1112basic_stringIcSt11char_traitsIcESaIcEEE
	.def	_ZN8wxStringC1ERKNSt7__cxx1112basic_stringIcSt11char_traitsIcESaIcEEE;	.scl	2;	.type	32;	.endef
	.seh_proc	_ZN8wxStringC1ERKNSt7__cxx1112basic_stringIcSt11char_traitsIcESaIcEEE
_ZN8wxStringC1ERKNSt7__cxx1112basic_stringIcSt11char_traitsIcESaIcEEE:
.LFB2512:
	.loc 9 1327 5
	.cfi_startproc
	pushq	%rbp
	.seh_pushreg	%rbp
	.cfi_def_cfa_offset 16
	.cfi_offset 6, -16
	pushq	%rbx
	.seh_pushreg	%rbx
	.cfi_def_cfa_offset 24
	.cfi_offset 3, -24
	subq	$40, %rsp
	.seh_stackalloc	40
	.cfi_def_cfa_offset 64
	leaq	128(%rsp), %rbp
	.seh_setframe	%rbp, 128
	.cfi_def_cfa 6, -64
	.seh_endprologue
	movq	%rcx, -64(%rbp)
	movq	%rdx, -56(%rbp)
.LBB9:
	.loc 9 1328 9
	movq	-64(%rbp), %rax
	movq	%rax, %rcx
	call	_ZNSt7__cxx1112basic_stringIwSt11char_traitsIwESaIwEEC1Ev
	movq	-64(%rbp), %rax
	addq	$32, %rax
	movq	%rax, %rcx
	call	_ZN8wxString15ConvertedBufferIcEC1Ev
	.loc 9 1328 43
	movq	-56(%rbp), %rax
	movq	%rax, %rcx
	call	_ZNKSt7__cxx1112basic_stringIcSt11char_traitsIcESaIcEE6lengthEv
	movq	%rax, %rbx
	movq	-56(%rbp), %rax
	movq	%rax, %rcx
	call	_ZNKSt7__cxx1112basic_stringIcSt11char_traitsIcESaIcEE5c_strEv
	movq	%rbx, %r8
	movq	%rax, %rdx
	movq	-64(%rbp), %rcx
.LEHB6:
	call	_ZN8wxString6assignEPKcy
.LEHE6:
.LBE9:
	.loc 9 1328 46
	jmp	.L39
.L38:
	movq	%rax, %rbx
.LBB10:
	.loc 9 1328 9
	movq	-64(%rbp), %rax
	addq	$32, %rax
	movq	%rax, %rcx
	call	_ZN8wxString15ConvertedBufferIcED1Ev
	movq	-64(%rbp), %rax
	movq	%rax, %rcx
	call	_ZNSt7__cxx1112basic_stringIwSt11char_traitsIwESaIwEED1Ev
	movq	%rbx, %rax
	movq	%rax, %rcx
.LEHB7:
	call	_Unwind_Resume
	nop
.LEHE7:
.L39:
.LBE10:
	.loc 9 1328 46
	addq	$40, %rsp
	popq	%rbx
	.cfi_restore 3
	popq	%rbp
	.cfi_restore 6
	.cfi_def_cfa 7, -24
	ret
	.cfi_endproc
.LFE2512:
	.seh_handler	__gxx_personality_seh0, @unwind, @except
	.seh_handlerdata
.LLSDA2512:
	.byte	0xff
	.byte	0xff
	.byte	0x1
	.uleb128 .LLSDACSE2512-.LLSDACSB2512
.LLSDACSB2512:
	.uleb128 .LEHB6-.LFB2512
	.uleb128 .LEHE6-.LEHB6
	.uleb128 .L38-.LFB2512
	.uleb128 0
	.uleb128 .LEHB7-.LFB2512
	.uleb128 .LEHE7-.LEHB7
	.uleb128 0
	.uleb128 0
.LLSDACSE2512:
	.section	.text$_ZN8wxStringC1ERKNSt7__cxx1112basic_stringIcSt11char_traitsIcESaIcEEE,"x"
	.linkonce discard
	.seh_endproc
	.section	.text$_ZN8wxString6assignEPKcy,"x"
	.linkonce discard
	.align 2
	.globl	_ZN8wxString6assignEPKcy
	.def	_ZN8wxString6assignEPKcy;	.scl	2;	.type	32;	.endef
	.seh_proc	_ZN8wxString6assignEPKcy
_ZN8wxString6assignEPKcy:
.LFB2831:
	.loc 9 2633 13
	.cfi_startproc
	pushq	%rbp
	.seh_pushreg	%rbp
	.cfi_def_cfa_offset 16
	.cfi_offset 6, -16
	pushq	%rsi
	.seh_pushreg	%rsi
	.cfi_def_cfa_offset 24
	.cfi_offset 4, -24
	pushq	%rbx
	.seh_pushreg	%rbx
	.cfi_def_cfa_offset 32
	.cfi_offset 3, -32
	movq	%rsp, %rbp
	.seh_setframe	%rbp, 0
	.cfi_def_cfa_register 6
	subq	$48, %rsp
	.seh_stackalloc	48
	.seh_endprologue
	movq	%rcx, 32(%rbp)
	movq	%rdx, 40(%rbp)
	movq	%r8, 48(%rbp)
.LEHB8:
	.loc 9 2637 40
	call	_Z16wxGet_wxConvLibcv
	movq	%rax, %r8
	.loc 9 2637 41
	leaq	-16(%rbp), %rax
	movq	48(%rbp), %rcx
	movq	40(%rbp), %rdx
	movq	%r8, %r9
	movq	%rcx, %r8
	movq	%rax, %rcx
	call	_ZN8wxString7ImplStrEPKcyRK8wxMBConv
.LEHE8:
	.loc 9 2638 38
	movq	32(%rbp), %rbx
	movq	-8(%rbp), %rsi
	leaq	-16(%rbp), %rax
	movq	%rax, %rcx
.LEHB9:
	call	_ZNK22wxScopedCharTypeBufferIwEcvPKwEv
	movq	%rsi, %r8
	movq	%rax, %rdx
	movq	%rbx, %rcx
	call	_ZNSt7__cxx1112basic_stringIwSt11char_traitsIwESaIwEE6assignEPKwy
.LEHE9:
	.loc 9 2640 15
	movq	32(%rbp), %rbx
	.loc 9 2637 41
	leaq	-16(%rbp), %rax
	movq	%rax, %rcx
	call	_ZN8wxString17SubstrBufFromTypeI22wxScopedCharTypeBufferIwEED1Ev
	.loc 9 2640 15
	movq	%rbx, %rax
	jmp	.L44
.L43:
	movq	%rax, %rbx
	.loc 9 2637 41
	leaq	-16(%rbp), %rax
	movq	%rax, %rcx
	call	_ZN8wxString17SubstrBufFromTypeI22wxScopedCharTypeBufferIwEED1Ev
	movq	%rbx, %rax
	movq	%rax, %rcx
.LEHB10:
	call	_Unwind_Resume
.LEHE10:
.L44:
	.loc 9 2641 3
	addq	$48, %rsp
	popq	%rbx
	.cfi_restore 3
	popq	%rsi
	.cfi_restore 4
	popq	%rbp
	.cfi_restore 6
	.cfi_def_cfa 7, 24
	ret
	.cfi_endproc
.LFE2831:
	.seh_handler	__gxx_personality_seh0, @unwind, @except
	.seh_handlerdata
.LLSDA2831:
	.byte	0xff
	.byte	0xff
	.byte	0x1
	.uleb128 .LLSDACSE2831-.LLSDACSB2831
.LLSDACSB2831:
	.uleb128 .LEHB8-.LFB2831
	.uleb128 .LEHE8-.LEHB8
	.uleb128 0
	.uleb128 0
	.uleb128 .LEHB9-.LFB2831
	.uleb128 .LEHE9-.LEHB9
	.uleb128 .L43-.LFB2831
	.uleb128 0
	.uleb128 .LEHB10-.LFB2831
	.uleb128 .LEHE10-.LEHB10
	.uleb128 0
	.uleb128 0
.LLSDACSE2831:
	.section	.text$_ZN8wxString6assignEPKcy,"x"
	.linkonce discard
	.seh_endproc
	.section .rdata,"dr"
	.align 4
_ZL15wxInvalidOffset:
	.long	-1
	.section	.text$_ZN23wxCriticalSectionLockerC1ER17wxCriticalSection,"x"
	.linkonce discard
	.align 2
	.globl	_ZN23wxCriticalSectionLockerC1ER17wxCriticalSection
	.def	_ZN23wxCriticalSectionLockerC1ER17wxCriticalSection;	.scl	2;	.type	32;	.endef
	.seh_proc	_ZN23wxCriticalSectionLockerC1ER17wxCriticalSection
_ZN23wxCriticalSectionLockerC1ER17wxCriticalSection:
.LFB8060:
	.file 10 "../wxMSW-3.0.5_gcc810_x64_Dev/include/wx/thread.h"
	.loc 10 304 5
	.cfi_startproc
	pushq	%rbp
	.seh_pushreg	%rbp
	.cfi_def_cfa_offset 16
	.cfi_offset 6, -16
	movq	%rsp, %rbp
	.seh_setframe	%rbp, 0
	.cfi_def_cfa_register 6
	subq	$32, %rsp
	.seh_stackalloc	32
	.seh_endprologue
	movq	%rcx, 16(%rbp)
	movq	%rdx, 24(%rbp)
.LBB11:
	.loc 10 305 24
	movq	16(%rbp), %rax
	movq	24(%rbp), %rdx
	movq	%rdx, (%rax)
	.loc 10 307 9
	movq	16(%rbp), %rax
	movq	(%rax), %rax
	.loc 10 307 25
	movq	%rax, %rcx
	call	_ZN17wxCriticalSection5EnterEv
.LBE11:
	.loc 10 308 5
	nop
	addq	$32, %rsp
	popq	%rbp
	.cfi_restore 6
	.cfi_def_cfa 7, 8
	ret
	.cfi_endproc
.LFE8060:
	.seh_endproc
	.section	.text$_ZN23wxCriticalSectionLockerD1Ev,"x"
	.linkonce discard
	.align 2
	.globl	_ZN23wxCriticalSectionLockerD1Ev
	.def	_ZN23wxCriticalSectionLockerD1Ev;	.scl	2;	.type	32;	.endef
	.seh_proc	_ZN23wxCriticalSectionLockerD1Ev
_ZN23wxCriticalSectionLockerD1Ev:
.LFB8063:
	.loc 10 310 5
	.cfi_startproc
	pushq	%rbp
	.seh_pushreg	%rbp
	.cfi_def_cfa_offset 16
	.cfi_offset 6, -16
	movq	%rsp, %rbp
	.seh_setframe	%rbp, 0
	.cfi_def_cfa_register 6
	subq	$32, %rsp
	.seh_stackalloc	32
	.seh_endprologue
	movq	%rcx, 16(%rbp)
.LBB12:
	.loc 10 312 9
	movq	16(%rbp), %rax
	movq	(%rax), %rax
	.loc 10 312 25
	movq	%rax, %rcx
	call	_ZN17wxCriticalSection5LeaveEv
.LBE12:
	.loc 10 313 5
	nop
	addq	$32, %rsp
	popq	%rbp
	.cfi_restore 6
	.cfi_def_cfa 7, 8
	ret
	.cfi_endproc
.LFE8063:
	.seh_handler	__gxx_personality_seh0, @unwind, @except
	.seh_handlerdata
.LLSDA8063:
	.byte	0xff
	.byte	0xff
	.byte	0x1
	.uleb128 .LLSDACSE8063-.LLSDACSB8063
.LLSDACSB8063:
.LLSDACSE8063:
	.section	.text$_ZN23wxCriticalSectionLockerD1Ev,"x"
	.linkonce discard
	.seh_endproc
	.section	.text$_ZN8wxThread8OnDeleteEv,"x"
	.linkonce discard
	.align 2
	.globl	_ZN8wxThread8OnDeleteEv
	.def	_ZN8wxThread8OnDeleteEv;	.scl	2;	.type	32;	.endef
	.seh_proc	_ZN8wxThread8OnDeleteEv
_ZN8wxThread8OnDeleteEv:
.LFB8069:
	.loc 10 627 18
	.cfi_startproc
	pushq	%rbp
	.seh_pushreg	%rbp
	.cfi_def_cfa_offset 16
	.cfi_offset 6, -16
	movq	%rsp, %rbp
	.seh_setframe	%rbp, 0
	.cfi_def_cfa_register 6
	.seh_endprologue
	movq	%rcx, 16(%rbp)
	.loc 10 627 30
	nop
	popq	%rbp
	.cfi_restore 6
	.cfi_def_cfa 7, 8
	ret
	.cfi_endproc
.LFE8069:
	.seh_endproc
	.section	.text$_ZN8wxThread6OnKillEv,"x"
	.linkonce discard
	.align 2
	.globl	_ZN8wxThread6OnKillEv
	.def	_ZN8wxThread6OnKillEv;	.scl	2;	.type	32;	.endef
	.seh_proc	_ZN8wxThread6OnKillEv
_ZN8wxThread6OnKillEv:
.LFB8070:
	.loc 10 631 18
	.cfi_startproc
	pushq	%rbp
	.seh_pushreg	%rbp
	.cfi_def_cfa_offset 16
	.cfi_offset 6, -16
	movq	%rsp, %rbp
	.seh_setframe	%rbp, 0
	.cfi_def_cfa_register 6
	.seh_endprologue
	movq	%rcx, 16(%rbp)
	.loc 10 631 28
	nop
	popq	%rbp
	.cfi_restore 6
	.cfi_def_cfa 7, 8
	ret
	.cfi_endproc
.LFE8070:
	.seh_endproc
	.section	.text$_ZN8wxThread6OnExitEv,"x"
	.linkonce discard
	.align 2
	.globl	_ZN8wxThread6OnExitEv
	.def	_ZN8wxThread6OnExitEv;	.scl	2;	.type	32;	.endef
	.seh_proc	_ZN8wxThread6OnExitEv
_ZN8wxThread6OnExitEv:
.LFB8071:
	.loc 10 641 18
	.cfi_startproc
	pushq	%rbp
	.seh_pushreg	%rbp
	.cfi_def_cfa_offset 16
	.cfi_offset 6, -16
	movq	%rsp, %rbp
	.seh_setframe	%rbp, 0
	.cfi_def_cfa_register 6
	.seh_endprologue
	movq	%rcx, 16(%rbp)
	.loc 10 641 29
	nop
	popq	%rbp
	.cfi_restore 6
	.cfi_def_cfa 7, 8
	ret
	.cfi_endproc
.LFE8071:
	.seh_endproc
	.section	.text$_ZN20wxThreadHelperThread5EntryEv,"x"
	.linkonce discard
	.align 2
	.globl	_ZN20wxThreadHelperThread5EntryEv
	.def	_ZN20wxThreadHelperThread5EntryEv;	.scl	2;	.type	32;	.endef
	.seh_proc	_ZN20wxThreadHelperThread5EntryEv
_ZN20wxThreadHelperThread5EntryEv:
.LFB8086:
	.loc 10 767 1
	.cfi_startproc
	pushq	%rbp
	.seh_pushreg	%rbp
	.cfi_def_cfa_offset 16
	.cfi_offset 6, -16
	pushq	%rbx
	.seh_pushreg	%rbx
	.cfi_def_cfa_offset 24
	.cfi_offset 3, -24
	subq	$56, %rsp
	.seh_stackalloc	56
	.cfi_def_cfa_offset 80
	leaq	128(%rsp), %rbp
	.seh_setframe	%rbp, 128
	.cfi_def_cfa 6, -48
	.seh_endprologue
	movq	%rcx, -48(%rbp)
	.loc 10 768 27
	movq	-48(%rbp), %rax
	movq	64(%rax), %rdx
	movq	-48(%rbp), %rax
	movq	64(%rax), %rax
	.loc 10 768 41
	movq	(%rax), %rax
	addq	$16, %rax
	movq	(%rax), %rax
	.loc 10 768 40
	movq	%rdx, %rcx
	call	*%rax
.LVL0:
	movq	%rax, -88(%rbp)
	.loc 10 770 36
	movq	-48(%rbp), %rax
	movq	64(%rax), %rax
	.loc 10 770 44
	leaq	24(%rax), %rdx
	.loc 10 770 57
	leaq	-96(%rbp), %rax
	movq	%rax, %rcx
	call	_ZN23wxCriticalSectionLockerC1ER17wxCriticalSection
	.loc 10 776 10
	movq	-48(%rbp), %rax
	movq	64(%rax), %rax
	.loc 10 776 18
	movl	16(%rax), %eax
	.loc 10 776 5
	testl	%eax, %eax
	jne	.L51
	.loc 10 777 9
	movq	-48(%rbp), %rax
	movq	64(%rax), %rax
	.loc 10 777 26
	movq	$0, 8(%rax)
.L51:
	.loc 10 779 12
	movq	-88(%rbp), %rbx
	.loc 10 770 57
	leaq	-96(%rbp), %rax
	movq	%rax, %rcx
	call	_ZN23wxCriticalSectionLockerD1Ev
	.loc 10 779 12
	movq	%rbx, %rax
	.loc 10 780 1
	addq	$56, %rsp
	popq	%rbx
	.cfi_restore 3
	popq	%rbp
	.cfi_restore 6
	.cfi_def_cfa 7, -40
	ret
	.cfi_endproc
.LFE8086:
	.seh_endproc
	.section	.text$_ZN16wxTypeIdentifierC1EPKc,"x"
	.linkonce discard
	.align 2
	.globl	_ZN16wxTypeIdentifierC1EPKc
	.def	_ZN16wxTypeIdentifierC1EPKc;	.scl	2;	.type	32;	.endef
	.seh_proc	_ZN16wxTypeIdentifierC1EPKc
_ZN16wxTypeIdentifierC1EPKc:
.LFB8117:
	.file 11 "../wxMSW-3.0.5_gcc810_x64_Dev/include/wx/typeinfo.h"
	.loc 11 66 5
	.cfi_startproc
	pushq	%rbp
	.seh_pushreg	%rbp
	.cfi_def_cfa_offset 16
	.cfi_offset 6, -16
	movq	%rsp, %rbp
	.seh_setframe	%rbp, 0
	.cfi_def_cfa_register 6
	.seh_endprologue
	movq	%rcx, 16(%rbp)
	movq	%rdx, 24(%rbp)
.LBB13:
	.loc 11 68 21
	movq	16(%rbp), %rax
	movq	24(%rbp), %rdx
	movq	%rdx, (%rax)
.LBE13:
	.loc 11 69 5
	nop
	popq	%rbp
	.cfi_restore 6
	.cfi_def_cfa 7, 8
	ret
	.cfi_endproc
.LFE8117:
	.seh_endproc
	.section	.text$_ZN16wxTypeIdentifiereqERKS_,"x"
	.linkonce discard
	.align 2
	.globl	_ZN16wxTypeIdentifiereqERKS_
	.def	_ZN16wxTypeIdentifiereqERKS_;	.scl	2;	.type	32;	.endef
	.seh_proc	_ZN16wxTypeIdentifiereqERKS_
_ZN16wxTypeIdentifiereqERKS_:
.LFB8118:
	.loc 11 71 10
	.cfi_startproc
	pushq	%rbp
	.seh_pushreg	%rbp
	.cfi_def_cfa_offset 16
	.cfi_offset 6, -16
	movq	%rsp, %rbp
	.seh_setframe	%rbp, 0
	.cfi_def_cfa_register 6
	subq	$32, %rsp
	.seh_stackalloc	32
	.seh_endprologue
	movq	%rcx, 16(%rbp)
	movq	%rdx, 24(%rbp)
	.loc 11 73 42
	movq	24(%rbp), %rax
	movq	(%rax), %rdx
	.loc 11 73 22
	movq	16(%rbp), %rax
	movq	(%rax), %rax
	movq	%rax, %rcx
	call	strcmp
	.loc 11 73 58
	testl	%eax, %eax
	sete	%al
	.loc 11 74 5
	addq	$32, %rsp
	popq	%rbp
	.cfi_restore 6
	.cfi_def_cfa 7, 8
	ret
	.cfi_endproc
.LFE8118:
	.seh_endproc
	.section	.text$_ZNK20wxObjectEventFunctor10IsMatchingERK14wxEventFunctor,"x"
	.linkonce discard
	.align 2
	.globl	_ZNK20wxObjectEventFunctor10IsMatchingERK14wxEventFunctor
	.def	_ZNK20wxObjectEventFunctor10IsMatchingERK14wxEventFunctor;	.scl	2;	.type	32;	.endef
	.seh_proc	_ZNK20wxObjectEventFunctor10IsMatchingERK14wxEventFunctor
_ZNK20wxObjectEventFunctor10IsMatchingERK14wxEventFunctor:
.LFB9149:
	.file 12 "../wxMSW-3.0.5_gcc810_x64_Dev/include/wx/event.h"
	.loc 12 249 18
	.cfi_startproc
	pushq	%rbp
	.seh_pushreg	%rbp
	.cfi_def_cfa_offset 16
	.cfi_offset 6, -16
	movq	%rsp, %rbp
	.seh_setframe	%rbp, 0
	.cfi_def_cfa_register 6
	subq	$64, %rsp
	.seh_stackalloc	64
	.seh_endprologue
	movq	%rcx, 16(%rbp)
	movq	%rdx, 24(%rbp)
.LBB14:
	.loc 12 251 83
	movq	16(%rbp), %rax
	movq	(%rax), %rax
	subq	$8, %rax
	.loc 12 251 58
	movq	(%rax), %rax
	movq	%rax, %rcx
	call	_ZNKSt9type_info4nameEv
	movq	%rax, %rdx
	leaq	-24(%rbp), %rax
	movq	%rax, %rcx
	call	_ZN16wxTypeIdentifierC1EPKc
	.loc 12 251 38
	movq	24(%rbp), %rax
	movq	(%rax), %rax
	subq	$8, %rax
	.loc 12 251 14
	movq	(%rax), %rax
	movq	%rax, %rcx
	call	_ZNKSt9type_info4nameEv
	movq	%rax, %rdx
	leaq	-16(%rbp), %rax
	movq	%rax, %rcx
	call	_ZN16wxTypeIdentifierC1EPKc
	.loc 12 251 55
	leaq	-24(%rbp), %rdx
	leaq	-16(%rbp), %rax
	movq	%rax, %rcx
	call	_ZN16wxTypeIdentifiereqERKS_
	.loc 12 251 9
	testb	%al, %al
	je	.L57
.LBB15:
	.loc 12 253 41
	movq	24(%rbp), %rax
	movq	%rax, -8(%rbp)
	.loc 12 262 40
	movq	16(%rbp), %rax
	movq	16(%rax), %rdx
	movq	-8(%rbp), %rax
	movq	16(%rax), %rax
	.loc 12 262 74
	cmpq	%rax, %rdx
	jne	.L58
	.loc 12 262 40 discriminator 1
	movq	16(%rbp), %rax
	movq	24(%rax), %rdx
	movq	-8(%rbp), %rax
	movq	24(%rax), %rax
	.loc 12 262 31 discriminator 1
	cmpq	%rax, %rdx
	je	.L59
	.loc 12 262 40 discriminator 4
	movq	16(%rbp), %rax
	movq	16(%rax), %rax
	.loc 12 262 31 discriminator 4
	testq	%rax, %rax
	je	.L59
.L58:
	.loc 12 262 70 discriminator 6
	movq	-8(%rbp), %rax
	movq	16(%rax), %rax
	.loc 12 262 49 discriminator 6
	testq	%rax, %rax
	jne	.L60
.L59:
	.loc 12 263 22 discriminator 7
	movq	16(%rbp), %rax
	movq	8(%rax), %rdx
	.loc 12 263 41 discriminator 7
	movq	-8(%rbp), %rax
	movq	8(%rax), %rax
	.loc 12 262 74 discriminator 7
	cmpq	%rax, %rdx
	je	.L61
	.loc 12 263 60
	movq	-8(%rbp), %rax
	movq	8(%rax), %rax
	.loc 12 263 51
	testq	%rax, %rax
	jne	.L60
.L61:
	.loc 12 262 74 discriminator 9
	movl	$1, %eax
	.loc 12 263 77 discriminator 9
	jmp	.L63
.L60:
	.loc 12 262 74 discriminator 8
	movl	$0, %eax
	.loc 12 263 77 discriminator 8
	jmp	.L63
.L57:
.LBE15:
	.loc 12 266 20
	movl	$0, %eax
.L63:
.LBE14:
	.loc 12 267 5
	addq	$64, %rsp
	popq	%rbp
	.cfi_restore 6
	.cfi_def_cfa 7, 8
	ret
	.cfi_endproc
.LFE9149:
	.seh_endproc
	.section	.text$_ZNK20wxObjectEventFunctor13GetEvtHandlerEv,"x"
	.linkonce discard
	.align 2
	.globl	_ZNK20wxObjectEventFunctor13GetEvtHandlerEv
	.def	_ZNK20wxObjectEventFunctor13GetEvtHandlerEv;	.scl	2;	.type	32;	.endef
	.seh_proc	_ZNK20wxObjectEventFunctor13GetEvtHandlerEv
_ZNK20wxObjectEventFunctor13GetEvtHandlerEv:
.LFB9150:
	.loc 12 269 27
	.cfi_startproc
	pushq	%rbp
	.seh_pushreg	%rbp
	.cfi_def_cfa_offset 16
	.cfi_offset 6, -16
	movq	%rsp, %rbp
	.seh_setframe	%rbp, 0
	.cfi_def_cfa_register 6
	.seh_endprologue
	movq	%rcx, 16(%rbp)
	.loc 12 270 18
	movq	16(%rbp), %rax
	movq	8(%rax), %rax
	.loc 12 270 29
	popq	%rbp
	.cfi_restore 6
	.cfi_def_cfa 7, 8
	ret
	.cfi_endproc
.LFE9150:
	.seh_endproc
	.section	.text$_ZNK20wxObjectEventFunctor12GetEvtMethodEv,"x"
	.linkonce discard
	.align 2
	.globl	_ZNK20wxObjectEventFunctor12GetEvtMethodEv
	.def	_ZNK20wxObjectEventFunctor12GetEvtMethodEv;	.scl	2;	.type	32;	.endef
	.seh_proc	_ZNK20wxObjectEventFunctor12GetEvtMethodEv
_ZNK20wxObjectEventFunctor12GetEvtMethodEv:
.LFB9151:
	.loc 12 272 29
	.cfi_startproc
	pushq	%rbp
	.seh_pushreg	%rbp
	.cfi_def_cfa_offset 16
	.cfi_offset 6, -16
	movq	%rsp, %rbp
	.seh_setframe	%rbp, 0
	.cfi_def_cfa_register 6
	.seh_endprologue
	movq	%rcx, 16(%rbp)
	movq	%rdx, 24(%rbp)
	.loc 12 273 18
	movq	16(%rbp), %rcx
	movq	24(%rbp), %rax
	movq	24(%rax), %rdx
	movq	16(%rax), %rax
	movq	%rax, (%rcx)
	movq	%rdx, 8(%rcx)
	.loc 12 273 28
	movq	16(%rbp), %rax
	popq	%rbp
	.cfi_restore 6
	.cfi_def_cfa 7, 8
	ret
	.cfi_endproc
.LFE9151:
	.seh_endproc
	.section	.text$_ZN20wxObjectEventFunctorclEP12wxEvtHandlerR7wxEvent,"x"
	.linkonce discard
	.align 2
	.globl	_ZN20wxObjectEventFunctorclEP12wxEvtHandlerR7wxEvent
	.def	_ZN20wxObjectEventFunctorclEP12wxEvtHandlerR7wxEvent;	.scl	2;	.type	32;	.endef
	.seh_proc	_ZN20wxObjectEventFunctorclEP12wxEvtHandlerR7wxEvent
_ZN20wxObjectEventFunctorclEP12wxEvtHandlerR7wxEvent:
.LFB9949:
	.loc 12 3775 1
	.cfi_startproc
	pushq	%rbp
	.seh_pushreg	%rbp
	.cfi_def_cfa_offset 16
	.cfi_offset 6, -16
	movq	%rsp, %rbp
	.seh_setframe	%rbp, 0
	.cfi_def_cfa_register 6
	subq	$48, %rsp
	.seh_stackalloc	48
	.seh_endprologue
	movq	%rcx, 16(%rbp)
	movq	%rdx, 24(%rbp)
	movq	%r8, 32(%rbp)
	.loc 12 3776 40
	movq	16(%rbp), %rax
	movq	8(%rax), %rax
	.loc 12 3776 50
	testq	%rax, %rax
	je	.L69
	.loc 12 3776 50 is_stmt 0 discriminator 1
	movq	16(%rbp), %rax
	movq	8(%rax), %rax
	jmp	.L70
.L69:
	.loc 12 3776 50 discriminator 2
	movq	24(%rbp), %rax
.L70:
	.loc 12 3776 26 is_stmt 1 discriminator 4
	movq	%rax, -8(%rbp)
	.loc 12 3778 35 discriminator 4
	movq	16(%rbp), %rax
	movq	24(%rax), %rax
	.loc 12 3778 29 discriminator 4
	movq	%rax, %rdx
	movq	-8(%rbp), %rax
	leaq	(%rdx,%rax), %rcx
	.loc 12 3778 35 discriminator 4
	movq	16(%rbp), %rax
	movq	16(%rax), %rax
	andl	$1, %eax
	testq	%rax, %rax
	je	.L71
	.loc 12 3778 35 is_stmt 0 discriminator 1
	movq	16(%rbp), %rax
	movq	24(%rax), %rax
	movq	%rax, %rdx
	movq	-8(%rbp), %rax
	addq	%rdx, %rax
	movq	(%rax), %rdx
	movq	16(%rbp), %rax
	movq	16(%rax), %rax
	subq	$1, %rax
	addq	%rdx, %rax
	movq	(%rax), %rax
	jmp	.L72
.L71:
	.loc 12 3778 35 discriminator 2
	movq	16(%rbp), %rax
	movq	16(%rax), %rax
.L72:
	.loc 12 3778 29 is_stmt 1 discriminator 4
	movq	32(%rbp), %rdx
	call	*%rax
.LVL1:
	.loc 12 3779 1 discriminator 4
	nop
	addq	$48, %rsp
	popq	%rbp
	.cfi_restore 6
	.cfi_def_cfa 7, 8
	ret
	.cfi_endproc
.LFE9949:
	.seh_endproc
	.section .rdata,"dr"
_ZL19wxALPHA_TRANSPARENT:
	.space 1
_ZL14wxALPHA_OPAQUE:
	.byte	-1
.lcomm _ZStL8__ioinit,1,1
	.align 4
_ZL21wxOutOfRangeTextCoord:
	.long	-1
	.align 4
_ZL18wxInvalidTextCoord:
	.long	-2
	.section	.text$_ZN10BaseObjectC2ERKS_,"x"
	.linkonce discard
	.align 2
	.globl	_ZN10BaseObjectC2ERKS_
	.def	_ZN10BaseObjectC2ERKS_;	.scl	2;	.type	32;	.endef
	.seh_proc	_ZN10BaseObjectC2ERKS_
_ZN10BaseObjectC2ERKS_:
.LFB10895:
	.loc 4 5 7
	.cfi_startproc
	pushq	%rbp
	.seh_pushreg	%rbp
	.cfi_def_cfa_offset 16
	.cfi_offset 6, -16
	movq	%rsp, %rbp
	.seh_setframe	%rbp, 0
	.cfi_def_cfa_register 6
	.seh_endprologue
	movq	%rcx, 16(%rbp)
	movq	%rdx, 24(%rbp)
.LBB16:
	.loc 4 5 7
	leaq	16+_ZTV10BaseObject(%rip), %rdx
	movq	16(%rbp), %rax
	movq	%rdx, (%rax)
.LBE16:
	nop
	popq	%rbp
	.cfi_restore 6
	.cfi_def_cfa 7, 8
	ret
	.cfi_endproc
.LFE10895:
	.seh_endproc
	.section	.text$_ZN10BaseObjectaSERKS_,"x"
	.linkonce discard
	.align 2
	.globl	_ZN10BaseObjectaSERKS_
	.def	_ZN10BaseObjectaSERKS_;	.scl	2;	.type	32;	.endef
	.seh_proc	_ZN10BaseObjectaSERKS_
_ZN10BaseObjectaSERKS_:
.LFB10933:
	.loc 4 5 7
	.cfi_startproc
	pushq	%rbp
	.seh_pushreg	%rbp
	.cfi_def_cfa_offset 16
	.cfi_offset 6, -16
	movq	%rsp, %rbp
	.seh_setframe	%rbp, 0
	.cfi_def_cfa_register 6
	.seh_endprologue
	movq	%rcx, 16(%rbp)
	movq	%rdx, 24(%rbp)
	.loc 4 5 7
	movq	16(%rbp), %rax
	popq	%rbp
	.cfi_restore 6
	.cfi_def_cfa 7, 8
	ret
	.cfi_endproc
.LFE10933:
	.seh_endproc
	.section .rdata,"dr"
_ZStL13allocator_arg:
	.space 1
_ZStL6ignore:
	.space 1
	.section	.text$_ZN12Configuracao26isExibirNumeroLinhaBoletimEv,"x"
	.linkonce discard
	.align 2
	.globl	_ZN12Configuracao26isExibirNumeroLinhaBoletimEv
	.def	_ZN12Configuracao26isExibirNumeroLinhaBoletimEv;	.scl	2;	.type	32;	.endef
	.seh_proc	_ZN12Configuracao26isExibirNumeroLinhaBoletimEv
_ZN12Configuracao26isExibirNumeroLinhaBoletimEv:
.LFB11220:
	.file 13 "C:/temp/ballisticKernelCpp/interfaceGrafica/calculadorBalisiticaGraficoWindows/configuracao.h"
	.loc 13 63 14
	.cfi_startproc
	pushq	%rbp
	.seh_pushreg	%rbp
	.cfi_def_cfa_offset 16
	.cfi_offset 6, -16
	movq	%rsp, %rbp
	.seh_setframe	%rbp, 0
	.cfi_def_cfa_register 6
	.seh_endprologue
	movq	%rcx, 16(%rbp)
	.loc 13 63 50
	movq	16(%rbp), %rax
	movzbl	89(%rax), %eax
	.loc 13 63 75
	popq	%rbp
	.cfi_restore 6
	.cfi_def_cfa 7, 8
	ret
	.cfi_endproc
.LFE11220:
	.seh_endproc
	.section	.text$_ZN12Configuracao32isExibirValoresQuaseConvergentesEv,"x"
	.linkonce discard
	.align 2
	.globl	_ZN12Configuracao32isExibirValoresQuaseConvergentesEv
	.def	_ZN12Configuracao32isExibirValoresQuaseConvergentesEv;	.scl	2;	.type	32;	.endef
	.seh_proc	_ZN12Configuracao32isExibirValoresQuaseConvergentesEv
_ZN12Configuracao32isExibirValoresQuaseConvergentesEv:
.LFB11222:
	.loc 13 65 14
	.cfi_startproc
	pushq	%rbp
	.seh_pushreg	%rbp
	.cfi_def_cfa_offset 16
	.cfi_offset 6, -16
	movq	%rsp, %rbp
	.seh_setframe	%rbp, 0
	.cfi_def_cfa_register 6
	.seh_endprologue
	movq	%rcx, 16(%rbp)
	.loc 13 65 56
	movq	16(%rbp), %rax
	movzbl	88(%rax), %eax
	.loc 13 65 87
	popq	%rbp
	.cfi_restore 6
	.cfi_def_cfa 7, 8
	ret
	.cfi_endproc
.LFE11222:
	.seh_endproc
	.section	.text$_ZN7MathArt5arredEd,"x"
	.linkonce discard
	.globl	_ZN7MathArt5arredEd
	.def	_ZN7MathArt5arredEd;	.scl	2;	.type	32;	.endef
	.seh_proc	_ZN7MathArt5arredEd
_ZN7MathArt5arredEd:
.LFB11282:
	.file 14 "../../MathArt/mathart.h"
	.loc 14 27 16
	.cfi_startproc
	pushq	%rbp
	.seh_pushreg	%rbp
	.cfi_def_cfa_offset 16
	.cfi_offset 6, -16
	movq	%rsp, %rbp
	.seh_setframe	%rbp, 0
	.cfi_def_cfa_register 6
	subq	$32, %rsp
	.seh_stackalloc	32
	.seh_endprologue
	movsd	%xmm0, 16(%rbp)
	.loc 14 30 26
	movsd	16(%rbp), %xmm0
	call	floor
	movapd	%xmm0, %xmm1
	.loc 14 30 19
	movsd	16(%rbp), %xmm0
	subsd	%xmm1, %xmm0
	.loc 14 30 34
	movsd	.LC1(%rip), %xmm1
	subsd	%xmm1, %xmm0
	.loc 14 30 9
	pxor	%xmm1, %xmm1
	comisd	%xmm1, %xmm0
	jbe	.L85
	.loc 14 31 28
	movsd	16(%rbp), %xmm0
	call	ceil
	.loc 14 31 35
	cvttsd2si	%xmm0, %eax
	jmp	.L83
.L85:
	.loc 14 33 29
	movsd	16(%rbp), %xmm0
	call	floor
	.loc 14 33 36
	cvttsd2si	%xmm0, %eax
.L83:
	.loc 14 34 5
	addq	$32, %rsp
	popq	%rbp
	.cfi_restore 6
	.cfi_def_cfa 7, 8
	ret
	.cfi_endproc
.LFE11282:
	.seh_endproc
	.section	.text$_ZN16ElementosDisparoC1ERKS_,"x"
	.linkonce discard
	.align 2
	.globl	_ZN16ElementosDisparoC1ERKS_
	.def	_ZN16ElementosDisparoC1ERKS_;	.scl	2;	.type	32;	.endef
	.seh_proc	_ZN16ElementosDisparoC1ERKS_
_ZN16ElementosDisparoC1ERKS_:
.LFB11316:
	.loc 5 6 7
	.cfi_startproc
	pushq	%rbp
	.seh_pushreg	%rbp
	.cfi_def_cfa_offset 16
	.cfi_offset 6, -16
	movq	%rsp, %rbp
	.seh_setframe	%rbp, 0
	.cfi_def_cfa_register 6
	subq	$32, %rsp
	.seh_stackalloc	32
	.seh_endprologue
	movq	%rcx, 16(%rbp)
	movq	%rdx, 24(%rbp)
.LBB17:
	.loc 5 6 7
	movq	16(%rbp), %rax
	movq	24(%rbp), %rdx
	movq	%rax, %rcx
	call	_ZN10BaseObjectC2ERKS_
	leaq	16+_ZTV16ElementosDisparo(%rip), %rdx
	movq	16(%rbp), %rax
	movq	%rdx, (%rax)
	movq	24(%rbp), %rax
	movzbl	8(%rax), %eax
	movq	16(%rbp), %rdx
	movb	%al, 8(%rdx)
	movq	24(%rbp), %rax
	movsd	16(%rax), %xmm0
	movq	16(%rbp), %rax
	movsd	%xmm0, 16(%rax)
	movq	24(%rbp), %rax
	movsd	24(%rax), %xmm0
	movq	16(%rbp), %rax
	movsd	%xmm0, 24(%rax)
.LBE17:
	nop
	addq	$32, %rsp
	popq	%rbp
	.cfi_restore 6
	.cfi_def_cfa 7, 8
	ret
	.cfi_endproc
.LFE11316:
	.seh_endproc
	.section	.text$_ZN20ExceptionConvergence19getElementosDisparoEv,"x"
	.linkonce discard
	.align 2
	.globl	_ZN20ExceptionConvergence19getElementosDisparoEv
	.def	_ZN20ExceptionConvergence19getElementosDisparoEv;	.scl	2;	.type	32;	.endef
	.seh_proc	_ZN20ExceptionConvergence19getElementosDisparoEv
_ZN20ExceptionConvergence19getElementosDisparoEv:
.LFB11313:
	.file 15 "../../CalculadorNumerico/excecoes/ExceptionConvergence.h"
	.loc 15 16 26
	.cfi_startproc
	pushq	%rbp
	.seh_pushreg	%rbp
	.cfi_def_cfa_offset 16
	.cfi_offset 6, -16
	movq	%rsp, %rbp
	.seh_setframe	%rbp, 0
	.cfi_def_cfa_register 6
	subq	$32, %rsp
	.seh_stackalloc	32
	.seh_endprologue
	movq	%rcx, 16(%rbp)
	movq	%rdx, 24(%rbp)
	.loc 15 16 55
	movq	24(%rbp), %rax
	addq	$8, %rax
	movq	%rax, %rdx
	movq	16(%rbp), %rcx
	call	_ZN16ElementosDisparoC1ERKS_
	.loc 15 16 72
	movq	16(%rbp), %rax
	addq	$32, %rsp
	popq	%rbp
	.cfi_restore 6
	.cfi_def_cfa 7, 8
	ret
	.cfi_endproc
.LFE11313:
	.seh_endproc
	.section	.text$_ZN25ExceptionQuasiConvergence19getElementosDisparoEv,"x"
	.linkonce discard
	.align 2
	.globl	_ZN25ExceptionQuasiConvergence19getElementosDisparoEv
	.def	_ZN25ExceptionQuasiConvergence19getElementosDisparoEv;	.scl	2;	.type	32;	.endef
	.seh_proc	_ZN25ExceptionQuasiConvergence19getElementosDisparoEv
_ZN25ExceptionQuasiConvergence19getElementosDisparoEv:
.LFB11321:
	.file 16 "../../CalculadorNumerico/excecoes/exceptionQuasiConvergence.h"
	.loc 16 16 26
	.cfi_startproc
	pushq	%rbp
	.seh_pushreg	%rbp
	.cfi_def_cfa_offset 16
	.cfi_offset 6, -16
	movq	%rsp, %rbp
	.seh_setframe	%rbp, 0
	.cfi_def_cfa_register 6
	subq	$32, %rsp
	.seh_stackalloc	32
	.seh_endprologue
	movq	%rcx, 16(%rbp)
	movq	%rdx, 24(%rbp)
	.loc 16 16 55
	movq	24(%rbp), %rax
	addq	$8, %rax
	movq	%rax, %rdx
	movq	16(%rbp), %rcx
	call	_ZN16ElementosDisparoC1ERKS_
	.loc 16 16 72
	movq	16(%rbp), %rax
	addq	$32, %rsp
	popq	%rbp
	.cfi_restore 6
	.cfi_def_cfa 7, 8
	ret
	.cfi_endproc
.LFE11321:
	.seh_endproc
	.section	.text$_ZN19ExceptionTrajectory19getElementosDisparoEv,"x"
	.linkonce discard
	.align 2
	.globl	_ZN19ExceptionTrajectory19getElementosDisparoEv
	.def	_ZN19ExceptionTrajectory19getElementosDisparoEv;	.scl	2;	.type	32;	.endef
	.seh_proc	_ZN19ExceptionTrajectory19getElementosDisparoEv
_ZN19ExceptionTrajectory19getElementosDisparoEv:
.LFB11326:
	.file 17 "../../CalculadorNumerico/excecoes/exceptionTrajectory.h"
	.loc 17 15 26
	.cfi_startproc
	pushq	%rbp
	.seh_pushreg	%rbp
	.cfi_def_cfa_offset 16
	.cfi_offset 6, -16
	movq	%rsp, %rbp
	.seh_setframe	%rbp, 0
	.cfi_def_cfa_register 6
	subq	$32, %rsp
	.seh_stackalloc	32
	.seh_endprologue
	movq	%rcx, 16(%rbp)
	movq	%rdx, 24(%rbp)
	.loc 17 15 55
	movq	24(%rbp), %rax
	addq	$8, %rax
	movq	%rax, %rdx
	movq	16(%rbp), %rcx
	call	_ZN16ElementosDisparoC1ERKS_
	.loc 17 15 72
	movq	16(%rbp), %rax
	addq	$32, %rsp
	popq	%rbp
	.cfi_restore 6
	.cfi_def_cfa 7, 8
	ret
	.cfi_endproc
.LFE11326:
	.seh_endproc
	.text
	.align 2
	.globl	_ZN15GeradorTabularBC2EP10wxTextCtrl
	.def	_ZN15GeradorTabularBC2EP10wxTextCtrl;	.scl	2;	.type	32;	.endef
	.seh_proc	_ZN15GeradorTabularBC2EP10wxTextCtrl
_ZN15GeradorTabularBC2EP10wxTextCtrl:
.LFB11338:
	.file 18 "C:/temp/ballisticKernelCpp/interfaceGrafica/calculadorBalisiticaGraficoWindows/tabelaDialog/geradorTabularB.cpp"
	.loc 18 11 1
	.cfi_startproc
	pushq	%rbp
	.seh_pushreg	%rbp
	.cfi_def_cfa_offset 16
	.cfi_offset 6, -16
	movq	%rsp, %rbp
	.seh_setframe	%rbp, 0
	.cfi_def_cfa_register 6
	subq	$32, %rsp
	.seh_stackalloc	32
	.seh_endprologue
	movq	%rcx, 16(%rbp)
	movq	%rdx, 24(%rbp)
.LBB18:
	.loc 18 11 85
	movq	16(%rbp), %rax
	movq	24(%rbp), %rdx
	movq	%rax, %rcx
	call	_ZN14GeradorTabularC2EP10wxTextCtrl
	leaq	16+_ZTV15GeradorTabularB(%rip), %rdx
	movq	16(%rbp), %rax
	movq	%rdx, (%rax)
.LBE18:
	.loc 18 14 1
	nop
	addq	$32, %rsp
	popq	%rbp
	.cfi_restore 6
	.cfi_def_cfa 7, 8
	ret
	.cfi_endproc
.LFE11338:
	.seh_endproc
	.globl	_ZN15GeradorTabularBC1EP10wxTextCtrl
	.def	_ZN15GeradorTabularBC1EP10wxTextCtrl;	.scl	2;	.type	32;	.endef
	.set	_ZN15GeradorTabularBC1EP10wxTextCtrl,_ZN15GeradorTabularBC2EP10wxTextCtrl
	.section	.text$_ZN16ElementosDisparoaSEOS_,"x"
	.linkonce discard
	.align 2
	.globl	_ZN16ElementosDisparoaSEOS_
	.def	_ZN16ElementosDisparoaSEOS_;	.scl	2;	.type	32;	.endef
	.seh_proc	_ZN16ElementosDisparoaSEOS_
_ZN16ElementosDisparoaSEOS_:
.LFB11344:
	.loc 5 6 7
	.cfi_startproc
	pushq	%rbp
	.seh_pushreg	%rbp
	.cfi_def_cfa_offset 16
	.cfi_offset 6, -16
	movq	%rsp, %rbp
	.seh_setframe	%rbp, 0
	.cfi_def_cfa_register 6
	subq	$32, %rsp
	.seh_stackalloc	32
	.seh_endprologue
	movq	%rcx, 16(%rbp)
	movq	%rdx, 24(%rbp)
	.loc 5 6 7
	movq	16(%rbp), %rax
	movq	24(%rbp), %rdx
	movq	%rax, %rcx
	call	_ZN10BaseObjectaSERKS_
	movq	24(%rbp), %rax
	movzbl	8(%rax), %eax
	movq	16(%rbp), %rdx
	movb	%al, 8(%rdx)
	movq	24(%rbp), %rax
	movsd	16(%rax), %xmm0
	movq	16(%rbp), %rax
	movsd	%xmm0, 16(%rax)
	movq	24(%rbp), %rax
	movsd	24(%rax), %xmm0
	movq	16(%rbp), %rax
	movsd	%xmm0, 24(%rax)
	movq	16(%rbp), %rax
	addq	$32, %rsp
	popq	%rbp
	.cfi_restore 6
	.cfi_def_cfa 7, 8
	ret
	.cfi_endproc
.LFE11344:
	.seh_endproc
	.section	.text$_ZN12ElementosVooaSEOS_,"x"
	.linkonce discard
	.align 2
	.globl	_ZN12ElementosVooaSEOS_
	.def	_ZN12ElementosVooaSEOS_;	.scl	2;	.type	32;	.endef
	.seh_proc	_ZN12ElementosVooaSEOS_
_ZN12ElementosVooaSEOS_:
.LFB11345:
	.file 19 "../../CalculadorNumerico/calculador/elementosvoo.h"
	.loc 19 7 7
	.cfi_startproc
	pushq	%rbp
	.seh_pushreg	%rbp
	.cfi_def_cfa_offset 16
	.cfi_offset 6, -16
	movq	%rsp, %rbp
	.seh_setframe	%rbp, 0
	.cfi_def_cfa_register 6
	subq	$32, %rsp
	.seh_stackalloc	32
	.seh_endprologue
	movq	%rcx, 16(%rbp)
	movq	%rdx, 24(%rbp)
	.loc 19 7 7
	movq	16(%rbp), %rax
	movq	24(%rbp), %rdx
	movq	%rax, %rcx
	call	_ZN10BaseObjectaSERKS_
	movq	24(%rbp), %rax
	movsd	8(%rax), %xmm0
	movq	16(%rbp), %rax
	movsd	%xmm0, 8(%rax)
	movq	24(%rbp), %rax
	movsd	16(%rax), %xmm0
	movq	16(%rbp), %rax
	movsd	%xmm0, 16(%rax)
	movq	24(%rbp), %rax
	movsd	24(%rax), %xmm0
	movq	16(%rbp), %rax
	movsd	%xmm0, 24(%rax)
	movq	24(%rbp), %rax
	movsd	32(%rax), %xmm0
	movq	16(%rbp), %rax
	movsd	%xmm0, 32(%rax)
	movq	24(%rbp), %rax
	movsd	40(%rax), %xmm0
	movq	16(%rbp), %rax
	movsd	%xmm0, 40(%rax)
	movq	24(%rbp), %rax
	movsd	48(%rax), %xmm0
	movq	16(%rbp), %rax
	movsd	%xmm0, 48(%rax)
	movq	24(%rbp), %rax
	movsd	56(%rax), %xmm0
	movq	16(%rbp), %rax
	movsd	%xmm0, 56(%rax)
	movq	24(%rbp), %rax
	movsd	64(%rax), %xmm0
	movq	16(%rbp), %rax
	movsd	%xmm0, 64(%rax)
	movq	24(%rbp), %rax
	movsd	72(%rax), %xmm0
	movq	16(%rbp), %rax
	movsd	%xmm0, 72(%rax)
	movq	24(%rbp), %rax
	movsd	80(%rax), %xmm0
	movq	16(%rbp), %rax
	movsd	%xmm0, 80(%rax)
	movq	24(%rbp), %rax
	movsd	88(%rax), %xmm0
	movq	16(%rbp), %rax
	movsd	%xmm0, 88(%rax)
	movq	16(%rbp), %rax
	addq	$32, %rsp
	popq	%rbp
	.cfi_restore 6
	.cfi_def_cfa 7, 8
	ret
	.cfi_endproc
.LFE11345:
	.seh_endproc
	.section .rdata,"dr"
.LC4:
	.ascii "Tabela B \0"
.LC5:
	.ascii "Mergulhante\0"
.LC6:
	.ascii "Vertical\0"
.LC7:
	.ascii " m/s  \0"
.LC8:
	.ascii "\12\0"
.LC9:
	.ascii "Legenda:\12\0"
	.align 8
.LC10:
	.ascii "   - O primeiro n\372mero \351 o alcance complementar.\12\0"
	.align 8
.LC11:
	.ascii "   - O segundo n\372mero, se habilitado nos par\342metros, \351 a linha do boletim de 12 colunas.\12\0"
	.align 8
.LC12:
	.ascii "   - \"Conv\": n\343o houve converg\352ncia para um valor v\341lido para este par alcance\\desn\355vel.\12\0"
	.align 8
.LC13:
	.ascii "   - \"Quase\": converg\352ncia para um valor pr\363ximo a este par alcance\\desn\355vel.\12\12\0"
	.align 8
.LC14:
	.ascii "\11-400\11-300\11-200\11-100\11"
	.ascii "0\11"
	.ascii "100\11"
	.ascii "200\11"
	.ascii "300\11"
	.ascii "400\11"
	.ascii "500\11"
	.ascii "600\11"
	.ascii "700\11"
	.ascii "800\11"
	.ascii "900\11"
	.ascii "1000\11\12\0"
.LC15:
	.ascii "\11\0"
.LC16:
	.ascii "/\0"
.LC17:
	.ascii "\0"
.LC18:
	.ascii "0\0"
.LC19:
	.ascii "\11|\0"
.LC24:
	.ascii "FIM\12\12\12\0"
	.align 8
.LC25:
	.ascii "Nao foi possivel convergir para este alcance\12\0"
	.align 8
.LC26:
	.ascii "Convergencia parcial para este alcance.\12\0"
	.align 8
.LC27:
	.ascii "\12Limite de validade do Modelo.\12\0"
.LC28:
	.ascii "Quase\11|\0"
.LC30:
	.ascii "Quase\11\0"
.LC31:
	.ascii "Conv\11|\0"
	.text
	.align 2
	.globl	_ZN15GeradorTabularB11gerarTabelaEP21CalculadorAtmosfericod15TIPO_TRAJETORIAdd
	.def	_ZN15GeradorTabularB11gerarTabelaEP21CalculadorAtmosfericod15TIPO_TRAJETORIAdd;	.scl	2;	.type	32;	.endef
	.seh_proc	_ZN15GeradorTabularB11gerarTabelaEP21CalculadorAtmosfericod15TIPO_TRAJETORIAdd
_ZN15GeradorTabularB11gerarTabelaEP21CalculadorAtmosfericod15TIPO_TRAJETORIAdd:
.LFB11340:
	.loc 18 18 1
	.cfi_startproc
	pushq	%rbp
	.seh_pushreg	%rbp
	.cfi_def_cfa_offset 16
	.cfi_offset 6, -16
	pushq	%rdi
	.seh_pushreg	%rdi
	.cfi_def_cfa_offset 24
	.cfi_offset 5, -24
	pushq	%rsi
	.seh_pushreg	%rsi
	.cfi_def_cfa_offset 32
	.cfi_offset 4, -32
	pushq	%rbx
	.seh_pushreg	%rbx
	.cfi_def_cfa_offset 40
	.cfi_offset 3, -40
	subq	$3000, %rsp
	.seh_stackalloc	3000
	.cfi_def_cfa_offset 3040
	leaq	128(%rsp), %rbp
	.seh_setframe	%rbp, 128
	.cfi_def_cfa 6, 2912
	.seh_endprologue
	movq	%rcx, 2912(%rbp)
	movq	%rdx, 2920(%rbp)
	movsd	%xmm2, 2928(%rbp)
	movl	%r9d, 2936(%rbp)
	.loc 18 19 18
	movsd	.LC3(%rip), %xmm0
	movsd	%xmm0, 2816(%rbp)
	.loc 18 20 18
	leaq	256(%rbp), %rax
	movq	%rax, %rcx
.LEHB11:
	call	_ZN12ElementosVooC1Ev
.LEHE11:
	.loc 18 21 19
	leaq	224(%rbp), %rax
	movq	%rax, %rcx
.LEHB12:
	call	_ZN16ElementosDisparoC1Ev
.LEHE12:
	.loc 18 22 72
	leaq	128(%rbp), %rax
	movsd	2944(%rbp), %xmm1
	movsd	2928(%rbp), %xmm0
	movq	2920(%rbp), %rdx
	movapd	%xmm1, %xmm3
	movapd	%xmm0, %xmm2
	movq	%rax, %rcx
.LEHB13:
	call	_ZN21CalculadorAtmosferico6limiteEdd
.LEHE13:
	.loc 18 23 47
	movsd	144(%rbp), %xmm0
	.loc 18 23 6
	cvttsd2si	%xmm0, %eax
	movl	%eax, 2812(%rbp)
	.loc 18 24 9
	movsd	136(%rbp), %xmm0
	movsd	%xmm0, 2800(%rbp)
	.loc 18 26 19
	movl	2812(%rbp), %ecx
	movl	$1374389535, %edx
	movl	%ecx, %eax
	imull	%edx
	sarl	$5, %edx
	movl	%ecx, %eax
	sarl	$31, %eax
	subl	%eax, %edx
	movl	%edx, %eax
	movl	%eax, 2812(%rbp)
	.loc 18 27 19
	movl	2812(%rbp), %eax
	imull	$100, %eax, %eax
	movl	%eax, 2812(%rbp)
	.loc 18 30 5
	movq	2912(%rbp), %rax
	movq	8(%rax), %rsi
	movq	2912(%rbp), %rax
	movq	8(%rax), %rax
	.loc 18 30 40
	movq	(%rax), %rax
	addq	$1928, %rax
	movq	(%rax), %rbx
	.loc 18 30 28
	leaq	352(%rbp), %rax
	leaq	.LC4(%rip), %rdx
	movq	%rax, %rcx
.LEHB14:
	call	_ZN8wxStringC1EPKc
.LEHE14:
	.loc 18 30 28 is_stmt 0 discriminator 1
	leaq	352(%rbp), %rax
	movq	%rax, %rdx
	movq	%rsi, %rcx
.LEHB15:
	call	*%rbx
.LVL2:
.LEHE15:
	.loc 18 30 28 discriminator 3
	leaq	352(%rbp), %rax
	movq	%rax, %rcx
	call	_ZN8wxStringD1Ev
	.loc 18 31 5 is_stmt 1 discriminator 3
	movq	2912(%rbp), %rax
	movq	8(%rax), %rdi
	movq	2912(%rbp), %rax
	movq	8(%rax), %rax
	.loc 18 31 158 discriminator 3
	movq	(%rax), %rax
	addq	$1928, %rax
	movq	(%rax), %rsi
	.loc 18 31 76 discriminator 3
	cmpl	$0, 2936(%rbp)
	jne	.L99
	.loc 18 31 76 is_stmt 0 discriminator 1
	leaq	.LC5(%rip), %rbx
	jmp	.L100
.L99:
	.loc 18 31 76 discriminator 2
	leaq	.LC6(%rip), %rbx
.L100:
	.loc 18 31 49 is_stmt 1 discriminator 4
	leaq	544(%rbp), %rax
	movsd	2928(%rbp), %xmm0
	movl	$1, %r8d
	movapd	%xmm0, %xmm1
	movq	%rax, %rcx
.LEHB16:
	call	_ZN8wxString10FromDoubleEdi
.LEHE16:
	.loc 18 31 65 discriminator 5
	leaq	496(%rbp), %rax
	leaq	544(%rbp), %rdx
	leaq	.LC7(%rip), %r8
	movq	%rax, %rcx
.LEHB17:
	call	_ZplRK8wxStringPKc
.LEHE17:
	.loc 18 31 76 discriminator 7
	leaq	448(%rbp), %rax
	leaq	496(%rbp), %rdx
	movq	%rbx, %r8
	movq	%rax, %rcx
.LEHB18:
	call	_ZplRK8wxStringPKc
.LEHE18:
	.loc 18 31 152 discriminator 9
	leaq	400(%rbp), %rax
	leaq	448(%rbp), %rdx
	leaq	.LC8(%rip), %r8
	movq	%rax, %rcx
.LEHB19:
	call	_ZplRK8wxStringPKc
.LEHE19:
	.loc 18 31 28 discriminator 11
	leaq	400(%rbp), %rax
	movq	%rax, %rdx
	movq	%rdi, %rcx
.LEHB20:
	call	*%rsi
.LVL3:
.LEHE20:
	.loc 18 31 152 discriminator 13
	leaq	400(%rbp), %rax
	movq	%rax, %rcx
	call	_ZN8wxStringD1Ev
	.loc 18 31 76 discriminator 13
	leaq	448(%rbp), %rax
	movq	%rax, %rcx
	call	_ZN8wxStringD1Ev
	.loc 18 31 65 discriminator 13
	leaq	496(%rbp), %rax
	movq	%rax, %rcx
	call	_ZN8wxStringD1Ev
	.loc 18 31 49 discriminator 13
	leaq	544(%rbp), %rax
	movq	%rax, %rcx
	call	_ZN8wxStringD1Ev
	.loc 18 32 5 discriminator 13
	movq	2912(%rbp), %rax
	movq	8(%rax), %rsi
	movq	2912(%rbp), %rax
	movq	8(%rax), %rax
	.loc 18 32 41 discriminator 13
	movq	(%rax), %rax
	addq	$1928, %rax
	movq	(%rax), %rbx
	.loc 18 32 28 discriminator 13
	leaq	592(%rbp), %rax
	leaq	.LC9(%rip), %rdx
	movq	%rax, %rcx
.LEHB21:
	call	_ZN8wxStringC1EPKc
.LEHE21:
	.loc 18 32 28 is_stmt 0 discriminator 1
	leaq	592(%rbp), %rax
	movq	%rax, %rdx
	movq	%rsi, %rcx
.LEHB22:
	call	*%rbx
.LVL4:
.LEHE22:
	.loc 18 32 28 discriminator 3
	leaq	592(%rbp), %rax
	movq	%rax, %rcx
	call	_ZN8wxStringD1Ev
	.loc 18 33 5 is_stmt 1 discriminator 3
	movq	2912(%rbp), %rax
	movq	8(%rax), %rsi
	movq	2912(%rbp), %rax
	movq	8(%rax), %rax
	.loc 18 33 81 discriminator 3
	movq	(%rax), %rax
	addq	$1928, %rax
	movq	(%rax), %rbx
	.loc 18 33 28 discriminator 3
	leaq	640(%rbp), %rax
	leaq	.LC10(%rip), %rdx
	movq	%rax, %rcx
.LEHB23:
	call	_ZN8wxStringC1EPKc
.LEHE23:
	.loc 18 33 28 is_stmt 0 discriminator 1
	leaq	640(%rbp), %rax
	movq	%rax, %rdx
	movq	%rsi, %rcx
.LEHB24:
	call	*%rbx
.LVL5:
.LEHE24:
	.loc 18 33 28 discriminator 3
	leaq	640(%rbp), %rax
	movq	%rax, %rcx
	call	_ZN8wxStringD1Ev
	.loc 18 34 5 is_stmt 1 discriminator 3
	movq	2912(%rbp), %rax
	movq	8(%rax), %rsi
	movq	2912(%rbp), %rax
	movq	8(%rax), %rax
	.loc 18 34 121 discriminator 3
	movq	(%rax), %rax
	addq	$1928, %rax
	movq	(%rax), %rbx
	.loc 18 34 28 discriminator 3
	leaq	688(%rbp), %rax
	leaq	.LC11(%rip), %rdx
	movq	%rax, %rcx
.LEHB25:
	call	_ZN8wxStringC1EPKc
.LEHE25:
	.loc 18 34 28 is_stmt 0 discriminator 1
	leaq	688(%rbp), %rax
	movq	%rax, %rdx
	movq	%rsi, %rcx
.LEHB26:
	call	*%rbx
.LVL6:
.LEHE26:
	.loc 18 34 28 discriminator 3
	leaq	688(%rbp), %rax
	movq	%rax, %rcx
	call	_ZN8wxStringD1Ev
	.loc 18 35 5 is_stmt 1 discriminator 3
	movq	2912(%rbp), %rax
	movq	8(%rax), %rsi
	movq	2912(%rbp), %rax
	movq	8(%rax), %rax
	.loc 18 35 124 discriminator 3
	movq	(%rax), %rax
	addq	$1928, %rax
	movq	(%rax), %rbx
	.loc 18 35 28 discriminator 3
	leaq	736(%rbp), %rax
	leaq	.LC12(%rip), %rdx
	movq	%rax, %rcx
.LEHB27:
	call	_ZN8wxStringC1EPKc
.LEHE27:
	.loc 18 35 28 is_stmt 0 discriminator 1
	leaq	736(%rbp), %rax
	movq	%rax, %rdx
	movq	%rsi, %rcx
.LEHB28:
	call	*%rbx
.LVL7:
.LEHE28:
	.loc 18 35 28 discriminator 3
	leaq	736(%rbp), %rax
	movq	%rax, %rcx
	call	_ZN8wxStringD1Ev
	.loc 18 36 5 is_stmt 1 discriminator 3
	movq	2912(%rbp), %rax
	movq	8(%rax), %rsi
	movq	2912(%rbp), %rax
	movq	8(%rax), %rax
	.loc 18 36 115 discriminator 3
	movq	(%rax), %rax
	addq	$1928, %rax
	movq	(%rax), %rbx
	.loc 18 36 28 discriminator 3
	leaq	784(%rbp), %rax
	leaq	.LC13(%rip), %rdx
	movq	%rax, %rcx
.LEHB29:
	call	_ZN8wxStringC1EPKc
.LEHE29:
	.loc 18 36 28 is_stmt 0 discriminator 1
	leaq	784(%rbp), %rax
	movq	%rax, %rdx
	movq	%rsi, %rcx
.LEHB30:
	call	*%rbx
.LVL8:
.LEHE30:
	.loc 18 36 28 discriminator 3
	leaq	784(%rbp), %rax
	movq	%rax, %rcx
	call	_ZN8wxStringD1Ev
	.loc 18 37 5 is_stmt 1 discriminator 3
	movq	2912(%rbp), %rax
	movq	8(%rax), %rsi
	movq	2912(%rbp), %rax
	movq	8(%rax), %rax
	.loc 18 37 113 discriminator 3
	movq	(%rax), %rax
	addq	$1928, %rax
	movq	(%rax), %rbx
	.loc 18 37 28 discriminator 3
	leaq	832(%rbp), %rax
	leaq	.LC14(%rip), %rdx
	movq	%rax, %rcx
.LEHB31:
	call	_ZN8wxStringC1EPKc
.LEHE31:
	.loc 18 37 28 is_stmt 0 discriminator 1
	leaq	832(%rbp), %rax
	movq	%rax, %rdx
	movq	%rsi, %rcx
.LEHB32:
	call	*%rbx
.LVL9:
.LEHE32:
	.loc 18 37 28 discriminator 3
	leaq	832(%rbp), %rax
	movq	%rax, %rcx
	call	_ZN8wxStringD1Ev
	.loc 18 40 32 is_stmt 1 discriminator 3
	movq	2920(%rbp), %rax
	movl	$0, %edx
	movq	%rax, %rcx
	call	_ZN21CalculadorAtmosferico15setChecarLimiteEb
	.loc 18 43 61 discriminator 3
	cmpl	$0, 2936(%rbp)
	je	.L101
	.loc 18 43 61 is_stmt 0 discriminator 1
	movl	2812(%rbp), %eax
	subl	$100, %eax
	jmp	.L102
.L101:
	.loc 18 43 61 discriminator 2
	movl	$100, %eax
.L102:
	.loc 18 43 9 is_stmt 1 discriminator 4
	movl	%eax, 2796(%rbp)
	.loc 18 44 58 discriminator 4
	cmpl	$0, 2936(%rbp)
	jne	.L103
	.loc 18 44 58 is_stmt 0 discriminator 1
	movl	2812(%rbp), %eax
	jmp	.L104
.L103:
	.loc 18 44 58 discriminator 2
	movl	$100, %eax
.L104:
	.loc 18 44 9 is_stmt 1 discriminator 4
	movl	%eax, 2792(%rbp)
	.loc 18 45 9 discriminator 4
	movl	$100, 2860(%rbp)
	.loc 18 46 5 discriminator 4
	cmpl	$1, 2936(%rbp)
	jne	.L105
	.loc 18 47 18
	negl	2860(%rbp)
.L105:
.LBB19:
	.loc 18 52 17
	movl	2796(%rbp), %eax
	movl	%eax, 2856(%rbp)
.L153:
	.loc 18 52 63 discriminator 1
	movl	2856(%rbp), %eax
	cmpl	2792(%rbp), %eax
	jge	.L106
	.loc 18 52 44 discriminator 3
	movl	2796(%rbp), %eax
	cmpl	2792(%rbp), %eax
	jl	.L107
.L106:
	.loc 18 52 63 discriminator 4
	movl	2856(%rbp), %eax
	cmpl	2792(%rbp), %eax
	jle	.L108
	.loc 18 52 83 discriminator 5
	movl	2796(%rbp), %eax
	cmpl	2792(%rbp), %eax
	jle	.L108
.L107:
.LBB20:
	.loc 18 55 9
	cmpl	$0, 2936(%rbp)
	jne	.L109
	.loc 18 56 49
	leaq	224(%rbp), %rax
	movl	$1, %r9d
	pxor	%xmm2, %xmm2
	pxor	%xmm1, %xmm1
	movq	%rax, %rcx
.LEHB33:
	call	_ZN16ElementosDisparo19setElementosDisparoEddb
	jmp	.L110
.L109:
	.loc 18 58 49
	movsd	.LC3(%rip), %xmm0
	leaq	224(%rbp), %rax
	movl	$1, %r9d
	pxor	%xmm2, %xmm2
	movapd	%xmm0, %xmm1
	movq	%rax, %rcx
	call	_ZN16ElementosDisparo19setElementosDisparoEddb
.L110:
	.loc 18 61 9
	movq	2912(%rbp), %rax
	movq	8(%rax), %rsi
	movq	2912(%rbp), %rax
	movq	8(%rax), %rax
	.loc 18 61 57
	movq	(%rax), %rax
	addq	$1928, %rax
	movq	(%rax), %rbx
	.loc 18 61 42
	leaq	960(%rbp), %rax
	movl	2856(%rbp), %edx
	movq	%rax, %rcx
	call	_ZNSt7__cxx119to_stringEi
.LEHE33:
	.loc 18 61 52 discriminator 1
	leaq	928(%rbp), %rax
	leaq	960(%rbp), %rdx
	leaq	.LC15(%rip), %r8
	movq	%rax, %rcx
.LEHB34:
	call	_ZStplIcSt11char_traitsIcESaIcEENSt7__cxx1112basic_stringIT_T0_T1_EEOS8_PKS5_
.LEHE34:
	.loc 18 61 32 discriminator 3
	leaq	928(%rbp), %rdx
	leaq	880(%rbp), %rax
	movq	%rax, %rcx
.LEHB35:
	call	_ZN8wxStringC1ERKNSt7__cxx1112basic_stringIcSt11char_traitsIcESaIcEEE
.LEHE35:
	.loc 18 61 32 is_stmt 0 discriminator 5
	leaq	880(%rbp), %rax
	movq	%rax, %rdx
	movq	%rsi, %rcx
.LEHB36:
	call	*%rbx
.LVL10:
.LEHE36:
	.loc 18 61 32 discriminator 7
	leaq	880(%rbp), %rax
	movq	%rax, %rcx
	call	_ZN8wxStringD1Ev
	.loc 18 61 52 is_stmt 1 discriminator 7
	leaq	928(%rbp), %rax
	movq	%rax, %rcx
	call	_ZNSt7__cxx1112basic_stringIcSt11char_traitsIcESaIcEED1Ev
	.loc 18 61 42 discriminator 7
	leaq	960(%rbp), %rax
	movq	%rax, %rcx
	call	_ZNSt7__cxx1112basic_stringIcSt11char_traitsIcESaIcEED1Ev
	.loc 18 66 152 discriminator 7
	movq	2920(%rbp), %rax
	movq	(%rax), %rax
	addq	$8, %rax
	movq	(%rax), %rbx
	.loc 18 66 58 discriminator 7
	leaq	224(%rbp), %rax
	movq	%rax, %rcx
	call	_ZN16ElementosDisparo11getElevacaoEv
	movq	%xmm0, %rcx
	cvtsi2sd	2856(%rbp), %xmm1
	leaq	992(%rbp), %rax
	movsd	2928(%rbp), %xmm2
	movq	2920(%rbp), %rdx
	movl	$1, 72(%rsp)
	movq	%rcx, 64(%rsp)
	movsd	2952(%rbp), %xmm0
	movsd	%xmm0, 56(%rsp)
	movsd	2944(%rbp), %xmm0
	movsd	%xmm0, 48(%rsp)
	movl	2936(%rbp), %ecx
	movl	%ecx, 40(%rsp)
	pxor	%xmm0, %xmm0
	movsd	%xmm0, 32(%rsp)
	movapd	%xmm2, %xmm3
	movapd	%xmm1, %xmm2
	movq	%rax, %rcx
.LEHB37:
	call	*%rbx
.LVL11:
.LEHE37:
	.loc 18 66 152 discriminator 1
	leaq	992(%rbp), %rdx
	leaq	224(%rbp), %rax
	movq	%rax, %rcx
	call	_ZN16ElementosDisparoaSEOS_
	.loc 18 66 58 discriminator 1
	leaq	992(%rbp), %rax
	movq	%rax, %rcx
	call	_ZN16ElementosDisparoD1Ev
	.loc 18 83 63 discriminator 1
	movq	2920(%rbp), %rbx
	leaq	224(%rbp), %rax
	movq	%rax, %rcx
	call	_ZN16ElementosDisparo11getElevacaoEv
	movq	%xmm0, %rdx
	leaq	1168(%rbp), %rax
	movsd	2928(%rbp), %xmm1
	movl	$1, 48(%rsp)
	movsd	2944(%rbp), %xmm0
	movsd	%xmm0, 40(%rsp)
	pxor	%xmm0, %xmm0
	movsd	%xmm0, 32(%rsp)
	movapd	%xmm1, %xmm3
	movq	%rdx, %xmm2
	movq	%rbx, %rdx
	movq	%rax, %rcx
.LEHB38:
	call	_ZN10Calculador27solucaoDiretaUltimoElementoEdddd4RAMO
	.loc 18 83 118 discriminator 1
	leaq	1168(%rbp), %rdx
	leaq	256(%rbp), %rax
	movq	%rax, %rcx
	call	_ZN12ElementosVooaSEOS_
	.loc 18 83 63 discriminator 1
	leaq	1168(%rbp), %rax
	movq	%rax, %rcx
	call	_ZN12ElementosVooD1Ev
	.loc 18 86 13 discriminator 1
	movl	$0, 2852(%rbp)
	.loc 18 86 47 discriminator 1
	movl	$0, 2848(%rbp)
.LBB21:
	.loc 18 87 17 discriminator 1
	movl	$-400, 2844(%rbp)
.L151:
	.loc 18 87 43 discriminator 1
	cmpl	$1000, 2844(%rbp)
	jg	.L111
.LBB22:
	.loc 18 90 69
	cmpl	$0, 2936(%rbp)
	jne	.L112
	.loc 18 90 69 is_stmt 0 discriminator 1
	movl	$-50, %eax
	jmp	.L113
.L112:
	.loc 18 90 69 discriminator 2
	movl	$50, %eax
.L113:
	.loc 18 90 17 is_stmt 1 discriminator 4
	movl	%eax, 2788(%rbp)
	.loc 18 91 25 discriminator 4
	movl	2856(%rbp), %edx
	movl	2848(%rbp), %eax
	addl	%eax, %edx
	.loc 18 91 82 discriminator 4
	movl	2848(%rbp), %eax
	subl	2852(%rbp), %eax
	.loc 18 91 53 discriminator 4
	addl	%eax, %edx
	.loc 18 91 132 discriminator 4
	movl	2812(%rbp), %ecx
	movl	2788(%rbp), %eax
	addl	%ecx, %eax
	.loc 18 91 13 discriminator 4
	cmpl	%eax, %edx
	jle	.L114
	.loc 18 93 43
	movl	$0, 2848(%rbp)
	.loc 18 94 17
	jmp	.L344
.L114:
	.loc 18 97 18
	movl	$1, 2840(%rbp)
.LBB23:
	.loc 18 98 13
	cmpl	$0, 2844(%rbp)
	jne	.L116
.LBB24:
	.loc 18 100 60
	movq	320(%rbp), %rax
	movq	%rax, %xmm0
	call	_ZN9Boletim1213encontraLinhaEd
.LEHE38:
	movl	%eax, 2784(%rbp)
	.loc 18 101 79
	movq	.refptr.config(%rip), %rax
	movq	(%rax), %rax
	movq	%rax, %rcx
	call	_ZN12Configuracao26isExibirNumeroLinhaBoletimEv
	.loc 18 101 81
	movl	$0, %ebx
	movl	$0, %esi
	testb	%al, %al
	je	.L117
	.loc 18 101 99 discriminator 1
	leaq	1296(%rbp), %rax
	movl	2784(%rbp), %edx
	movq	%rax, %rcx
.LEHB39:
	call	_ZNSt7__cxx119to_stringEi
	.loc 18 101 81 discriminator 4
	movl	$1, %ebx
	leaq	1264(%rbp), %rax
	leaq	1296(%rbp), %rdx
	movq	%rdx, %r8
	leaq	.LC16(%rip), %rdx
	movq	%rax, %rcx
	call	_ZStplIcSt11char_traitsIcESaIcEENSt7__cxx1112basic_stringIT_T0_T1_EEPKS5_OS8_
	jmp	.L118
.L117:
	.loc 18 101 81 is_stmt 0 discriminator 2
	leaq	1343(%rbp), %rax
	movq	%rax, %rcx
	call	_ZNSaIcEC1Ev
	movl	$1, %esi
	leaq	1343(%rbp), %rdx
	leaq	1264(%rbp), %rax
	movq	%rdx, %r8
	leaq	.LC17(%rip), %rdx
	movq	%rax, %rcx
	call	_ZNSt7__cxx1112basic_stringIcSt11char_traitsIcESaIcEEC1EPKcRKS3_
.LEHE39:
.L118:
	.loc 18 101 118 is_stmt 1 discriminator 7
	leaq	1264(%rbp), %rdx
	leaq	32(%rbp), %rax
	movq	%rax, %rcx
.LEHB40:
	call	_ZN8wxStringC1ERKNSt7__cxx1112basic_stringIcSt11char_traitsIcESaIcEEE
.LEHE40:
	leaq	1264(%rbp), %rax
	movq	%rax, %rcx
	call	_ZNSt7__cxx1112basic_stringIcSt11char_traitsIcESaIcEED1Ev
	.loc 18 101 81 discriminator 8
	testb	%sil, %sil
	je	.L119
	leaq	1343(%rbp), %rax
	movq	%rax, %rcx
	call	_ZNSaIcED1Ev
.L119:
	.loc 18 101 99 discriminator 9
	testb	%bl, %bl
	je	.L120
	leaq	1296(%rbp), %rax
	movq	%rax, %rcx
	call	_ZNSt7__cxx1112basic_stringIcSt11char_traitsIcESaIcEED1Ev
.L120:
	.loc 18 102 17 discriminator 10
	movq	2912(%rbp), %rax
	movq	8(%rax), %rsi
	movq	2912(%rbp), %rax
	movq	8(%rax), %rax
	.loc 18 102 70 discriminator 10
	movq	(%rax), %rax
	addq	$1928, %rax
	movq	(%rax), %rbx
	.loc 18 102 45 discriminator 10
	leaq	1392(%rbp), %rax
	leaq	32(%rbp), %rdx
	movq	%rdx, %r8
	leaq	.LC18(%rip), %rdx
	movq	%rax, %rcx
.LEHB41:
	call	_ZplPKcRK8wxString
.LEHE41:
	.loc 18 102 63 discriminator 1
	leaq	1344(%rbp), %rax
	leaq	1392(%rbp), %rdx
	leaq	.LC19(%rip), %r8
	movq	%rax, %rcx
.LEHB42:
	call	_ZplRK8wxStringPKc
.LEHE42:
	.loc 18 102 40 discriminator 3
	leaq	1344(%rbp), %rax
	movq	%rax, %rdx
	movq	%rsi, %rcx
.LEHB43:
	call	*%rbx
.LVL12:
.LEHE43:
	.loc 18 102 63 discriminator 5
	leaq	1344(%rbp), %rax
	movq	%rax, %rcx
	call	_ZN8wxStringD1Ev
	.loc 18 102 45 discriminator 5
	leaq	1392(%rbp), %rax
	movq	%rax, %rcx
	call	_ZN8wxStringD1Ev
	.loc 18 103 17 discriminator 5
	nop
	.loc 18 101 118 discriminator 5
	leaq	32(%rbp), %rax
	movq	%rax, %rcx
	call	_ZN8wxStringD1Ev
	jmp	.L150
.L116:
.LBE24:
.LBE23:
	.loc 18 106 76
	cvtsi2sd	2844(%rbp), %xmm0
	.loc 18 106 74
	cvtsi2sd	2856(%rbp), %xmm1
	divsd	%xmm1, %xmm0
	call	atan
	movapd	%xmm0, %xmm1
	.loc 18 106 20
	movsd	.LC20(%rip), %xmm0
	mulsd	%xmm1, %xmm0
	movsd	%xmm0, 2776(%rbp)
	.loc 18 107 78
	leaq	224(%rbp), %rax
	movq	%rax, %rcx
	call	_ZN16ElementosDisparo11getElevacaoEv
	movapd	%xmm0, %xmm1
	.loc 18 107 83
	movsd	2776(%rbp), %xmm0
	addsd	%xmm1, %xmm0
	movsd	%xmm0, 2768(%rbp)
	.loc 18 112 30
	leaq	-48(%rbp), %rax
	movq	%rax, %rcx
.LEHB44:
	call	_ZN16ElementosDisparoC1Ev
.LEHE44:
	.loc 18 115 80
	movsd	.LC21(%rip), %xmm0
	comisd	2768(%rbp), %xmm0
	jbe	.L340
	.loc 18 115 80 is_stmt 0 discriminator 1
	movl	$0, %eax
	jmp	.L124
.L340:
	.loc 18 115 80 discriminator 2
	movl	$1, %eax
.L124:
	.loc 18 115 29 is_stmt 1 discriminator 4
	movl	%eax, 2836(%rbp)
	.loc 18 118 13 discriminator 4
	pxor	%xmm0, %xmm0
	comisd	2768(%rbp), %xmm0
	ja	.L125
	.loc 18 118 48 discriminator 1
	movsd	2768(%rbp), %xmm0
	comisd	.LC21(%rip), %xmm0
	jbe	.L126
	.loc 18 118 87 discriminator 2
	cmpl	$0, 2936(%rbp)
	je	.L125
.L126:
	.loc 18 118 134 discriminator 4
	movsd	2800(%rbp), %xmm0
	comisd	2768(%rbp), %xmm0
	jbe	.L128
	.loc 18 118 181 discriminator 5
	cmpl	$1, 2936(%rbp)
	jne	.L128
.L125:
	.loc 18 120 17
	movsd	2768(%rbp), %xmm0
	comisd	.LC21(%rip), %xmm0
	jbe	.L130
	.loc 18 120 55 discriminator 1
	cmpl	$0, 2936(%rbp)
	jne	.L130
	.loc 18 122 26
	movl	$0, 2840(%rbp)
	.loc 18 123 35
	movl	$1, 2836(%rbp)
	jmp	.L128
.L130:
	.loc 18 127 20
	movsd	.LC21(%rip), %xmm0
	comisd	2768(%rbp), %xmm0
	jbe	.L132
	.loc 18 127 58 discriminator 1
	cmpl	$1, 2936(%rbp)
	jne	.L132
	.loc 18 129 38
	movl	$0, 2836(%rbp)
	jmp	.L128
.L132:
	.loc 18 133 24
	movq	2912(%rbp), %rax
	movq	8(%rax), %rsi
	movq	2912(%rbp), %rax
	movq	8(%rax), %rax
	.loc 18 133 53
	movq	(%rax), %rax
	addq	$1928, %rax
	movq	(%rax), %rbx
	.loc 18 133 47
	leaq	1440(%rbp), %rax
	leaq	.LC19(%rip), %rdx
	movq	%rax, %rcx
.LEHB45:
	call	_ZN8wxStringC1EPKc
.LEHE45:
	.loc 18 133 47 is_stmt 0 discriminator 1
	leaq	1440(%rbp), %rax
	movq	%rax, %rdx
	movq	%rsi, %rcx
.LEHB46:
	call	*%rbx
.LVL13:
.LEHE46:
	.loc 18 133 47 discriminator 3
	leaq	1440(%rbp), %rax
	movq	%rax, %rcx
	call	_ZN8wxStringD1Ev
	movl	$0, %ebx
	.loc 18 134 24 is_stmt 1 discriminator 3
	jmp	.L134
.L128:
	.loc 18 139 92
	cmpl	$0, 2936(%rbp)
	jne	.L135
	.loc 18 139 92 is_stmt 0 discriminator 1
	movsd	2768(%rbp), %xmm0
	jmp	.L136
.L135:
	.loc 18 139 92 discriminator 2
	movsd	.LC22(%rip), %xmm0
.L136:
	.loc 18 139 20 is_stmt 1 discriminator 4
	movsd	%xmm0, 2824(%rbp)
	.loc 18 140 13 discriminator 4
	movl	2836(%rbp), %eax
	cmpl	2936(%rbp), %eax
	je	.L137
	.loc 18 140 44 discriminator 1
	cmpl	$0, 2936(%rbp)
	jne	.L137
	.loc 18 141 42
	movsd	.LC3(%rip), %xmm0
	movsd	%xmm0, 2824(%rbp)
.L137:
	.loc 18 146 166
	movq	2920(%rbp), %rax
	movq	(%rax), %rax
	addq	$8, %rax
	movq	(%rax), %r8
	.loc 18 146 72
	cvtsi2sd	2844(%rbp), %xmm0
	cvtsi2sd	2856(%rbp), %xmm2
	leaq	1488(%rbp), %rax
	movsd	2928(%rbp), %xmm3
	movq	2920(%rbp), %rdx
	movl	2840(%rbp), %ecx
	movl	%ecx, 72(%rsp)
	movsd	2824(%rbp), %xmm1
	movsd	%xmm1, 64(%rsp)
	movsd	2952(%rbp), %xmm1
	movsd	%xmm1, 56(%rsp)
	movsd	2944(%rbp), %xmm1
	movsd	%xmm1, 48(%rsp)
	movl	2836(%rbp), %ecx
	movl	%ecx, 40(%rsp)
	movsd	%xmm0, 32(%rsp)
	movq	%rax, %rcx
.LEHB47:
	call	*%r8
.LVL14:
.LEHE47:
	.loc 18 146 166 discriminator 1
	leaq	1488(%rbp), %rdx
	leaq	-48(%rbp), %rax
	movq	%rax, %rcx
	call	_ZN16ElementosDisparoaSEOS_
	.loc 18 146 72 discriminator 1
	leaq	1488(%rbp), %rax
	movq	%rax, %rcx
	call	_ZN16ElementosDisparoD1Ev
.L200:
	.loc 18 253 84
	leaq	-48(%rbp), %rax
	movq	%rax, %rcx
	call	_ZN16ElementosDisparo11getElevacaoEv
	.loc 18 253 89
	subsd	2768(%rbp), %xmm0
	movsd	%xmm0, 2760(%rbp)
	.loc 18 256 190
	movq	2920(%rbp), %rdx
	.loc 18 256 121
	movsd	2768(%rbp), %xmm0
	subsd	2776(%rbp), %xmm0
	.loc 18 256 190
	movapd	%xmm0, %xmm1
	addsd	2760(%rbp), %xmm1
	leaq	32(%rbp), %rax
	movsd	2928(%rbp), %xmm2
	movl	$1, 48(%rsp)
	movsd	2944(%rbp), %xmm0
	movsd	%xmm0, 40(%rsp)
	pxor	%xmm0, %xmm0
	movsd	%xmm0, 32(%rsp)
	movapd	%xmm2, %xmm3
	movapd	%xmm1, %xmm2
	movq	%rax, %rcx
.LEHB48:
	call	_ZN10Calculador27solucaoDiretaUltimoElementoEdddd4RAMO
.LEHE48:
	.loc 18 257 41
	movsd	104(%rbp), %xmm0
	.loc 18 257 13
	movsd	.LC23(%rip), %xmm1
	comisd	%xmm1, %xmm0
	jb	.L341
	.loc 18 259 17
	movq	2912(%rbp), %rax
	movq	8(%rax), %rsi
	movq	2912(%rbp), %rax
	movq	8(%rax), %rax
	.loc 18 259 46
	movq	(%rax), %rax
	addq	$1928, %rax
	movq	(%rax), %rbx
	.loc 18 259 40
	leaq	2192(%rbp), %rax
	leaq	.LC19(%rip), %rdx
	movq	%rax, %rcx
.LEHB49:
	call	_ZN8wxStringC1EPKc
.LEHE49:
	.loc 18 259 40 is_stmt 0 discriminator 1
	leaq	2192(%rbp), %rax
	movq	%rax, %rdx
	movq	%rsi, %rcx
.LEHB50:
	call	*%rbx
.LVL15:
.LEHE50:
	.loc 18 259 40 discriminator 3
	leaq	2192(%rbp), %rax
	movq	%rax, %rcx
	call	_ZN8wxStringD1Ev
	movl	$0, %ebx
	.loc 18 260 17 is_stmt 1 discriminator 3
	jmp	.L140
.L341:
	.loc 18 264 67
	movsd	48(%rbp), %xmm0
	.loc 18 264 70
	cvtsi2sd	2856(%rbp), %xmm1
	.loc 18 264 20
	subsd	%xmm1, %xmm0
	movsd	%xmm0, 2752(%rbp)
	.loc 18 265 42
	movl	2848(%rbp), %eax
	movl	%eax, 2852(%rbp)
	.loc 18 266 55
	movq	2752(%rbp), %rax
	movq	%rax, %xmm0
	call	_ZN7MathArt5arredEd
	movl	%eax, 2848(%rbp)
	.loc 18 267 56
	movq	96(%rbp), %rax
	movq	%rax, %xmm0
.LEHB51:
	call	_ZN9Boletim1213encontraLinhaEd
.LEHE51:
	movl	%eax, 2748(%rbp)
	.loc 18 268 75
	movq	.refptr.config(%rip), %rax
	movq	(%rax), %rax
	movq	%rax, %rcx
	call	_ZN12Configuracao26isExibirNumeroLinhaBoletimEv
	.loc 18 268 77
	movl	$0, %ebx
	movl	$0, %esi
	testb	%al, %al
	je	.L141
	.loc 18 268 95 discriminator 1
	leaq	2272(%rbp), %rax
	movl	2748(%rbp), %edx
	movq	%rax, %rcx
.LEHB52:
	call	_ZNSt7__cxx119to_stringEi
	.loc 18 268 77 discriminator 4
	movl	$1, %ebx
	leaq	2240(%rbp), %rax
	leaq	2272(%rbp), %rdx
	movq	%rdx, %r8
	leaq	.LC16(%rip), %rdx
	movq	%rax, %rcx
	call	_ZStplIcSt11char_traitsIcESaIcEENSt7__cxx1112basic_stringIT_T0_T1_EEPKS5_OS8_
	jmp	.L142
.L141:
	.loc 18 268 77 is_stmt 0 discriminator 2
	leaq	2319(%rbp), %rax
	movq	%rax, %rcx
	call	_ZNSaIcEC1Ev
	movl	$1, %esi
	leaq	2319(%rbp), %rdx
	leaq	2240(%rbp), %rax
	movq	%rdx, %r8
	leaq	.LC17(%rip), %rdx
	movq	%rax, %rcx
	call	_ZNSt7__cxx1112basic_stringIcSt11char_traitsIcESaIcEEC1EPKcRKS3_
.LEHE52:
.L142:
	.loc 18 268 114 is_stmt 1 discriminator 7
	leaq	2240(%rbp), %rdx
	leaq	-16(%rbp), %rax
	movq	%rax, %rcx
.LEHB53:
	call	_ZN8wxStringC1ERKNSt7__cxx1112basic_stringIcSt11char_traitsIcESaIcEEE
.LEHE53:
	leaq	2240(%rbp), %rax
	movq	%rax, %rcx
	call	_ZNSt7__cxx1112basic_stringIcSt11char_traitsIcESaIcEED1Ev
	.loc 18 268 77 discriminator 8
	testb	%sil, %sil
	je	.L143
	leaq	2319(%rbp), %rax
	movq	%rax, %rcx
	call	_ZNSaIcED1Ev
.L143:
	.loc 18 268 95 discriminator 9
	testb	%bl, %bl
	je	.L144
	leaq	2272(%rbp), %rax
	movq	%rax, %rcx
	call	_ZNSt7__cxx1112basic_stringIcSt11char_traitsIcESaIcEED1Ev
.L144:
	.loc 18 269 13 discriminator 10
	movq	2912(%rbp), %rax
	movq	8(%rax), %rsi
	movq	2912(%rbp), %rax
	movq	8(%rax), %rax
	.loc 18 269 99 discriminator 10
	movq	(%rax), %rax
	addq	$1928, %rax
	movq	(%rax), %rbx
	.loc 18 269 46 discriminator 10
	leaq	2464(%rbp), %rax
	movl	2848(%rbp), %edx
	movq	%rax, %rcx
.LEHB54:
	call	_ZNSt7__cxx119to_stringEi
.LEHE54:
	.loc 18 269 74 discriminator 1
	leaq	2464(%rbp), %rdx
	leaq	2416(%rbp), %rax
	movq	%rax, %rcx
.LEHB55:
	call	_ZN8wxStringC1ERKNSt7__cxx1112basic_stringIcSt11char_traitsIcESaIcEEE
.LEHE55:
	.loc 18 269 74 is_stmt 0 discriminator 3
	leaq	2368(%rbp), %rax
	leaq	-16(%rbp), %rcx
	leaq	2416(%rbp), %rdx
	movq	%rcx, %r8
	movq	%rax, %rcx
.LEHB56:
	call	_ZplRK8wxStringS1_
.LEHE56:
	.loc 18 269 92 is_stmt 1 discriminator 5
	leaq	2320(%rbp), %rax
	leaq	2368(%rbp), %rdx
	leaq	.LC19(%rip), %r8
	movq	%rax, %rcx
.LEHB57:
	call	_ZplRK8wxStringPKc
.LEHE57:
	.loc 18 269 36 discriminator 7
	leaq	2320(%rbp), %rax
	movq	%rax, %rdx
	movq	%rsi, %rcx
.LEHB58:
	call	*%rbx
.LVL16:
.LEHE58:
	.loc 18 269 92 discriminator 9
	leaq	2320(%rbp), %rax
	movq	%rax, %rcx
	call	_ZN8wxStringD1Ev
	.loc 18 269 74 discriminator 9
	leaq	2368(%rbp), %rax
	movq	%rax, %rcx
	call	_ZN8wxStringD1Ev
	leaq	2416(%rbp), %rax
	movq	%rax, %rcx
	call	_ZN8wxStringD1Ev
	.loc 18 269 46 discriminator 9
	leaq	2464(%rbp), %rax
	movq	%rax, %rcx
	call	_ZNSt7__cxx1112basic_stringIcSt11char_traitsIcESaIcEED1Ev
.LEHB59:
	.loc 18 272 20 discriminator 9
	call	_Z7wxYieldv
.LEHE59:
	.loc 18 273 16
	movq	2912(%rbp), %rax
	movzbl	16(%rax), %eax
	.loc 18 273 13
	testb	%al, %al
	je	.L145
	movl	$0, %ebx
	.loc 18 274 17
	jmp	.L146
.L145:
	movl	$1, %ebx
.L146:
	leaq	-16(%rbp), %rax
	movq	%rax, %rcx
	call	_ZN8wxStringD1Ev
	cmpl	$1, %ebx
	jne	.L147
	movl	$2, %ebx
	jmp	.L140
.L147:
	movl	$1, %ebx
.L140:
	leaq	32(%rbp), %rax
	movq	%rax, %rcx
	call	_ZN12ElementosVooD1Ev
	testl	%ebx, %ebx
	je	.L148
	cmpl	$2, %ebx
	jne	.L149
	movl	$2, %ebx
	jmp	.L134
.L148:
	movl	$0, %ebx
	jmp	.L134
.L149:
	movl	$1, %ebx
.L134:
	leaq	-48(%rbp), %rax
	movq	%rax, %rcx
	call	_ZN16ElementosDisparoD1Ev
	testl	%ebx, %ebx
	je	.L150
	cmpl	$2, %ebx
	jne	.L344
.L150:
.LBE22:
	.loc 18 87 61 discriminator 2
	addl	$100, 2844(%rbp)
	.loc 18 87 9 discriminator 2
	jmp	.L151
.L344:
.LBB53:
	.loc 18 94 17
	nop
.L111:
.LBE53:
.LBE21:
	.loc 18 276 9
	movq	2912(%rbp), %rax
	movq	8(%rax), %rsi
	movq	2912(%rbp), %rax
	movq	8(%rax), %rax
	.loc 18 276 37
	movq	(%rax), %rax
	addq	$1928, %rax
	movq	(%rax), %rbx
	.loc 18 276 32
	leaq	2496(%rbp), %rax
	leaq	.LC8(%rip), %rdx
	movq	%rax, %rcx
.LEHB60:
	call	_ZN8wxStringC1EPKc
.LEHE60:
	.loc 18 276 32 is_stmt 0 discriminator 1
	leaq	2496(%rbp), %rax
	movq	%rax, %rdx
	movq	%rsi, %rcx
.LEHB61:
	call	*%rbx
.LVL17:
.LEHE61:
	.loc 18 276 32 discriminator 3
	leaq	2496(%rbp), %rax
	movq	%rax, %rcx
	call	_ZN8wxStringD1Ev
.LEHB62:
	.loc 18 277 16 is_stmt 1 discriminator 3
	call	_Z7wxYieldv
	.loc 18 279 12
	movq	2912(%rbp), %rax
	movzbl	16(%rax), %eax
	.loc 18 279 9
	testb	%al, %al
	jne	.L345
.L152:
.LBE20:
	.loc 18 52 112 discriminator 6
	movl	2860(%rbp), %eax
	addl	%eax, 2856(%rbp)
	.loc 18 52 5 discriminator 6
	jmp	.L153
.L345:
.LBB62:
	.loc 18 280 12
	nop
.L108:
.LBE62:
.LBE19:
	.loc 18 284 32
	movq	2920(%rbp), %rax
	movl	$1, %edx
	movq	%rax, %rcx
	call	_ZN21CalculadorAtmosferico15setChecarLimiteEb
	.loc 18 285 5
	movq	2912(%rbp), %rax
	movq	8(%rax), %rsi
	movq	2912(%rbp), %rax
	movq	8(%rax), %rax
	.loc 18 285 40
	movq	(%rax), %rax
	addq	$1928, %rax
	movq	(%rax), %rbx
	.loc 18 285 28
	leaq	2544(%rbp), %rax
	leaq	.LC24(%rip), %rdx
	movq	%rax, %rcx
	call	_ZN8wxStringC1EPKc
.LEHE62:
	.loc 18 285 28 is_stmt 0 discriminator 1
	leaq	2544(%rbp), %rax
	movq	%rax, %rdx
	movq	%rsi, %rcx
.LEHB63:
	call	*%rbx
.LVL18:
.LEHE63:
	.loc 18 285 28 discriminator 3
	leaq	2544(%rbp), %rax
	movq	%rax, %rcx
	call	_ZN8wxStringD1Ev
	.loc 18 22 72 is_stmt 1 discriminator 3
	leaq	128(%rbp), %rax
	movq	%rax, %rcx
	call	_ZN12ElementosVooD1Ev
	.loc 18 21 19 discriminator 3
	leaq	224(%rbp), %rax
	movq	%rax, %rcx
	call	_ZN16ElementosDisparoD1Ev
	.loc 18 20 18 discriminator 3
	leaq	256(%rbp), %rax
	movq	%rax, %rcx
	call	_ZN12ElementosVooD1Ev
	.loc 18 286 1 discriminator 3
	jmp	.L342
.L274:
	movq	%rax, %rbx
	.loc 18 30 28
	leaq	352(%rbp), %rax
	movq	%rax, %rcx
	call	_ZN8wxStringD1Ev
	jmp	.L155
.L278:
	movq	%rax, %rbx
	.loc 18 31 152
	leaq	400(%rbp), %rax
	movq	%rax, %rcx
	call	_ZN8wxStringD1Ev
	jmp	.L157
.L277:
	movq	%rax, %rbx
.L157:
	.loc 18 31 76 discriminator 10
	leaq	448(%rbp), %rax
	movq	%rax, %rcx
	call	_ZN8wxStringD1Ev
	jmp	.L158
.L276:
	movq	%rax, %rbx
.L158:
	.loc 18 31 65 discriminator 8
	leaq	496(%rbp), %rax
	movq	%rax, %rcx
	call	_ZN8wxStringD1Ev
	jmp	.L159
.L275:
	movq	%rax, %rbx
.L159:
	.loc 18 31 49 discriminator 6
	leaq	544(%rbp), %rax
	movq	%rax, %rcx
	call	_ZN8wxStringD1Ev
	jmp	.L155
.L279:
	movq	%rax, %rbx
	.loc 18 32 28
	leaq	592(%rbp), %rax
	movq	%rax, %rcx
	call	_ZN8wxStringD1Ev
	jmp	.L155
.L280:
	movq	%rax, %rbx
	.loc 18 33 28
	leaq	640(%rbp), %rax
	movq	%rax, %rcx
	call	_ZN8wxStringD1Ev
	jmp	.L155
.L281:
	movq	%rax, %rbx
	.loc 18 34 28
	leaq	688(%rbp), %rax
	movq	%rax, %rcx
	call	_ZN8wxStringD1Ev
	jmp	.L155
.L282:
	movq	%rax, %rbx
	.loc 18 35 28
	leaq	736(%rbp), %rax
	movq	%rax, %rcx
	call	_ZN8wxStringD1Ev
	jmp	.L155
.L283:
	movq	%rax, %rbx
	.loc 18 36 28
	leaq	784(%rbp), %rax
	movq	%rax, %rcx
	call	_ZN8wxStringD1Ev
	jmp	.L155
.L284:
	movq	%rax, %rbx
	.loc 18 37 28
	leaq	832(%rbp), %rax
	movq	%rax, %rcx
	call	_ZN8wxStringD1Ev
	jmp	.L155
.L287:
	movq	%rax, %rbx
.LBB64:
.LBB63:
	.loc 18 61 32
	leaq	880(%rbp), %rax
	movq	%rax, %rcx
	call	_ZN8wxStringD1Ev
	jmp	.L167
.L286:
	movq	%rax, %rbx
.L167:
	.loc 18 61 52 discriminator 4
	leaq	928(%rbp), %rax
	movq	%rax, %rcx
	call	_ZNSt7__cxx1112basic_stringIcSt11char_traitsIcESaIcEED1Ev
	jmp	.L168
.L285:
	movq	%rax, %rbx
.L168:
	.loc 18 61 42 discriminator 2
	leaq	960(%rbp), %rax
	movq	%rax, %rcx
	call	_ZNSt7__cxx1112basic_stringIcSt11char_traitsIcESaIcEED1Ev
	jmp	.L155
.L288:
	cmpq	$2, %rdx
	je	.L170
	cmpq	$3, %rdx
	je	.L171
	cmpq	$1, %rdx
	je	.L172
	movq	%rax, %rbx
	jmp	.L155
.L172:
.LBB55:
	.loc 18 68 37
	movq	%rax, %rcx
	call	__cxa_begin_catch
	movq	%rax, 2616(%rbp)
	.loc 18 70 13
	movq	2912(%rbp), %rax
	movq	8(%rax), %rsi
	movq	2912(%rbp), %rax
	movq	8(%rax), %rax
	.loc 18 70 85
	movq	(%rax), %rax
	addq	$1928, %rax
	movq	(%rax), %rbx
	.loc 18 70 36
	leaq	1024(%rbp), %rax
	leaq	.LC25(%rip), %rdx
	movq	%rax, %rcx
.LEHB64:
	call	_ZN8wxStringC1EPKc
.LEHE64:
	.loc 18 70 36 is_stmt 0 discriminator 1
	leaq	1024(%rbp), %rax
	movq	%rax, %rdx
	movq	%rsi, %rcx
.LEHB65:
	call	*%rbx
.LVL19:
.LEHE65:
	.loc 18 70 36 discriminator 3
	leaq	1024(%rbp), %rax
	movq	%rax, %rcx
	call	_ZN8wxStringD1Ev
	.loc 18 71 13 is_stmt 1 discriminator 3
	nop
.LEHB66:
	.loc 18 68 37 discriminator 3
	call	__cxa_end_catch
.LEHE66:
	.loc 18 68 37 is_stmt 0
	jmp	.L152
.L170:
.LBE55:
.LBB56:
	.loc 18 73 42 is_stmt 1
	movq	%rax, %rcx
	call	__cxa_begin_catch
	movq	%rax, 2608(%rbp)
	.loc 18 75 13
	movq	2912(%rbp), %rax
	movq	8(%rax), %rsi
	movq	2912(%rbp), %rax
	movq	8(%rax), %rax
	.loc 18 75 80
	movq	(%rax), %rax
	addq	$1928, %rax
	movq	(%rax), %rbx
	.loc 18 75 36
	leaq	1072(%rbp), %rax
	leaq	.LC26(%rip), %rdx
	movq	%rax, %rcx
.LEHB67:
	call	_ZN8wxStringC1EPKc
.LEHE67:
	.loc 18 75 36 is_stmt 0 discriminator 1
	leaq	1072(%rbp), %rax
	movq	%rax, %rdx
	movq	%rsi, %rcx
.LEHB68:
	call	*%rbx
.LVL20:
.LEHE68:
	.loc 18 75 36 discriminator 3
	leaq	1072(%rbp), %rax
	movq	%rax, %rcx
	call	_ZN8wxStringD1Ev
	.loc 18 76 13 is_stmt 1 discriminator 3
	nop
.LEHB69:
	.loc 18 73 42 discriminator 3
	call	__cxa_end_catch
.LEHE69:
	.loc 18 73 42 is_stmt 0
	jmp	.L152
.L171:
.LBE56:
.LBB57:
	.loc 18 78 35 is_stmt 1
	movq	%rax, %rcx
	call	__cxa_begin_catch
	movq	%rax, 2600(%rbp)
	.loc 18 80 13
	movq	2912(%rbp), %rax
	movq	8(%rax), %rsi
	movq	2912(%rbp), %rax
	movq	8(%rax), %rax
	.loc 18 80 72
	movq	(%rax), %rax
	addq	$1928, %rax
	movq	(%rax), %rbx
	.loc 18 80 36
	leaq	1120(%rbp), %rax
	leaq	.LC27(%rip), %rdx
	movq	%rax, %rcx
.LEHB70:
	call	_ZN8wxStringC1EPKc
.LEHE70:
	.loc 18 80 36 is_stmt 0 discriminator 1
	leaq	1120(%rbp), %rax
	movq	%rax, %rdx
	movq	%rsi, %rcx
.LEHB71:
	call	*%rbx
.LVL21:
.LEHE71:
	.loc 18 80 36 discriminator 3
	leaq	1120(%rbp), %rax
	movq	%rax, %rcx
	call	_ZN8wxStringD1Ev
	.loc 18 81 13 is_stmt 1 discriminator 3
	nop
.LEHB72:
	.loc 18 78 35 discriminator 3
	call	__cxa_end_catch
.LEHE72:
	.loc 18 78 35 is_stmt 0
	jmp	.L108
.L290:
	movq	%rax, %rbx
.LBE57:
.LBB58:
	.loc 18 70 36 is_stmt 1
	leaq	1024(%rbp), %rax
	movq	%rax, %rcx
	call	_ZN8wxStringD1Ev
	jmp	.L174
.L289:
	movq	%rax, %rbx
.L174:
	.loc 18 68 37
	call	__cxa_end_catch
	jmp	.L155
.L292:
	movq	%rax, %rbx
.LBE58:
.LBB59:
	.loc 18 75 36
	leaq	1072(%rbp), %rax
	movq	%rax, %rcx
	call	_ZN8wxStringD1Ev
	jmp	.L176
.L291:
	movq	%rax, %rbx
.L176:
	.loc 18 73 42
	call	__cxa_end_catch
	jmp	.L155
.L294:
	movq	%rax, %rbx
.LBE59:
.LBB60:
	.loc 18 80 36
	leaq	1120(%rbp), %rax
	movq	%rax, %rcx
	call	_ZN8wxStringD1Ev
	jmp	.L178
.L293:
	movq	%rax, %rbx
.L178:
	.loc 18 78 35
	call	__cxa_end_catch
	jmp	.L155
.L296:
	movq	%rax, %rdi
.LBE60:
.LBB61:
.LBB54:
.LBB26:
.LBB25:
	leaq	1264(%rbp), %rax
	movq	%rax, %rcx
	call	_ZNSt7__cxx1112basic_stringIcSt11char_traitsIcESaIcEED1Ev
	jmp	.L180
.L295:
	movq	%rax, %rdi
.L180:
	.loc 18 101 81 discriminator 6
	testb	%sil, %sil
	je	.L181
	leaq	1343(%rbp), %rax
	movq	%rax, %rcx
	call	_ZNSaIcED1Ev
.L181:
	movq	%rdi, %rsi
	.loc 18 101 99 discriminator 13
	testb	%bl, %bl
	je	.L182
	leaq	1296(%rbp), %rax
	movq	%rax, %rcx
	call	_ZNSt7__cxx1112basic_stringIcSt11char_traitsIcESaIcEED1Ev
.L182:
	movq	%rsi, %rbx
	jmp	.L155
.L299:
	movq	%rax, %rbx
	.loc 18 102 63
	leaq	1344(%rbp), %rax
	movq	%rax, %rcx
	call	_ZN8wxStringD1Ev
	jmp	.L184
.L298:
	movq	%rax, %rbx
.L184:
	.loc 18 102 45 discriminator 2
	leaq	1392(%rbp), %rax
	movq	%rax, %rcx
	call	_ZN8wxStringD1Ev
	jmp	.L185
.L297:
	movq	%rax, %rbx
.L185:
	.loc 18 101 118
	leaq	32(%rbp), %rax
	movq	%rax, %rcx
	call	_ZN8wxStringD1Ev
	jmp	.L155
.L301:
	movq	%rax, %rbx
.LBE25:
.LBE26:
	.loc 18 133 47
	leaq	1440(%rbp), %rax
	movq	%rax, %rcx
	call	_ZN8wxStringD1Ev
	jmp	.L187
.L302:
	cmpq	$2, %rdx
	je	.L189
	cmpq	$2, %rdx
	jg	.L190
	cmpq	$1, %rdx
	je	.L191
	jmp	.L192
.L190:
	cmpq	$3, %rdx
	je	.L193
	cmpq	$4, %rdx
	je	.L194
.L192:
	movq	%rax, %rbx
	jmp	.L187
.L191:
.LBB27:
	.loc 18 148 41
	movq	%rax, %rcx
	call	__cxa_begin_catch
	movq	%rax, 2736(%rbp)
.LBB28:
	.loc 18 150 71
	leaq	1520(%rbp), %rax
	movq	2736(%rbp), %rdx
	movq	%rax, %rcx
	call	_ZN20ExceptionConvergence19getElementosDisparoEv
	.loc 18 150 85
	leaq	1520(%rbp), %rax
	movq	%rax, %rcx
	call	_ZN16ElementosDisparo11getElevacaoEv
	movq	%xmm0, %rax
	movq	%rax, 2728(%rbp)
	.loc 18 150 71
	leaq	1520(%rbp), %rax
	movq	%rax, %rcx
	call	_ZN16ElementosDisparoD1Ev
	.loc 18 151 24
	pxor	%xmm0, %xmm0
	comisd	2728(%rbp), %xmm0
	jbe	.L343
	.loc 18 157 29
	movq	2912(%rbp), %rax
	movq	8(%rax), %rsi
	movq	2912(%rbp), %rax
	movq	8(%rax), %rax
	.loc 18 157 58
	movq	(%rax), %rax
	addq	$1928, %rax
	movq	(%rax), %rbx
	.loc 18 157 52
	leaq	1552(%rbp), %rax
	leaq	.LC19(%rip), %rdx
	movq	%rax, %rcx
.LEHB73:
	call	_ZN8wxStringC1EPKc
.LEHE73:
	.loc 18 157 52 is_stmt 0 discriminator 1
	leaq	1552(%rbp), %rax
	movq	%rax, %rdx
	movq	%rsi, %rcx
.LEHB74:
	call	*%rbx
.LVL22:
.LEHE74:
	.loc 18 157 52 discriminator 3
	leaq	1552(%rbp), %rax
	movq	%rax, %rcx
	call	_ZN8wxStringD1Ev
	movl	$0, %ebx
	.loc 18 158 29 is_stmt 1 discriminator 3
	jmp	.L197
.L343:
	.loc 18 161 29
	movl	$0, 2840(%rbp)
	.loc 18 164 177
	movq	2920(%rbp), %rax
	movq	(%rax), %rax
	addq	$8, %rax
	movq	(%rax), %r8
	.loc 18 164 83
	cvtsi2sd	2844(%rbp), %xmm0
	cvtsi2sd	2856(%rbp), %xmm2
	leaq	1600(%rbp), %rax
	movsd	2928(%rbp), %xmm3
	movq	2920(%rbp), %rdx
	movl	2840(%rbp), %ecx
	movl	%ecx, 72(%rsp)
	movsd	2824(%rbp), %xmm1
	movsd	%xmm1, 64(%rsp)
	movsd	2952(%rbp), %xmm1
	movsd	%xmm1, 56(%rsp)
	movsd	2944(%rbp), %xmm1
	movsd	%xmm1, 48(%rsp)
	movl	2836(%rbp), %ecx
	movl	%ecx, 40(%rsp)
	movsd	%xmm0, 32(%rsp)
	movq	%rax, %rcx
.LEHB75:
	call	*%r8
.LVL23:
.LEHE75:
	.loc 18 164 177 discriminator 1
	leaq	1600(%rbp), %rdx
	leaq	-48(%rbp), %rax
	movq	%rax, %rcx
	call	_ZN16ElementosDisparoaSEOS_
	.loc 18 164 83 discriminator 1
	leaq	1600(%rbp), %rax
	movq	%rax, %rcx
	call	_ZN16ElementosDisparoD1Ev
.L221:
.LBE28:
	.loc 18 148 41
	movl	$1, %ebx
.L197:
.LEHB76:
	.loc 18 148 41 is_stmt 0 discriminator 1
	call	__cxa_end_catch
.LEHE76:
	.loc 18 148 41 discriminator 2
	cmpl	$1, %ebx
	je	.L200
	movl	$0, %ebx
	jmp	.L134
.L189:
.LBE27:
.LBB47:
	.loc 18 230 46 is_stmt 1
	movq	%rax, %rcx
	call	__cxa_begin_catch
	movq	%rax, 2640(%rbp)
	.loc 18 232 60
	movq	.refptr.config(%rip), %rax
	movq	(%rax), %rax
	movq	%rax, %rcx
	call	_ZN12Configuracao32isExibirValoresQuaseConvergentesEv
	.loc 18 232 17
	testb	%al, %al
	je	.L201
	.loc 18 233 72
	leaq	2032(%rbp), %rax
	movq	2640(%rbp), %rdx
	movq	%rax, %rcx
	call	_ZN25ExceptionQuasiConvergence19getElementosDisparoEv
	.loc 18 233 73
	leaq	2032(%rbp), %rdx
	leaq	-48(%rbp), %rax
	movq	%rax, %rcx
	call	_ZN16ElementosDisparoaSEOS_
	.loc 18 233 72
	leaq	2032(%rbp), %rax
	movq	%rax, %rcx
	call	_ZN16ElementosDisparoD1Ev
	.loc 18 230 46
	movl	$1, %ebx
	jmp	.L203
.L201:
	.loc 18 236 21
	movq	2912(%rbp), %rax
	movq	8(%rax), %rsi
	movq	2912(%rbp), %rax
	movq	8(%rax), %rax
	.loc 18 236 55
	movq	(%rax), %rax
	addq	$1928, %rax
	movq	(%rax), %rbx
	.loc 18 236 44
	leaq	2064(%rbp), %rax
	leaq	.LC28(%rip), %rdx
	movq	%rax, %rcx
.LEHB77:
	call	_ZN8wxStringC1EPKc
.LEHE77:
	.loc 18 236 44 is_stmt 0 discriminator 1
	leaq	2064(%rbp), %rax
	movq	%rax, %rdx
	movq	%rsi, %rcx
.LEHB78:
	call	*%rbx
.LVL24:
.LEHE78:
	.loc 18 236 44 discriminator 3
	leaq	2064(%rbp), %rax
	movq	%rax, %rcx
	call	_ZN8wxStringD1Ev
	movl	$0, %ebx
	.loc 18 237 21 is_stmt 1 discriminator 3
	nop
.L203:
.LEHB79:
	.loc 18 230 46 discriminator 1
	call	__cxa_end_catch
	.loc 18 230 46 is_stmt 0 discriminator 2
	cmpl	$1, %ebx
	je	.L200
	movl	$0, %ebx
	jmp	.L134
.L194:
.LBE47:
.LBB48:
	.loc 18 240 40 is_stmt 1
	movq	%rax, %rcx
	call	__cxa_begin_catch
	movq	%rax, 2632(%rbp)
	.loc 18 244 68
	leaq	2112(%rbp), %rax
	movq	2632(%rbp), %rdx
	movq	%rax, %rcx
	call	_ZN19ExceptionTrajectory19getElementosDisparoEv
	.loc 18 244 69
	leaq	2112(%rbp), %rdx
	leaq	-48(%rbp), %rax
	movq	%rax, %rcx
	call	_ZN16ElementosDisparoaSEOS_
	.loc 18 244 68
	leaq	2112(%rbp), %rax
	movq	%rax, %rcx
	call	_ZN16ElementosDisparoD1Ev
	.loc 18 240 40
	call	__cxa_end_catch
.LEHE79:
	jmp	.L200
.L193:
.LBE48:
.LBB49:
	.loc 18 246 39
	movq	%rax, %rcx
	call	__cxa_begin_catch
	movq	%rax, 2624(%rbp)
	.loc 18 248 17
	movq	2912(%rbp), %rax
	movq	8(%rax), %rsi
	movq	2912(%rbp), %rax
	movq	8(%rax), %rax
	.loc 18 248 46
	movq	(%rax), %rax
	addq	$1928, %rax
	movq	(%rax), %rbx
	.loc 18 248 40
	leaq	2144(%rbp), %rax
	leaq	.LC19(%rip), %rdx
	movq	%rax, %rcx
.LEHB80:
	call	_ZN8wxStringC1EPKc
.LEHE80:
	.loc 18 248 40 is_stmt 0 discriminator 1
	leaq	2144(%rbp), %rax
	movq	%rax, %rdx
	movq	%rsi, %rcx
.LEHB81:
	call	*%rbx
.LVL25:
.LEHE81:
	.loc 18 248 40 discriminator 3
	leaq	2144(%rbp), %rax
	movq	%rax, %rcx
	call	_ZN8wxStringD1Ev
	.loc 18 249 17 is_stmt 1 discriminator 3
	nop
.LEHB82:
	.loc 18 246 39 discriminator 3
	call	__cxa_end_catch
.LEHE82:
	movl	$0, %ebx
	jmp	.L134
.L304:
	movq	%rax, %rbx
.LBE49:
.LBB50:
.LBB46:
	.loc 18 157 52
	leaq	1552(%rbp), %rax
	movq	%rax, %rcx
	call	_ZN8wxStringD1Ev
	jmp	.L207
.L305:
	cmpq	$2, %rdx
	je	.L209
	cmpq	$2, %rdx
	jg	.L210
	cmpq	$1, %rdx
	je	.L211
	jmp	.L212
.L210:
	cmpq	$3, %rdx
	je	.L213
	cmpq	$4, %rdx
	je	.L214
.L212:
	movq	%rax, %rbx
	jmp	.L207
.L211:
.LBB29:
	.loc 18 166 52
	movq	%rax, %rcx
	call	__cxa_begin_catch
	movq	%rax, 2720(%rbp)
.LBB30:
	.loc 18 169 41
	movl	$1, 2840(%rbp)
.LBB31:
	.loc 18 172 121
	cmpl	$0, 2836(%rbp)
	jne	.L215
	.loc 18 172 121 is_stmt 0 discriminator 1
	movl	$1, %eax
	jmp	.L216
.L215:
	.loc 18 172 121 discriminator 2
	movl	$0, %eax
.L216:
	.loc 18 172 57 is_stmt 1 discriminator 4
	movl	%eax, 2716(%rbp)
	.loc 18 173 120 discriminator 4
	cmpl	$1, 2716(%rbp)
	jne	.L217
	.loc 18 173 120 is_stmt 0 discriminator 1
	movsd	.LC3(%rip), %xmm0
	jmp	.L218
.L217:
	.loc 18 173 120 discriminator 2
	movsd	.LC29(%rip), %xmm0
.L218:
	.loc 18 173 48 is_stmt 1 discriminator 4
	movsd	%xmm0, 2704(%rbp)
	.loc 18 174 193 discriminator 4
	movq	2920(%rbp), %rax
	movq	(%rax), %rax
	addq	$8, %rax
	movq	(%rax), %r8
	.loc 18 174 96 discriminator 4
	cvtsi2sd	2844(%rbp), %xmm0
	cvtsi2sd	2856(%rbp), %xmm2
	leaq	1632(%rbp), %rax
	movsd	2928(%rbp), %xmm3
	movq	2920(%rbp), %rdx
	movl	2840(%rbp), %ecx
	movl	%ecx, 72(%rsp)
	movsd	2704(%rbp), %xmm1
	movsd	%xmm1, 64(%rsp)
	movsd	2952(%rbp), %xmm1
	movsd	%xmm1, 56(%rsp)
	movsd	2944(%rbp), %xmm1
	movsd	%xmm1, 48(%rsp)
	movl	2716(%rbp), %ecx
	movl	%ecx, 40(%rsp)
	movsd	%xmm0, 32(%rsp)
	movq	%rax, %rcx
.LEHB83:
	call	*%r8
.LVL26:
.LEHE83:
	.loc 18 174 193 discriminator 1
	leaq	1632(%rbp), %rdx
	leaq	-48(%rbp), %rax
	movq	%rax, %rcx
	call	_ZN16ElementosDisparoaSEOS_
	.loc 18 174 96 discriminator 1
	leaq	1632(%rbp), %rax
	movq	%rax, %rcx
	call	_ZN16ElementosDisparoD1Ev
.L241:
.LBE31:
.LBE30:
	.loc 18 166 52
	movl	$1, %ebx
.L235:
.LEHB84:
	.loc 18 166 52 is_stmt 0 discriminator 1
	call	__cxa_end_catch
.LEHE84:
	.loc 18 166 52 discriminator 2
	cmpl	$1, %ebx
	je	.L221
	movl	$0, %ebx
	jmp	.L197
.L209:
.LBE29:
.LBB40:
	.loc 18 206 57 is_stmt 1
	movq	%rax, %rcx
	call	__cxa_begin_catch
	movq	%rax, 2664(%rbp)
	.loc 18 208 72
	movq	.refptr.config(%rip), %rax
	movq	(%rax), %rax
	movq	%rax, %rcx
	call	_ZN12Configuracao32isExibirValoresQuaseConvergentesEv
	.loc 18 208 29
	testb	%al, %al
	je	.L222
	.loc 18 209 84
	leaq	1872(%rbp), %rax
	movq	2664(%rbp), %rdx
	movq	%rax, %rcx
	call	_ZN25ExceptionQuasiConvergence19getElementosDisparoEv
	.loc 18 209 85
	leaq	1872(%rbp), %rdx
	leaq	-48(%rbp), %rax
	movq	%rax, %rcx
	call	_ZN16ElementosDisparoaSEOS_
	.loc 18 209 84
	leaq	1872(%rbp), %rax
	movq	%rax, %rcx
	call	_ZN16ElementosDisparoD1Ev
	.loc 18 206 57
	movl	$1, %ebx
	jmp	.L224
.L222:
	.loc 18 212 33
	movq	2912(%rbp), %rax
	movq	8(%rax), %rsi
	movq	2912(%rbp), %rax
	movq	8(%rax), %rax
	.loc 18 212 66
	movq	(%rax), %rax
	addq	$1928, %rax
	movq	(%rax), %rbx
	.loc 18 212 56
	leaq	1904(%rbp), %rax
	leaq	.LC30(%rip), %rdx
	movq	%rax, %rcx
.LEHB85:
	call	_ZN8wxStringC1EPKc
.LEHE85:
	.loc 18 212 56 is_stmt 0 discriminator 1
	leaq	1904(%rbp), %rax
	movq	%rax, %rdx
	movq	%rsi, %rcx
.LEHB86:
	call	*%rbx
.LVL27:
.LEHE86:
	.loc 18 212 56 discriminator 3
	leaq	1904(%rbp), %rax
	movq	%rax, %rcx
	call	_ZN8wxStringD1Ev
	movl	$0, %ebx
	.loc 18 213 33 is_stmt 1 discriminator 3
	nop
.L224:
.LEHB87:
	.loc 18 206 57 discriminator 1
	call	__cxa_end_catch
	.loc 18 206 57 is_stmt 0 discriminator 2
	cmpl	$1, %ebx
	je	.L221
	movl	$0, %ebx
	jmp	.L197
.L214:
.LBE40:
.LBB41:
	.loc 18 216 51 is_stmt 1
	movq	%rax, %rcx
	call	__cxa_begin_catch
	movq	%rax, 2656(%rbp)
	.loc 18 220 80
	leaq	1952(%rbp), %rax
	movq	2656(%rbp), %rdx
	movq	%rax, %rcx
	call	_ZN19ExceptionTrajectory19getElementosDisparoEv
	.loc 18 220 81
	leaq	1952(%rbp), %rdx
	leaq	-48(%rbp), %rax
	movq	%rax, %rcx
	call	_ZN16ElementosDisparoaSEOS_
	.loc 18 220 80
	leaq	1952(%rbp), %rax
	movq	%rax, %rcx
	call	_ZN16ElementosDisparoD1Ev
	.loc 18 216 51
	call	__cxa_end_catch
.LEHE87:
	jmp	.L221
.L213:
.LBE41:
.LBB42:
	.loc 18 222 50
	movq	%rax, %rcx
	call	__cxa_begin_catch
	movq	%rax, 2648(%rbp)
	.loc 18 224 29
	movq	2912(%rbp), %rax
	movq	8(%rax), %rsi
	movq	2912(%rbp), %rax
	movq	8(%rax), %rax
	.loc 18 224 58
	movq	(%rax), %rax
	addq	$1928, %rax
	movq	(%rax), %rbx
	.loc 18 224 52
	leaq	1984(%rbp), %rax
	leaq	.LC19(%rip), %rdx
	movq	%rax, %rcx
.LEHB88:
	call	_ZN8wxStringC1EPKc
.LEHE88:
	.loc 18 224 52 is_stmt 0 discriminator 1
	leaq	1984(%rbp), %rax
	movq	%rax, %rdx
	movq	%rsi, %rcx
.LEHB89:
	call	*%rbx
.LVL28:
.LEHE89:
	.loc 18 224 52 discriminator 3
	leaq	1984(%rbp), %rax
	movq	%rax, %rcx
	call	_ZN8wxStringD1Ev
	.loc 18 225 29 is_stmt 1 discriminator 3
	nop
.LEHB90:
	.loc 18 222 50 discriminator 3
	call	__cxa_end_catch
.LEHE90:
	movl	$0, %ebx
	jmp	.L197
.L306:
	cmpq	$2, %rdx
	je	.L228
	cmpq	$2, %rdx
	jg	.L229
	cmpq	$1, %rdx
	je	.L230
	jmp	.L231
.L229:
	cmpq	$3, %rdx
	je	.L232
	cmpq	$4, %rdx
	je	.L233
.L231:
	movq	%rax, %rbx
	jmp	.L234
.L230:
.LBE42:
.LBB43:
.LBB39:
.LBB32:
	.loc 18 176 64
	movq	%rax, %rcx
	call	__cxa_begin_catch
	movq	%rax, 2696(%rbp)
	.loc 18 178 39
	movq	2912(%rbp), %rax
	movq	8(%rax), %rsi
	movq	2912(%rbp), %rax
	movq	8(%rax), %rax
	.loc 18 178 72
	movq	(%rax), %rax
	addq	$1928, %rax
	movq	(%rax), %rbx
	.loc 18 178 62
	leaq	1664(%rbp), %rax
	leaq	.LC31(%rip), %rdx
	movq	%rax, %rcx
.LEHB91:
	call	_ZN8wxStringC1EPKc
.LEHE91:
	.loc 18 178 62 is_stmt 0 discriminator 1
	leaq	1664(%rbp), %rax
	movq	%rax, %rdx
	movq	%rsi, %rcx
.LEHB92:
	call	*%rbx
.LVL29:
.LEHE92:
	.loc 18 178 62 discriminator 3
	leaq	1664(%rbp), %rax
	movq	%rax, %rcx
	call	_ZN8wxStringD1Ev
	.loc 18 179 39 is_stmt 1 discriminator 3
	nop
.LEHB93:
	.loc 18 176 64 discriminator 3
	call	__cxa_end_catch
.LEHE93:
	movl	$0, %ebx
	jmp	.L235
.L228:
.LBE32:
.LBB33:
	.loc 18 182 69
	movq	%rax, %rcx
	call	__cxa_begin_catch
	movq	%rax, 2688(%rbp)
	.loc 18 184 83
	movq	.refptr.config(%rip), %rax
	movq	(%rax), %rax
	movq	%rax, %rcx
	call	_ZN12Configuracao32isExibirValoresQuaseConvergentesEv
	.loc 18 184 40
	testb	%al, %al
	je	.L236
	.loc 18 185 96
	leaq	1712(%rbp), %rax
	movq	2688(%rbp), %rdx
	movq	%rax, %rcx
	call	_ZN25ExceptionQuasiConvergence19getElementosDisparoEv
	.loc 18 185 97
	leaq	1712(%rbp), %rdx
	leaq	-48(%rbp), %rax
	movq	%rax, %rcx
	call	_ZN16ElementosDisparoaSEOS_
	.loc 18 185 96
	leaq	1712(%rbp), %rax
	movq	%rax, %rcx
	call	_ZN16ElementosDisparoD1Ev
	.loc 18 182 69
	movl	$1, %ebx
	jmp	.L238
.L236:
	.loc 18 188 45
	movq	2912(%rbp), %rax
	movq	8(%rax), %rsi
	movq	2912(%rbp), %rax
	movq	8(%rax), %rax
	.loc 18 188 79
	movq	(%rax), %rax
	addq	$1928, %rax
	movq	(%rax), %rbx
	.loc 18 188 68
	leaq	1744(%rbp), %rax
	leaq	.LC28(%rip), %rdx
	movq	%rax, %rcx
.LEHB94:
	call	_ZN8wxStringC1EPKc
.LEHE94:
	.loc 18 188 68 is_stmt 0 discriminator 1
	leaq	1744(%rbp), %rax
	movq	%rax, %rdx
	movq	%rsi, %rcx
.LEHB95:
	call	*%rbx
.LVL30:
.LEHE95:
	.loc 18 188 68 discriminator 3
	leaq	1744(%rbp), %rax
	movq	%rax, %rcx
	call	_ZN8wxStringD1Ev
	movl	$0, %ebx
	.loc 18 189 45 is_stmt 1 discriminator 3
	nop
.L238:
.LEHB96:
	.loc 18 182 69 discriminator 1
	call	__cxa_end_catch
	.loc 18 182 69 is_stmt 0 discriminator 2
	cmpl	$1, %ebx
	je	.L241
	movl	$0, %ebx
	jmp	.L235
.L233:
.LBE33:
.LBB34:
	.loc 18 193 63 is_stmt 1
	movq	%rax, %rcx
	call	__cxa_begin_catch
	movq	%rax, 2680(%rbp)
	.loc 18 197 92
	leaq	1792(%rbp), %rax
	movq	2680(%rbp), %rdx
	movq	%rax, %rcx
	call	_ZN19ExceptionTrajectory19getElementosDisparoEv
	.loc 18 197 93
	leaq	1792(%rbp), %rdx
	leaq	-48(%rbp), %rax
	movq	%rax, %rcx
	call	_ZN16ElementosDisparoaSEOS_
	.loc 18 197 92
	leaq	1792(%rbp), %rax
	movq	%rax, %rcx
	call	_ZN16ElementosDisparoD1Ev
	.loc 18 193 63
	call	__cxa_end_catch
.LEHE96:
	jmp	.L241
.L232:
.LBE34:
.LBB35:
	.loc 18 199 62
	movq	%rax, %rcx
	call	__cxa_begin_catch
	movq	%rax, 2672(%rbp)
	.loc 18 201 40
	movq	2912(%rbp), %rax
	movq	8(%rax), %rsi
	movq	2912(%rbp), %rax
	movq	8(%rax), %rax
	.loc 18 201 69
	movq	(%rax), %rax
	addq	$1928, %rax
	movq	(%rax), %rbx
	.loc 18 201 63
	leaq	1824(%rbp), %rax
	leaq	.LC19(%rip), %rdx
	movq	%rax, %rcx
.LEHB97:
	call	_ZN8wxStringC1EPKc
.LEHE97:
	.loc 18 201 63 is_stmt 0 discriminator 1
	leaq	1824(%rbp), %rax
	movq	%rax, %rdx
	movq	%rsi, %rcx
.LEHB98:
	call	*%rbx
.LVL31:
.LEHE98:
	.loc 18 201 63 discriminator 3
	leaq	1824(%rbp), %rax
	movq	%rax, %rcx
	call	_ZN8wxStringD1Ev
	.loc 18 202 40 is_stmt 1 discriminator 3
	nop
.LEHB99:
	.loc 18 199 62 discriminator 3
	call	__cxa_end_catch
.LEHE99:
	movl	$0, %ebx
	jmp	.L235
.L309:
	movq	%rax, %rbx
.LBE35:
.LBB36:
	.loc 18 178 62
	leaq	1664(%rbp), %rax
	movq	%rax, %rcx
	call	_ZN8wxStringD1Ev
	jmp	.L243
.L308:
	movq	%rax, %rbx
.L243:
	.loc 18 176 64
	call	__cxa_end_catch
	jmp	.L234
.L311:
	movq	%rax, %rbx
.LBE36:
.LBB37:
	.loc 18 188 68
	leaq	1744(%rbp), %rax
	movq	%rax, %rcx
	call	_ZN8wxStringD1Ev
	jmp	.L245
.L310:
	movq	%rax, %rbx
.L245:
	.loc 18 182 69
	call	__cxa_end_catch
	jmp	.L234
.L313:
	movq	%rax, %rbx
.LBE37:
.LBB38:
	.loc 18 201 63
	leaq	1824(%rbp), %rax
	movq	%rax, %rcx
	call	_ZN8wxStringD1Ev
	jmp	.L247
.L312:
	movq	%rax, %rbx
.L247:
	.loc 18 199 62
	call	__cxa_end_catch
	jmp	.L234
.L307:
	movq	%rax, %rbx
.L234:
.LBE38:
.LBE39:
	.loc 18 166 52
	call	__cxa_end_catch
	jmp	.L207
.L315:
	movq	%rax, %rbx
.LBE43:
.LBB44:
	.loc 18 212 56
	leaq	1904(%rbp), %rax
	movq	%rax, %rcx
	call	_ZN8wxStringD1Ev
	jmp	.L249
.L314:
	movq	%rax, %rbx
.L249:
	.loc 18 206 57
	call	__cxa_end_catch
	jmp	.L207
.L317:
	movq	%rax, %rbx
.LBE44:
.LBB45:
	.loc 18 224 52
	leaq	1984(%rbp), %rax
	movq	%rax, %rcx
	call	_ZN8wxStringD1Ev
	jmp	.L251
.L316:
	movq	%rax, %rbx
.L251:
	.loc 18 222 50
	call	__cxa_end_catch
	jmp	.L207
.L303:
	movq	%rax, %rbx
.L207:
.LBE45:
.LBE46:
	.loc 18 148 41
	call	__cxa_end_catch
	jmp	.L187
.L319:
	movq	%rax, %rbx
.LBE50:
.LBB51:
	.loc 18 236 44
	leaq	2064(%rbp), %rax
	movq	%rax, %rcx
	call	_ZN8wxStringD1Ev
	jmp	.L253
.L318:
	movq	%rax, %rbx
.L253:
	.loc 18 230 46
	call	__cxa_end_catch
	jmp	.L187
.L321:
	movq	%rax, %rbx
.LBE51:
.LBB52:
	.loc 18 248 40
	leaq	2144(%rbp), %rax
	movq	%rax, %rcx
	call	_ZN8wxStringD1Ev
	jmp	.L255
.L320:
	movq	%rax, %rbx
.L255:
	.loc 18 246 39
	call	__cxa_end_catch
	jmp	.L187
.L323:
	movq	%rax, %rbx
.LBE52:
	.loc 18 259 40
	leaq	2192(%rbp), %rax
	movq	%rax, %rcx
	call	_ZN8wxStringD1Ev
	jmp	.L257
.L325:
	movq	%rax, %rdi
	leaq	2240(%rbp), %rax
	movq	%rax, %rcx
	call	_ZNSt7__cxx1112basic_stringIcSt11char_traitsIcESaIcEED1Ev
	jmp	.L259
.L324:
	movq	%rax, %rdi
.L259:
	.loc 18 268 77 discriminator 6
	testb	%sil, %sil
	je	.L260
	leaq	2319(%rbp), %rax
	movq	%rax, %rcx
	call	_ZNSaIcED1Ev
.L260:
	movq	%rdi, %rsi
	.loc 18 268 95 discriminator 15
	testb	%bl, %bl
	je	.L261
	leaq	2272(%rbp), %rax
	movq	%rax, %rcx
	call	_ZNSt7__cxx1112basic_stringIcSt11char_traitsIcESaIcEED1Ev
.L261:
	movq	%rsi, %rbx
	jmp	.L257
.L330:
	movq	%rax, %rbx
	.loc 18 269 92
	leaq	2320(%rbp), %rax
	movq	%rax, %rcx
	call	_ZN8wxStringD1Ev
	jmp	.L263
.L329:
	movq	%rax, %rbx
.L263:
	.loc 18 269 74 discriminator 6
	leaq	2368(%rbp), %rax
	movq	%rax, %rcx
	call	_ZN8wxStringD1Ev
	jmp	.L264
.L328:
	movq	%rax, %rbx
.L264:
	.loc 18 269 74 is_stmt 0 discriminator 4
	leaq	2416(%rbp), %rax
	movq	%rax, %rcx
	call	_ZN8wxStringD1Ev
	jmp	.L265
.L327:
	movq	%rax, %rbx
.L265:
	.loc 18 269 46 is_stmt 1 discriminator 2
	leaq	2464(%rbp), %rax
	movq	%rax, %rcx
	call	_ZNSt7__cxx1112basic_stringIcSt11char_traitsIcESaIcEED1Ev
	jmp	.L266
.L326:
	movq	%rax, %rbx
.L266:
	.loc 18 268 114
	leaq	-16(%rbp), %rax
	movq	%rax, %rcx
	call	_ZN8wxStringD1Ev
	jmp	.L257
.L322:
	movq	%rax, %rbx
.L257:
	.loc 18 256 190
	leaq	32(%rbp), %rax
	movq	%rax, %rcx
	call	_ZN12ElementosVooD1Ev
	jmp	.L187
.L300:
	movq	%rax, %rbx
.L187:
	.loc 18 112 30
	leaq	-48(%rbp), %rax
	movq	%rax, %rcx
	call	_ZN16ElementosDisparoD1Ev
	jmp	.L155
.L331:
	movq	%rax, %rbx
.LBE54:
.LBE61:
	.loc 18 276 32
	leaq	2496(%rbp), %rax
	movq	%rax, %rcx
	call	_ZN8wxStringD1Ev
	jmp	.L155
.L332:
	movq	%rax, %rbx
.LBE63:
.LBE64:
	.loc 18 285 28
	leaq	2544(%rbp), %rax
	movq	%rax, %rcx
	call	_ZN8wxStringD1Ev
	jmp	.L155
.L273:
	movq	%rax, %rbx
.L155:
	.loc 18 22 72
	leaq	128(%rbp), %rax
	movq	%rax, %rcx
	call	_ZN12ElementosVooD1Ev
	jmp	.L269
.L272:
	movq	%rax, %rbx
.L269:
	.loc 18 21 19
	leaq	224(%rbp), %rax
	movq	%rax, %rcx
	call	_ZN16ElementosDisparoD1Ev
	jmp	.L270
.L271:
	movq	%rax, %rbx
.L270:
	.loc 18 20 18
	leaq	256(%rbp), %rax
	movq	%rax, %rcx
	call	_ZN12ElementosVooD1Ev
	movq	%rbx, %rax
	movq	%rax, %rcx
.LEHB100:
	call	_Unwind_Resume
	nop
.LEHE100:
.L342:
	.loc 18 286 1
	addq	$3000, %rsp
	popq	%rbx
	.cfi_restore 3
	popq	%rsi
	.cfi_restore 4
	popq	%rdi
	.cfi_restore 5
	popq	%rbp
	.cfi_restore 6
	.cfi_def_cfa 7, -2968
	ret
	.cfi_endproc
.LFE11340:
	.seh_handler	__gxx_personality_seh0, @unwind, @except
	.seh_handlerdata
	.align 4
.LLSDA11340:
	.byte	0xff
	.byte	0x9b
	.uleb128 .LLSDATT11340-.LLSDATTD11340
.LLSDATTD11340:
	.byte	0x1
	.uleb128 .LLSDACSE11340-.LLSDACSB11340
.LLSDACSB11340:
	.uleb128 .LEHB11-.LFB11340
	.uleb128 .LEHE11-.LEHB11
	.uleb128 0
	.uleb128 0
	.uleb128 .LEHB12-.LFB11340
	.uleb128 .LEHE12-.LEHB12
	.uleb128 .L271-.LFB11340
	.uleb128 0
	.uleb128 .LEHB13-.LFB11340
	.uleb128 .LEHE13-.LEHB13
	.uleb128 .L272-.LFB11340
	.uleb128 0
	.uleb128 .LEHB14-.LFB11340
	.uleb128 .LEHE14-.LEHB14
	.uleb128 .L273-.LFB11340
	.uleb128 0
	.uleb128 .LEHB15-.LFB11340
	.uleb128 .LEHE15-.LEHB15
	.uleb128 .L274-.LFB11340
	.uleb128 0
	.uleb128 .LEHB16-.LFB11340
	.uleb128 .LEHE16-.LEHB16
	.uleb128 .L273-.LFB11340
	.uleb128 0
	.uleb128 .LEHB17-.LFB11340
	.uleb128 .LEHE17-.LEHB17
	.uleb128 .L275-.LFB11340
	.uleb128 0
	.uleb128 .LEHB18-.LFB11340
	.uleb128 .LEHE18-.LEHB18
	.uleb128 .L276-.LFB11340
	.uleb128 0
	.uleb128 .LEHB19-.LFB11340
	.uleb128 .LEHE19-.LEHB19
	.uleb128 .L277-.LFB11340
	.uleb128 0
	.uleb128 .LEHB20-.LFB11340
	.uleb128 .LEHE20-.LEHB20
	.uleb128 .L278-.LFB11340
	.uleb128 0
	.uleb128 .LEHB21-.LFB11340
	.uleb128 .LEHE21-.LEHB21
	.uleb128 .L273-.LFB11340
	.uleb128 0
	.uleb128 .LEHB22-.LFB11340
	.uleb128 .LEHE22-.LEHB22
	.uleb128 .L279-.LFB11340
	.uleb128 0
	.uleb128 .LEHB23-.LFB11340
	.uleb128 .LEHE23-.LEHB23
	.uleb128 .L273-.LFB11340
	.uleb128 0
	.uleb128 .LEHB24-.LFB11340
	.uleb128 .LEHE24-.LEHB24
	.uleb128 .L280-.LFB11340
	.uleb128 0
	.uleb128 .LEHB25-.LFB11340
	.uleb128 .LEHE25-.LEHB25
	.uleb128 .L273-.LFB11340
	.uleb128 0
	.uleb128 .LEHB26-.LFB11340
	.uleb128 .LEHE26-.LEHB26
	.uleb128 .L281-.LFB11340
	.uleb128 0
	.uleb128 .LEHB27-.LFB11340
	.uleb128 .LEHE27-.LEHB27
	.uleb128 .L273-.LFB11340
	.uleb128 0
	.uleb128 .LEHB28-.LFB11340
	.uleb128 .LEHE28-.LEHB28
	.uleb128 .L282-.LFB11340
	.uleb128 0
	.uleb128 .LEHB29-.LFB11340
	.uleb128 .LEHE29-.LEHB29
	.uleb128 .L273-.LFB11340
	.uleb128 0
	.uleb128 .LEHB30-.LFB11340
	.uleb128 .LEHE30-.LEHB30
	.uleb128 .L283-.LFB11340
	.uleb128 0
	.uleb128 .LEHB31-.LFB11340
	.uleb128 .LEHE31-.LEHB31
	.uleb128 .L273-.LFB11340
	.uleb128 0
	.uleb128 .LEHB32-.LFB11340
	.uleb128 .LEHE32-.LEHB32
	.uleb128 .L284-.LFB11340
	.uleb128 0
	.uleb128 .LEHB33-.LFB11340
	.uleb128 .LEHE33-.LEHB33
	.uleb128 .L273-.LFB11340
	.uleb128 0
	.uleb128 .LEHB34-.LFB11340
	.uleb128 .LEHE34-.LEHB34
	.uleb128 .L285-.LFB11340
	.uleb128 0
	.uleb128 .LEHB35-.LFB11340
	.uleb128 .LEHE35-.LEHB35
	.uleb128 .L286-.LFB11340
	.uleb128 0
	.uleb128 .LEHB36-.LFB11340
	.uleb128 .LEHE36-.LEHB36
	.uleb128 .L287-.LFB11340
	.uleb128 0
	.uleb128 .LEHB37-.LFB11340
	.uleb128 .LEHE37-.LEHB37
	.uleb128 .L288-.LFB11340
	.uleb128 0x7
	.uleb128 .LEHB38-.LFB11340
	.uleb128 .LEHE38-.LEHB38
	.uleb128 .L273-.LFB11340
	.uleb128 0
	.uleb128 .LEHB39-.LFB11340
	.uleb128 .LEHE39-.LEHB39
	.uleb128 .L295-.LFB11340
	.uleb128 0
	.uleb128 .LEHB40-.LFB11340
	.uleb128 .LEHE40-.LEHB40
	.uleb128 .L296-.LFB11340
	.uleb128 0
	.uleb128 .LEHB41-.LFB11340
	.uleb128 .LEHE41-.LEHB41
	.uleb128 .L297-.LFB11340
	.uleb128 0
	.uleb128 .LEHB42-.LFB11340
	.uleb128 .LEHE42-.LEHB42
	.uleb128 .L298-.LFB11340
	.uleb128 0
	.uleb128 .LEHB43-.LFB11340
	.uleb128 .LEHE43-.LEHB43
	.uleb128 .L299-.LFB11340
	.uleb128 0
	.uleb128 .LEHB44-.LFB11340
	.uleb128 .LEHE44-.LEHB44
	.uleb128 .L273-.LFB11340
	.uleb128 0
	.uleb128 .LEHB45-.LFB11340
	.uleb128 .LEHE45-.LEHB45
	.uleb128 .L300-.LFB11340
	.uleb128 0
	.uleb128 .LEHB46-.LFB11340
	.uleb128 .LEHE46-.LEHB46
	.uleb128 .L301-.LFB11340
	.uleb128 0
	.uleb128 .LEHB47-.LFB11340
	.uleb128 .LEHE47-.LEHB47
	.uleb128 .L302-.LFB11340
	.uleb128 0xd
	.uleb128 .LEHB48-.LFB11340
	.uleb128 .LEHE48-.LEHB48
	.uleb128 .L300-.LFB11340
	.uleb128 0
	.uleb128 .LEHB49-.LFB11340
	.uleb128 .LEHE49-.LEHB49
	.uleb128 .L322-.LFB11340
	.uleb128 0
	.uleb128 .LEHB50-.LFB11340
	.uleb128 .LEHE50-.LEHB50
	.uleb128 .L323-.LFB11340
	.uleb128 0
	.uleb128 .LEHB51-.LFB11340
	.uleb128 .LEHE51-.LEHB51
	.uleb128 .L322-.LFB11340
	.uleb128 0
	.uleb128 .LEHB52-.LFB11340
	.uleb128 .LEHE52-.LEHB52
	.uleb128 .L324-.LFB11340
	.uleb128 0
	.uleb128 .LEHB53-.LFB11340
	.uleb128 .LEHE53-.LEHB53
	.uleb128 .L325-.LFB11340
	.uleb128 0
	.uleb128 .LEHB54-.LFB11340
	.uleb128 .LEHE54-.LEHB54
	.uleb128 .L326-.LFB11340
	.uleb128 0
	.uleb128 .LEHB55-.LFB11340
	.uleb128 .LEHE55-.LEHB55
	.uleb128 .L327-.LFB11340
	.uleb128 0
	.uleb128 .LEHB56-.LFB11340
	.uleb128 .LEHE56-.LEHB56
	.uleb128 .L328-.LFB11340
	.uleb128 0
	.uleb128 .LEHB57-.LFB11340
	.uleb128 .LEHE57-.LEHB57
	.uleb128 .L329-.LFB11340
	.uleb128 0
	.uleb128 .LEHB58-.LFB11340
	.uleb128 .LEHE58-.LEHB58
	.uleb128 .L330-.LFB11340
	.uleb128 0
	.uleb128 .LEHB59-.LFB11340
	.uleb128 .LEHE59-.LEHB59
	.uleb128 .L326-.LFB11340
	.uleb128 0
	.uleb128 .LEHB60-.LFB11340
	.uleb128 .LEHE60-.LEHB60
	.uleb128 .L273-.LFB11340
	.uleb128 0
	.uleb128 .LEHB61-.LFB11340
	.uleb128 .LEHE61-.LEHB61
	.uleb128 .L331-.LFB11340
	.uleb128 0
	.uleb128 .LEHB62-.LFB11340
	.uleb128 .LEHE62-.LEHB62
	.uleb128 .L273-.LFB11340
	.uleb128 0
	.uleb128 .LEHB63-.LFB11340
	.uleb128 .LEHE63-.LEHB63
	.uleb128 .L332-.LFB11340
	.uleb128 0
	.uleb128 .LEHB64-.LFB11340
	.uleb128 .LEHE64-.LEHB64
	.uleb128 .L289-.LFB11340
	.uleb128 0
	.uleb128 .LEHB65-.LFB11340
	.uleb128 .LEHE65-.LEHB65
	.uleb128 .L290-.LFB11340
	.uleb128 0
	.uleb128 .LEHB66-.LFB11340
	.uleb128 .LEHE66-.LEHB66
	.uleb128 .L273-.LFB11340
	.uleb128 0
	.uleb128 .LEHB67-.LFB11340
	.uleb128 .LEHE67-.LEHB67
	.uleb128 .L291-.LFB11340
	.uleb128 0
	.uleb128 .LEHB68-.LFB11340
	.uleb128 .LEHE68-.LEHB68
	.uleb128 .L292-.LFB11340
	.uleb128 0
	.uleb128 .LEHB69-.LFB11340
	.uleb128 .LEHE69-.LEHB69
	.uleb128 .L273-.LFB11340
	.uleb128 0
	.uleb128 .LEHB70-.LFB11340
	.uleb128 .LEHE70-.LEHB70
	.uleb128 .L293-.LFB11340
	.uleb128 0
	.uleb128 .LEHB71-.LFB11340
	.uleb128 .LEHE71-.LEHB71
	.uleb128 .L294-.LFB11340
	.uleb128 0
	.uleb128 .LEHB72-.LFB11340
	.uleb128 .LEHE72-.LEHB72
	.uleb128 .L273-.LFB11340
	.uleb128 0
	.uleb128 .LEHB73-.LFB11340
	.uleb128 .LEHE73-.LEHB73
	.uleb128 .L303-.LFB11340
	.uleb128 0
	.uleb128 .LEHB74-.LFB11340
	.uleb128 .LEHE74-.LEHB74
	.uleb128 .L304-.LFB11340
	.uleb128 0
	.uleb128 .LEHB75-.LFB11340
	.uleb128 .LEHE75-.LEHB75
	.uleb128 .L305-.LFB11340
	.uleb128 0xd
	.uleb128 .LEHB76-.LFB11340
	.uleb128 .LEHE76-.LEHB76
	.uleb128 .L300-.LFB11340
	.uleb128 0
	.uleb128 .LEHB77-.LFB11340
	.uleb128 .LEHE77-.LEHB77
	.uleb128 .L318-.LFB11340
	.uleb128 0
	.uleb128 .LEHB78-.LFB11340
	.uleb128 .LEHE78-.LEHB78
	.uleb128 .L319-.LFB11340
	.uleb128 0
	.uleb128 .LEHB79-.LFB11340
	.uleb128 .LEHE79-.LEHB79
	.uleb128 .L300-.LFB11340
	.uleb128 0
	.uleb128 .LEHB80-.LFB11340
	.uleb128 .LEHE80-.LEHB80
	.uleb128 .L320-.LFB11340
	.uleb128 0
	.uleb128 .LEHB81-.LFB11340
	.uleb128 .LEHE81-.LEHB81
	.uleb128 .L321-.LFB11340
	.uleb128 0
	.uleb128 .LEHB82-.LFB11340
	.uleb128 .LEHE82-.LEHB82
	.uleb128 .L300-.LFB11340
	.uleb128 0
	.uleb128 .LEHB83-.LFB11340
	.uleb128 .LEHE83-.LEHB83
	.uleb128 .L306-.LFB11340
	.uleb128 0xd
	.uleb128 .LEHB84-.LFB11340
	.uleb128 .LEHE84-.LEHB84
	.uleb128 .L303-.LFB11340
	.uleb128 0
	.uleb128 .LEHB85-.LFB11340
	.uleb128 .LEHE85-.LEHB85
	.uleb128 .L314-.LFB11340
	.uleb128 0
	.uleb128 .LEHB86-.LFB11340
	.uleb128 .LEHE86-.LEHB86
	.uleb128 .L315-.LFB11340
	.uleb128 0
	.uleb128 .LEHB87-.LFB11340
	.uleb128 .LEHE87-.LEHB87
	.uleb128 .L303-.LFB11340
	.uleb128 0
	.uleb128 .LEHB88-.LFB11340
	.uleb128 .LEHE88-.LEHB88
	.uleb128 .L316-.LFB11340
	.uleb128 0
	.uleb128 .LEHB89-.LFB11340
	.uleb128 .LEHE89-.LEHB89
	.uleb128 .L317-.LFB11340
	.uleb128 0
	.uleb128 .LEHB90-.LFB11340
	.uleb128 .LEHE90-.LEHB90
	.uleb128 .L303-.LFB11340
	.uleb128 0
	.uleb128 .LEHB91-.LFB11340
	.uleb128 .LEHE91-.LEHB91
	.uleb128 .L308-.LFB11340
	.uleb128 0
	.uleb128 .LEHB92-.LFB11340
	.uleb128 .LEHE92-.LEHB92
	.uleb128 .L309-.LFB11340
	.uleb128 0
	.uleb128 .LEHB93-.LFB11340
	.uleb128 .LEHE93-.LEHB93
	.uleb128 .L307-.LFB11340
	.uleb128 0
	.uleb128 .LEHB94-.LFB11340
	.uleb128 .LEHE94-.LEHB94
	.uleb128 .L310-.LFB11340
	.uleb128 0
	.uleb128 .LEHB95-.LFB11340
	.uleb128 .LEHE95-.LEHB95
	.uleb128 .L311-.LFB11340
	.uleb128 0
	.uleb128 .LEHB96-.LFB11340
	.uleb128 .LEHE96-.LEHB96
	.uleb128 .L307-.LFB11340
	.uleb128 0
	.uleb128 .LEHB97-.LFB11340
	.uleb128 .LEHE97-.LEHB97
	.uleb128 .L312-.LFB11340
	.uleb128 0
	.uleb128 .LEHB98-.LFB11340
	.uleb128 .LEHE98-.LEHB98
	.uleb128 .L313-.LFB11340
	.uleb128 0
	.uleb128 .LEHB99-.LFB11340
	.uleb128 .LEHE99-.LEHB99
	.uleb128 .L307-.LFB11340
	.uleb128 0
	.uleb128 .LEHB100-.LFB11340
	.uleb128 .LEHE100-.LEHB100
	.uleb128 0
	.uleb128 0
.LLSDACSE11340:
	.byte	0
	.byte	0
	.byte	0x3
	.byte	0x7d
	.byte	0x2
	.byte	0x7d
	.byte	0x1
	.byte	0x7d
	.byte	0x4
	.byte	0x79
	.byte	0x2
	.byte	0x7d
	.byte	0x1
	.byte	0x7d
	.align 4
	.long	.LDFCM0-.
	.long	.LDFCM1-.
	.long	.LDFCM2-.
	.long	.LDFCM3-.
.LLSDATT11340:
	.text
	.seh_endproc
	.section	.text$_ZN9__gnu_cxx12__to_xstringINSt7__cxx1112basic_stringIcSt11char_traitsIcESaIcEEEcEET_PFiPT0_yPKS8_PcEySB_z,"x"
	.linkonce discard
	.globl	_ZN9__gnu_cxx12__to_xstringINSt7__cxx1112basic_stringIcSt11char_traitsIcESaIcEEEcEET_PFiPT0_yPKS8_PcEySB_z
	.def	_ZN9__gnu_cxx12__to_xstringINSt7__cxx1112basic_stringIcSt11char_traitsIcESaIcEEEcEET_PFiPT0_yPKS8_PcEySB_z;	.scl	2;	.type	32;	.endef
	.seh_proc	_ZN9__gnu_cxx12__to_xstringINSt7__cxx1112basic_stringIcSt11char_traitsIcESaIcEEEcEET_PFiPT0_yPKS8_PcEySB_z
_ZN9__gnu_cxx12__to_xstringINSt7__cxx1112basic_stringIcSt11char_traitsIcESaIcEEEcEET_PFiPT0_yPKS8_PcEySB_z:
.LFB11421:
	.file 20 "C:/Program Files/CodeBlocks/MinGW/lib/gcc/x86_64-w64-mingw32/8.1.0/include/c++/ext/string_conversions.h"
	.loc 20 99 5
	.cfi_startproc
	pushq	%rbp
	.seh_pushreg	%rbp
	.cfi_def_cfa_offset 16
	.cfi_offset 6, -16
	pushq	%rbx
	.seh_pushreg	%rbx
	.cfi_def_cfa_offset 24
	.cfi_offset 3, -24
	subq	$72, %rsp
	.seh_stackalloc	72
	.cfi_def_cfa_offset 96
	leaq	128(%rsp), %rbp
	.seh_setframe	%rbp, 128
	.cfi_def_cfa 6, -32
	.seh_endprologue
	movq	%rcx, -32(%rbp)
	movq	%rdx, -24(%rbp)
	movq	%r8, -16(%rbp)
	movq	%r9, -8(%rbp)
	.loc 20 105 58
	movq	-16(%rbp), %rax
	addq	$15, %rax
	shrq	$4, %rax
	salq	$4, %rax
	call	___chkstk_ms
	subq	%rax, %rsp
	leaq	32(%rsp), %rax
	addq	$15, %rax
	shrq	$4, %rax
	salq	$4, %rax
	movq	%rax, -72(%rbp)
	.loc 20 109 25
	movq	%rbp, %rax
	movq	%rax, -88(%rbp)
	.loc 20 111 32
	movq	-88(%rbp), %r9
	movq	-8(%rbp), %r8
	movq	-16(%rbp), %rdx
	movq	-72(%rbp), %rcx
	movq	-24(%rbp), %rax
.LEHB101:
	call	*%rax
.LVL32:
.LEHE101:
	movl	%eax, -76(%rbp)
	.loc 20 115 38
	leaq	-77(%rbp), %rax
	movq	%rax, %rcx
	call	_ZNSaIcEC1Ev
	movl	-76(%rbp), %eax
	cltq
	movq	-72(%rbp), %rdx
	leaq	(%rax,%rdx), %rcx
	leaq	-77(%rbp), %rdx
	movq	-72(%rbp), %rax
	movq	%rdx, %r9
	movq	%rcx, %r8
	movq	%rax, %rdx
	movq	-32(%rbp), %rcx
.LEHB102:
	call	_ZNSt7__cxx1112basic_stringIcSt11char_traitsIcESaIcEEC1IPcvEET_S7_RKS3_
.LEHE102:
	leaq	-77(%rbp), %rax
	movq	%rax, %rcx
	call	_ZNSaIcED1Ev
	jmp	.L350
.L349:
	movq	%rax, %rbx
	leaq	-77(%rbp), %rax
	movq	%rax, %rcx
	call	_ZNSaIcED1Ev
	movq	%rbx, %rax
	movq	%rax, %rcx
.LEHB103:
	call	_Unwind_Resume
.LEHE103:
.L350:
	.loc 20 116 5
	movq	-32(%rbp), %rax
	leaq	-56(%rbp), %rsp
	popq	%rbx
	.cfi_restore 3
	popq	%rbp
	.cfi_restore 6
	.cfi_def_cfa 7, -56
	ret
	.cfi_endproc
.LFE11421:
	.seh_handler	__gxx_personality_seh0, @unwind, @except
	.seh_handlerdata
.LLSDA11421:
	.byte	0xff
	.byte	0xff
	.byte	0x1
	.uleb128 .LLSDACSE11421-.LLSDACSB11421
.LLSDACSB11421:
	.uleb128 .LEHB101-.LFB11421
	.uleb128 .LEHE101-.LEHB101
	.uleb128 0
	.uleb128 0
	.uleb128 .LEHB102-.LFB11421
	.uleb128 .LEHE102-.LEHB102
	.uleb128 .L349-.LFB11421
	.uleb128 0
	.uleb128 .LEHB103-.LFB11421
	.uleb128 .LEHE103-.LEHB103
	.uleb128 0
	.uleb128 0
.LLSDACSE11421:
	.section	.text$_ZN9__gnu_cxx12__to_xstringINSt7__cxx1112basic_stringIcSt11char_traitsIcESaIcEEEcEET_PFiPT0_yPKS8_PcEySB_z,"x"
	.linkonce discard
	.seh_endproc
	.section	.text$_ZNSt7__cxx1112basic_stringIcSt11char_traitsIcESaIcEE12_Alloc_hiderD1Ev,"x"
	.linkonce discard
	.align 2
	.globl	_ZNSt7__cxx1112basic_stringIcSt11char_traitsIcESaIcEE12_Alloc_hiderD1Ev
	.def	_ZNSt7__cxx1112basic_stringIcSt11char_traitsIcESaIcEE12_Alloc_hiderD1Ev;	.scl	2;	.type	32;	.endef
	.seh_proc	_ZNSt7__cxx1112basic_stringIcSt11char_traitsIcESaIcEE12_Alloc_hiderD1Ev
_ZNSt7__cxx1112basic_stringIcSt11char_traitsIcESaIcEE12_Alloc_hiderD1Ev:
.LFB11425:
	.loc 3 139 14
	.cfi_startproc
	pushq	%rbp
	.seh_pushreg	%rbp
	.cfi_def_cfa_offset 16
	.cfi_offset 6, -16
	movq	%rsp, %rbp
	.seh_setframe	%rbp, 0
	.cfi_def_cfa_register 6
	subq	$32, %rsp
	.seh_stackalloc	32
	.seh_endprologue
	movq	%rcx, 16(%rbp)
.LBB65:
	.loc 3 139 14
	movq	16(%rbp), %rcx
	call	_ZNSaIcED2Ev
.LBE65:
	nop
	addq	$32, %rsp
	popq	%rbp
	.cfi_restore 6
	.cfi_def_cfa 7, 8
	ret
	.cfi_endproc
.LFE11425:
	.seh_endproc
	.section	.text$_ZN22wxScopedCharTypeBufferIwED1Ev,"x"
	.linkonce discard
	.align 2
	.globl	_ZN22wxScopedCharTypeBufferIwED1Ev
	.def	_ZN22wxScopedCharTypeBufferIwED1Ev;	.scl	2;	.type	32;	.endef
	.seh_proc	_ZN22wxScopedCharTypeBufferIwED1Ev
_ZN22wxScopedCharTypeBufferIwED1Ev:
.LFB11571:
	.loc 7 125 5
	.cfi_startproc
	pushq	%rbp
	.seh_pushreg	%rbp
	.cfi_def_cfa_offset 16
	.cfi_offset 6, -16
	movq	%rsp, %rbp
	.seh_setframe	%rbp, 0
	.cfi_def_cfa_register 6
	subq	$32, %rsp
	.seh_stackalloc	32
	.seh_endprologue
	movq	%rcx, 16(%rbp)
.LBB66:
	.loc 7 127 9
	movq	16(%rbp), %rcx
	call	_ZN22wxScopedCharTypeBufferIwE6DecRefEv
.LBE66:
	.loc 7 128 5
	nop
	addq	$32, %rsp
	popq	%rbp
	.cfi_restore 6
	.cfi_def_cfa 7, 8
	ret
	.cfi_endproc
.LFE11571:
	.seh_handler	__gxx_personality_seh0, @unwind, @except
	.seh_handlerdata
.LLSDA11571:
	.byte	0xff
	.byte	0xff
	.byte	0x1
	.uleb128 .LLSDACSE11571-.LLSDACSB11571
.LLSDACSB11571:
.LLSDACSE11571:
	.section	.text$_ZN22wxScopedCharTypeBufferIwED1Ev,"x"
	.linkonce discard
	.seh_endproc
	.section	.text$_ZN22wxScopedCharTypeBufferIwEC1ERKS0_,"x"
	.linkonce discard
	.align 2
	.globl	_ZN22wxScopedCharTypeBufferIwEC1ERKS0_
	.def	_ZN22wxScopedCharTypeBufferIwEC1ERKS0_;	.scl	2;	.type	32;	.endef
	.seh_proc	_ZN22wxScopedCharTypeBufferIwEC1ERKS0_
_ZN22wxScopedCharTypeBufferIwEC1ERKS0_:
.LFB11595:
	.loc 7 107 5
	.cfi_startproc
	pushq	%rbp
	.seh_pushreg	%rbp
	.cfi_def_cfa_offset 16
	.cfi_offset 6, -16
	movq	%rsp, %rbp
	.seh_setframe	%rbp, 0
	.cfi_def_cfa_register 6
	subq	$32, %rsp
	.seh_stackalloc	32
	.seh_endprologue
	movq	%rcx, 16(%rbp)
	movq	%rdx, 24(%rbp)
.LBB67:
	.loc 7 109 22
	movq	24(%rbp), %rax
	movq	(%rax), %rdx
	.loc 7 109 9
	movq	16(%rbp), %rax
	movq	%rdx, (%rax)
	.loc 7 110 9
	movq	16(%rbp), %rcx
	call	_ZN22wxScopedCharTypeBufferIwE6IncRefEv
.LBE67:
	.loc 7 111 5
	nop
	addq	$32, %rsp
	popq	%rbp
	.cfi_restore 6
	.cfi_def_cfa 7, 8
	ret
	.cfi_endproc
.LFE11595:
	.seh_endproc
	.section	.text$_ZN8wxString15ConvertedBufferIcED1Ev,"x"
	.linkonce discard
	.align 2
	.globl	_ZN8wxString15ConvertedBufferIcED1Ev
	.def	_ZN8wxString15ConvertedBufferIcED1Ev;	.scl	2;	.type	32;	.endef
	.seh_proc	_ZN8wxString15ConvertedBufferIcED1Ev
_ZN8wxString15ConvertedBufferIcED1Ev:
.LFB11664:
	.loc 9 3489 7
	.cfi_startproc
	pushq	%rbp
	.seh_pushreg	%rbp
	.cfi_def_cfa_offset 16
	.cfi_offset 6, -16
	movq	%rsp, %rbp
	.seh_setframe	%rbp, 0
	.cfi_def_cfa_register 6
	subq	$32, %rsp
	.seh_stackalloc	32
	.seh_endprologue
	movq	%rcx, 16(%rbp)
.LBB68:
	.loc 9 3490 18
	movq	16(%rbp), %rax
	movq	(%rax), %rax
	.loc 9 3490 17
	movq	%rax, %rcx
	call	free
.LBE68:
	.loc 9 3490 26
	nop
	addq	$32, %rsp
	popq	%rbp
	.cfi_restore 6
	.cfi_def_cfa 7, 8
	ret
	.cfi_endproc
.LFE11664:
	.seh_endproc
	.section	.text$_ZN8wxString15ConvertedBufferIcEC1Ev,"x"
	.linkonce discard
	.align 2
	.globl	_ZN8wxString15ConvertedBufferIcEC1Ev
	.def	_ZN8wxString15ConvertedBufferIcEC1Ev;	.scl	2;	.type	32;	.endef
	.seh_proc	_ZN8wxString15ConvertedBufferIcEC1Ev
_ZN8wxString15ConvertedBufferIcEC1Ev:
.LFB11670:
	.loc 9 3488 7
	.cfi_startproc
	pushq	%rbp
	.seh_pushreg	%rbp
	.cfi_def_cfa_offset 16
	.cfi_offset 6, -16
	movq	%rsp, %rbp
	.seh_setframe	%rbp, 0
	.cfi_def_cfa_register 6
	.seh_endprologue
	movq	%rcx, 16(%rbp)
.LBB69:
	.loc 9 3488 36
	movq	16(%rbp), %rax
	movq	$0, (%rax)
.LBE69:
	.loc 9 3488 39
	nop
	popq	%rbp
	.cfi_restore 6
	.cfi_def_cfa 7, 8
	ret
	.cfi_endproc
.LFE11670:
	.seh_endproc
	.section	.text$_ZNK22wxScopedCharTypeBufferIwEcvPKwEv,"x"
	.linkonce discard
	.align 2
	.globl	_ZNK22wxScopedCharTypeBufferIwEcvPKwEv
	.def	_ZNK22wxScopedCharTypeBufferIwEcvPKwEv;	.scl	2;	.type	32;	.endef
	.seh_proc	_ZNK22wxScopedCharTypeBufferIwEcvPKwEv
_ZNK22wxScopedCharTypeBufferIwEcvPKwEv:
.LFB11674:
	.loc 7 157 5
	.cfi_startproc
	pushq	%rbp
	.seh_pushreg	%rbp
	.cfi_def_cfa_offset 16
	.cfi_offset 6, -16
	movq	%rsp, %rbp
	.seh_setframe	%rbp, 0
	.cfi_def_cfa_register 6
	subq	$32, %rsp
	.seh_stackalloc	32
	.seh_endprologue
	movq	%rcx, 16(%rbp)
	.loc 7 157 53
	movq	16(%rbp), %rcx
	call	_ZNK22wxScopedCharTypeBufferIwE4dataEv
	.loc 7 157 56
	addq	$32, %rsp
	popq	%rbp
	.cfi_restore 6
	.cfi_def_cfa 7, 8
	ret
	.cfi_endproc
.LFE11674:
	.seh_endproc
	.section	.text$_ZNK22wxScopedCharTypeBufferIwE4dataEv,"x"
	.linkonce discard
	.align 2
	.globl	_ZNK22wxScopedCharTypeBufferIwE4dataEv
	.def	_ZNK22wxScopedCharTypeBufferIwE4dataEv;	.scl	2;	.type	32;	.endef
	.seh_proc	_ZNK22wxScopedCharTypeBufferIwE4dataEv
_ZNK22wxScopedCharTypeBufferIwE4dataEv:
.LFB11687:
	.loc 7 156 21
	.cfi_startproc
	pushq	%rbp
	.seh_pushreg	%rbp
	.cfi_def_cfa_offset 16
	.cfi_offset 6, -16
	movq	%rsp, %rbp
	.seh_setframe	%rbp, 0
	.cfi_def_cfa_register 6
	subq	$32, %rsp
	.seh_stackalloc	32
	.seh_endprologue
	movq	%rcx, 16(%rbp)
	.loc 7 156 43
	movq	16(%rbp), %rax
	movq	(%rax), %rax
	.loc 7 156 55
	movq	%rax, %rcx
	call	_ZNK22wxScopedCharTypeBufferIwE4Data3GetEv
	.loc 7 156 58
	addq	$32, %rsp
	popq	%rbp
	.cfi_restore 6
	.cfi_def_cfa 7, 8
	ret
	.cfi_endproc
.LFE11687:
	.seh_endproc
	.section	.text$_ZStplIcSt11char_traitsIcESaIcEENSt7__cxx1112basic_stringIT_T0_T1_EEPKS5_OS8_,"x"
	.linkonce discard
	.globl	_ZStplIcSt11char_traitsIcESaIcEENSt7__cxx1112basic_stringIT_T0_T1_EEPKS5_OS8_
	.def	_ZStplIcSt11char_traitsIcESaIcEENSt7__cxx1112basic_stringIT_T0_T1_EEPKS5_OS8_;	.scl	2;	.type	32;	.endef
	.seh_proc	_ZStplIcSt11char_traitsIcESaIcEENSt7__cxx1112basic_stringIT_T0_T1_EEPKS5_OS8_
_ZStplIcSt11char_traitsIcESaIcEENSt7__cxx1112basic_stringIT_T0_T1_EEPKS5_OS8_:
.LFB11857:
	.loc 3 5977 5
	.cfi_startproc
	pushq	%rbp
	.seh_pushreg	%rbp
	.cfi_def_cfa_offset 16
	.cfi_offset 6, -16
	movq	%rsp, %rbp
	.seh_setframe	%rbp, 0
	.cfi_def_cfa_register 6
	subq	$32, %rsp
	.seh_stackalloc	32
	.seh_endprologue
	movq	%rcx, 16(%rbp)
	movq	%rdx, 24(%rbp)
	movq	%r8, 32(%rbp)
	.loc 3 5979 23
	movq	24(%rbp), %rdx
	movq	32(%rbp), %rax
	movq	%rdx, %r8
	movl	$0, %edx
	movq	%rax, %rcx
	call	_ZNSt7__cxx1112basic_stringIcSt11char_traitsIcESaIcEE6insertEyPKc
	movq	%rax, %rcx
	call	_ZSt4moveIRNSt7__cxx1112basic_stringIcSt11char_traitsIcESaIcEEEEONSt16remove_referenceIT_E4typeEOS8_
	.loc 3 5979 46
	movq	%rax, %rdx
	movq	16(%rbp), %rcx
	call	_ZNSt7__cxx1112basic_stringIcSt11char_traitsIcESaIcEEC1EOS4_
	.loc 3 5979 49
	movq	16(%rbp), %rax
	addq	$32, %rsp
	popq	%rbp
	.cfi_restore 6
	.cfi_def_cfa 7, 8
	ret
	.cfi_endproc
.LFE11857:
	.seh_endproc
	.section	.text$_ZStplIcSt11char_traitsIcESaIcEENSt7__cxx1112basic_stringIT_T0_T1_EEOS8_PKS5_,"x"
	.linkonce discard
	.globl	_ZStplIcSt11char_traitsIcESaIcEENSt7__cxx1112basic_stringIT_T0_T1_EEOS8_PKS5_
	.def	_ZStplIcSt11char_traitsIcESaIcEENSt7__cxx1112basic_stringIT_T0_T1_EEOS8_PKS5_;	.scl	2;	.type	32;	.endef
	.seh_proc	_ZStplIcSt11char_traitsIcESaIcEENSt7__cxx1112basic_stringIT_T0_T1_EEOS8_PKS5_
_ZStplIcSt11char_traitsIcESaIcEENSt7__cxx1112basic_stringIT_T0_T1_EEOS8_PKS5_:
.LFB11996:
	.loc 3 5989 5
	.cfi_startproc
	pushq	%rbp
	.seh_pushreg	%rbp
	.cfi_def_cfa_offset 16
	.cfi_offset 6, -16
	movq	%rsp, %rbp
	.seh_setframe	%rbp, 0
	.cfi_def_cfa_register 6
	subq	$32, %rsp
	.seh_stackalloc	32
	.seh_endprologue
	movq	%rcx, 16(%rbp)
	movq	%rdx, 24(%rbp)
	movq	%r8, 32(%rbp)
	.loc 3 5991 23
	movq	32(%rbp), %rdx
	movq	24(%rbp), %rax
	movq	%rax, %rcx
	call	_ZNSt7__cxx1112basic_stringIcSt11char_traitsIcESaIcEE6appendEPKc
	movq	%rax, %rcx
	call	_ZSt4moveIRNSt7__cxx1112basic_stringIcSt11char_traitsIcESaIcEEEEONSt16remove_referenceIT_E4typeEOS8_
	.loc 3 5991 43
	movq	%rax, %rdx
	movq	16(%rbp), %rcx
	call	_ZNSt7__cxx1112basic_stringIcSt11char_traitsIcESaIcEEC1EOS4_
	.loc 3 5991 46
	movq	16(%rbp), %rax
	addq	$32, %rsp
	popq	%rbp
	.cfi_restore 6
	.cfi_def_cfa 7, 8
	ret
	.cfi_endproc
.LFE11996:
	.seh_endproc
	.section	.text$_ZNSt7__cxx1112basic_stringIcSt11char_traitsIcESaIcEEC1IPcvEET_S7_RKS3_,"x"
	.linkonce discard
	.align 2
	.globl	_ZNSt7__cxx1112basic_stringIcSt11char_traitsIcESaIcEEC1IPcvEET_S7_RKS3_
	.def	_ZNSt7__cxx1112basic_stringIcSt11char_traitsIcESaIcEEC1IPcvEET_S7_RKS3_;	.scl	2;	.type	32;	.endef
	.seh_proc	_ZNSt7__cxx1112basic_stringIcSt11char_traitsIcESaIcEEC1IPcvEET_S7_RKS3_
_ZNSt7__cxx1112basic_stringIcSt11char_traitsIcESaIcEEC1IPcvEET_S7_RKS3_:
.LFB12000:
	.loc 3 604 9
	.cfi_startproc
	pushq	%rbp
	.seh_pushreg	%rbp
	.cfi_def_cfa_offset 16
	.cfi_offset 6, -16
	pushq	%rbx
	.seh_pushreg	%rbx
	.cfi_def_cfa_offset 24
	.cfi_offset 3, -24
	subq	$40, %rsp
	.seh_stackalloc	40
	.cfi_def_cfa_offset 64
	leaq	128(%rsp), %rbp
	.seh_setframe	%rbp, 128
	.cfi_def_cfa 6, -64
	.seh_endprologue
	movq	%rcx, -64(%rbp)
	movq	%rdx, -56(%rbp)
	movq	%r8, -48(%rbp)
	movq	%r9, -40(%rbp)
.LBB70:
	.loc 3 606 36
	movq	-64(%rbp), %rbx
	movq	-64(%rbp), %rcx
.LEHB104:
	call	_ZNSt7__cxx1112basic_stringIcSt11char_traitsIcESaIcEE13_M_local_dataEv
	movq	%rax, %rdx
	movq	-40(%rbp), %rax
	movq	%rax, %r8
	movq	%rbx, %rcx
	call	_ZNSt7__cxx1112basic_stringIcSt11char_traitsIcESaIcEE12_Alloc_hiderC1EPcRKS3_
.LEHE104:
	.loc 3 607 4
	movq	-48(%rbp), %rdx
	movq	-56(%rbp), %rax
	movq	%rdx, %r8
	movq	%rax, %rdx
	movq	-64(%rbp), %rcx
.LEHB105:
	call	_ZNSt7__cxx1112basic_stringIcSt11char_traitsIcESaIcEE12_M_constructIPcEEvT_S7_
.LEHE105:
.LBE70:
	.loc 3 607 32
	jmp	.L367
.L366:
	movq	%rax, %rbx
.LBB71:
	.loc 3 606 36
	movq	-64(%rbp), %rax
	movq	%rax, %rcx
	call	_ZNSt7__cxx1112basic_stringIcSt11char_traitsIcESaIcEE12_Alloc_hiderD1Ev
	movq	%rbx, %rax
	movq	%rax, %rcx
.LEHB106:
	call	_Unwind_Resume
	nop
.LEHE106:
.L367:
.LBE71:
	.loc 3 607 32
	addq	$40, %rsp
	popq	%rbx
	.cfi_restore 3
	popq	%rbp
	.cfi_restore 6
	.cfi_def_cfa 7, -24
	ret
	.cfi_endproc
.LFE12000:
	.seh_handler	__gxx_personality_seh0, @unwind, @except
	.seh_handlerdata
.LLSDA12000:
	.byte	0xff
	.byte	0xff
	.byte	0x1
	.uleb128 .LLSDACSE12000-.LLSDACSB12000
.LLSDACSB12000:
	.uleb128 .LEHB104-.LFB12000
	.uleb128 .LEHE104-.LEHB104
	.uleb128 0
	.uleb128 0
	.uleb128 .LEHB105-.LFB12000
	.uleb128 .LEHE105-.LEHB105
	.uleb128 .L366-.LFB12000
	.uleb128 0
	.uleb128 .LEHB106-.LFB12000
	.uleb128 .LEHE106-.LEHB106
	.uleb128 0
	.uleb128 0
.LLSDACSE12000:
	.section	.text$_ZNSt7__cxx1112basic_stringIcSt11char_traitsIcESaIcEEC1IPcvEET_S7_RKS3_,"x"
	.linkonce discard
	.seh_endproc
	.section	.text$_ZNSt7__cxx1112basic_stringIcSt11char_traitsIcESaIcEE12_M_constructIPcEEvT_S7_,"x"
	.linkonce discard
	.align 2
	.globl	_ZNSt7__cxx1112basic_stringIcSt11char_traitsIcESaIcEE12_M_constructIPcEEvT_S7_
	.def	_ZNSt7__cxx1112basic_stringIcSt11char_traitsIcESaIcEE12_M_constructIPcEEvT_S7_;	.scl	2;	.type	32;	.endef
	.seh_proc	_ZNSt7__cxx1112basic_stringIcSt11char_traitsIcESaIcEE12_M_constructIPcEEvT_S7_
_ZNSt7__cxx1112basic_stringIcSt11char_traitsIcESaIcEE12_M_constructIPcEEvT_S7_:
.LFB12049:
	.loc 3 252 9
	.cfi_startproc
	pushq	%rbp
	.seh_pushreg	%rbp
	.cfi_def_cfa_offset 16
	.cfi_offset 6, -16
	movq	%rsp, %rbp
	.seh_setframe	%rbp, 0
	.cfi_def_cfa_register 6
	subq	$48, %rsp
	.seh_stackalloc	48
	.seh_endprologue
	movq	%rcx, 16(%rbp)
	movq	%rdx, 24(%rbp)
	movq	%r8, 32(%rbp)
	.loc 3 255 4
	movq	32(%rbp), %rdx
	movq	24(%rbp), %rax
	movq	%rdx, %r8
	movq	%rax, %rdx
	movq	16(%rbp), %rcx
	call	_ZNSt7__cxx1112basic_stringIcSt11char_traitsIcESaIcEE16_M_construct_auxIPcEEvT_S7_St12__false_type
	.loc 3 256 9
	nop
	addq	$48, %rsp
	popq	%rbp
	.cfi_restore 6
	.cfi_def_cfa 7, 8
	ret
	.cfi_endproc
.LFE12049:
	.seh_endproc
	.section	.text$_ZN22wxScopedCharTypeBufferIwE4DataD1Ev,"x"
	.linkonce discard
	.align 2
	.globl	_ZN22wxScopedCharTypeBufferIwE4DataD1Ev
	.def	_ZN22wxScopedCharTypeBufferIwE4DataD1Ev;	.scl	2;	.type	32;	.endef
	.seh_proc	_ZN22wxScopedCharTypeBufferIwE4DataD1Ev
_ZN22wxScopedCharTypeBufferIwE4DataD1Ev:
.LFB12083:
	.loc 7 164 12
	.cfi_startproc
	pushq	%rbp
	.seh_pushreg	%rbp
	.cfi_def_cfa_offset 16
	.cfi_offset 6, -16
	movq	%rsp, %rbp
	.seh_setframe	%rbp, 0
	.cfi_def_cfa_register 6
	subq	$32, %rsp
	.seh_stackalloc	32
	.seh_endprologue
	movq	%rcx, 16(%rbp)
.LBB72:
	.loc 7 164 12
	movq	16(%rbp), %rax
	movq	%rax, %rcx
	call	_ZN9wxPrivate17UntypedBufferDataD2Ev
.LBE72:
	nop
	addq	$32, %rsp
	popq	%rbp
	.cfi_restore 6
	.cfi_def_cfa 7, 8
	ret
	.cfi_endproc
.LFE12083:
	.seh_endproc
	.section	.text$_ZN22wxScopedCharTypeBufferIwE6DecRefEv,"x"
	.linkonce discard
	.align 2
	.globl	_ZN22wxScopedCharTypeBufferIwE6DecRefEv
	.def	_ZN22wxScopedCharTypeBufferIwE6DecRefEv;	.scl	2;	.type	32;	.endef
	.seh_proc	_ZN22wxScopedCharTypeBufferIwE6DecRefEv
_ZN22wxScopedCharTypeBufferIwE6DecRefEv:
.LFB12080:
	.loc 7 192 10
	.cfi_startproc
	pushq	%rbp
	.seh_pushreg	%rbp
	.cfi_def_cfa_offset 16
	.cfi_offset 6, -16
	pushq	%rbx
	.seh_pushreg	%rbx
	.cfi_def_cfa_offset 24
	.cfi_offset 3, -24
	subq	$40, %rsp
	.seh_stackalloc	40
	.cfi_def_cfa_offset 64
	leaq	128(%rsp), %rbp
	.seh_setframe	%rbp, 128
	.cfi_def_cfa 6, -64
	.seh_endprologue
	movq	%rcx, -64(%rbp)
	.loc 7 194 14
	movq	-64(%rbp), %rax
	movq	(%rax), %rbx
	.loc 7 194 35
	call	_ZN22wxScopedCharTypeBufferIwE11GetNullDataEv
	.loc 7 194 21
	cmpq	%rax, %rbx
	sete	%al
	.loc 7 194 9
	testb	%al, %al
	jne	.L374
	.loc 7 196 16
	movq	-64(%rbp), %rax
	movq	(%rax), %rax
	.loc 7 196 24
	movzwl	16(%rax), %edx
	.loc 7 196 30
	subl	$1, %edx
	movw	%dx, 16(%rax)
	.loc 7 196 24
	movzwl	16(%rax), %eax
	.loc 7 196 30
	testw	%ax, %ax
	sete	%al
	.loc 7 196 9
	testb	%al, %al
	je	.L373
	.loc 7 197 20
	movq	-64(%rbp), %rax
	movq	(%rax), %rbx
	.loc 7 197 13
	testq	%rbx, %rbx
	je	.L373
	.loc 7 197 13 is_stmt 0 discriminator 1
	movq	%rbx, %rcx
	call	_ZN22wxScopedCharTypeBufferIwE4DataD1Ev
	movq	%rbx, %rcx
	call	_ZdlPv
.L373:
	.loc 7 198 29 is_stmt 1
	call	_ZN22wxScopedCharTypeBufferIwE11GetNullDataEv
	movq	%rax, %rdx
	.loc 7 198 9
	movq	-64(%rbp), %rax
	movq	%rdx, (%rax)
	jmp	.L370
.L374:
	.loc 7 195 13
	nop
.L370:
	.loc 7 199 5
	addq	$40, %rsp
	popq	%rbx
	.cfi_restore 3
	popq	%rbp
	.cfi_restore 6
	.cfi_def_cfa 7, -24
	ret
	.cfi_endproc
.LFE12080:
	.seh_endproc
	.section	.text$_ZN22wxScopedCharTypeBufferIwE11GetNullDataEv,"x"
	.linkonce discard
	.globl	_ZN22wxScopedCharTypeBufferIwE11GetNullDataEv
	.def	_ZN22wxScopedCharTypeBufferIwE11GetNullDataEv;	.scl	2;	.type	32;	.endef
	.seh_proc	_ZN22wxScopedCharTypeBufferIwE11GetNullDataEv
_ZN22wxScopedCharTypeBufferIwE11GetNullDataEv:
.LFB12089:
	.loc 7 180 18
	.cfi_startproc
	pushq	%rbp
	.seh_pushreg	%rbp
	.cfi_def_cfa_offset 16
	.cfi_offset 6, -16
	movq	%rsp, %rbp
	.seh_setframe	%rbp, 0
	.cfi_def_cfa_register 6
	subq	$32, %rsp
	.seh_stackalloc	32
	.seh_endprologue
	.loc 7 182 65
	call	_ZN9wxPrivate18GetUntypedNullDataEv
	.loc 7 183 5
	addq	$32, %rsp
	popq	%rbp
	.cfi_restore 6
	.cfi_def_cfa 7, 8
	ret
	.cfi_endproc
.LFE12089:
	.seh_endproc
	.section	.text$_ZN22wxScopedCharTypeBufferIwE6IncRefEv,"x"
	.linkonce discard
	.align 2
	.globl	_ZN22wxScopedCharTypeBufferIwE6IncRefEv
	.def	_ZN22wxScopedCharTypeBufferIwE6IncRefEv;	.scl	2;	.type	32;	.endef
	.seh_proc	_ZN22wxScopedCharTypeBufferIwE6IncRefEv
_ZN22wxScopedCharTypeBufferIwE6IncRefEv:
.LFB12091:
	.loc 7 185 10
	.cfi_startproc
	pushq	%rbp
	.seh_pushreg	%rbp
	.cfi_def_cfa_offset 16
	.cfi_offset 6, -16
	pushq	%rbx
	.seh_pushreg	%rbx
	.cfi_def_cfa_offset 24
	.cfi_offset 3, -24
	subq	$40, %rsp
	.seh_stackalloc	40
	.cfi_def_cfa_offset 64
	leaq	128(%rsp), %rbp
	.seh_setframe	%rbp, 128
	.cfi_def_cfa 6, -64
	.seh_endprologue
	movq	%rcx, -64(%rbp)
	.loc 7 187 14
	movq	-64(%rbp), %rax
	movq	(%rax), %rbx
	.loc 7 187 35
	call	_ZN22wxScopedCharTypeBufferIwE11GetNullDataEv
	.loc 7 187 21
	cmpq	%rax, %rbx
	sete	%al
	.loc 7 187 9
	testb	%al, %al
	jne	.L380
	.loc 7 189 9
	movq	-64(%rbp), %rax
	movq	(%rax), %rax
	.loc 7 189 17
	movzwl	16(%rax), %edx
	.loc 7 189 9
	addl	$1, %edx
	movw	%dx, 16(%rax)
	jmp	.L377
.L380:
	.loc 7 188 13
	nop
.L377:
	.loc 7 190 5
	addq	$40, %rsp
	popq	%rbx
	.cfi_restore 3
	popq	%rbp
	.cfi_restore 6
	.cfi_def_cfa 7, -24
	ret
	.cfi_endproc
.LFE12091:
	.seh_endproc
	.section	.text$_ZNK22wxScopedCharTypeBufferIwE4Data3GetEv,"x"
	.linkonce discard
	.align 2
	.globl	_ZNK22wxScopedCharTypeBufferIwE4Data3GetEv
	.def	_ZNK22wxScopedCharTypeBufferIwE4Data3GetEv;	.scl	2;	.type	32;	.endef
	.seh_proc	_ZNK22wxScopedCharTypeBufferIwE4Data3GetEv
_ZNK22wxScopedCharTypeBufferIwE4Data3GetEv:
.LFB12119:
	.loc 7 171 19
	.cfi_startproc
	pushq	%rbp
	.seh_pushreg	%rbp
	.cfi_def_cfa_offset 16
	.cfi_offset 6, -16
	movq	%rsp, %rbp
	.seh_setframe	%rbp, 0
	.cfi_def_cfa_register 6
	.seh_endprologue
	movq	%rcx, 16(%rbp)
	.loc 7 171 69
	movq	16(%rbp), %rax
	movq	(%rax), %rax
	.loc 7 171 72
	popq	%rbp
	.cfi_restore 6
	.cfi_def_cfa 7, 8
	ret
	.cfi_endproc
.LFE12119:
	.seh_endproc
	.section	.text$_ZSt4moveIRNSt7__cxx1112basic_stringIcSt11char_traitsIcESaIcEEEEONSt16remove_referenceIT_E4typeEOS8_,"x"
	.linkonce discard
	.globl	_ZSt4moveIRNSt7__cxx1112basic_stringIcSt11char_traitsIcESaIcEEEEONSt16remove_referenceIT_E4typeEOS8_
	.def	_ZSt4moveIRNSt7__cxx1112basic_stringIcSt11char_traitsIcESaIcEEEEONSt16remove_referenceIT_E4typeEOS8_;	.scl	2;	.type	32;	.endef
	.seh_proc	_ZSt4moveIRNSt7__cxx1112basic_stringIcSt11char_traitsIcESaIcEEEEONSt16remove_referenceIT_E4typeEOS8_
_ZSt4moveIRNSt7__cxx1112basic_stringIcSt11char_traitsIcESaIcEEEEONSt16remove_referenceIT_E4typeEOS8_:
.LFB12182:
	.file 21 "C:/Program Files/CodeBlocks/MinGW/lib/gcc/x86_64-w64-mingw32/8.1.0/include/c++/bits/move.h"
	.loc 21 99 5
	.cfi_startproc
	pushq	%rbp
	.seh_pushreg	%rbp
	.cfi_def_cfa_offset 16
	.cfi_offset 6, -16
	movq	%rsp, %rbp
	.seh_setframe	%rbp, 0
	.cfi_def_cfa_register 6
	.seh_endprologue
	movq	%rcx, 16(%rbp)
	.loc 21 100 74
	movq	16(%rbp), %rax
	.loc 21 100 77
	popq	%rbp
	.cfi_restore 6
	.cfi_def_cfa 7, 8
	ret
	.cfi_endproc
.LFE12182:
	.seh_endproc
	.section	.text$_ZNSt7__cxx1112basic_stringIcSt11char_traitsIcESaIcEE16_M_construct_auxIPcEEvT_S7_St12__false_type,"x"
	.linkonce discard
	.align 2
	.globl	_ZNSt7__cxx1112basic_stringIcSt11char_traitsIcESaIcEE16_M_construct_auxIPcEEvT_S7_St12__false_type
	.def	_ZNSt7__cxx1112basic_stringIcSt11char_traitsIcESaIcEE16_M_construct_auxIPcEEvT_S7_St12__false_type;	.scl	2;	.type	32;	.endef
	.seh_proc	_ZNSt7__cxx1112basic_stringIcSt11char_traitsIcESaIcEE16_M_construct_auxIPcEEvT_S7_St12__false_type
_ZNSt7__cxx1112basic_stringIcSt11char_traitsIcESaIcEE16_M_construct_auxIPcEEvT_S7_St12__false_type:
.LFB12255:
	.loc 3 232 9
	.cfi_startproc
	pushq	%rbp
	.seh_pushreg	%rbp
	.cfi_def_cfa_offset 16
	.cfi_offset 6, -16
	movq	%rsp, %rbp
	.seh_setframe	%rbp, 0
	.cfi_def_cfa_register 6
	subq	$48, %rsp
	.seh_stackalloc	48
	.seh_endprologue
	movq	%rcx, 16(%rbp)
	movq	%rdx, 24(%rbp)
	movq	%r8, 32(%rbp)
	movb	%r9b, 40(%rbp)
	.loc 3 236 11
	movq	32(%rbp), %rdx
	movq	24(%rbp), %rax
	movl	%r10d, %r9d
	movq	%rdx, %r8
	movq	%rax, %rdx
	movq	16(%rbp), %rcx
	call	_ZNSt7__cxx1112basic_stringIcSt11char_traitsIcESaIcEE12_M_constructIPcEEvT_S7_St20forward_iterator_tag
	.loc 3 237 2
	nop
	addq	$48, %rsp
	popq	%rbp
	.cfi_restore 6
	.cfi_def_cfa 7, 8
	ret
	.cfi_endproc
.LFE12255:
	.seh_endproc
	.section .rdata,"dr"
	.align 8
.LC32:
	.ascii "basic_string::_M_construct null not valid\0"
	.section	.text$_ZNSt7__cxx1112basic_stringIcSt11char_traitsIcESaIcEE12_M_constructIPcEEvT_S7_St20forward_iterator_tag,"x"
	.linkonce discard
	.align 2
	.globl	_ZNSt7__cxx1112basic_stringIcSt11char_traitsIcESaIcEE12_M_constructIPcEEvT_S7_St20forward_iterator_tag
	.def	_ZNSt7__cxx1112basic_stringIcSt11char_traitsIcESaIcEE12_M_constructIPcEEvT_S7_St20forward_iterator_tag;	.scl	2;	.type	32;	.endef
	.seh_proc	_ZNSt7__cxx1112basic_stringIcSt11char_traitsIcESaIcEE12_M_constructIPcEEvT_S7_St20forward_iterator_tag
_ZNSt7__cxx1112basic_stringIcSt11char_traitsIcESaIcEE12_M_constructIPcEEvT_S7_St20forward_iterator_tag:
.LFB12354:
	.file 22 "C:/Program Files/CodeBlocks/MinGW/lib/gcc/x86_64-w64-mingw32/8.1.0/include/c++/bits/basic_string.tcc"
	.loc 22 206 7
	.cfi_startproc
	pushq	%rbp
	.seh_pushreg	%rbp
	.cfi_def_cfa_offset 16
	.cfi_offset 6, -16
	pushq	%rbx
	.seh_pushreg	%rbx
	.cfi_def_cfa_offset 24
	.cfi_offset 3, -24
	subq	$56, %rsp
	.seh_stackalloc	56
	.cfi_def_cfa_offset 80
	leaq	128(%rsp), %rbp
	.seh_setframe	%rbp, 128
	.cfi_def_cfa 6, -48
	.seh_endprologue
	movq	%rcx, -48(%rbp)
	movq	%rdx, -40(%rbp)
	movq	%r8, -32(%rbp)
	movb	%r9b, -24(%rbp)
	.loc 22 211 34
	movq	-40(%rbp), %rax
	movq	%rax, %rcx
	call	_ZN9__gnu_cxx17__is_null_pointerIcEEbPT_
	.loc 22 211 42
	testb	%al, %al
	je	.L387
	.loc 22 211 42 is_stmt 0 discriminator 1
	movq	-40(%rbp), %rax
	cmpq	-32(%rbp), %rax
	je	.L387
	.loc 22 211 42 discriminator 3
	movl	$1, %eax
	jmp	.L388
.L387:
	.loc 22 211 42 discriminator 4
	movl	$0, %eax
.L388:
	.loc 22 211 2 is_stmt 1 discriminator 6
	testb	%al, %al
	je	.L389
	.loc 22 212 28
	leaq	.LC32(%rip), %rcx
.LEHB107:
	call	_ZSt19__throw_logic_errorPKc
.L389:
	.loc 22 215 57
	movq	-32(%rbp), %rdx
	movq	-40(%rbp), %rax
	movq	%rax, %rcx
	call	_ZSt8distanceIPcENSt15iterator_traitsIT_E15difference_typeES2_S2_
	.loc 22 215 12
	movq	%rax, -88(%rbp)
	.loc 22 217 13
	movq	-88(%rbp), %rax
	.loc 22 217 2
	cmpq	$15, %rax
	jbe	.L390
	.loc 22 219 6
	leaq	-88(%rbp), %rax
	movl	$0, %r8d
	movq	%rax, %rdx
	movq	-48(%rbp), %rcx
	call	_ZNSt7__cxx1112basic_stringIcSt11char_traitsIcESaIcEE9_M_createERyy
	movq	%rax, %rdx
	movq	-48(%rbp), %rcx
	call	_ZNSt7__cxx1112basic_stringIcSt11char_traitsIcESaIcEE7_M_dataEPc
	.loc 22 220 6
	movq	-88(%rbp), %rax
	movq	%rax, %rdx
	movq	-48(%rbp), %rcx
	call	_ZNSt7__cxx1112basic_stringIcSt11char_traitsIcESaIcEE11_M_capacityEy
.LEHE107:
.L390:
	.loc 22 225 6
	movq	-48(%rbp), %rcx
.LEHB108:
	call	_ZNKSt7__cxx1112basic_stringIcSt11char_traitsIcESaIcEE7_M_dataEv
.LEHE108:
	movq	%rax, %rcx
	movq	-32(%rbp), %rdx
	movq	-40(%rbp), %rax
	movq	%rdx, %r8
	movq	%rax, %rdx
	call	_ZNSt7__cxx1112basic_stringIcSt11char_traitsIcESaIcEE13_S_copy_charsEPcS5_S5_
	.loc 22 232 2
	movq	-88(%rbp), %rax
	movq	%rax, %rdx
	movq	-48(%rbp), %rcx
.LEHB109:
	call	_ZNSt7__cxx1112basic_stringIcSt11char_traitsIcESaIcEE13_M_set_lengthEy
.LEHE109:
	.loc 22 233 7
	jmp	.L395
.L393:
	.loc 22 226 2
	movq	%rax, %rcx
	call	__cxa_begin_catch
	.loc 22 228 6
	movq	-48(%rbp), %rcx
.LEHB110:
	call	_ZNSt7__cxx1112basic_stringIcSt11char_traitsIcESaIcEE10_M_disposeEv
	.loc 22 229 6
	call	__cxa_rethrow
.LEHE110:
.L394:
	movq	%rax, %rbx
	.loc 22 226 2
	call	__cxa_end_catch
	movq	%rbx, %rax
	movq	%rax, %rcx
.LEHB111:
	call	_Unwind_Resume
	nop
.LEHE111:
.L395:
	.loc 22 233 7
	addq	$56, %rsp
	popq	%rbx
	.cfi_restore 3
	popq	%rbp
	.cfi_restore 6
	.cfi_def_cfa 7, -40
	ret
	.cfi_endproc
.LFE12354:
	.seh_handler	__gxx_personality_seh0, @unwind, @except
	.seh_handlerdata
	.align 4
.LLSDA12354:
	.byte	0xff
	.byte	0x9b
	.uleb128 .LLSDATT12354-.LLSDATTD12354
.LLSDATTD12354:
	.byte	0x1
	.uleb128 .LLSDACSE12354-.LLSDACSB12354
.LLSDACSB12354:
	.uleb128 .LEHB107-.LFB12354
	.uleb128 .LEHE107-.LEHB107
	.uleb128 0
	.uleb128 0
	.uleb128 .LEHB108-.LFB12354
	.uleb128 .LEHE108-.LEHB108
	.uleb128 .L393-.LFB12354
	.uleb128 0x1
	.uleb128 .LEHB109-.LFB12354
	.uleb128 .LEHE109-.LEHB109
	.uleb128 0
	.uleb128 0
	.uleb128 .LEHB110-.LFB12354
	.uleb128 .LEHE110-.LEHB110
	.uleb128 .L394-.LFB12354
	.uleb128 0
	.uleb128 .LEHB111-.LFB12354
	.uleb128 .LEHE111-.LEHB111
	.uleb128 0
	.uleb128 0
.LLSDACSE12354:
	.byte	0x1
	.byte	0
	.align 4
	.long	0

.LLSDATT12354:
	.section	.text$_ZNSt7__cxx1112basic_stringIcSt11char_traitsIcESaIcEE12_M_constructIPcEEvT_S7_St20forward_iterator_tag,"x"
	.linkonce discard
	.seh_endproc
	.section	.text$_ZN9__gnu_cxx17__is_null_pointerIcEEbPT_,"x"
	.linkonce discard
	.globl	_ZN9__gnu_cxx17__is_null_pointerIcEEbPT_
	.def	_ZN9__gnu_cxx17__is_null_pointerIcEEbPT_;	.scl	2;	.type	32;	.endef
	.seh_proc	_ZN9__gnu_cxx17__is_null_pointerIcEEbPT_
_ZN9__gnu_cxx17__is_null_pointerIcEEbPT_:
.LFB12399:
	.file 23 "C:/Program Files/CodeBlocks/MinGW/lib/gcc/x86_64-w64-mingw32/8.1.0/include/c++/ext/type_traits.h"
	.loc 23 152 5
	.cfi_startproc
	pushq	%rbp
	.seh_pushreg	%rbp
	.cfi_def_cfa_offset 16
	.cfi_offset 6, -16
	movq	%rsp, %rbp
	.seh_setframe	%rbp, 0
	.cfi_def_cfa_register 6
	.seh_endprologue
	movq	%rcx, 16(%rbp)
	.loc 23 153 23
	cmpq	$0, 16(%rbp)
	sete	%al
	.loc 23 153 26
	popq	%rbp
	.cfi_restore 6
	.cfi_def_cfa 7, 8
	ret
	.cfi_endproc
.LFE12399:
	.seh_endproc
	.section	.text$_ZSt19__iterator_categoryIPcENSt15iterator_traitsIT_E17iterator_categoryERKS2_,"x"
	.linkonce discard
	.globl	_ZSt19__iterator_categoryIPcENSt15iterator_traitsIT_E17iterator_categoryERKS2_
	.def	_ZSt19__iterator_categoryIPcENSt15iterator_traitsIT_E17iterator_categoryERKS2_;	.scl	2;	.type	32;	.endef
	.seh_proc	_ZSt19__iterator_categoryIPcENSt15iterator_traitsIT_E17iterator_categoryERKS2_
_ZSt19__iterator_categoryIPcENSt15iterator_traitsIT_E17iterator_categoryERKS2_:
.LFB12401:
	.file 24 "C:/Program Files/CodeBlocks/MinGW/lib/gcc/x86_64-w64-mingw32/8.1.0/include/c++/bits/stl_iterator_base_types.h"
	.loc 24 205 5
	.cfi_startproc
	pushq	%rbp
	.seh_pushreg	%rbp
	.cfi_def_cfa_offset 16
	.cfi_offset 6, -16
	movq	%rsp, %rbp
	.seh_setframe	%rbp, 0
	.cfi_def_cfa_register 6
	.seh_endprologue
	movq	%rcx, 16(%rbp)
	.loc 24 206 68
	popq	%rbp
	.cfi_restore 6
	.cfi_def_cfa 7, 8
	ret
	.cfi_endproc
.LFE12401:
	.seh_endproc
	.section	.text$_ZSt8distanceIPcENSt15iterator_traitsIT_E15difference_typeES2_S2_,"x"
	.linkonce discard
	.globl	_ZSt8distanceIPcENSt15iterator_traitsIT_E15difference_typeES2_S2_
	.def	_ZSt8distanceIPcENSt15iterator_traitsIT_E15difference_typeES2_S2_;	.scl	2;	.type	32;	.endef
	.seh_proc	_ZSt8distanceIPcENSt15iterator_traitsIT_E15difference_typeES2_S2_
_ZSt8distanceIPcENSt15iterator_traitsIT_E15difference_typeES2_S2_:
.LFB12400:
	.file 25 "C:/Program Files/CodeBlocks/MinGW/lib/gcc/x86_64-w64-mingw32/8.1.0/include/c++/bits/stl_iterator_base_funcs.h"
	.loc 25 138 5
	.cfi_startproc
	pushq	%rbp
	.seh_pushreg	%rbp
	.cfi_def_cfa_offset 16
	.cfi_offset 6, -16
	pushq	%rbx
	.seh_pushreg	%rbx
	.cfi_def_cfa_offset 24
	.cfi_offset 3, -24
	subq	$56, %rsp
	.seh_stackalloc	56
	.cfi_def_cfa_offset 80
	leaq	128(%rsp), %rbp
	.seh_setframe	%rbp, 128
	.cfi_def_cfa 6, -48
	.seh_endprologue
	movq	%rcx, -48(%rbp)
	movq	%rdx, -40(%rbp)
	.loc 25 142 33
	leaq	-48(%rbp), %rcx
	call	_ZSt19__iterator_categoryIPcENSt15iterator_traitsIT_E17iterator_categoryERKS2_
	.loc 25 141 29
	movq	-48(%rbp), %rax
	movq	-40(%rbp), %rdx
	movl	%ebx, %r8d
	movq	%rax, %rcx
	call	_ZSt10__distanceIPcENSt15iterator_traitsIT_E15difference_typeES2_S2_St26random_access_iterator_tag
	.loc 25 142 42
	nop
	.loc 25 143 5
	addq	$56, %rsp
	popq	%rbx
	.cfi_restore 3
	popq	%rbp
	.cfi_restore 6
	.cfi_def_cfa 7, -40
	ret
	.cfi_endproc
.LFE12400:
	.seh_endproc
	.section	.text$_ZSt10__distanceIPcENSt15iterator_traitsIT_E15difference_typeES2_S2_St26random_access_iterator_tag,"x"
	.linkonce discard
	.globl	_ZSt10__distanceIPcENSt15iterator_traitsIT_E15difference_typeES2_S2_St26random_access_iterator_tag
	.def	_ZSt10__distanceIPcENSt15iterator_traitsIT_E15difference_typeES2_S2_St26random_access_iterator_tag;	.scl	2;	.type	32;	.endef
	.seh_proc	_ZSt10__distanceIPcENSt15iterator_traitsIT_E15difference_typeES2_S2_St26random_access_iterator_tag
_ZSt10__distanceIPcENSt15iterator_traitsIT_E15difference_typeES2_S2_St26random_access_iterator_tag:
.LFB12433:
	.loc 25 98 5
	.cfi_startproc
	pushq	%rbp
	.seh_pushreg	%rbp
	.cfi_def_cfa_offset 16
	.cfi_offset 6, -16
	movq	%rsp, %rbp
	.seh_setframe	%rbp, 0
	.cfi_def_cfa_register 6
	.seh_endprologue
	movq	%rcx, 16(%rbp)
	movq	%rdx, 24(%rbp)
	movb	%r8b, 32(%rbp)
	.loc 25 104 23
	movq	24(%rbp), %rax
	subq	16(%rbp), %rax
	.loc 25 105 5
	popq	%rbp
	.cfi_restore 6
	.cfi_def_cfa 7, 8
	ret
	.cfi_endproc
.LFE12433:
	.seh_endproc
	.globl	_ZTV15GeradorTabularB
	.section	.rdata$_ZTV15GeradorTabularB,"dr"
	.linkonce same_size
	.align 8
_ZTV15GeradorTabularB:
	.quad	0
	.quad	_ZTI15GeradorTabularB
	.quad	_ZN15GeradorTabularB11gerarTabelaEP21CalculadorAtmosfericod15TIPO_TRAJETORIAdd
	.globl	_ZTV20wxObjectEventFunctor
	.section	.rdata$_ZTV20wxObjectEventFunctor,"dr"
	.linkonce same_size
	.align 8
_ZTV20wxObjectEventFunctor:
	.quad	0
	.quad	_ZTI20wxObjectEventFunctor
	.quad	_ZN20wxObjectEventFunctorD1Ev
	.quad	_ZN20wxObjectEventFunctorD0Ev
	.quad	_ZN20wxObjectEventFunctorclEP12wxEvtHandlerR7wxEvent
	.quad	_ZNK20wxObjectEventFunctor10IsMatchingERK14wxEventFunctor
	.quad	_ZNK20wxObjectEventFunctor13GetEvtHandlerEv
	.quad	_ZNK20wxObjectEventFunctor12GetEvtMethodEv
	.section	.text$_ZN20wxObjectEventFunctorD1Ev,"x"
	.linkonce discard
	.align 2
	.globl	_ZN20wxObjectEventFunctorD1Ev
	.def	_ZN20wxObjectEventFunctorD1Ev;	.scl	2;	.type	32;	.endef
	.seh_proc	_ZN20wxObjectEventFunctorD1Ev
_ZN20wxObjectEventFunctorD1Ev:
.LFB12473:
	.loc 12 240 7
	.cfi_startproc
	pushq	%rbp
	.seh_pushreg	%rbp
	.cfi_def_cfa_offset 16
	.cfi_offset 6, -16
	movq	%rsp, %rbp
	.seh_setframe	%rbp, 0
	.cfi_def_cfa_register 6
	subq	$32, %rsp
	.seh_stackalloc	32
	.seh_endprologue
	movq	%rcx, 16(%rbp)
.LBB73:
	.loc 12 240 7
	leaq	16+_ZTV20wxObjectEventFunctor(%rip), %rdx
	movq	16(%rbp), %rax
	movq	%rdx, (%rax)
	movq	16(%rbp), %rax
	movq	%rax, %rcx
	call	_ZN14wxEventFunctorD2Ev
.LBE73:
	nop
	addq	$32, %rsp
	popq	%rbp
	.cfi_restore 6
	.cfi_def_cfa 7, 8
	ret
	.cfi_endproc
.LFE12473:
	.seh_endproc
	.section	.text$_ZN20wxObjectEventFunctorD0Ev,"x"
	.linkonce discard
	.align 2
	.globl	_ZN20wxObjectEventFunctorD0Ev
	.def	_ZN20wxObjectEventFunctorD0Ev;	.scl	2;	.type	32;	.endef
	.seh_proc	_ZN20wxObjectEventFunctorD0Ev
_ZN20wxObjectEventFunctorD0Ev:
.LFB12474:
	.loc 12 240 7
	.cfi_startproc
	pushq	%rbp
	.seh_pushreg	%rbp
	.cfi_def_cfa_offset 16
	.cfi_offset 6, -16
	movq	%rsp, %rbp
	.seh_setframe	%rbp, 0
	.cfi_def_cfa_register 6
	subq	$32, %rsp
	.seh_stackalloc	32
	.seh_endprologue
	movq	%rcx, 16(%rbp)
	.loc 12 240 7
	movq	16(%rbp), %rcx
	call	_ZN20wxObjectEventFunctorD1Ev
	movq	16(%rbp), %rcx
	call	_ZdlPv
	nop
	addq	$32, %rsp
	popq	%rbp
	.cfi_restore 6
	.cfi_def_cfa 7, 8
	ret
	.cfi_endproc
.LFE12474:
	.seh_endproc
	.globl	_ZTV20wxThreadHelperThread
	.section	.rdata$_ZTV20wxThreadHelperThread,"dr"
	.linkonce same_size
	.align 8
_ZTV20wxThreadHelperThread:
	.quad	0
	.quad	_ZTI20wxThreadHelperThread
	.quad	_ZN8wxThread11TestDestroyEv
	.quad	_ZN20wxThreadHelperThreadD1Ev
	.quad	_ZN20wxThreadHelperThreadD0Ev
	.quad	_ZN20wxThreadHelperThread5EntryEv
	.quad	_ZN8wxThread8OnDeleteEv
	.quad	_ZN8wxThread6OnKillEv
	.quad	_ZN8wxThread6OnExitEv
	.section	.text$_ZN20wxThreadHelperThreadD1Ev,"x"
	.linkonce discard
	.align 2
	.globl	_ZN20wxThreadHelperThreadD1Ev
	.def	_ZN20wxThreadHelperThreadD1Ev;	.scl	2;	.type	32;	.endef
	.seh_proc	_ZN20wxThreadHelperThreadD1Ev
_ZN20wxThreadHelperThreadD1Ev:
.LFB12485:
	.loc 10 663 7
	.cfi_startproc
	pushq	%rbp
	.seh_pushreg	%rbp
	.cfi_def_cfa_offset 16
	.cfi_offset 6, -16
	movq	%rsp, %rbp
	.seh_setframe	%rbp, 0
	.cfi_def_cfa_register 6
	subq	$32, %rsp
	.seh_stackalloc	32
	.seh_endprologue
	movq	%rcx, 16(%rbp)
.LBB74:
	.loc 10 663 7
	leaq	16+_ZTV20wxThreadHelperThread(%rip), %rdx
	movq	16(%rbp), %rax
	movq	%rdx, (%rax)
	movq	16(%rbp), %rax
	movq	%rax, %rcx
	call	_ZN8wxThreadD2Ev
.LBE74:
	nop
	addq	$32, %rsp
	popq	%rbp
	.cfi_restore 6
	.cfi_def_cfa 7, 8
	ret
	.cfi_endproc
.LFE12485:
	.seh_endproc
	.section	.text$_ZN20wxThreadHelperThreadD0Ev,"x"
	.linkonce discard
	.align 2
	.globl	_ZN20wxThreadHelperThreadD0Ev
	.def	_ZN20wxThreadHelperThreadD0Ev;	.scl	2;	.type	32;	.endef
	.seh_proc	_ZN20wxThreadHelperThreadD0Ev
_ZN20wxThreadHelperThreadD0Ev:
.LFB12486:
	.loc 10 663 7
	.cfi_startproc
	pushq	%rbp
	.seh_pushreg	%rbp
	.cfi_def_cfa_offset 16
	.cfi_offset 6, -16
	movq	%rsp, %rbp
	.seh_setframe	%rbp, 0
	.cfi_def_cfa_register 6
	subq	$32, %rsp
	.seh_stackalloc	32
	.seh_endprologue
	movq	%rcx, 16(%rbp)
	.loc 10 663 7
	movq	16(%rbp), %rcx
	call	_ZN20wxThreadHelperThreadD1Ev
	movq	16(%rbp), %rcx
	call	_ZdlPv
	nop
	addq	$32, %rsp
	popq	%rbp
	.cfi_restore 6
	.cfi_def_cfa 7, 8
	ret
	.cfi_endproc
.LFE12486:
	.seh_endproc
	.globl	_ZTV12ElementosVoo
	.section	.rdata$_ZTV12ElementosVoo,"dr"
	.linkonce same_size
	.align 8
_ZTV12ElementosVoo:
	.quad	0
	.quad	_ZTI12ElementosVoo
	.quad	_ZN12ElementosVooD1Ev
	.quad	_ZN12ElementosVooD0Ev
	.section	.text$_ZN12ElementosVooD1Ev,"x"
	.linkonce discard
	.align 2
	.globl	_ZN12ElementosVooD1Ev
	.def	_ZN12ElementosVooD1Ev;	.scl	2;	.type	32;	.endef
	.seh_proc	_ZN12ElementosVooD1Ev
_ZN12ElementosVooD1Ev:
.LFB12509:
	.loc 19 7 7
	.cfi_startproc
	pushq	%rbp
	.seh_pushreg	%rbp
	.cfi_def_cfa_offset 16
	.cfi_offset 6, -16
	movq	%rsp, %rbp
	.seh_setframe	%rbp, 0
	.cfi_def_cfa_register 6
	subq	$32, %rsp
	.seh_stackalloc	32
	.seh_endprologue
	movq	%rcx, 16(%rbp)
.LBB75:
	.loc 19 7 7
	leaq	16+_ZTV12ElementosVoo(%rip), %rdx
	movq	16(%rbp), %rax
	movq	%rdx, (%rax)
	movq	16(%rbp), %rax
	movq	%rax, %rcx
	call	_ZN10BaseObjectD2Ev
.LBE75:
	nop
	addq	$32, %rsp
	popq	%rbp
	.cfi_restore 6
	.cfi_def_cfa 7, 8
	ret
	.cfi_endproc
.LFE12509:
	.seh_endproc
	.section	.text$_ZN12ElementosVooD0Ev,"x"
	.linkonce discard
	.align 2
	.globl	_ZN12ElementosVooD0Ev
	.def	_ZN12ElementosVooD0Ev;	.scl	2;	.type	32;	.endef
	.seh_proc	_ZN12ElementosVooD0Ev
_ZN12ElementosVooD0Ev:
.LFB12510:
	.loc 19 7 7
	.cfi_startproc
	pushq	%rbp
	.seh_pushreg	%rbp
	.cfi_def_cfa_offset 16
	.cfi_offset 6, -16
	movq	%rsp, %rbp
	.seh_setframe	%rbp, 0
	.cfi_def_cfa_register 6
	subq	$32, %rsp
	.seh_stackalloc	32
	.seh_endprologue
	movq	%rcx, 16(%rbp)
	.loc 19 7 7
	movq	16(%rbp), %rcx
	call	_ZN12ElementosVooD1Ev
	movq	16(%rbp), %rcx
	call	_ZdlPv
	nop
	addq	$32, %rsp
	popq	%rbp
	.cfi_restore 6
	.cfi_def_cfa 7, 8
	ret
	.cfi_endproc
.LFE12510:
	.seh_endproc
	.globl	_ZTV16ElementosDisparo
	.section	.rdata$_ZTV16ElementosDisparo,"dr"
	.linkonce same_size
	.align 8
_ZTV16ElementosDisparo:
	.quad	0
	.quad	_ZTI16ElementosDisparo
	.quad	_ZN16ElementosDisparoD1Ev
	.quad	_ZN16ElementosDisparoD0Ev
	.section	.text$_ZN16ElementosDisparoD1Ev,"x"
	.linkonce discard
	.align 2
	.globl	_ZN16ElementosDisparoD1Ev
	.def	_ZN16ElementosDisparoD1Ev;	.scl	2;	.type	32;	.endef
	.seh_proc	_ZN16ElementosDisparoD1Ev
_ZN16ElementosDisparoD1Ev:
.LFB12513:
	.loc 5 6 7
	.cfi_startproc
	pushq	%rbp
	.seh_pushreg	%rbp
	.cfi_def_cfa_offset 16
	.cfi_offset 6, -16
	movq	%rsp, %rbp
	.seh_setframe	%rbp, 0
	.cfi_def_cfa_register 6
	subq	$32, %rsp
	.seh_stackalloc	32
	.seh_endprologue
	movq	%rcx, 16(%rbp)
.LBB76:
	.loc 5 6 7
	leaq	16+_ZTV16ElementosDisparo(%rip), %rdx
	movq	16(%rbp), %rax
	movq	%rdx, (%rax)
	movq	16(%rbp), %rax
	movq	%rax, %rcx
	call	_ZN10BaseObjectD2Ev
.LBE76:
	nop
	addq	$32, %rsp
	popq	%rbp
	.cfi_restore 6
	.cfi_def_cfa 7, 8
	ret
	.cfi_endproc
.LFE12513:
	.seh_endproc
	.section	.text$_ZN16ElementosDisparoD0Ev,"x"
	.linkonce discard
	.align 2
	.globl	_ZN16ElementosDisparoD0Ev
	.def	_ZN16ElementosDisparoD0Ev;	.scl	2;	.type	32;	.endef
	.seh_proc	_ZN16ElementosDisparoD0Ev
_ZN16ElementosDisparoD0Ev:
.LFB12514:
	.loc 5 6 7
	.cfi_startproc
	pushq	%rbp
	.seh_pushreg	%rbp
	.cfi_def_cfa_offset 16
	.cfi_offset 6, -16
	movq	%rsp, %rbp
	.seh_setframe	%rbp, 0
	.cfi_def_cfa_register 6
	subq	$32, %rsp
	.seh_stackalloc	32
	.seh_endprologue
	movq	%rcx, 16(%rbp)
	.loc 5 6 7
	movq	16(%rbp), %rcx
	call	_ZN16ElementosDisparoD1Ev
	movq	16(%rbp), %rcx
	call	_ZdlPv
	nop
	addq	$32, %rsp
	popq	%rbp
	.cfi_restore 6
	.cfi_def_cfa 7, 8
	ret
	.cfi_endproc
.LFE12514:
	.seh_endproc
	.globl	_ZTV10BaseObject
	.section	.rdata$_ZTV10BaseObject,"dr"
	.linkonce same_size
	.align 8
_ZTV10BaseObject:
	.quad	0
	.quad	_ZTI10BaseObject
	.quad	_ZN10BaseObjectD1Ev
	.quad	_ZN10BaseObjectD0Ev
	.globl	_ZTI18ExceptionYawRepose
	.section	.rdata$_ZTI18ExceptionYawRepose,"dr"
	.linkonce same_size
	.align 8
_ZTI18ExceptionYawRepose:
	.quad	_ZTVN10__cxxabiv120__si_class_type_infoE+16
	.quad	_ZTS18ExceptionYawRepose
	.quad	_ZTISt9exception
	.globl	_ZTS18ExceptionYawRepose
	.section	.rdata$_ZTS18ExceptionYawRepose,"dr"
	.linkonce same_size
	.align 16
_ZTS18ExceptionYawRepose:
	.ascii "18ExceptionYawRepose\0"
	.globl	_ZTI19ExceptionTrajectory
	.section	.rdata$_ZTI19ExceptionTrajectory,"dr"
	.linkonce same_size
	.align 8
_ZTI19ExceptionTrajectory:
	.quad	_ZTVN10__cxxabiv120__si_class_type_infoE+16
	.quad	_ZTS19ExceptionTrajectory
	.quad	_ZTISt9exception
	.globl	_ZTS19ExceptionTrajectory
	.section	.rdata$_ZTS19ExceptionTrajectory,"dr"
	.linkonce same_size
	.align 16
_ZTS19ExceptionTrajectory:
	.ascii "19ExceptionTrajectory\0"
	.globl	_ZTI25ExceptionQuasiConvergence
	.section	.rdata$_ZTI25ExceptionQuasiConvergence,"dr"
	.linkonce same_size
	.align 8
_ZTI25ExceptionQuasiConvergence:
	.quad	_ZTVN10__cxxabiv120__si_class_type_infoE+16
	.quad	_ZTS25ExceptionQuasiConvergence
	.quad	_ZTISt9exception
	.globl	_ZTS25ExceptionQuasiConvergence
	.section	.rdata$_ZTS25ExceptionQuasiConvergence,"dr"
	.linkonce same_size
	.align 16
_ZTS25ExceptionQuasiConvergence:
	.ascii "25ExceptionQuasiConvergence\0"
	.globl	_ZTI20ExceptionConvergence
	.section	.rdata$_ZTI20ExceptionConvergence,"dr"
	.linkonce same_size
	.align 8
_ZTI20ExceptionConvergence:
	.quad	_ZTVN10__cxxabiv120__si_class_type_infoE+16
	.quad	_ZTS20ExceptionConvergence
	.quad	_ZTISt9exception
	.globl	_ZTS20ExceptionConvergence
	.section	.rdata$_ZTS20ExceptionConvergence,"dr"
	.linkonce same_size
	.align 16
_ZTS20ExceptionConvergence:
	.ascii "20ExceptionConvergence\0"
	.globl	_ZTI15GeradorTabularB
	.section	.rdata$_ZTI15GeradorTabularB,"dr"
	.linkonce same_size
	.align 8
_ZTI15GeradorTabularB:
	.quad	_ZTVN10__cxxabiv120__si_class_type_infoE+16
	.quad	_ZTS15GeradorTabularB
	.quad	_ZTI14GeradorTabular
	.globl	_ZTS15GeradorTabularB
	.section	.rdata$_ZTS15GeradorTabularB,"dr"
	.linkonce same_size
	.align 16
_ZTS15GeradorTabularB:
	.ascii "15GeradorTabularB\0"
	.globl	_ZTI14GeradorTabular
	.section	.rdata$_ZTI14GeradorTabular,"dr"
	.linkonce same_size
	.align 8
_ZTI14GeradorTabular:
	.quad	_ZTVN10__cxxabiv117__class_type_infoE+16
	.quad	_ZTS14GeradorTabular
	.globl	_ZTS14GeradorTabular
	.section	.rdata$_ZTS14GeradorTabular,"dr"
	.linkonce same_size
	.align 16
_ZTS14GeradorTabular:
	.ascii "14GeradorTabular\0"
	.globl	_ZTI20wxObjectEventFunctor
	.section	.rdata$_ZTI20wxObjectEventFunctor,"dr"
	.linkonce same_size
	.align 8
_ZTI20wxObjectEventFunctor:
	.quad	_ZTVN10__cxxabiv120__si_class_type_infoE+16
	.quad	_ZTS20wxObjectEventFunctor
	.quad	_ZTI14wxEventFunctor
	.globl	_ZTS20wxObjectEventFunctor
	.section	.rdata$_ZTS20wxObjectEventFunctor,"dr"
	.linkonce same_size
	.align 16
_ZTS20wxObjectEventFunctor:
	.ascii "20wxObjectEventFunctor\0"
	.globl	_ZTI14wxEventFunctor
	.section	.rdata$_ZTI14wxEventFunctor,"dr"
	.linkonce same_size
	.align 8
_ZTI14wxEventFunctor:
	.quad	_ZTVN10__cxxabiv117__class_type_infoE+16
	.quad	_ZTS14wxEventFunctor
	.globl	_ZTS14wxEventFunctor
	.section	.rdata$_ZTS14wxEventFunctor,"dr"
	.linkonce same_size
	.align 16
_ZTS14wxEventFunctor:
	.ascii "14wxEventFunctor\0"
	.globl	_ZTI20wxThreadHelperThread
	.section	.rdata$_ZTI20wxThreadHelperThread,"dr"
	.linkonce same_size
	.align 8
_ZTI20wxThreadHelperThread:
	.quad	_ZTVN10__cxxabiv120__si_class_type_infoE+16
	.quad	_ZTS20wxThreadHelperThread
	.quad	_ZTI8wxThread
	.globl	_ZTS20wxThreadHelperThread
	.section	.rdata$_ZTS20wxThreadHelperThread,"dr"
	.linkonce same_size
	.align 16
_ZTS20wxThreadHelperThread:
	.ascii "20wxThreadHelperThread\0"
	.globl	_ZTI8wxThread
	.section	.rdata$_ZTI8wxThread,"dr"
	.linkonce same_size
	.align 8
_ZTI8wxThread:
	.quad	_ZTVN10__cxxabiv117__class_type_infoE+16
	.quad	_ZTS8wxThread
	.globl	_ZTS8wxThread
	.section	.rdata$_ZTS8wxThread,"dr"
	.linkonce same_size
	.align 8
_ZTS8wxThread:
	.ascii "8wxThread\0"
	.globl	_ZTI12ElementosVoo
	.section	.rdata$_ZTI12ElementosVoo,"dr"
	.linkonce same_size
	.align 8
_ZTI12ElementosVoo:
	.quad	_ZTVN10__cxxabiv120__si_class_type_infoE+16
	.quad	_ZTS12ElementosVoo
	.quad	_ZTI10BaseObject
	.globl	_ZTS12ElementosVoo
	.section	.rdata$_ZTS12ElementosVoo,"dr"
	.linkonce same_size
	.align 8
_ZTS12ElementosVoo:
	.ascii "12ElementosVoo\0"
	.globl	_ZTI16ElementosDisparo
	.section	.rdata$_ZTI16ElementosDisparo,"dr"
	.linkonce same_size
	.align 8
_ZTI16ElementosDisparo:
	.quad	_ZTVN10__cxxabiv120__si_class_type_infoE+16
	.quad	_ZTS16ElementosDisparo
	.quad	_ZTI10BaseObject
	.globl	_ZTS16ElementosDisparo
	.section	.rdata$_ZTS16ElementosDisparo,"dr"
	.linkonce same_size
	.align 16
_ZTS16ElementosDisparo:
	.ascii "16ElementosDisparo\0"
	.globl	_ZTI10BaseObject
	.section	.rdata$_ZTI10BaseObject,"dr"
	.linkonce same_size
	.align 8
_ZTI10BaseObject:
	.quad	_ZTVN10__cxxabiv117__class_type_infoE+16
	.quad	_ZTS10BaseObject
	.globl	_ZTS10BaseObject
	.section	.rdata$_ZTS10BaseObject,"dr"
	.linkonce same_size
	.align 8
_ZTS10BaseObject:
	.ascii "10BaseObject\0"
	.globl	_ZTISt9exception
	.section	.rdata$_ZTISt9exception,"dr"
	.linkonce same_size
	.align 8
_ZTISt9exception:
	.quad	_ZTVN10__cxxabiv117__class_type_infoE+16
	.quad	_ZTSSt9exception
	.globl	_ZTSSt9exception
	.section	.rdata$_ZTSSt9exception,"dr"
	.linkonce same_size
	.align 8
_ZTSSt9exception:
	.ascii "St9exception\0"
	.text
	.def	__tcf_0;	.scl	3;	.type	32;	.endef
	.seh_proc	__tcf_0
__tcf_0:
.LFB12516:
	.file 26 "C:/Program Files/CodeBlocks/MinGW/lib/gcc/x86_64-w64-mingw32/8.1.0/include/c++/iostream"
	.loc 26 74 25
	.cfi_startproc
	pushq	%rbp
	.seh_pushreg	%rbp
	.cfi_def_cfa_offset 16
	.cfi_offset 6, -16
	movq	%rsp, %rbp
	.seh_setframe	%rbp, 0
	.cfi_def_cfa_register 6
	subq	$32, %rsp
	.seh_stackalloc	32
	.seh_endprologue
	.loc 26 74 25
	leaq	_ZStL8__ioinit(%rip), %rcx
	call	_ZNSt8ios_base4InitD1Ev
	nop
	addq	$32, %rsp
	popq	%rbp
	.cfi_restore 6
	.cfi_def_cfa 7, 8
	ret
	.cfi_endproc
.LFE12516:
	.seh_endproc
	.def	_Z41__static_initialization_and_destruction_0ii;	.scl	3;	.type	32;	.endef
	.seh_proc	_Z41__static_initialization_and_destruction_0ii
_Z41__static_initialization_and_destruction_0ii:
.LFB12515:
	.loc 18 286 1
	.cfi_startproc
	pushq	%rbp
	.seh_pushreg	%rbp
	.cfi_def_cfa_offset 16
	.cfi_offset 6, -16
	movq	%rsp, %rbp
	.seh_setframe	%rbp, 0
	.cfi_def_cfa_register 6
	subq	$32, %rsp
	.seh_stackalloc	32
	.seh_endprologue
	movl	%ecx, 16(%rbp)
	movl	%edx, 24(%rbp)
	.loc 18 286 1
	cmpl	$1, 16(%rbp)
	jne	.L415
	.loc 18 286 1 is_stmt 0 discriminator 1
	cmpl	$65535, 24(%rbp)
	jne	.L415
	.loc 26 74 25 is_stmt 1
	leaq	_ZStL8__ioinit(%rip), %rcx
	call	_ZNSt8ios_base4InitC1Ev
	leaq	__tcf_0(%rip), %rcx
	call	atexit
.L415:
	.loc 18 286 1
	nop
	addq	$32, %rsp
	popq	%rbp
	.cfi_restore 6
	.cfi_def_cfa 7, 8
	ret
	.cfi_endproc
.LFE12515:
	.seh_endproc
	.def	_GLOBAL__sub_I__ZN15GeradorTabularBC2EP10wxTextCtrl;	.scl	3;	.type	32;	.endef
	.seh_proc	_GLOBAL__sub_I__ZN15GeradorTabularBC2EP10wxTextCtrl
_GLOBAL__sub_I__ZN15GeradorTabularBC2EP10wxTextCtrl:
.LFB12623:
	.loc 18 286 1
	.cfi_startproc
	pushq	%rbp
	.seh_pushreg	%rbp
	.cfi_def_cfa_offset 16
	.cfi_offset 6, -16
	movq	%rsp, %rbp
	.seh_setframe	%rbp, 0
	.cfi_def_cfa_register 6
	subq	$32, %rsp
	.seh_stackalloc	32
	.seh_endprologue
	.loc 18 286 1
	movl	$65535, %edx
	movl	$1, %ecx
	call	_Z41__static_initialization_and_destruction_0ii
	nop
	addq	$32, %rsp
	popq	%rbp
	.cfi_restore 6
	.cfi_def_cfa 7, 8
	ret
	.cfi_endproc
.LFE12623:
	.seh_endproc
	.section	.ctors,"w"
	.align 8
	.quad	_GLOBAL__sub_I__ZN15GeradorTabularBC2EP10wxTextCtrl
	.section .rdata,"dr"
	.align 8
.LC1:
	.long	0
	.long	1071644672
	.align 8
.LC3:
	.long	0
	.long	1082722304
	.align 8
.LC20:
	.long	-1416935092
	.long	1083167931
	.align 8
.LC21:
	.long	0
	.long	1082720256
	.align 8
.LC22:
	.long	0
	.long	1083129856
	.align 8
.LC23:
	.long	0
	.long	1072693248
	.align 8
.LC29:
	.long	0
	.long	1082701824
	.text
.Letext0:
	.file 27 "C:/Program Files/CodeBlocks/MinGW/lib/gcc/x86_64-w64-mingw32/8.1.0/include/c++/bits/stringfwd.h"
	.file 28 "C:/Program Files/CodeBlocks/MinGW/lib/gcc/x86_64-w64-mingw32/8.1.0/include/c++/type_traits"
	.file 29 "C:/Program Files/CodeBlocks/MinGW/lib/gcc/x86_64-w64-mingw32/8.1.0/include/c++/bits/stl_pair.h"
	.file 30 "C:/Program Files/CodeBlocks/MinGW/lib/gcc/x86_64-w64-mingw32/8.1.0/include/c++/bits/cpp_type_traits.h"
	.file 31 "C:/Program Files/CodeBlocks/MinGW/lib/gcc/x86_64-w64-mingw32/8.1.0/include/c++/debug/debug.h"
	.file 32 "C:/Program Files/CodeBlocks/MinGW/lib/gcc/x86_64-w64-mingw32/8.1.0/include/c++/bits/exception_ptr.h"
	.file 33 "C:/Program Files/CodeBlocks/MinGW/lib/gcc/x86_64-w64-mingw32/8.1.0/include/c++/x86_64-w64-mingw32/bits/c++config.h"
	.file 34 "C:/Program Files/CodeBlocks/MinGW/lib/gcc/x86_64-w64-mingw32/8.1.0/include/c++/new"
	.file 35 "C:/Program Files/CodeBlocks/MinGW/lib/gcc/x86_64-w64-mingw32/8.1.0/include/c++/bits/allocator.h"
	.file 36 "C:/Program Files/CodeBlocks/MinGW/lib/gcc/x86_64-w64-mingw32/8.1.0/include/c++/cwchar"
	.file 37 "C:/Program Files/CodeBlocks/MinGW/lib/gcc/x86_64-w64-mingw32/8.1.0/include/c++/bits/char_traits.h"
	.file 38 "C:/Program Files/CodeBlocks/MinGW/lib/gcc/x86_64-w64-mingw32/8.1.0/include/c++/cstdint"
	.file 39 "C:/Program Files/CodeBlocks/MinGW/lib/gcc/x86_64-w64-mingw32/8.1.0/include/c++/clocale"
	.file 40 "C:/Program Files/CodeBlocks/MinGW/lib/gcc/x86_64-w64-mingw32/8.1.0/include/c++/cstdlib"
	.file 41 "C:/Program Files/CodeBlocks/MinGW/lib/gcc/x86_64-w64-mingw32/8.1.0/include/c++/cstdio"
	.file 42 "C:/Program Files/CodeBlocks/MinGW/lib/gcc/x86_64-w64-mingw32/8.1.0/include/c++/bits/alloc_traits.h"
	.file 43 "C:/Program Files/CodeBlocks/MinGW/lib/gcc/x86_64-w64-mingw32/8.1.0/include/c++/initializer_list"
	.file 44 "C:/Program Files/CodeBlocks/MinGW/lib/gcc/x86_64-w64-mingw32/8.1.0/include/c++/bits/stl_list.h"
	.file 45 "C:/Program Files/CodeBlocks/MinGW/lib/gcc/x86_64-w64-mingw32/8.1.0/include/c++/bits/std_abs.h"
	.file 46 "C:/Program Files/CodeBlocks/MinGW/lib/gcc/x86_64-w64-mingw32/8.1.0/include/c++/cmath"
	.file 47 "C:/Program Files/CodeBlocks/MinGW/lib/gcc/x86_64-w64-mingw32/8.1.0/include/c++/system_error"
	.file 48 "C:/Program Files/CodeBlocks/MinGW/lib/gcc/x86_64-w64-mingw32/8.1.0/include/c++/bits/ios_base.h"
	.file 49 "C:/Program Files/CodeBlocks/MinGW/lib/gcc/x86_64-w64-mingw32/8.1.0/include/c++/cwctype"
	.file 50 "C:/Program Files/CodeBlocks/MinGW/lib/gcc/x86_64-w64-mingw32/8.1.0/include/c++/iosfwd"
	.file 51 "C:/Program Files/CodeBlocks/MinGW/lib/gcc/x86_64-w64-mingw32/8.1.0/include/c++/bits/stl_vector.h"
	.file 52 "C:/Program Files/CodeBlocks/MinGW/lib/gcc/x86_64-w64-mingw32/8.1.0/include/c++/bits/vector.tcc"
	.file 53 "C:/Program Files/CodeBlocks/MinGW/lib/gcc/x86_64-w64-mingw32/8.1.0/include/c++/bits/uses_allocator.h"
	.file 54 "C:/Program Files/CodeBlocks/MinGW/lib/gcc/x86_64-w64-mingw32/8.1.0/include/c++/tuple"
	.file 55 "C:/Program Files/CodeBlocks/MinGW/lib/gcc/x86_64-w64-mingw32/8.1.0/include/c++/bits/predefined_ops.h"
	.file 56 "C:/Program Files/CodeBlocks/MinGW/lib/gcc/x86_64-w64-mingw32/8.1.0/include/c++/ext/new_allocator.h"
	.file 57 "C:/Program Files/CodeBlocks/MinGW/lib/gcc/x86_64-w64-mingw32/8.1.0/include/c++/ext/numeric_traits.h"
	.file 58 "C:/Program Files/CodeBlocks/MinGW/lib/gcc/x86_64-w64-mingw32/8.1.0/include/c++/ext/alloc_traits.h"
	.file 59 "C:/Program Files/CodeBlocks/MinGW/lib/gcc/x86_64-w64-mingw32/8.1.0/include/c++/bits/stl_iterator.h"
	.file 60 "C:/Program Files/CodeBlocks/MinGW/x86_64-w64-mingw32/include/vadefs.h"
	.file 61 "C:/Program Files/CodeBlocks/MinGW/x86_64-w64-mingw32/include/crtdefs.h"
	.file 62 "C:/Program Files/CodeBlocks/MinGW/x86_64-w64-mingw32/include/locale.h"
	.file 63 "C:/Program Files/CodeBlocks/MinGW/x86_64-w64-mingw32/include/wchar.h"
	.file 64 "C:/Program Files/CodeBlocks/MinGW/x86_64-w64-mingw32/include/swprintf.inl"
	.file 65 "C:/Program Files/CodeBlocks/MinGW/x86_64-w64-mingw32/include/stdint.h"
	.file 66 "C:/Program Files/CodeBlocks/MinGW/x86_64-w64-mingw32/include/ctype.h"
	.file 67 "C:/Program Files/CodeBlocks/MinGW/x86_64-w64-mingw32/include/process.h"
	.file 68 "C:/Program Files/CodeBlocks/MinGW/x86_64-w64-mingw32/include/pthread.h"
	.file 69 "C:/Program Files/CodeBlocks/MinGW/lib/gcc/x86_64-w64-mingw32/8.1.0/include/c++/x86_64-w64-mingw32/bits/atomic_word.h"
	.file 70 "C:/Program Files/CodeBlocks/MinGW/x86_64-w64-mingw32/include/stdlib.h"
	.file 71 "C:/Program Files/CodeBlocks/MinGW/x86_64-w64-mingw32/include/malloc.h"
	.file 72 "../../CalculadorNumerico/calculador/../padroes/observable.h"
	.file 73 "../../CalculadorNumerico/calculador/../projetil/projetil.h"
	.file 74 "../../CalculadorNumerico/calculador/calculador.h"
	.file 75 "C:/Program Files/CodeBlocks/MinGW/lib/gcc/x86_64-w64-mingw32/8.1.0/include/c++/stdlib.h"
	.file 76 "../wxMSW-3.0.5_gcc810_x64_Dev/include/wx/chartype.h"
	.file 77 "../wxMSW-3.0.5_gcc810_x64_Dev/include/wx/debug.h"
	.file 78 "../wxMSW-3.0.5_gcc810_x64_Dev/include/wx/defs.h"
	.file 79 "C:/Program Files/CodeBlocks/MinGW/x86_64-w64-mingw32/include/wctype.h"
	.file 80 "C:/Program Files/CodeBlocks/MinGW/x86_64-w64-mingw32/include/time.h"
	.file 81 "../wxMSW-3.0.5_gcc810_x64_Dev/include/wx/fontenc.h"
	.file 82 "../wxMSW-3.0.5_gcc810_x64_Dev/include/wx/stringimpl.h"
	.file 83 "../wxMSW-3.0.5_gcc810_x64_Dev/include/wx/unichar.h"
	.file 84 "../wxMSW-3.0.5_gcc810_x64_Dev/include/wx/strvararg.h"
	.file 85 "../wxMSW-3.0.5_gcc810_x64_Dev/include/wx/rtti.h"
	.file 86 "../wxMSW-3.0.5_gcc810_x64_Dev/include/wx/object.h"
	.file 87 "../wxMSW-3.0.5_gcc810_x64_Dev/include/wx/hashmap.h"
	.file 88 "../wxMSW-3.0.5_gcc810_x64_Dev/include/wx/list.h"
	.file 89 "C:/Program Files/CodeBlocks/MinGW/x86_64-w64-mingw32/include/math.h"
	.file 90 "C:/Program Files/CodeBlocks/MinGW/lib/gcc/x86_64-w64-mingw32/8.1.0/include/c++/math.h"
	.file 91 "../wxMSW-3.0.5_gcc810_x64_Dev/include/wx/gdicmn.h"
	.file 92 "../wxMSW-3.0.5_gcc810_x64_Dev/include/wx/msw/gdiimage.h"
	.file 93 "../wxMSW-3.0.5_gcc810_x64_Dev/include/wx/filefn.h"
	.file 94 "../wxMSW-3.0.5_gcc810_x64_Dev/include/wx/longlong.h"
	.file 95 "../wxMSW-3.0.5_gcc810_x64_Dev/include/wx/window.h"
	.file 96 "../wxMSW-3.0.5_gcc810_x64_Dev/include/wx/utils.h"
	.file 97 "../wxMSW-3.0.5_gcc810_x64_Dev/include/wx/any.h"
	.file 98 "../wxMSW-3.0.5_gcc810_x64_Dev/include/wx/anystr.h"
	.file 99 "../wxMSW-3.0.5_gcc810_x64_Dev/include/wx/datetime.h"
	.file 100 "../wxMSW-3.0.5_gcc810_x64_Dev/include/wx/variant.h"
	.file 101 "../wxMSW-3.0.5_gcc810_x64_Dev/include/wx/font.h"
	.file 102 "../wxMSW-3.0.5_gcc810_x64_Dev/include/wx/colour.h"
	.file 103 "../wxMSW-3.0.5_gcc810_x64_Dev/include/wx/validate.h"
	.file 104 "../wxMSW-3.0.5_gcc810_x64_Dev/include/wx/accel.h"
	.file 105 "../wxMSW-3.0.5_gcc810_x64_Dev/include/wx/control.h"
	.file 106 "../wxMSW-3.0.5_gcc810_x64_Dev/include/wx/msw/textentry.h"
	.file 107 "../wxMSW-3.0.5_gcc810_x64_Dev/include/wx/textctrl.h"
	.file 108 "../../CalculadorNumerico/projetil/../sql/sqlite3.h"
	.file 109 "../../CalculadorNumerico/projetil/ProjetilDAO.h"
	.file 110 "../../CalculadorNumerico/coeficientes/coeficienteAerodinamico.h"
	.file 111 "../../CalculadorNumerico/coeficientes/coeficientesdao.h"
	.file 112 "../../CalculadorNumerico/fatoresdeajuste/calculadorFator.h"
	.file 113 "C:/temp/ballisticKernelCpp/interfaceGrafica/calculadorBalisiticaGraficoWindows/globais.h"
	.file 114 "../../CalculadorNumerico/coeficientes/CoeficienteDrag.h"
	.file 115 "../../Boletim/linha4061.h"
	.file 116 "../../Boletim/boletim12.h"
	.file 117 "C:/temp/ballisticKernelCpp/interfaceGrafica/calculadorBalisiticaGraficoWindows/tabelaDialog/geradorTabularB.h"
	.file 118 "C:/temp/ballisticKernelCpp/interfaceGrafica/calculadorBalisiticaGraficoWindows/tabelaDialog/geradorTabular.h"
	.file 119 "../../CalculadorNumerico/excecoes/ExceptionYawRepose.h"
	.file 120 "<built-in>"