	.file	"geradorTabularD.cpp"
	.text
.Ltext0:
	.cfi_sections	.debug_frame
	.section .rdata,"dr"
_ZStL19piecewise_construct:
	.space 1
	.section	.text$_ZNKSt9type_info4nameEv,"x"
	.linkonce discard
	.align 2
	.globl	_ZNKSt9type_info4nameEv
	.def	_ZNKSt9type_info4nameEv;	.scl	2;	.type	32;	.endef
	.seh_proc	_ZNKSt9type_info4nameEv
_ZNKSt9type_info4nameEv:
.LFB310:
	.file 1 "C:/Program Files/CodeBlocks/MinGW/lib/gcc/x86_64-w64-mingw32/8.1.0/include/c++/typeinfo"
	.loc 1 99 17
	.cfi_startproc
	pushq	%rbp
	.seh_pushreg	%rbp
	.cfi_def_cfa_offset 16
	.cfi_offset 6, -16
	movq	%rsp, %rbp
	.seh_setframe	%rbp, 0
	.cfi_def_cfa_register 6
	.seh_endprologue
	movq	%rcx, 16(%rbp)
	.loc 1 100 14
	movq	16(%rbp), %rax
	movq	8(%rax), %rax
	.loc 1 100 22
	movzbl	(%rax), %eax
	.loc 1 100 31
	cmpb	$42, %al
	jne	.L2
	.loc 1 100 33 discriminator 1
	movq	16(%rbp), %rax
	movq	8(%rax), %rax
	.loc 1 100 31 discriminator 1
	addq	$1, %rax
	.loc 1 100 46 discriminator 1
	jmp	.L4
.L2:
	.loc 1 100 31 discriminator 2
	movq	16(%rbp), %rax
	movq	8(%rax), %rax
.L4:
	.loc 1 100 54 discriminator 5
	popq	%rbp
	.cfi_restore 6
	.cfi_def_cfa 7, 8
	ret
	.cfi_endproc
.LFE310:
	.seh_endproc
	.text
	.def	_ZL9vsnprintfPcyPKcS_;	.scl	3;	.type	32;	.endef
	.seh_proc	_ZL9vsnprintfPcyPKcS_
_ZL9vsnprintfPcyPKcS_:
.LFB950:
	.file 2 "C:/Program Files/CodeBlocks/MinGW/x86_64-w64-mingw32/include/stdio.h"
	.loc 2 400 1
	.cfi_startproc
	pushq	%rbp
	.seh_pushreg	%rbp
	.cfi_def_cfa_offset 16
	.cfi_offset 6, -16
	movq	%rsp, %rbp
	.seh_setframe	%rbp, 0
	.cfi_def_cfa_register 6
	subq	$32, %rsp
	.seh_stackalloc	32
	.seh_endprologue
	movq	%rcx, 16(%rbp)
	movq	%rdx, 24(%rbp)
	movq	%r8, 32(%rbp)
	movq	%r9, 40(%rbp)
	.loc 2 401 27
	movq	40(%rbp), %rcx
	movq	32(%rbp), %rdx
	movq	24(%rbp), %rax
	movq	%rcx, %r9
	movq	%rdx, %r8
	movq	%rax, %rdx
	movq	16(%rbp), %rcx
	call	__mingw_vsnprintf
	.loc 2 402 1
	addq	$32, %rsp
	popq	%rbp
	.cfi_restore 6
	.cfi_def_cfa 7, 8
	ret
	.cfi_endproc
.LFE950:
	.seh_endproc
	.section .rdata,"dr"
.LC0:
	.ascii "%d\0"
	.section	.text$_ZNSt7__cxx119to_stringEi,"x"
	.linkonce discard
	.globl	_ZNSt7__cxx119to_stringEi
	.def	_ZNSt7__cxx119to_stringEi;	.scl	2;	.type	32;	.endef
	.seh_proc	_ZNSt7__cxx119to_stringEi
_ZNSt7__cxx119to_stringEi:
.LFB1284:
	.file 3 "C:/Program Files/CodeBlocks/MinGW/lib/gcc/x86_64-w64-mingw32/8.1.0/include/c++/bits/basic_string.h"
	.loc 3 6415 3
	.cfi_startproc
	pushq	%rbp
	.seh_pushreg	%rbp
	.cfi_def_cfa_offset 16
	.cfi_offset 6, -16
	movq	%rsp, %rbp
	.seh_setframe	%rbp, 0
	.cfi_def_cfa_register 6
	subq	$48, %rsp
	.seh_stackalloc	48
	.seh_endprologue
	movq	%rcx, 16(%rbp)
	movl	%edx, 24(%rbp)
	.loc 3 6416 20
	movq	16(%rbp), %rax
	movl	24(%rbp), %edx
	movl	%edx, 32(%rsp)
	leaq	.LC0(%rip), %r9
	movl	$16, %r8d
	leaq	_ZL9vsnprintfPcyPKcS_(%rip), %rdx
	movq	%rax, %rcx
	call	_ZN9__gnu_cxx12__to_xstringINSt7__cxx1112basic_stringIcSt11char_traitsIcESaIcEEEcEET_PFiPT0_yPKS8_PcEySB_z
	.loc 3 6416 23
	movq	16(%rbp), %rax
	addq	$48, %rsp
	popq	%rbp
	.cfi_restore 6
	.cfi_def_cfa 7, 8
	ret
	.cfi_endproc
.LFE1284:
	.seh_endproc
	.section	.text$_ZNK21CalculadorAtmosferico12getAtmosferaEv,"x"
	.linkonce discard
	.align 2
	.globl	_ZNK21CalculadorAtmosferico12getAtmosferaEv
	.def	_ZNK21CalculadorAtmosferico12getAtmosferaEv;	.scl	2;	.type	32;	.endef
	.seh_proc	_ZNK21CalculadorAtmosferico12getAtmosferaEv
_ZNK21CalculadorAtmosferico12getAtmosferaEv:
.LFB1592:
	.file 4 "../../CalculadorNumerico/calculador/calculadorAtmosferico.h"
	.loc 4 27 20
	.cfi_startproc
	pushq	%rbp
	.seh_pushreg	%rbp
	.cfi_def_cfa_offset 16
	.cfi_offset 6, -16
	movq	%rsp, %rbp
	.seh_setframe	%rbp, 0
	.cfi_def_cfa_register 6
	.seh_endprologue
	movq	%rcx, 16(%rbp)
	.loc 4 27 49
	movq	16(%rbp), %rax
	movq	232(%rax), %rax
	.loc 4 27 55
	popq	%rbp
	.cfi_restore 6
	.cfi_def_cfa 7, 8
	ret
	.cfi_endproc
.LFE1592:
	.seh_endproc
	.section	.text$_ZN9wxPrivate17UntypedBufferDataD2Ev,"x"
	.linkonce discard
	.align 2
	.globl	_ZN9wxPrivate17UntypedBufferDataD2Ev
	.def	_ZN9wxPrivate17UntypedBufferDataD2Ev;	.scl	2;	.type	32;	.endef
	.seh_proc	_ZN9wxPrivate17UntypedBufferDataD2Ev
_ZN9wxPrivate17UntypedBufferDataD2Ev:
.LFB1664:
	.file 5 "../wxMSW-3.0.5_gcc810_x64_Dev/include/wx/buffer.h"
	.loc 5 41 5
	.cfi_startproc
	pushq	%rbp
	.seh_pushreg	%rbp
	.cfi_def_cfa_offset 16
	.cfi_offset 6, -16
	movq	%rsp, %rbp
	.seh_setframe	%rbp, 0
	.cfi_def_cfa_register 6
	subq	$32, %rsp
	.seh_stackalloc	32
	.seh_endprologue
	movq	%rcx, 16(%rbp)
.LBB2:
	.loc 5 43 14
	movq	16(%rbp), %rax
	movzbl	18(%rax), %eax
	.loc 5 43 9
	testb	%al, %al
	je	.L13
	.loc 5 44 17
	movq	16(%rbp), %rax
	movq	(%rax), %rax
	movq	%rax, %rcx
	call	free
.L13:
.LBE2:
	.loc 5 45 5
	nop
	addq	$32, %rsp
	popq	%rbp
	.cfi_restore 6
	.cfi_def_cfa 7, 8
	ret
	.cfi_endproc
.LFE1664:
	.seh_endproc
	.section	.text$_Z16wxGet_wxConvLibcv,"x"
	.linkonce discard
	.globl	_Z16wxGet_wxConvLibcv
	.def	_Z16wxGet_wxConvLibcv;	.scl	2;	.type	32;	.endef
	.seh_proc	_Z16wxGet_wxConvLibcv
_Z16wxGet_wxConvLibcv:
.LFB1852:
	.file 6 "../wxMSW-3.0.5_gcc810_x64_Dev/include/wx/strconv.h"
	.loc 6 576 109
	.cfi_startproc
	pushq	%rbp
	.seh_pushreg	%rbp
	.cfi_def_cfa_offset 16
	.cfi_offset 6, -16
	movq	%rsp, %rbp
	.seh_setframe	%rbp, 0
	.cfi_def_cfa_register 6
	subq	$32, %rsp
	.seh_stackalloc	32
	.seh_endprologue
	.loc 6 576 116
	movq	.refptr.wxConvLibcPtr(%rip), %rax
	movq	(%rax), %rax
	.loc 6 576 111
	testq	%rax, %rax
	jne	.L15
	.loc 6 576 168 discriminator 1
	call	_Z19wxGet_wxConvLibcPtrv
	movq	%rax, %rdx
	.loc 6 576 147 discriminator 1
	movq	.refptr.wxConvLibcPtr(%rip), %rax
	movq	%rdx, (%rax)
.L15:
	.loc 6 576 180 discriminator 3
	movq	.refptr.wxConvLibcPtr(%rip), %rax
	movq	(%rax), %rax
	.loc 6 576 195 discriminator 3
	addq	$32, %rsp
	popq	%rbp
	.cfi_restore 6
	.cfi_def_cfa 7, 8
	ret
	.cfi_endproc
.LFE1852:
	.seh_endproc
	.section	.text$_ZN8wxString17SubstrBufFromTypeI22wxScopedCharTypeBufferIwEED1Ev,"x"
	.linkonce discard
	.align 2
	.globl	_ZN8wxString17SubstrBufFromTypeI22wxScopedCharTypeBufferIwEED1Ev
	.def	_ZN8wxString17SubstrBufFromTypeI22wxScopedCharTypeBufferIwEED1Ev;	.scl	2;	.type	32;	.endef
	.seh_proc	_ZN8wxString17SubstrBufFromTypeI22wxScopedCharTypeBufferIwEED1Ev
_ZN8wxString17SubstrBufFromTypeI22wxScopedCharTypeBufferIwEED1Ev:
.LFB2325:
	.file 7 "../wxMSW-3.0.5_gcc810_x64_Dev/include/wx/string.h"
	.loc 7 425 10
	.cfi_startproc
	pushq	%rbp
	.seh_pushreg	%rbp
	.cfi_def_cfa_offset 16
	.cfi_offset 6, -16
	movq	%rsp, %rbp
	.seh_setframe	%rbp, 0
	.cfi_def_cfa_register 6
	subq	$32, %rsp
	.seh_stackalloc	32
	.seh_endprologue
	movq	%rcx, 16(%rbp)
.LBB3:
	.loc 7 425 10
	movq	16(%rbp), %rax
	movq	%rax, %rcx
	call	_ZN22wxScopedCharTypeBufferIwED1Ev
.LBE3:
	nop
	addq	$32, %rsp
	popq	%rbp
	.cfi_restore 6
	.cfi_def_cfa 7, 8
	ret
	.cfi_endproc
.LFE2325:
	.seh_endproc
	.section	.text$_ZN8wxString7ImplStrEPKcRK8wxMBConv,"x"
	.linkonce discard
	.globl	_ZN8wxString7ImplStrEPKcRK8wxMBConv
	.def	_ZN8wxString7ImplStrEPKcRK8wxMBConv;	.scl	2;	.type	32;	.endef
	.seh_proc	_ZN8wxString7ImplStrEPKcRK8wxMBConv
_ZN8wxString7ImplStrEPKcRK8wxMBConv:
.LFB2322:
	.loc 7 475 30
	.cfi_startproc
	pushq	%rbp
	.seh_pushreg	%rbp
	.cfi_def_cfa_offset 16
	.cfi_offset 6, -16
	pushq	%rbx
	.seh_pushreg	%rbx
	.cfi_def_cfa_offset 24
	.cfi_offset 3, -24
	subq	$56, %rsp
	.seh_stackalloc	56
	.cfi_def_cfa_offset 80
	leaq	128(%rsp), %rbp
	.seh_setframe	%rbp, 128
	.cfi_def_cfa 6, -48
	.seh_endprologue
	movq	%rcx, -48(%rbp)
	movq	%rdx, -40(%rbp)
	movq	%r8, -32(%rbp)
	.loc 7 477 24
	movq	.refptr._ZN8wxString4nposE(%rip), %rax
	movq	(%rax), %rcx
	leaq	-96(%rbp), %rax
	movq	-32(%rbp), %r8
	movq	-40(%rbp), %rdx
	movq	%r8, %r9
	movq	%rcx, %r8
	movq	%rax, %rcx
.LEHB0:
	call	_ZN8wxString10ConvertStrEPKcyRK8wxMBConv
.LEHE0:
	.loc 7 477 42
	leaq	-96(%rbp), %rax
	movq	%rax, %rdx
	movq	-48(%rbp), %rcx
.LEHB1:
	call	_ZN22wxScopedCharTypeBufferIwEC1ERKS0_
.LEHE1:
	nop
	.loc 7 477 24
	leaq	-96(%rbp), %rax
	movq	%rax, %rcx
	call	_ZN8wxString17SubstrBufFromTypeI22wxScopedCharTypeBufferIwEED1Ev
	.loc 7 477 42
	jmp	.L22
.L21:
	movq	%rax, %rbx
	.loc 7 477 24
	leaq	-96(%rbp), %rax
	movq	%rax, %rcx
	call	_ZN8wxString17SubstrBufFromTypeI22wxScopedCharTypeBufferIwEED1Ev
	movq	%rbx, %rax
	movq	%rax, %rcx
.LEHB2:
	call	_Unwind_Resume
.LEHE2:
.L22:
	.loc 7 477 48
	movq	-48(%rbp), %rax
	addq	$56, %rsp
	popq	%rbx
	.cfi_restore 3
	popq	%rbp
	.cfi_restore 6
	.cfi_def_cfa 7, -40
	ret
	.cfi_endproc
.LFE2322:
	.def	__gxx_personality_seh0;	.scl	2;	.type	32;	.endef
	.seh_handler	__gxx_personality_seh0, @unwind, @except
	.seh_handlerdata
.LLSDA2322:
	.byte	0xff
	.byte	0xff
	.byte	0x1
	.uleb128 .LLSDACSE2322-.LLSDACSB2322
.LLSDACSB2322:
	.uleb128 .LEHB0-.LFB2322
	.uleb128 .LEHE0-.LEHB0
	.uleb128 0
	.uleb128 0
	.uleb128 .LEHB1-.LFB2322
	.uleb128 .LEHE1-.LEHB1
	.uleb128 .L21-.LFB2322
	.uleb128 0
	.uleb128 .LEHB2-.LFB2322
	.uleb128 .LEHE2-.LEHB2
	.uleb128 0
	.uleb128 0
.LLSDACSE2322:
	.section	.text$_ZN8wxString7ImplStrEPKcRK8wxMBConv,"x"
	.linkonce discard
	.seh_endproc
	.section	.text$_ZN8wxString7ImplStrEPKcyRK8wxMBConv,"x"
	.linkonce discard
	.globl	_ZN8wxString7ImplStrEPKcyRK8wxMBConv
	.def	_ZN8wxString7ImplStrEPKcyRK8wxMBConv;	.scl	2;	.type	32;	.endef
	.seh_proc	_ZN8wxString7ImplStrEPKcyRK8wxMBConv
_ZN8wxString7ImplStrEPKcyRK8wxMBConv:
.LFB2326:
	.loc 7 478 26
	.cfi_startproc
	pushq	%rbp
	.seh_pushreg	%rbp
	.cfi_def_cfa_offset 16
	.cfi_offset 6, -16
	movq	%rsp, %rbp
	.seh_setframe	%rbp, 0
	.cfi_def_cfa_register 6
	subq	$32, %rsp
	.seh_stackalloc	32
	.seh_endprologue
	movq	%rcx, 16(%rbp)
	movq	%rdx, 24(%rbp)
	movq	%r8, 32(%rbp)
	movq	%r9, 40(%rbp)
	.loc 7 480 37
	movq	16(%rbp), %rax
	movq	40(%rbp), %r8
	movq	32(%rbp), %rcx
	movq	24(%rbp), %rdx
	movq	%r8, %r9
	movq	%rcx, %r8
	movq	%rax, %rcx
	call	_ZN8wxString10ConvertStrEPKcyRK8wxMBConv
	.loc 7 480 40
	movq	16(%rbp), %rax
	addq	$32, %rsp
	popq	%rbp
	.cfi_restore 6
	.cfi_def_cfa 7, 8
	ret
	.cfi_endproc
.LFE2326:
	.seh_endproc
	.section	.text$_ZN8wxStringD1Ev,"x"
	.linkonce discard
	.align 2
	.globl	_ZN8wxStringD1Ev
	.def	_ZN8wxStringD1Ev;	.scl	2;	.type	32;	.endef
	.seh_proc	_ZN8wxStringD1Ev
_ZN8wxStringD1Ev:
.LFB2402:
	.loc 7 393 7
	.cfi_startproc
	pushq	%rbp
	.seh_pushreg	%rbp
	.cfi_def_cfa_offset 16
	.cfi_offset 6, -16
	movq	%rsp, %rbp
	.seh_setframe	%rbp, 0
	.cfi_def_cfa_register 6
	subq	$32, %rsp
	.seh_stackalloc	32
	.seh_endprologue
	movq	%rcx, 16(%rbp)
.LBB4:
	.loc 7 393 7
	movq	16(%rbp), %rax
	addq	$32, %rax
	movq	%rax, %rcx
	call	_ZN8wxString15ConvertedBufferIcED1Ev
	movq	16(%rbp), %rax
	movq	%rax, %rcx
	call	_ZNSt7__cxx1112basic_stringIwSt11char_traitsIwESaIwEED1Ev
.LBE4:
	nop
	addq	$32, %rsp
	popq	%rbp
	.cfi_restore 6
	.cfi_def_cfa 7, 8
	ret
	.cfi_endproc
.LFE2402:
	.seh_endproc
	.section	.text$_ZN8wxStringC1EPKc,"x"
	.linkonce discard
	.align 2
	.globl	_ZN8wxStringC1EPKc
	.def	_ZN8wxStringC1EPKc;	.scl	2;	.type	32;	.endef
	.seh_proc	_ZN8wxStringC1EPKc
_ZN8wxStringC1EPKc:
.LFB2458:
	.loc 7 1241 3
	.cfi_startproc
	pushq	%rbp
	.seh_pushreg	%rbp
	.cfi_def_cfa_offset 16
	.cfi_offset 6, -16
	pushq	%rbx
	.seh_pushreg	%rbx
	.cfi_def_cfa_offset 24
	.cfi_offset 3, -24
	subq	$56, %rsp
	.seh_stackalloc	56
	.cfi_def_cfa_offset 80
	leaq	128(%rsp), %rbp
	.seh_setframe	%rbp, 128
	.cfi_def_cfa 6, -48
	.seh_endprologue
	movq	%rcx, -48(%rbp)
	movq	%rdx, -40(%rbp)
.LBB5:
	.loc 7 1242 26
	movq	-48(%rbp), %rbx
	leaq	-89(%rbp), %rax
	movq	%rax, %rcx
	call	_ZNSaIwEC1Ev
.LEHB3:
	.loc 7 1242 25
	call	_Z16wxGet_wxConvLibcv
	movq	%rax, %rcx
	.loc 7 1242 21
	leaq	-88(%rbp), %rax
	movq	-40(%rbp), %rdx
	movq	%rcx, %r8
	movq	%rax, %rcx
	call	_ZN8wxString7ImplStrEPKcRK8wxMBConv
.LEHE3:
	.loc 7 1242 26 discriminator 4
	leaq	-88(%rbp), %rax
	movq	%rax, %rcx
.LEHB4:
	call	_ZNK22wxScopedCharTypeBufferIwEcvPKwEv
	movq	%rax, %rdx
	leaq	-89(%rbp), %rax
	movq	%rax, %r8
	movq	%rbx, %rcx
	call	_ZNSt7__cxx1112basic_stringIwSt11char_traitsIwESaIwEEC1EPKwRKS3_
.LEHE4:
	.loc 7 1242 21 discriminator 8
	leaq	-88(%rbp), %rax
	movq	%rax, %rcx
	call	_ZN22wxScopedCharTypeBufferIwED1Ev
	.loc 7 1242 26 discriminator 8
	leaq	-89(%rbp), %rax
	movq	%rax, %rcx
	call	_ZNSaIwED1Ev
	movq	-48(%rbp), %rax
	addq	$32, %rax
	movq	%rax, %rcx
	call	_ZN8wxString15ConvertedBufferIcEC1Ev
.LBE5:
	.loc 7 1242 29 discriminator 8
	jmp	.L31
.L30:
	movq	%rax, %rbx
.LBB6:
	.loc 7 1242 21
	leaq	-88(%rbp), %rax
	movq	%rax, %rcx
	call	_ZN22wxScopedCharTypeBufferIwED1Ev
	jmp	.L28
.L29:
	movq	%rax, %rbx
.L28:
	.loc 7 1242 26 discriminator 3
	leaq	-89(%rbp), %rax
	movq	%rax, %rcx
	call	_ZNSaIwED1Ev
	movq	%rbx, %rax
	movq	%rax, %rcx
.LEHB5:
	call	_Unwind_Resume
	nop
.LEHE5:
.L31:
.LBE6:
	.loc 7 1242 29
	addq	$56, %rsp
	popq	%rbx
	.cfi_restore 3
	popq	%rbp
	.cfi_restore 6
	.cfi_def_cfa 7, -40
	ret
	.cfi_endproc
.LFE2458:
	.seh_handler	__gxx_personality_seh0, @unwind, @except
	.seh_handlerdata
.LLSDA2458:
	.byte	0xff
	.byte	0xff
	.byte	0x1
	.uleb128 .LLSDACSE2458-.LLSDACSB2458
.LLSDACSB2458:
	.uleb128 .LEHB3-.LFB2458
	.uleb128 .LEHE3-.LEHB3
	.uleb128 .L29-.LFB2458
	.uleb128 0
	.uleb128 .LEHB4-.LFB2458
	.uleb128 .LEHE4-.LEHB4
	.uleb128 .L30-.LFB2458
	.uleb128 0
	.uleb128 .LEHB5-.LFB2458
	.uleb128 .LEHE5-.LEHB5
	.uleb128 0
	.uleb128 0
.LLSDACSE2458:
	.section	.text$_ZN8wxStringC1EPKc,"x"
	.linkonce discard
	.seh_endproc
	.section	.text$_ZN8wxStringC1ERKNSt7__cxx1112basic_stringIcSt11char_traitsIcESaIcEEE,"x"
	.linkonce discard
	.align 2
	.globl	_ZN8wxStringC1ERKNSt7__cxx1112basic_stringIcSt11char_traitsIcESaIcEEE
	.def	_ZN8wxStringC1ERKNSt7__cxx1112basic_stringIcSt11char_traitsIcESaIcEEE;	.scl	2;	.type	32;	.endef
	.seh_proc	_ZN8wxStringC1ERKNSt7__cxx1112basic_stringIcSt11char_traitsIcESaIcEEE
_ZN8wxStringC1ERKNSt7__cxx1112basic_stringIcSt11char_traitsIcESaIcEEE:
.LFB2512:
	.loc 7 1327 5
	.cfi_startproc
	pushq	%rbp
	.seh_pushreg	%rbp
	.cfi_def_cfa_offset 16
	.cfi_offset 6, -16
	pushq	%rbx
	.seh_pushreg	%rbx
	.cfi_def_cfa_offset 24
	.cfi_offset 3, -24
	subq	$40, %rsp
	.seh_stackalloc	40
	.cfi_def_cfa_offset 64
	leaq	128(%rsp), %rbp
	.seh_setframe	%rbp, 128
	.cfi_def_cfa 6, -64
	.seh_endprologue
	movq	%rcx, -64(%rbp)
	movq	%rdx, -56(%rbp)
.LBB7:
	.loc 7 1328 9
	movq	-64(%rbp), %rax
	movq	%rax, %rcx
	call	_ZNSt7__cxx1112basic_stringIwSt11char_traitsIwESaIwEEC1Ev
	movq	-64(%rbp), %rax
	addq	$32, %rax
	movq	%rax, %rcx
	call	_ZN8wxString15ConvertedBufferIcEC1Ev
	.loc 7 1328 43
	movq	-56(%rbp), %rax
	movq	%rax, %rcx
	call	_ZNKSt7__cxx1112basic_stringIcSt11char_traitsIcESaIcEE6lengthEv
	movq	%rax, %rbx
	movq	-56(%rbp), %rax
	movq	%rax, %rcx
	call	_ZNKSt7__cxx1112basic_stringIcSt11char_traitsIcESaIcEE5c_strEv
	movq	%rbx, %r8
	movq	%rax, %rdx
	movq	-64(%rbp), %rcx
.LEHB6:
	call	_ZN8wxString6assignEPKcy
.LEHE6:
.LBE7:
	.loc 7 1328 46
	jmp	.L35
.L34:
	movq	%rax, %rbx
.LBB8:
	.loc 7 1328 9
	movq	-64(%rbp), %rax
	addq	$32, %rax
	movq	%rax, %rcx
	call	_ZN8wxString15ConvertedBufferIcED1Ev
	movq	-64(%rbp), %rax
	movq	%rax, %rcx
	call	_ZNSt7__cxx1112basic_stringIwSt11char_traitsIwESaIwEED1Ev
	movq	%rbx, %rax
	movq	%rax, %rcx
.LEHB7:
	call	_Unwind_Resume
	nop
.LEHE7:
.L35:
.LBE8:
	.loc 7 1328 46
	addq	$40, %rsp
	popq	%rbx
	.cfi_restore 3
	popq	%rbp
	.cfi_restore 6
	.cfi_def_cfa 7, -24
	ret
	.cfi_endproc
.LFE2512:
	.seh_handler	__gxx_personality_seh0, @unwind, @except
	.seh_handlerdata
.LLSDA2512:
	.byte	0xff
	.byte	0xff
	.byte	0x1
	.uleb128 .LLSDACSE2512-.LLSDACSB2512
.LLSDACSB2512:
	.uleb128 .LEHB6-.LFB2512
	.uleb128 .LEHE6-.LEHB6
	.uleb128 .L34-.LFB2512
	.uleb128 0
	.uleb128 .LEHB7-.LFB2512
	.uleb128 .LEHE7-.LEHB7
	.uleb128 0
	.uleb128 0
.LLSDACSE2512:
	.section	.text$_ZN8wxStringC1ERKNSt7__cxx1112basic_stringIcSt11char_traitsIcESaIcEEE,"x"
	.linkonce discard
	.seh_endproc
	.section	.text$_ZN8wxString6assignEPKcy,"x"
	.linkonce discard
	.align 2
	.globl	_ZN8wxString6assignEPKcy
	.def	_ZN8wxString6assignEPKcy;	.scl	2;	.type	32;	.endef
	.seh_proc	_ZN8wxString6assignEPKcy
_ZN8wxString6assignEPKcy:
.LFB2831:
	.loc 7 2633 13
	.cfi_startproc
	pushq	%rbp
	.seh_pushreg	%rbp
	.cfi_def_cfa_offset 16
	.cfi_offset 6, -16
	pushq	%rsi
	.seh_pushreg	%rsi
	.cfi_def_cfa_offset 24
	.cfi_offset 4, -24
	pushq	%rbx
	.seh_pushreg	%rbx
	.cfi_def_cfa_offset 32
	.cfi_offset 3, -32
	movq	%rsp, %rbp
	.seh_setframe	%rbp, 0
	.cfi_def_cfa_register 6
	subq	$48, %rsp
	.seh_stackalloc	48
	.seh_endprologue
	movq	%rcx, 32(%rbp)
	movq	%rdx, 40(%rbp)
	movq	%r8, 48(%rbp)
.LEHB8:
	.loc 7 2637 40
	call	_Z16wxGet_wxConvLibcv
	movq	%rax, %r8
	.loc 7 2637 41
	leaq	-16(%rbp), %rax
	movq	48(%rbp), %rcx
	movq	40(%rbp), %rdx
	movq	%r8, %r9
	movq	%rcx, %r8
	movq	%rax, %rcx
	call	_ZN8wxString7ImplStrEPKcyRK8wxMBConv
.LEHE8:
	.loc 7 2638 38
	movq	32(%rbp), %rbx
	movq	-8(%rbp), %rsi
	leaq	-16(%rbp), %rax
	movq	%rax, %rcx
.LEHB9:
	call	_ZNK22wxScopedCharTypeBufferIwEcvPKwEv
	movq	%rsi, %r8
	movq	%rax, %rdx
	movq	%rbx, %rcx
	call	_ZNSt7__cxx1112basic_stringIwSt11char_traitsIwESaIwEE6assignEPKwy
.LEHE9:
	.loc 7 2640 15
	movq	32(%rbp), %rbx
	.loc 7 2637 41
	leaq	-16(%rbp), %rax
	movq	%rax, %rcx
	call	_ZN8wxString17SubstrBufFromTypeI22wxScopedCharTypeBufferIwEED1Ev
	.loc 7 2640 15
	movq	%rbx, %rax
	jmp	.L40
.L39:
	movq	%rax, %rbx
	.loc 7 2637 41
	leaq	-16(%rbp), %rax
	movq	%rax, %rcx
	call	_ZN8wxString17SubstrBufFromTypeI22wxScopedCharTypeBufferIwEED1Ev
	movq	%rbx, %rax
	movq	%rax, %rcx
.LEHB10:
	call	_Unwind_Resume
.LEHE10:
.L40:
	.loc 7 2641 3
	addq	$48, %rsp
	popq	%rbx
	.cfi_restore 3
	popq	%rsi
	.cfi_restore 4
	popq	%rbp
	.cfi_restore 6
	.cfi_def_cfa 7, 24
	ret
	.cfi_endproc
.LFE2831:
	.seh_handler	__gxx_personality_seh0, @unwind, @except
	.seh_handlerdata
.LLSDA2831:
	.byte	0xff
	.byte	0xff
	.byte	0x1
	.uleb128 .LLSDACSE2831-.LLSDACSB2831
.LLSDACSB2831:
	.uleb128 .LEHB8-.LFB2831
	.uleb128 .LEHE8-.LEHB8
	.uleb128 0
	.uleb128 0
	.uleb128 .LEHB9-.LFB2831
	.uleb128 .LEHE9-.LEHB9
	.uleb128 .L39-.LFB2831
	.uleb128 0
	.uleb128 .LEHB10-.LFB2831
	.uleb128 .LEHE10-.LEHB10
	.uleb128 0
	.uleb128 0
.LLSDACSE2831:
	.section	.text$_ZN8wxString6assignEPKcy,"x"
	.linkonce discard
	.seh_endproc
	.section	.text$_ZStanSt13_Ios_FmtflagsS_,"x"
	.linkonce discard
	.globl	_ZStanSt13_Ios_FmtflagsS_
	.def	_ZStanSt13_Ios_FmtflagsS_;	.scl	2;	.type	32;	.endef
	.seh_proc	_ZStanSt13_Ios_FmtflagsS_
_ZStanSt13_Ios_FmtflagsS_:
.LFB6391:
	.file 8 "C:/Program Files/CodeBlocks/MinGW/lib/gcc/x86_64-w64-mingw32/8.1.0/include/c++/bits/ios_base.h"
	.loc 8 84 3
	.cfi_startproc
	pushq	%rbp
	.seh_pushreg	%rbp
	.cfi_def_cfa_offset 16
	.cfi_offset 6, -16
	movq	%rsp, %rbp
	.seh_setframe	%rbp, 0
	.cfi_def_cfa_register 6
	.seh_endprologue
	movl	%ecx, 16(%rbp)
	movl	%edx, 24(%rbp)
	.loc 8 84 71
	movl	16(%rbp), %eax
	andl	24(%rbp), %eax
	.loc 8 84 74
	popq	%rbp
	.cfi_restore 6
	.cfi_def_cfa 7, 8
	ret
	.cfi_endproc
.LFE6391:
	.seh_endproc
	.section	.text$_ZStorSt13_Ios_FmtflagsS_,"x"
	.linkonce discard
	.globl	_ZStorSt13_Ios_FmtflagsS_
	.def	_ZStorSt13_Ios_FmtflagsS_;	.scl	2;	.type	32;	.endef
	.seh_proc	_ZStorSt13_Ios_FmtflagsS_
_ZStorSt13_Ios_FmtflagsS_:
.LFB6392:
	.loc 8 88 3
	.cfi_startproc
	pushq	%rbp
	.seh_pushreg	%rbp
	.cfi_def_cfa_offset 16
	.cfi_offset 6, -16
	movq	%rsp, %rbp
	.seh_setframe	%rbp, 0
	.cfi_def_cfa_register 6
	.seh_endprologue
	movl	%ecx, 16(%rbp)
	movl	%edx, 24(%rbp)
	.loc 8 88 71
	movl	16(%rbp), %eax
	orl	24(%rbp), %eax
	.loc 8 88 74
	popq	%rbp
	.cfi_restore 6
	.cfi_def_cfa 7, 8
	ret
	.cfi_endproc
.LFE6392:
	.seh_endproc
	.section	.text$_ZStcoSt13_Ios_Fmtflags,"x"
	.linkonce discard
	.globl	_ZStcoSt13_Ios_Fmtflags
	.def	_ZStcoSt13_Ios_Fmtflags;	.scl	2;	.type	32;	.endef
	.seh_proc	_ZStcoSt13_Ios_Fmtflags
_ZStcoSt13_Ios_Fmtflags:
.LFB6394:
	.loc 8 96 3
	.cfi_startproc
	pushq	%rbp
	.seh_pushreg	%rbp
	.cfi_def_cfa_offset 16
	.cfi_offset 6, -16
	movq	%rsp, %rbp
	.seh_setframe	%rbp, 0
	.cfi_def_cfa_register 6
	.seh_endprologue
	movl	%ecx, 16(%rbp)
	.loc 8 96 48
	movl	16(%rbp), %eax
	notl	%eax
	.loc 8 96 51
	popq	%rbp
	.cfi_restore 6
	.cfi_def_cfa 7, 8
	ret
	.cfi_endproc
.LFE6394:
	.seh_endproc
	.section	.text$_ZStoRRSt13_Ios_FmtflagsS_,"x"
	.linkonce discard
	.globl	_ZStoRRSt13_Ios_FmtflagsS_
	.def	_ZStoRRSt13_Ios_FmtflagsS_;	.scl	2;	.type	32;	.endef
	.seh_proc	_ZStoRRSt13_Ios_FmtflagsS_
_ZStoRRSt13_Ios_FmtflagsS_:
.LFB6395:
	.loc 8 100 3
	.cfi_startproc
	pushq	%rbp
	.seh_pushreg	%rbp
	.cfi_def_cfa_offset 16
	.cfi_offset 6, -16
	movq	%rsp, %rbp
	.seh_setframe	%rbp, 0
	.cfi_def_cfa_register 6
	subq	$32, %rsp
	.seh_stackalloc	32
	.seh_endprologue
	movq	%rcx, 16(%rbp)
	movl	%edx, 24(%rbp)
	.loc 8 100 22
	movq	16(%rbp), %rax
	movl	(%rax), %eax
	movl	24(%rbp), %edx
	movl	%eax, %ecx
	call	_ZStorSt13_Ios_FmtflagsS_
	movl	%eax, %edx
	.loc 8 100 16
	movq	16(%rbp), %rax
	movl	%edx, (%rax)
	.loc 8 100 24
	movq	16(%rbp), %rax
	.loc 8 100 29
	addq	$32, %rsp
	popq	%rbp
	.cfi_restore 6
	.cfi_def_cfa 7, 8
	ret
	.cfi_endproc
.LFE6395:
	.seh_endproc
	.section	.text$_ZStaNRSt13_Ios_FmtflagsS_,"x"
	.linkonce discard
	.globl	_ZStaNRSt13_Ios_FmtflagsS_
	.def	_ZStaNRSt13_Ios_FmtflagsS_;	.scl	2;	.type	32;	.endef
	.seh_proc	_ZStaNRSt13_Ios_FmtflagsS_
_ZStaNRSt13_Ios_FmtflagsS_:
.LFB6396:
	.loc 8 104 3
	.cfi_startproc
	pushq	%rbp
	.seh_pushreg	%rbp
	.cfi_def_cfa_offset 16
	.cfi_offset 6, -16
	movq	%rsp, %rbp
	.seh_setframe	%rbp, 0
	.cfi_def_cfa_register 6
	subq	$32, %rsp
	.seh_stackalloc	32
	.seh_endprologue
	movq	%rcx, 16(%rbp)
	movl	%edx, 24(%rbp)
	.loc 8 104 22
	movq	16(%rbp), %rax
	movl	(%rax), %eax
	movl	24(%rbp), %edx
	movl	%eax, %ecx
	call	_ZStanSt13_Ios_FmtflagsS_
	movl	%eax, %edx
	.loc 8 104 16
	movq	16(%rbp), %rax
	movl	%edx, (%rax)
	.loc 8 104 24
	movq	16(%rbp), %rax
	.loc 8 104 29
	addq	$32, %rsp
	popq	%rbp
	.cfi_restore 6
	.cfi_def_cfa 7, 8
	ret
	.cfi_endproc
.LFE6396:
	.seh_endproc
	.section	.text$_ZNSt8ios_base4setfESt13_Ios_FmtflagsS0_,"x"
	.linkonce discard
	.align 2
	.globl	_ZNSt8ios_base4setfESt13_Ios_FmtflagsS0_
	.def	_ZNSt8ios_base4setfESt13_Ios_FmtflagsS0_;	.scl	2;	.type	32;	.endef
	.seh_proc	_ZNSt8ios_base4setfESt13_Ios_FmtflagsS0_
_ZNSt8ios_base4setfESt13_Ios_FmtflagsS0_:
.LFB6425:
	.loc 8 665 5
	.cfi_startproc
	pushq	%rbp
	.seh_pushreg	%rbp
	.cfi_def_cfa_offset 16
	.cfi_offset 6, -16
	movq	%rsp, %rbp
	.seh_setframe	%rbp, 0
	.cfi_def_cfa_register 6
	subq	$48, %rsp
	.seh_stackalloc	48
	.seh_endprologue
	movq	%rcx, 16(%rbp)
	movl	%edx, 24(%rbp)
	movl	%r8d, 32(%rbp)
	.loc 8 667 16
	movq	16(%rbp), %rax
	movl	24(%rax), %eax
	movl	%eax, -4(%rbp)
	.loc 8 668 20
	movl	32(%rbp), %eax
	movl	%eax, %ecx
	call	_ZStcoSt13_Ios_Fmtflags
	movl	%eax, %edx
	.loc 8 668 7
	movq	16(%rbp), %rax
	addq	$24, %rax
	.loc 8 668 20
	movq	%rax, %rcx
	call	_ZStaNRSt13_Ios_FmtflagsS_
	.loc 8 669 36
	movl	32(%rbp), %edx
	movl	24(%rbp), %eax
	movl	%eax, %ecx
	call	_ZStanSt13_Ios_FmtflagsS_
	movl	%eax, %edx
	.loc 8 669 7
	movq	16(%rbp), %rax
	addq	$24, %rax
	.loc 8 669 36
	movq	%rax, %rcx
	call	_ZStoRRSt13_Ios_FmtflagsS_
	.loc 8 670 14
	movl	-4(%rbp), %eax
	.loc 8 671 5
	addq	$48, %rsp
	popq	%rbp
	.cfi_restore 6
	.cfi_def_cfa 7, 8
	ret
	.cfi_endproc
.LFE6425:
	.seh_endproc
	.section	.text$_ZNSt8ios_base9precisionEx,"x"
	.linkonce discard
	.align 2
	.globl	_ZNSt8ios_base9precisionEx
	.def	_ZNSt8ios_base9precisionEx;	.scl	2;	.type	32;	.endef
	.seh_proc	_ZNSt8ios_base9precisionEx
_ZNSt8ios_base9precisionEx:
.LFB6428:
	.loc 8 700 5
	.cfi_startproc
	pushq	%rbp
	.seh_pushreg	%rbp
	.cfi_def_cfa_offset 16
	.cfi_offset 6, -16
	movq	%rsp, %rbp
	.seh_setframe	%rbp, 0
	.cfi_def_cfa_register 6
	subq	$16, %rsp
	.seh_stackalloc	16
	.seh_endprologue
	movq	%rcx, 16(%rbp)
	movq	%rdx, 24(%rbp)
	.loc 8 702 18
	movq	16(%rbp), %rax
	movq	8(%rax), %rax
	movq	%rax, -8(%rbp)
	.loc 8 703 20
	movq	16(%rbp), %rax
	movq	24(%rbp), %rdx
	movq	%rdx, 8(%rax)
	.loc 8 704 14
	movq	-8(%rbp), %rax
	.loc 8 705 5
	addq	$16, %rsp
	popq	%rbp
	.cfi_restore 6
	.cfi_def_cfa 7, 8
	ret
	.cfi_endproc
.LFE6428:
	.seh_endproc
	.section	.text$_ZSt5fixedRSt8ios_base,"x"
	.linkonce discard
	.globl	_ZSt5fixedRSt8ios_base
	.def	_ZSt5fixedRSt8ios_base;	.scl	2;	.type	32;	.endef
	.seh_proc	_ZSt5fixedRSt8ios_base
_ZSt5fixedRSt8ios_base:
.LFB6455:
	.loc 8 1044 3
	.cfi_startproc
	pushq	%rbp
	.seh_pushreg	%rbp
	.cfi_def_cfa_offset 16
	.cfi_offset 6, -16
	movq	%rsp, %rbp
	.seh_setframe	%rbp, 0
	.cfi_def_cfa_register 6
	subq	$32, %rsp
	.seh_stackalloc	32
	.seh_endprologue
	movq	%rcx, 16(%rbp)
	.loc 8 1045 16
	movl	$260, %r8d
	movl	$4, %edx
	movq	16(%rbp), %rcx
	call	_ZNSt8ios_base4setfESt13_Ios_FmtflagsS0_
	.loc 8 1046 12
	movq	16(%rbp), %rax
	.loc 8 1047 3
	addq	$32, %rsp
	popq	%rbp
	.cfi_restore 6
	.cfi_def_cfa 7, 8
	ret
	.cfi_endproc
.LFE6455:
	.seh_endproc
	.section .rdata,"dr"
	.align 4
_ZL15wxInvalidOffset:
	.long	-1
	.section	.text$_ZN23wxCriticalSectionLockerC1ER17wxCriticalSection,"x"
	.linkonce discard
	.align 2
	.globl	_ZN23wxCriticalSectionLockerC1ER17wxCriticalSection
	.def	_ZN23wxCriticalSectionLockerC1ER17wxCriticalSection;	.scl	2;	.type	32;	.endef
	.seh_proc	_ZN23wxCriticalSectionLockerC1ER17wxCriticalSection
_ZN23wxCriticalSectionLockerC1ER17wxCriticalSection:
.LFB8060:
	.file 9 "../wxMSW-3.0.5_gcc810_x64_Dev/include/wx/thread.h"
	.loc 9 304 5
	.cfi_startproc
	pushq	%rbp
	.seh_pushreg	%rbp
	.cfi_def_cfa_offset 16
	.cfi_offset 6, -16
	movq	%rsp, %rbp
	.seh_setframe	%rbp, 0
	.cfi_def_cfa_register 6
	subq	$32, %rsp
	.seh_stackalloc	32
	.seh_endprologue
	movq	%rcx, 16(%rbp)
	movq	%rdx, 24(%rbp)
.LBB9:
	.loc 9 305 24
	movq	16(%rbp), %rax
	movq	24(%rbp), %rdx
	movq	%rdx, (%rax)
	.loc 9 307 9
	movq	16(%rbp), %rax
	movq	(%rax), %rax
	.loc 9 307 25
	movq	%rax, %rcx
	call	_ZN17wxCriticalSection5EnterEv
.LBE9:
	.loc 9 308 5
	nop
	addq	$32, %rsp
	popq	%rbp
	.cfi_restore 6
	.cfi_def_cfa 7, 8
	ret
	.cfi_endproc
.LFE8060:
	.seh_endproc
	.section	.text$_ZN23wxCriticalSectionLockerD1Ev,"x"
	.linkonce discard
	.align 2
	.globl	_ZN23wxCriticalSectionLockerD1Ev
	.def	_ZN23wxCriticalSectionLockerD1Ev;	.scl	2;	.type	32;	.endef
	.seh_proc	_ZN23wxCriticalSectionLockerD1Ev
_ZN23wxCriticalSectionLockerD1Ev:
.LFB8063:
	.loc 9 310 5
	.cfi_startproc
	pushq	%rbp
	.seh_pushreg	%rbp
	.cfi_def_cfa_offset 16
	.cfi_offset 6, -16
	movq	%rsp, %rbp
	.seh_setframe	%rbp, 0
	.cfi_def_cfa_register 6
	subq	$32, %rsp
	.seh_stackalloc	32
	.seh_endprologue
	movq	%rcx, 16(%rbp)
.LBB10:
	.loc 9 312 9
	movq	16(%rbp), %rax
	movq	(%rax), %rax
	.loc 9 312 25
	movq	%rax, %rcx
	call	_ZN17wxCriticalSection5LeaveEv
.LBE10:
	.loc 9 313 5
	nop
	addq	$32, %rsp
	popq	%rbp
	.cfi_restore 6
	.cfi_def_cfa 7, 8
	ret
	.cfi_endproc
.LFE8063:
	.seh_handler	__gxx_personality_seh0, @unwind, @except
	.seh_handlerdata
.LLSDA8063:
	.byte	0xff
	.byte	0xff
	.byte	0x1
	.uleb128 .LLSDACSE8063-.LLSDACSB8063
.LLSDACSB8063:
.LLSDACSE8063:
	.section	.text$_ZN23wxCriticalSectionLockerD1Ev,"x"
	.linkonce discard
	.seh_endproc
	.section	.text$_ZN8wxThread8OnDeleteEv,"x"
	.linkonce discard
	.align 2
	.globl	_ZN8wxThread8OnDeleteEv
	.def	_ZN8wxThread8OnDeleteEv;	.scl	2;	.type	32;	.endef
	.seh_proc	_ZN8wxThread8OnDeleteEv
_ZN8wxThread8OnDeleteEv:
.LFB8069:
	.loc 9 627 18
	.cfi_startproc
	pushq	%rbp
	.seh_pushreg	%rbp
	.cfi_def_cfa_offset 16
	.cfi_offset 6, -16
	movq	%rsp, %rbp
	.seh_setframe	%rbp, 0
	.cfi_def_cfa_register 6
	.seh_endprologue
	movq	%rcx, 16(%rbp)
	.loc 9 627 30
	nop
	popq	%rbp
	.cfi_restore 6
	.cfi_def_cfa 7, 8
	ret
	.cfi_endproc
.LFE8069:
	.seh_endproc
	.section	.text$_ZN8wxThread6OnKillEv,"x"
	.linkonce discard
	.align 2
	.globl	_ZN8wxThread6OnKillEv
	.def	_ZN8wxThread6OnKillEv;	.scl	2;	.type	32;	.endef
	.seh_proc	_ZN8wxThread6OnKillEv
_ZN8wxThread6OnKillEv:
.LFB8070:
	.loc 9 631 18
	.cfi_startproc
	pushq	%rbp
	.seh_pushreg	%rbp
	.cfi_def_cfa_offset 16
	.cfi_offset 6, -16
	movq	%rsp, %rbp
	.seh_setframe	%rbp, 0
	.cfi_def_cfa_register 6
	.seh_endprologue
	movq	%rcx, 16(%rbp)
	.loc 9 631 28
	nop
	popq	%rbp
	.cfi_restore 6
	.cfi_def_cfa 7, 8
	ret
	.cfi_endproc
.LFE8070:
	.seh_endproc
	.section	.text$_ZN8wxThread6OnExitEv,"x"
	.linkonce discard
	.align 2
	.globl	_ZN8wxThread6OnExitEv
	.def	_ZN8wxThread6OnExitEv;	.scl	2;	.type	32;	.endef
	.seh_proc	_ZN8wxThread6OnExitEv
_ZN8wxThread6OnExitEv:
.LFB8071:
	.loc 9 641 18
	.cfi_startproc
	pushq	%rbp
	.seh_pushreg	%rbp
	.cfi_def_cfa_offset 16
	.cfi_offset 6, -16
	movq	%rsp, %rbp
	.seh_setframe	%rbp, 0
	.cfi_def_cfa_register 6
	.seh_endprologue
	movq	%rcx, 16(%rbp)
	.loc 9 641 29
	nop
	popq	%rbp
	.cfi_restore 6
	.cfi_def_cfa 7, 8
	ret
	.cfi_endproc
.LFE8071:
	.seh_endproc
	.section	.text$_ZN20wxThreadHelperThread5EntryEv,"x"
	.linkonce discard
	.align 2
	.globl	_ZN20wxThreadHelperThread5EntryEv
	.def	_ZN20wxThreadHelperThread5EntryEv;	.scl	2;	.type	32;	.endef
	.seh_proc	_ZN20wxThreadHelperThread5EntryEv
_ZN20wxThreadHelperThread5EntryEv:
.LFB8086:
	.loc 9 767 1
	.cfi_startproc
	pushq	%rbp
	.seh_pushreg	%rbp
	.cfi_def_cfa_offset 16
	.cfi_offset 6, -16
	pushq	%rbx
	.seh_pushreg	%rbx
	.cfi_def_cfa_offset 24
	.cfi_offset 3, -24
	subq	$56, %rsp
	.seh_stackalloc	56
	.cfi_def_cfa_offset 80
	leaq	128(%rsp), %rbp
	.seh_setframe	%rbp, 128
	.cfi_def_cfa 6, -48
	.seh_endprologue
	movq	%rcx, -48(%rbp)
	.loc 9 768 27
	movq	-48(%rbp), %rax
	movq	64(%rax), %rdx
	movq	-48(%rbp), %rax
	movq	64(%rax), %rax
	.loc 9 768 41
	movq	(%rax), %rax
	addq	$16, %rax
	movq	(%rax), %rax
	.loc 9 768 40
	movq	%rdx, %rcx
	call	*%rax
.LVL0:
	movq	%rax, -88(%rbp)
	.loc 9 770 36
	movq	-48(%rbp), %rax
	movq	64(%rax), %rax
	.loc 9 770 44
	leaq	24(%rax), %rdx
	.loc 9 770 57
	leaq	-96(%rbp), %rax
	movq	%rax, %rcx
	call	_ZN23wxCriticalSectionLockerC1ER17wxCriticalSection
	.loc 9 776 10
	movq	-48(%rbp), %rax
	movq	64(%rax), %rax
	.loc 9 776 18
	movl	16(%rax), %eax
	.loc 9 776 5
	testl	%eax, %eax
	jne	.L63
	.loc 9 777 9
	movq	-48(%rbp), %rax
	movq	64(%rax), %rax
	.loc 9 777 26
	movq	$0, 8(%rax)
.L63:
	.loc 9 779 12
	movq	-88(%rbp), %rbx
	.loc 9 770 57
	leaq	-96(%rbp), %rax
	movq	%rax, %rcx
	call	_ZN23wxCriticalSectionLockerD1Ev
	.loc 9 779 12
	movq	%rbx, %rax
	.loc 9 780 1
	addq	$56, %rsp
	popq	%rbx
	.cfi_restore 3
	popq	%rbp
	.cfi_restore 6
	.cfi_def_cfa 7, -40
	ret
	.cfi_endproc
.LFE8086:
	.seh_endproc
	.section	.text$_ZN16wxTypeIdentifierC1EPKc,"x"
	.linkonce discard
	.align 2
	.globl	_ZN16wxTypeIdentifierC1EPKc
	.def	_ZN16wxTypeIdentifierC1EPKc;	.scl	2;	.type	32;	.endef
	.seh_proc	_ZN16wxTypeIdentifierC1EPKc
_ZN16wxTypeIdentifierC1EPKc:
.LFB8117:
	.file 10 "../wxMSW-3.0.5_gcc810_x64_Dev/include/wx/typeinfo.h"
	.loc 10 66 5
	.cfi_startproc
	pushq	%rbp
	.seh_pushreg	%rbp
	.cfi_def_cfa_offset 16
	.cfi_offset 6, -16
	movq	%rsp, %rbp
	.seh_setframe	%rbp, 0
	.cfi_def_cfa_register 6
	.seh_endprologue
	movq	%rcx, 16(%rbp)
	movq	%rdx, 24(%rbp)
.LBB11:
	.loc 10 68 21
	movq	16(%rbp), %rax
	movq	24(%rbp), %rdx
	movq	%rdx, (%rax)
.LBE11:
	.loc 10 69 5
	nop
	popq	%rbp
	.cfi_restore 6
	.cfi_def_cfa 7, 8
	ret
	.cfi_endproc
.LFE8117:
	.seh_endproc
	.section	.text$_ZN16wxTypeIdentifiereqERKS_,"x"
	.linkonce discard
	.align 2
	.globl	_ZN16wxTypeIdentifiereqERKS_
	.def	_ZN16wxTypeIdentifiereqERKS_;	.scl	2;	.type	32;	.endef
	.seh_proc	_ZN16wxTypeIdentifiereqERKS_
_ZN16wxTypeIdentifiereqERKS_:
.LFB8118:
	.loc 10 71 10
	.cfi_startproc
	pushq	%rbp
	.seh_pushreg	%rbp
	.cfi_def_cfa_offset 16
	.cfi_offset 6, -16
	movq	%rsp, %rbp
	.seh_setframe	%rbp, 0
	.cfi_def_cfa_register 6
	subq	$32, %rsp
	.seh_stackalloc	32
	.seh_endprologue
	movq	%rcx, 16(%rbp)
	movq	%rdx, 24(%rbp)
	.loc 10 73 42
	movq	24(%rbp), %rax
	movq	(%rax), %rdx
	.loc 10 73 22
	movq	16(%rbp), %rax
	movq	(%rax), %rax
	movq	%rax, %rcx
	call	strcmp
	.loc 10 73 58
	testl	%eax, %eax
	sete	%al
	.loc 10 74 5
	addq	$32, %rsp
	popq	%rbp
	.cfi_restore 6
	.cfi_def_cfa 7, 8
	ret
	.cfi_endproc
.LFE8118:
	.seh_endproc
	.section	.text$_ZNK20wxObjectEventFunctor10IsMatchingERK14wxEventFunctor,"x"
	.linkonce discard
	.align 2
	.globl	_ZNK20wxObjectEventFunctor10IsMatchingERK14wxEventFunctor
	.def	_ZNK20wxObjectEventFunctor10IsMatchingERK14wxEventFunctor;	.scl	2;	.type	32;	.endef
	.seh_proc	_ZNK20wxObjectEventFunctor10IsMatchingERK14wxEventFunctor
_ZNK20wxObjectEventFunctor10IsMatchingERK14wxEventFunctor:
.LFB9149:
	.file 11 "../wxMSW-3.0.5_gcc810_x64_Dev/include/wx/event.h"
	.loc 11 249 18
	.cfi_startproc
	pushq	%rbp
	.seh_pushreg	%rbp
	.cfi_def_cfa_offset 16
	.cfi_offset 6, -16
	movq	%rsp, %rbp
	.seh_setframe	%rbp, 0
	.cfi_def_cfa_register 6
	subq	$64, %rsp
	.seh_stackalloc	64
	.seh_endprologue
	movq	%rcx, 16(%rbp)
	movq	%rdx, 24(%rbp)
.LBB12:
	.loc 11 251 83
	movq	16(%rbp), %rax
	movq	(%rax), %rax
	subq	$8, %rax
	.loc 11 251 58
	movq	(%rax), %rax
	movq	%rax, %rcx
	call	_ZNKSt9type_info4nameEv
	movq	%rax, %rdx
	leaq	-24(%rbp), %rax
	movq	%rax, %rcx
	call	_ZN16wxTypeIdentifierC1EPKc
	.loc 11 251 38
	movq	24(%rbp), %rax
	movq	(%rax), %rax
	subq	$8, %rax
	.loc 11 251 14
	movq	(%rax), %rax
	movq	%rax, %rcx
	call	_ZNKSt9type_info4nameEv
	movq	%rax, %rdx
	leaq	-16(%rbp), %rax
	movq	%rax, %rcx
	call	_ZN16wxTypeIdentifierC1EPKc
	.loc 11 251 55
	leaq	-24(%rbp), %rdx
	leaq	-16(%rbp), %rax
	movq	%rax, %rcx
	call	_ZN16wxTypeIdentifiereqERKS_
	.loc 11 251 9
	testb	%al, %al
	je	.L69
.LBB13:
	.loc 11 253 41
	movq	24(%rbp), %rax
	movq	%rax, -8(%rbp)
	.loc 11 262 40
	movq	16(%rbp), %rax
	movq	16(%rax), %rdx
	movq	-8(%rbp), %rax
	movq	16(%rax), %rax
	.loc 11 262 74
	cmpq	%rax, %rdx
	jne	.L70
	.loc 11 262 40 discriminator 1
	movq	16(%rbp), %rax
	movq	24(%rax), %rdx
	movq	-8(%rbp), %rax
	movq	24(%rax), %rax
	.loc 11 262 31 discriminator 1
	cmpq	%rax, %rdx
	je	.L71
	.loc 11 262 40 discriminator 4
	movq	16(%rbp), %rax
	movq	16(%rax), %rax
	.loc 11 262 31 discriminator 4
	testq	%rax, %rax
	je	.L71
.L70:
	.loc 11 262 70 discriminator 6
	movq	-8(%rbp), %rax
	movq	16(%rax), %rax
	.loc 11 262 49 discriminator 6
	testq	%rax, %rax
	jne	.L72
.L71:
	.loc 11 263 22 discriminator 7
	movq	16(%rbp), %rax
	movq	8(%rax), %rdx
	.loc 11 263 41 discriminator 7
	movq	-8(%rbp), %rax
	movq	8(%rax), %rax
	.loc 11 262 74 discriminator 7
	cmpq	%rax, %rdx
	je	.L73
	.loc 11 263 60
	movq	-8(%rbp), %rax
	movq	8(%rax), %rax
	.loc 11 263 51
	testq	%rax, %rax
	jne	.L72
.L73:
	.loc 11 262 74 discriminator 9
	movl	$1, %eax
	.loc 11 263 77 discriminator 9
	jmp	.L75
.L72:
	.loc 11 262 74 discriminator 8
	movl	$0, %eax
	.loc 11 263 77 discriminator 8
	jmp	.L75
.L69:
.LBE13:
	.loc 11 266 20
	movl	$0, %eax
.L75:
.LBE12:
	.loc 11 267 5
	addq	$64, %rsp
	popq	%rbp
	.cfi_restore 6
	.cfi_def_cfa 7, 8
	ret
	.cfi_endproc
.LFE9149:
	.seh_endproc
	.section	.text$_ZNK20wxObjectEventFunctor13GetEvtHandlerEv,"x"
	.linkonce discard
	.align 2
	.globl	_ZNK20wxObjectEventFunctor13GetEvtHandlerEv
	.def	_ZNK20wxObjectEventFunctor13GetEvtHandlerEv;	.scl	2;	.type	32;	.endef
	.seh_proc	_ZNK20wxObjectEventFunctor13GetEvtHandlerEv
_ZNK20wxObjectEventFunctor13GetEvtHandlerEv:
.LFB9150:
	.loc 11 269 27
	.cfi_startproc
	pushq	%rbp
	.seh_pushreg	%rbp
	.cfi_def_cfa_offset 16
	.cfi_offset 6, -16
	movq	%rsp, %rbp
	.seh_setframe	%rbp, 0
	.cfi_def_cfa_register 6
	.seh_endprologue
	movq	%rcx, 16(%rbp)
	.loc 11 270 18
	movq	16(%rbp), %rax
	movq	8(%rax), %rax
	.loc 11 270 29
	popq	%rbp
	.cfi_restore 6
	.cfi_def_cfa 7, 8
	ret
	.cfi_endproc
.LFE9150:
	.seh_endproc
	.section	.text$_ZNK20wxObjectEventFunctor12GetEvtMethodEv,"x"
	.linkonce discard
	.align 2
	.globl	_ZNK20wxObjectEventFunctor12GetEvtMethodEv
	.def	_ZNK20wxObjectEventFunctor12GetEvtMethodEv;	.scl	2;	.type	32;	.endef
	.seh_proc	_ZNK20wxObjectEventFunctor12GetEvtMethodEv
_ZNK20wxObjectEventFunctor12GetEvtMethodEv:
.LFB9151:
	.loc 11 272 29
	.cfi_startproc
	pushq	%rbp
	.seh_pushreg	%rbp
	.cfi_def_cfa_offset 16
	.cfi_offset 6, -16
	movq	%rsp, %rbp
	.seh_setframe	%rbp, 0
	.cfi_def_cfa_register 6
	.seh_endprologue
	movq	%rcx, 16(%rbp)
	movq	%rdx, 24(%rbp)
	.loc 11 273 18
	movq	16(%rbp), %rcx
	movq	24(%rbp), %rax
	movq	24(%rax), %rdx
	movq	16(%rax), %rax
	movq	%rax, (%rcx)
	movq	%rdx, 8(%rcx)
	.loc 11 273 28
	movq	16(%rbp), %rax
	popq	%rbp
	.cfi_restore 6
	.cfi_def_cfa 7, 8
	ret
	.cfi_endproc
.LFE9151:
	.seh_endproc
	.section	.text$_ZN20wxObjectEventFunctorclEP12wxEvtHandlerR7wxEvent,"x"
	.linkonce discard
	.align 2
	.globl	_ZN20wxObjectEventFunctorclEP12wxEvtHandlerR7wxEvent
	.def	_ZN20wxObjectEventFunctorclEP12wxEvtHandlerR7wxEvent;	.scl	2;	.type	32;	.endef
	.seh_proc	_ZN20wxObjectEventFunctorclEP12wxEvtHandlerR7wxEvent
_ZN20wxObjectEventFunctorclEP12wxEvtHandlerR7wxEvent:
.LFB9949:
	.loc 11 3775 1
	.cfi_startproc
	pushq	%rbp
	.seh_pushreg	%rbp
	.cfi_def_cfa_offset 16
	.cfi_offset 6, -16
	movq	%rsp, %rbp
	.seh_setframe	%rbp, 0
	.cfi_def_cfa_register 6
	subq	$48, %rsp
	.seh_stackalloc	48
	.seh_endprologue
	movq	%rcx, 16(%rbp)
	movq	%rdx, 24(%rbp)
	movq	%r8, 32(%rbp)
	.loc 11 3776 40
	movq	16(%rbp), %rax
	movq	8(%rax), %rax
	.loc 11 3776 50
	testq	%rax, %rax
	je	.L81
	.loc 11 3776 50 is_stmt 0 discriminator 1
	movq	16(%rbp), %rax
	movq	8(%rax), %rax
	jmp	.L82
.L81:
	.loc 11 3776 50 discriminator 2
	movq	24(%rbp), %rax
.L82:
	.loc 11 3776 26 is_stmt 1 discriminator 4
	movq	%rax, -8(%rbp)
	.loc 11 3778 35 discriminator 4
	movq	16(%rbp), %rax
	movq	24(%rax), %rax
	.loc 11 3778 29 discriminator 4
	movq	%rax, %rdx
	movq	-8(%rbp), %rax
	leaq	(%rdx,%rax), %rcx
	.loc 11 3778 35 discriminator 4
	movq	16(%rbp), %rax
	movq	16(%rax), %rax
	andl	$1, %eax
	testq	%rax, %rax
	je	.L83
	.loc 11 3778 35 is_stmt 0 discriminator 1
	movq	16(%rbp), %rax
	movq	24(%rax), %rax
	movq	%rax, %rdx
	movq	-8(%rbp), %rax
	addq	%rdx, %rax
	movq	(%rax), %rdx
	movq	16(%rbp), %rax
	movq	16(%rax), %rax
	subq	$1, %rax
	addq	%rdx, %rax
	movq	(%rax), %rax
	jmp	.L84
.L83:
	.loc 11 3778 35 discriminator 2
	movq	16(%rbp), %rax
	movq	16(%rax), %rax
.L84:
	.loc 11 3778 29 is_stmt 1 discriminator 4
	movq	32(%rbp), %rdx
	call	*%rax
.LVL1:
	.loc 11 3779 1 discriminator 4
	nop
	addq	$48, %rsp
	popq	%rbp
	.cfi_restore 6
	.cfi_def_cfa 7, 8
	ret
	.cfi_endproc
.LFE9949:
	.seh_endproc
	.section .rdata,"dr"
_ZL19wxALPHA_TRANSPARENT:
	.space 1
_ZL14wxALPHA_OPAQUE:
	.byte	-1
.lcomm _ZStL8__ioinit,1,1
	.align 4
_ZL21wxOutOfRangeTextCoord:
	.long	-1
	.align 4
_ZL18wxInvalidTextCoord:
	.long	-2
_ZStL13allocator_arg:
	.space 1
_ZStL6ignore:
	.space 1
	.text
	.align 2
	.globl	_ZN15GeradorTabularDC2EP10wxTextCtrl
	.def	_ZN15GeradorTabularDC2EP10wxTextCtrl;	.scl	2;	.type	32;	.endef
	.seh_proc	_ZN15GeradorTabularDC2EP10wxTextCtrl
_ZN15GeradorTabularDC2EP10wxTextCtrl:
.LFB11179:
	.file 12 "C:/temp/ballisticKernelCpp/interfaceGrafica/calculadorBalisiticaGraficoWindows/tabelaDialog/geradorTabularD.cpp"
	.loc 12 9 1
	.cfi_startproc
	pushq	%rbp
	.seh_pushreg	%rbp
	.cfi_def_cfa_offset 16
	.cfi_offset 6, -16
	movq	%rsp, %rbp
	.seh_setframe	%rbp, 0
	.cfi_def_cfa_register 6
	subq	$32, %rsp
	.seh_stackalloc	32
	.seh_endprologue
	movq	%rcx, 16(%rbp)
	movq	%rdx, 24(%rbp)
.LBB14:
	.loc 12 9 85
	movq	16(%rbp), %rax
	movq	24(%rbp), %rdx
	movq	%rax, %rcx
	call	_ZN14GeradorTabularC2EP10wxTextCtrl
	leaq	16+_ZTV15GeradorTabularD(%rip), %rdx
	movq	16(%rbp), %rax
	movq	%rdx, (%rax)
.LBE14:
	.loc 12 12 1
	nop
	addq	$32, %rsp
	popq	%rbp
	.cfi_restore 6
	.cfi_def_cfa 7, 8
	ret
	.cfi_endproc
.LFE11179:
	.seh_endproc
	.globl	_ZN15GeradorTabularDC1EP10wxTextCtrl
	.def	_ZN15GeradorTabularDC1EP10wxTextCtrl;	.scl	2;	.type	32;	.endef
	.set	_ZN15GeradorTabularDC1EP10wxTextCtrl,_ZN15GeradorTabularDC2EP10wxTextCtrl
	.section .rdata,"dr"
.LC1:
	.ascii "Tabela D: atmosfera \0"
.LC2:
	.ascii "\12\12\0"
	.align 8
.LC3:
	.ascii "Corre\347\343o em % da temperatura (graus Kelvin) para corrigir\12\0"
	.align 8
.LC4:
	.ascii "o desn\355vel entre a bateria e o posto meteorol\363gico.\12\12\0"
.LC5:
	.ascii "Alt(m) \11\0"
.LC6:
	.ascii "\11\0"
	.align 8
.LC10:
	.ascii "Corre\347\343o em % da densidade do ar para corrigir\12\0"
	.text
	.align 2
	.globl	_ZN15GeradorTabularD11gerarTabelaEP21CalculadorAtmosfericod15TIPO_TRAJETORIAdd
	.def	_ZN15GeradorTabularD11gerarTabelaEP21CalculadorAtmosfericod15TIPO_TRAJETORIAdd;	.scl	2;	.type	32;	.endef
	.seh_proc	_ZN15GeradorTabularD11gerarTabelaEP21CalculadorAtmosfericod15TIPO_TRAJETORIAdd
_ZN15GeradorTabularD11gerarTabelaEP21CalculadorAtmosfericod15TIPO_TRAJETORIAdd:
.LFB11181:
	.loc 12 15 1
	.cfi_startproc
	pushq	%rbp
	.seh_pushreg	%rbp
	.cfi_def_cfa_offset 16
	.cfi_offset 6, -16
	pushq	%rsi
	.seh_pushreg	%rsi
	.cfi_def_cfa_offset 24
	.cfi_offset 4, -24
	pushq	%rbx
	.seh_pushreg	%rbx
	.cfi_def_cfa_offset 32
	.cfi_offset 3, -32
	subq	$1424, %rsp
	.seh_stackalloc	1424
	.cfi_def_cfa_offset 1456
	leaq	128(%rsp), %rbp
	.seh_setframe	%rbp, 128
	.cfi_def_cfa 6, 1328
	.seh_endprologue
	movq	%rcx, 1328(%rbp)
	movq	%rdx, 1336(%rbp)
	movsd	%xmm2, 1344(%rbp)
	movl	%r9d, 1352(%rbp)
	.loc 12 16 47
	movq	1336(%rbp), %rax
	movq	%rax, %rcx
	call	_ZNK21CalculadorAtmosferico12getAtmosferaEv
	movq	%rax, 1264(%rbp)
	.loc 12 17 4
	movq	1328(%rbp), %rax
	movq	8(%rax), %rsi
	movq	1328(%rbp), %rax
	movq	8(%rax), %rax
	.loc 12 17 79
	movq	(%rax), %rax
	addq	$1928, %rax
	movq	(%rax), %rbx
	.loc 12 17 69
	movq	1264(%rbp), %rax
	movq	(%rax), %rax
	addq	$40, %rax
	movq	(%rax), %r8
	.loc 12 17 68
	leaq	16(%rbp), %rax
	movq	1264(%rbp), %rdx
	movq	%rax, %rcx
.LEHB11:
	call	*%r8
.LVL2:
.LEHE11:
	.loc 12 17 51
	leaq	-16(%rbp), %rax
	leaq	16(%rbp), %rdx
	movq	%rdx, %r8
	leaq	.LC1(%rip), %rdx
	movq	%rax, %rcx
.LEHB12:
	call	_ZStplIcSt11char_traitsIcESaIcEENSt7__cxx1112basic_stringIT_T0_T1_EEPKS5_OS8_
.LEHE12:
	.loc 12 17 71 discriminator 2
	leaq	-48(%rbp), %rax
	leaq	-16(%rbp), %rdx
	leaq	.LC2(%rip), %r8
	movq	%rax, %rcx
.LEHB13:
	call	_ZStplIcSt11char_traitsIcESaIcEENSt7__cxx1112basic_stringIT_T0_T1_EEOS8_PKS5_
.LEHE13:
	.loc 12 17 27 discriminator 4
	leaq	-48(%rbp), %rdx
	leaq	-96(%rbp), %rax
	movq	%rax, %rcx
.LEHB14:
	call	_ZN8wxStringC1ERKNSt7__cxx1112basic_stringIcSt11char_traitsIcESaIcEEE
.LEHE14:
	.loc 12 17 27 is_stmt 0 discriminator 6
	leaq	-96(%rbp), %rax
	movq	%rax, %rdx
	movq	%rsi, %rcx
.LEHB15:
	call	*%rbx
.LVL3:
.LEHE15:
	.loc 12 17 27 discriminator 8
	leaq	-96(%rbp), %rax
	movq	%rax, %rcx
	call	_ZN8wxStringD1Ev
	.loc 12 17 71 is_stmt 1 discriminator 8
	leaq	-48(%rbp), %rax
	movq	%rax, %rcx
	call	_ZNSt7__cxx1112basic_stringIcSt11char_traitsIcESaIcEED1Ev
	.loc 12 17 51 discriminator 8
	leaq	-16(%rbp), %rax
	movq	%rax, %rcx
	call	_ZNSt7__cxx1112basic_stringIcSt11char_traitsIcESaIcEED1Ev
	.loc 12 17 68 discriminator 8
	leaq	16(%rbp), %rax
	movq	%rax, %rcx
	call	_ZNSt7__cxx1112basic_stringIcSt11char_traitsIcESaIcEED1Ev
	.loc 12 19 4 discriminator 8
	movq	1328(%rbp), %rax
	movq	8(%rax), %rsi
	movq	1328(%rbp), %rax
	movq	8(%rax), %rax
	.loc 12 19 89 discriminator 8
	movq	(%rax), %rax
	addq	$1928, %rax
	movq	(%rax), %rbx
	.loc 12 19 27 discriminator 8
	leaq	48(%rbp), %rax
	leaq	.LC3(%rip), %rdx
	movq	%rax, %rcx
.LEHB16:
	call	_ZN8wxStringC1EPKc
.LEHE16:
	leaq	48(%rbp), %rax
	movq	%rax, %rdx
	movq	%rsi, %rcx
.LEHB17:
	call	*%rbx
.LVL4:
.LEHE17:
	.loc 12 19 27 is_stmt 0 discriminator 2
	leaq	48(%rbp), %rax
	movq	%rax, %rcx
	call	_ZN8wxStringD1Ev
	.loc 12 20 4 is_stmt 1 discriminator 2
	movq	1328(%rbp), %rax
	movq	8(%rax), %rsi
	movq	1328(%rbp), %rax
	movq	8(%rax), %rax
	.loc 12 20 85 discriminator 2
	movq	(%rax), %rax
	addq	$1928, %rax
	movq	(%rax), %rbx
	.loc 12 20 27 discriminator 2
	leaq	96(%rbp), %rax
	leaq	.LC4(%rip), %rdx
	movq	%rax, %rcx
.LEHB18:
	call	_ZN8wxStringC1EPKc
.LEHE18:
	leaq	96(%rbp), %rax
	movq	%rax, %rdx
	movq	%rsi, %rcx
.LEHB19:
	call	*%rbx
.LVL5:
.LEHE19:
	leaq	96(%rbp), %rax
	movq	%rax, %rcx
	call	_ZN8wxStringD1Ev
	.loc 12 22 4 discriminator 2
	movq	1328(%rbp), %rax
	movq	8(%rax), %rsi
	movq	1328(%rbp), %rax
	movq	8(%rax), %rax
	.loc 12 22 39 discriminator 2
	movq	(%rax), %rax
	addq	$1928, %rax
	movq	(%rax), %rbx
	.loc 12 22 27 discriminator 2
	leaq	144(%rbp), %rax
	leaq	.LC5(%rip), %rdx
	movq	%rax, %rcx
.LEHB20:
	call	_ZN8wxStringC1EPKc
.LEHE20:
	leaq	144(%rbp), %rax
	movq	%rax, %rdx
	movq	%rsi, %rcx
.LEHB21:
	call	*%rbx
.LVL6:
.LEHE21:
	leaq	144(%rbp), %rax
	movq	%rax, %rcx
	call	_ZN8wxStringD1Ev
.LBB15:
	.loc 12 23 12 discriminator 2
	movl	$0, 1292(%rbp)
.L88:
	.loc 12 23 21 discriminator 2
	cmpl	$99, 1292(%rbp)
	jg	.L87
	.loc 12 25 9
	movq	1328(%rbp), %rax
	movq	8(%rax), %rsi
	movq	1328(%rbp), %rax
	movq	8(%rax), %rax
	.loc 12 25 52
	movq	(%rax), %rax
	addq	$1928, %rax
	movq	(%rax), %rbx
	.loc 12 25 42
	leaq	272(%rbp), %rax
	movl	1292(%rbp), %edx
	movq	%rax, %rcx
.LEHB22:
	call	_ZNSt7__cxx119to_stringEi
.LEHE22:
	.loc 12 25 46
	leaq	240(%rbp), %rax
	leaq	272(%rbp), %rdx
	leaq	.LC6(%rip), %r8
	movq	%rax, %rcx
.LEHB23:
	call	_ZStplIcSt11char_traitsIcESaIcEENSt7__cxx1112basic_stringIT_T0_T1_EEOS8_PKS5_
.LEHE23:
	.loc 12 25 32 discriminator 2
	leaq	240(%rbp), %rdx
	leaq	192(%rbp), %rax
	movq	%rax, %rcx
.LEHB24:
	call	_ZN8wxStringC1ERKNSt7__cxx1112basic_stringIcSt11char_traitsIcESaIcEEE
.LEHE24:
	.loc 12 25 32 is_stmt 0 discriminator 4
	leaq	192(%rbp), %rax
	movq	%rax, %rdx
	movq	%rsi, %rcx
.LEHB25:
	call	*%rbx
.LVL7:
.LEHE25:
	.loc 12 25 32 discriminator 6
	leaq	192(%rbp), %rax
	movq	%rax, %rcx
	call	_ZN8wxStringD1Ev
	.loc 12 25 46 is_stmt 1 discriminator 6
	leaq	240(%rbp), %rax
	movq	%rax, %rcx
	call	_ZNSt7__cxx1112basic_stringIcSt11char_traitsIcESaIcEED1Ev
	.loc 12 25 42 discriminator 6
	leaq	272(%rbp), %rax
	movq	%rax, %rcx
	call	_ZNSt7__cxx1112basic_stringIcSt11char_traitsIcESaIcEED1Ev
	.loc 12 23 30 discriminator 6
	addl	$10, 1292(%rbp)
	.loc 12 23 4 discriminator 6
	jmp	.L88
.L87:
.LBE15:
	.loc 12 28 4
	movq	1328(%rbp), %rax
	movq	8(%rax), %rsi
	movq	1328(%rbp), %rax
	movq	8(%rax), %rax
	.loc 12 28 34
	movq	(%rax), %rax
	addq	$1928, %rax
	movq	(%rax), %rbx
	.loc 12 28 27
	leaq	304(%rbp), %rax
	leaq	.LC2(%rip), %rdx
	movq	%rax, %rcx
.LEHB26:
	call	_ZN8wxStringC1EPKc
.LEHE26:
	leaq	304(%rbp), %rax
	movq	%rax, %rdx
	movq	%rsi, %rcx
.LEHB27:
	call	*%rbx
.LVL8:
.LEHE27:
	.loc 12 28 27 is_stmt 0 discriminator 2
	leaq	304(%rbp), %rax
	movq	%rax, %rcx
	call	_ZN8wxStringD1Ev
	.loc 12 30 49 is_stmt 1 discriminator 2
	movq	1264(%rbp), %rax
	movq	(%rax), %rax
	addq	$16, %rax
	movq	(%rax), %rax
	.loc 12 30 47 discriminator 2
	movq	1264(%rbp), %rdx
	pxor	%xmm1, %xmm1
	movq	%rdx, %rcx
.LEHB28:
	call	*%rax
.LVL9:
	movq	%xmm0, %rax
	movq	%rax, 1256(%rbp)
.LBB16:
	.loc 12 31 12 discriminator 2
	movl	$0, 1288(%rbp)
.L92:
	.loc 12 31 21 discriminator 2
	cmpl	$1000, 1288(%rbp)
	jg	.L89
.LBB17:
	.loc 12 33 8
	movq	1328(%rbp), %rax
	movq	8(%rax), %rsi
	movq	1328(%rbp), %rax
	movq	8(%rax), %rax
	.loc 12 33 51
	movq	(%rax), %rax
	addq	$1928, %rax
	movq	(%rax), %rbx
	.loc 12 33 41
	leaq	432(%rbp), %rax
	movl	1288(%rbp), %edx
	movq	%rax, %rcx
	call	_ZNSt7__cxx119to_stringEi
.LEHE28:
	.loc 12 33 45
	leaq	400(%rbp), %rax
	leaq	432(%rbp), %rdx
	leaq	.LC6(%rip), %r8
	movq	%rax, %rcx
.LEHB29:
	call	_ZStplIcSt11char_traitsIcESaIcEENSt7__cxx1112basic_stringIT_T0_T1_EEOS8_PKS5_
.LEHE29:
	.loc 12 33 31 discriminator 2
	leaq	400(%rbp), %rdx
	leaq	352(%rbp), %rax
	movq	%rax, %rcx
.LEHB30:
	call	_ZN8wxStringC1ERKNSt7__cxx1112basic_stringIcSt11char_traitsIcESaIcEEE
.LEHE30:
	.loc 12 33 31 is_stmt 0 discriminator 4
	leaq	352(%rbp), %rax
	movq	%rax, %rdx
	movq	%rsi, %rcx
.LEHB31:
	call	*%rbx
.LVL10:
.LEHE31:
	.loc 12 33 31 discriminator 6
	leaq	352(%rbp), %rax
	movq	%rax, %rcx
	call	_ZN8wxStringD1Ev
	.loc 12 33 45 is_stmt 1 discriminator 6
	leaq	400(%rbp), %rax
	movq	%rax, %rcx
	call	_ZNSt7__cxx1112basic_stringIcSt11char_traitsIcESaIcEED1Ev
	.loc 12 33 41 discriminator 6
	leaq	432(%rbp), %rax
	movq	%rax, %rcx
	call	_ZNSt7__cxx1112basic_stringIcSt11char_traitsIcESaIcEED1Ev
.LBB18:
	.loc 12 34 16 discriminator 6
	movl	$0, 1284(%rbp)
.L91:
	.loc 12 34 25 discriminator 2
	cmpl	$99, 1284(%rbp)
	jg	.L90
	.loc 12 36 12
	movq	1328(%rbp), %rax
	movq	8(%rax), %rsi
	movq	1328(%rbp), %rax
	movq	8(%rax), %rax
	.loc 12 36 133
	movq	(%rax), %rax
	addq	$1928, %rax
	movq	(%rax), %rbx
	.loc 12 36 104
	movq	1264(%rbp), %rax
	movq	(%rax), %rax
	addq	$16, %rax
	movq	(%rax), %rax
	.loc 12 36 101
	movl	1288(%rbp), %ecx
	movl	1284(%rbp), %edx
	addl	%ecx, %edx
	.loc 12 36 98
	cvtsi2sd	%edx, %xmm0
	movq	1264(%rbp), %rdx
	movapd	%xmm0, %xmm1
	movq	%rdx, %rcx
.LEHB32:
	call	*%rax
.LVL11:
	.loc 12 36 105
	movapd	%xmm0, %xmm1
	divsd	1256(%rbp), %xmm1
	.loc 12 36 78
	movsd	.LC8(%rip), %xmm0
	subsd	%xmm1, %xmm0
	movapd	%xmm0, %xmm1
	.loc 12 36 69
	movsd	.LC9(%rip), %xmm0
	mulsd	%xmm1, %xmm0
	leaq	544(%rbp), %rax
	movl	$1, %r8d
	movapd	%xmm0, %xmm1
	movq	%rax, %rcx
	call	_ZN7MathArt24to_string_with_precisionIdEENSt7__cxx1112basic_stringIcSt11char_traitsIcESaIcEEET_i
.LEHE32:
	.loc 12 36 127
	leaq	512(%rbp), %rax
	leaq	544(%rbp), %rdx
	leaq	.LC6(%rip), %r8
	movq	%rax, %rcx
.LEHB33:
	call	_ZStplIcSt11char_traitsIcESaIcEENSt7__cxx1112basic_stringIT_T0_T1_EEOS8_PKS5_
.LEHE33:
	.loc 12 36 35 discriminator 2
	leaq	512(%rbp), %rdx
	leaq	464(%rbp), %rax
	movq	%rax, %rcx
.LEHB34:
	call	_ZN8wxStringC1ERKNSt7__cxx1112basic_stringIcSt11char_traitsIcESaIcEEE
.LEHE34:
	.loc 12 36 35 is_stmt 0 discriminator 4
	leaq	464(%rbp), %rax
	movq	%rax, %rdx
	movq	%rsi, %rcx
.LEHB35:
	call	*%rbx
.LVL12:
.LEHE35:
	.loc 12 36 35 discriminator 6
	leaq	464(%rbp), %rax
	movq	%rax, %rcx
	call	_ZN8wxStringD1Ev
	.loc 12 36 127 is_stmt 1 discriminator 6
	leaq	512(%rbp), %rax
	movq	%rax, %rcx
	call	_ZNSt7__cxx1112basic_stringIcSt11char_traitsIcESaIcEED1Ev
	.loc 12 36 69 discriminator 6
	leaq	544(%rbp), %rax
	movq	%rax, %rcx
	call	_ZNSt7__cxx1112basic_stringIcSt11char_traitsIcESaIcEED1Ev
	.loc 12 34 34 discriminator 6
	addl	$10, 1284(%rbp)
	.loc 12 34 8 discriminator 6
	jmp	.L91
.L90:
.LBE18:
	.loc 12 38 8
	movq	1328(%rbp), %rax
	movq	8(%rax), %rsi
	movq	1328(%rbp), %rax
	movq	8(%rax), %rax
	.loc 12 38 38
	movq	(%rax), %rax
	addq	$1928, %rax
	movq	(%rax), %rbx
	.loc 12 38 31
	leaq	576(%rbp), %rax
	leaq	.LC2(%rip), %rdx
	movq	%rax, %rcx
.LEHB36:
	call	_ZN8wxStringC1EPKc
.LEHE36:
	leaq	576(%rbp), %rax
	movq	%rax, %rdx
	movq	%rsi, %rcx
.LEHB37:
	call	*%rbx
.LVL13:
.LEHE37:
	.loc 12 38 31 is_stmt 0 discriminator 2
	leaq	576(%rbp), %rax
	movq	%rax, %rcx
	call	_ZN8wxStringD1Ev
.LBE17:
	.loc 12 31 32 is_stmt 1 discriminator 2
	addl	$100, 1288(%rbp)
	.loc 12 31 4 discriminator 2
	jmp	.L92
.L89:
.LBE16:
	.loc 12 41 3
	movq	1328(%rbp), %rax
	movq	8(%rax), %rsi
	movq	1328(%rbp), %rax
	movq	8(%rax), %rax
	.loc 12 41 33
	movq	(%rax), %rax
	addq	$1928, %rax
	movq	(%rax), %rbx
	.loc 12 41 26
	leaq	624(%rbp), %rax
	leaq	.LC2(%rip), %rdx
	movq	%rax, %rcx
.LEHB38:
	call	_ZN8wxStringC1EPKc
.LEHE38:
	leaq	624(%rbp), %rax
	movq	%rax, %rdx
	movq	%rsi, %rcx
.LEHB39:
	call	*%rbx
.LVL14:
.LEHE39:
	.loc 12 41 26 is_stmt 0 discriminator 2
	leaq	624(%rbp), %rax
	movq	%rax, %rcx
	call	_ZN8wxStringD1Ev
	.loc 12 42 3 is_stmt 1 discriminator 2
	movq	1328(%rbp), %rax
	movq	8(%rax), %rsi
	movq	1328(%rbp), %rax
	movq	8(%rax), %rax
	.loc 12 42 77 discriminator 2
	movq	(%rax), %rax
	addq	$1928, %rax
	movq	(%rax), %rbx
	.loc 12 42 26 discriminator 2
	leaq	672(%rbp), %rax
	leaq	.LC10(%rip), %rdx
	movq	%rax, %rcx
.LEHB40:
	call	_ZN8wxStringC1EPKc
.LEHE40:
	leaq	672(%rbp), %rax
	movq	%rax, %rdx
	movq	%rsi, %rcx
.LEHB41:
	call	*%rbx
.LVL15:
.LEHE41:
	leaq	672(%rbp), %rax
	movq	%rax, %rcx
	call	_ZN8wxStringD1Ev
	.loc 12 43 3 discriminator 2
	movq	1328(%rbp), %rax
	movq	8(%rax), %rsi
	movq	1328(%rbp), %rax
	movq	8(%rax), %rax
	.loc 12 43 84 discriminator 2
	movq	(%rax), %rax
	addq	$1928, %rax
	movq	(%rax), %rbx
	.loc 12 43 26 discriminator 2
	leaq	720(%rbp), %rax
	leaq	.LC4(%rip), %rdx
	movq	%rax, %rcx
.LEHB42:
	call	_ZN8wxStringC1EPKc
.LEHE42:
	leaq	720(%rbp), %rax
	movq	%rax, %rdx
	movq	%rsi, %rcx
.LEHB43:
	call	*%rbx
.LVL16:
.LEHE43:
	leaq	720(%rbp), %rax
	movq	%rax, %rcx
	call	_ZN8wxStringD1Ev
	.loc 12 45 4 discriminator 2
	movq	1328(%rbp), %rax
	movq	8(%rax), %rsi
	movq	1328(%rbp), %rax
	movq	8(%rax), %rax
	.loc 12 45 39 discriminator 2
	movq	(%rax), %rax
	addq	$1928, %rax
	movq	(%rax), %rbx
	.loc 12 45 27 discriminator 2
	leaq	768(%rbp), %rax
	leaq	.LC5(%rip), %rdx
	movq	%rax, %rcx
.LEHB44:
	call	_ZN8wxStringC1EPKc
.LEHE44:
	leaq	768(%rbp), %rax
	movq	%rax, %rdx
	movq	%rsi, %rcx
.LEHB45:
	call	*%rbx
.LVL17:
.LEHE45:
	leaq	768(%rbp), %rax
	movq	%rax, %rcx
	call	_ZN8wxStringD1Ev
.LBB21:
	.loc 12 46 12 discriminator 2
	movl	$0, 1280(%rbp)
.L94:
	.loc 12 46 21 discriminator 2
	cmpl	$99, 1280(%rbp)
	jg	.L93
	.loc 12 48 9
	movq	1328(%rbp), %rax
	movq	8(%rax), %rsi
	movq	1328(%rbp), %rax
	movq	8(%rax), %rax
	.loc 12 48 52
	movq	(%rax), %rax
	addq	$1928, %rax
	movq	(%rax), %rbx
	.loc 12 48 42
	leaq	896(%rbp), %rax
	movl	1280(%rbp), %edx
	movq	%rax, %rcx
.LEHB46:
	call	_ZNSt7__cxx119to_stringEi
.LEHE46:
	.loc 12 48 46
	leaq	864(%rbp), %rax
	leaq	896(%rbp), %rdx
	leaq	.LC6(%rip), %r8
	movq	%rax, %rcx
.LEHB47:
	call	_ZStplIcSt11char_traitsIcESaIcEENSt7__cxx1112basic_stringIT_T0_T1_EEOS8_PKS5_
.LEHE47:
	.loc 12 48 32 discriminator 2
	leaq	864(%rbp), %rdx
	leaq	816(%rbp), %rax
	movq	%rax, %rcx
.LEHB48:
	call	_ZN8wxStringC1ERKNSt7__cxx1112basic_stringIcSt11char_traitsIcESaIcEEE
.LEHE48:
	.loc 12 48 32 is_stmt 0 discriminator 4
	leaq	816(%rbp), %rax
	movq	%rax, %rdx
	movq	%rsi, %rcx
.LEHB49:
	call	*%rbx
.LVL18:
.LEHE49:
	.loc 12 48 32 discriminator 6
	leaq	816(%rbp), %rax
	movq	%rax, %rcx
	call	_ZN8wxStringD1Ev
	.loc 12 48 46 is_stmt 1 discriminator 6
	leaq	864(%rbp), %rax
	movq	%rax, %rcx
	call	_ZNSt7__cxx1112basic_stringIcSt11char_traitsIcESaIcEED1Ev
	.loc 12 48 42 discriminator 6
	leaq	896(%rbp), %rax
	movq	%rax, %rcx
	call	_ZNSt7__cxx1112basic_stringIcSt11char_traitsIcESaIcEED1Ev
	.loc 12 46 30 discriminator 6
	addl	$10, 1280(%rbp)
	.loc 12 46 4 discriminator 6
	jmp	.L94
.L93:
.LBE21:
	.loc 12 51 4
	movq	1328(%rbp), %rax
	movq	8(%rax), %rsi
	movq	1328(%rbp), %rax
	movq	8(%rax), %rax
	.loc 12 51 34
	movq	(%rax), %rax
	addq	$1928, %rax
	movq	(%rax), %rbx
	.loc 12 51 27
	leaq	928(%rbp), %rax
	leaq	.LC2(%rip), %rdx
	movq	%rax, %rcx
.LEHB50:
	call	_ZN8wxStringC1EPKc
.LEHE50:
	leaq	928(%rbp), %rax
	movq	%rax, %rdx
	movq	%rsi, %rcx
.LEHB51:
	call	*%rbx
.LVL19:
.LEHE51:
	.loc 12 51 27 is_stmt 0 discriminator 2
	leaq	928(%rbp), %rax
	movq	%rax, %rcx
	call	_ZN8wxStringD1Ev
	.loc 12 53 45 is_stmt 1 discriminator 2
	movq	1264(%rbp), %rax
	movq	(%rax), %rax
	addq	$32, %rax
	movq	(%rax), %rax
	.loc 12 53 43 discriminator 2
	movq	1264(%rbp), %rdx
	pxor	%xmm1, %xmm1
	movq	%rdx, %rcx
.LEHB52:
	call	*%rax
.LVL20:
	movq	%xmm0, %rax
	movq	%rax, 1248(%rbp)
.LBB22:
	.loc 12 54 12 discriminator 2
	movl	$0, 1276(%rbp)
.L98:
	.loc 12 54 21 discriminator 2
	cmpl	$1000, 1276(%rbp)
	jg	.L165
.LBB23:
	.loc 12 56 8
	movq	1328(%rbp), %rax
	movq	8(%rax), %rsi
	movq	1328(%rbp), %rax
	movq	8(%rax), %rax
	.loc 12 56 51
	movq	(%rax), %rax
	addq	$1928, %rax
	movq	(%rax), %rbx
	.loc 12 56 41
	leaq	1056(%rbp), %rax
	movl	1276(%rbp), %edx
	movq	%rax, %rcx
	call	_ZNSt7__cxx119to_stringEi
.LEHE52:
	.loc 12 56 45
	leaq	1024(%rbp), %rax
	leaq	1056(%rbp), %rdx
	leaq	.LC6(%rip), %r8
	movq	%rax, %rcx
.LEHB53:
	call	_ZStplIcSt11char_traitsIcESaIcEENSt7__cxx1112basic_stringIT_T0_T1_EEOS8_PKS5_
.LEHE53:
	.loc 12 56 31 discriminator 2
	leaq	1024(%rbp), %rdx
	leaq	976(%rbp), %rax
	movq	%rax, %rcx
.LEHB54:
	call	_ZN8wxStringC1ERKNSt7__cxx1112basic_stringIcSt11char_traitsIcESaIcEEE
.LEHE54:
	.loc 12 56 31 is_stmt 0 discriminator 4
	leaq	976(%rbp), %rax
	movq	%rax, %rdx
	movq	%rsi, %rcx
.LEHB55:
	call	*%rbx
.LVL21:
.LEHE55:
	.loc 12 56 31 discriminator 6
	leaq	976(%rbp), %rax
	movq	%rax, %rcx
	call	_ZN8wxStringD1Ev
	.loc 12 56 45 is_stmt 1 discriminator 6
	leaq	1024(%rbp), %rax
	movq	%rax, %rcx
	call	_ZNSt7__cxx1112basic_stringIcSt11char_traitsIcESaIcEED1Ev
	.loc 12 56 41 discriminator 6
	leaq	1056(%rbp), %rax
	movq	%rax, %rcx
	call	_ZNSt7__cxx1112basic_stringIcSt11char_traitsIcESaIcEED1Ev
.LBB24:
	.loc 12 57 16 discriminator 6
	movl	$0, 1272(%rbp)
.L97:
	.loc 12 57 25 discriminator 2
	cmpl	$99, 1272(%rbp)
	jg	.L96
	.loc 12 59 12
	movq	1328(%rbp), %rax
	movq	8(%rax), %rsi
	movq	1328(%rbp), %rax
	movq	8(%rax), %rax
	.loc 12 59 129
	movq	(%rax), %rax
	addq	$1928, %rax
	movq	(%rax), %rbx
	.loc 12 59 102
	movq	1264(%rbp), %rax
	movq	(%rax), %rax
	addq	$32, %rax
	movq	(%rax), %rax
	.loc 12 59 99
	movl	1276(%rbp), %ecx
	movl	1272(%rbp), %edx
	addl	%ecx, %edx
	.loc 12 59 96
	cvtsi2sd	%edx, %xmm0
	movq	1264(%rbp), %rdx
	movapd	%xmm0, %xmm1
	movq	%rdx, %rcx
.LEHB56:
	call	*%rax
.LVL22:
	.loc 12 59 103
	movapd	%xmm0, %xmm1
	divsd	1248(%rbp), %xmm1
	.loc 12 59 78
	movsd	.LC8(%rip), %xmm0
	subsd	%xmm1, %xmm0
	movapd	%xmm0, %xmm1
	.loc 12 59 69
	movsd	.LC9(%rip), %xmm0
	mulsd	%xmm1, %xmm0
	leaq	1168(%rbp), %rax
	movl	$1, %r8d
	movapd	%xmm0, %xmm1
	movq	%rax, %rcx
	call	_ZN7MathArt24to_string_with_precisionIdEENSt7__cxx1112basic_stringIcSt11char_traitsIcESaIcEEET_i
.LEHE56:
	.loc 12 59 123
	leaq	1136(%rbp), %rax
	leaq	1168(%rbp), %rdx
	leaq	.LC6(%rip), %r8
	movq	%rax, %rcx
.LEHB57:
	call	_ZStplIcSt11char_traitsIcESaIcEENSt7__cxx1112basic_stringIT_T0_T1_EEOS8_PKS5_
.LEHE57:
	.loc 12 59 35 discriminator 2
	leaq	1136(%rbp), %rdx
	leaq	1088(%rbp), %rax
	movq	%rax, %rcx
.LEHB58:
	call	_ZN8wxStringC1ERKNSt7__cxx1112basic_stringIcSt11char_traitsIcESaIcEEE
.LEHE58:
	.loc 12 59 35 is_stmt 0 discriminator 4
	leaq	1088(%rbp), %rax
	movq	%rax, %rdx
	movq	%rsi, %rcx
.LEHB59:
	call	*%rbx
.LVL23:
.LEHE59:
	.loc 12 59 35 discriminator 6
	leaq	1088(%rbp), %rax
	movq	%rax, %rcx
	call	_ZN8wxStringD1Ev
	.loc 12 59 123 is_stmt 1 discriminator 6
	leaq	1136(%rbp), %rax
	movq	%rax, %rcx
	call	_ZNSt7__cxx1112basic_stringIcSt11char_traitsIcESaIcEED1Ev
	.loc 12 59 69 discriminator 6
	leaq	1168(%rbp), %rax
	movq	%rax, %rcx
	call	_ZNSt7__cxx1112basic_stringIcSt11char_traitsIcESaIcEED1Ev
	.loc 12 57 34 discriminator 6
	addl	$10, 1272(%rbp)
	.loc 12 57 8 discriminator 6
	jmp	.L97
.L96:
.LBE24:
	.loc 12 61 8
	movq	1328(%rbp), %rax
	movq	8(%rax), %rsi
	movq	1328(%rbp), %rax
	movq	8(%rax), %rax
	.loc 12 61 38
	movq	(%rax), %rax
	addq	$1928, %rax
	movq	(%rax), %rbx
	.loc 12 61 31
	leaq	1200(%rbp), %rax
	leaq	.LC2(%rip), %rdx
	movq	%rax, %rcx
.LEHB60:
	call	_ZN8wxStringC1EPKc
.LEHE60:
	leaq	1200(%rbp), %rax
	movq	%rax, %rdx
	movq	%rsi, %rcx
.LEHB61:
	call	*%rbx
.LVL24:
.LEHE61:
	.loc 12 61 31 is_stmt 0 discriminator 2
	leaq	1200(%rbp), %rax
	movq	%rax, %rcx
	call	_ZN8wxStringD1Ev
.LBE23:
	.loc 12 54 32 is_stmt 1 discriminator 2
	addl	$100, 1276(%rbp)
	.loc 12 54 4 discriminator 2
	jmp	.L98
.L135:
	movq	%rax, %rbx
.LBE22:
	.loc 12 17 27
	leaq	-96(%rbp), %rax
	movq	%rax, %rcx
	call	_ZN8wxStringD1Ev
	jmp	.L100
.L134:
	movq	%rax, %rbx
.L100:
	.loc 12 17 71 discriminator 5
	leaq	-48(%rbp), %rax
	movq	%rax, %rcx
	call	_ZNSt7__cxx1112basic_stringIcSt11char_traitsIcESaIcEED1Ev
	jmp	.L101
.L133:
	movq	%rax, %rbx
.L101:
	.loc 12 17 51 discriminator 3
	leaq	-16(%rbp), %rax
	movq	%rax, %rcx
	call	_ZNSt7__cxx1112basic_stringIcSt11char_traitsIcESaIcEED1Ev
	jmp	.L102
.L132:
	movq	%rax, %rbx
.L102:
	.loc 12 17 68 discriminator 1
	leaq	16(%rbp), %rax
	movq	%rax, %rcx
	call	_ZNSt7__cxx1112basic_stringIcSt11char_traitsIcESaIcEED1Ev
	movq	%rbx, %rax
	movq	%rax, %rcx
.LEHB62:
	call	_Unwind_Resume
.L136:
	movq	%rax, %rbx
	.loc 12 19 27
	leaq	48(%rbp), %rax
	movq	%rax, %rcx
	call	_ZN8wxStringD1Ev
	movq	%rbx, %rax
	movq	%rax, %rcx
	call	_Unwind_Resume
.L137:
	movq	%rax, %rbx
	.loc 12 20 27
	leaq	96(%rbp), %rax
	movq	%rax, %rcx
	call	_ZN8wxStringD1Ev
	movq	%rbx, %rax
	movq	%rax, %rcx
	call	_Unwind_Resume
.L138:
	movq	%rax, %rbx
	.loc 12 22 27
	leaq	144(%rbp), %rax
	movq	%rax, %rcx
	call	_ZN8wxStringD1Ev
	movq	%rbx, %rax
	movq	%rax, %rcx
	call	_Unwind_Resume
.L141:
	movq	%rax, %rbx
.LBB27:
	.loc 12 25 32
	leaq	192(%rbp), %rax
	movq	%rax, %rcx
	call	_ZN8wxStringD1Ev
	jmp	.L107
.L140:
	movq	%rax, %rbx
.L107:
	.loc 12 25 46 discriminator 3
	leaq	240(%rbp), %rax
	movq	%rax, %rcx
	call	_ZNSt7__cxx1112basic_stringIcSt11char_traitsIcESaIcEED1Ev
	jmp	.L108
.L139:
	movq	%rax, %rbx
.L108:
	.loc 12 25 42 discriminator 1
	leaq	272(%rbp), %rax
	movq	%rax, %rcx
	call	_ZNSt7__cxx1112basic_stringIcSt11char_traitsIcESaIcEED1Ev
	movq	%rbx, %rax
	movq	%rax, %rcx
	call	_Unwind_Resume
.L142:
	movq	%rax, %rbx
.LBE27:
	.loc 12 28 27
	leaq	304(%rbp), %rax
	movq	%rax, %rcx
	call	_ZN8wxStringD1Ev
	movq	%rbx, %rax
	movq	%rax, %rcx
	call	_Unwind_Resume
.L145:
	movq	%rax, %rbx
.LBB28:
.LBB20:
	.loc 12 33 31
	leaq	352(%rbp), %rax
	movq	%rax, %rcx
	call	_ZN8wxStringD1Ev
	jmp	.L111
.L144:
	movq	%rax, %rbx
.L111:
	.loc 12 33 45 discriminator 3
	leaq	400(%rbp), %rax
	movq	%rax, %rcx
	call	_ZNSt7__cxx1112basic_stringIcSt11char_traitsIcESaIcEED1Ev
	jmp	.L112
.L143:
	movq	%rax, %rbx
.L112:
	.loc 12 33 41 discriminator 1
	leaq	432(%rbp), %rax
	movq	%rax, %rcx
	call	_ZNSt7__cxx1112basic_stringIcSt11char_traitsIcESaIcEED1Ev
	movq	%rbx, %rax
	movq	%rax, %rcx
	call	_Unwind_Resume
.L148:
	movq	%rax, %rbx
.LBB19:
	.loc 12 36 35
	leaq	464(%rbp), %rax
	movq	%rax, %rcx
	call	_ZN8wxStringD1Ev
	jmp	.L114
.L147:
	movq	%rax, %rbx
.L114:
	.loc 12 36 127 discriminator 3
	leaq	512(%rbp), %rax
	movq	%rax, %rcx
	call	_ZNSt7__cxx1112basic_stringIcSt11char_traitsIcESaIcEED1Ev
	jmp	.L115
.L146:
	movq	%rax, %rbx
.L115:
	.loc 12 36 69 discriminator 1
	leaq	544(%rbp), %rax
	movq	%rax, %rcx
	call	_ZNSt7__cxx1112basic_stringIcSt11char_traitsIcESaIcEED1Ev
	movq	%rbx, %rax
	movq	%rax, %rcx
	call	_Unwind_Resume
.L149:
	movq	%rax, %rbx
.LBE19:
	.loc 12 38 31
	leaq	576(%rbp), %rax
	movq	%rax, %rcx
	call	_ZN8wxStringD1Ev
	movq	%rbx, %rax
	movq	%rax, %rcx
	call	_Unwind_Resume
.L150:
	movq	%rax, %rbx
.LBE20:
.LBE28:
	.loc 12 41 26
	leaq	624(%rbp), %rax
	movq	%rax, %rcx
	call	_ZN8wxStringD1Ev
	movq	%rbx, %rax
	movq	%rax, %rcx
	call	_Unwind_Resume
.L151:
	movq	%rax, %rbx
	.loc 12 42 26
	leaq	672(%rbp), %rax
	movq	%rax, %rcx
	call	_ZN8wxStringD1Ev
	movq	%rbx, %rax
	movq	%rax, %rcx
	call	_Unwind_Resume
.L152:
	movq	%rax, %rbx
	.loc 12 43 26
	leaq	720(%rbp), %rax
	movq	%rax, %rcx
	call	_ZN8wxStringD1Ev
	movq	%rbx, %rax
	movq	%rax, %rcx
	call	_Unwind_Resume
.L153:
	movq	%rax, %rbx
	.loc 12 45 27
	leaq	768(%rbp), %rax
	movq	%rax, %rcx
	call	_ZN8wxStringD1Ev
	movq	%rbx, %rax
	movq	%rax, %rcx
	call	_Unwind_Resume
.L156:
	movq	%rax, %rbx
.LBB29:
	.loc 12 48 32
	leaq	816(%rbp), %rax
	movq	%rax, %rcx
	call	_ZN8wxStringD1Ev
	jmp	.L122
.L155:
	movq	%rax, %rbx
.L122:
	.loc 12 48 46 discriminator 3
	leaq	864(%rbp), %rax
	movq	%rax, %rcx
	call	_ZNSt7__cxx1112basic_stringIcSt11char_traitsIcESaIcEED1Ev
	jmp	.L123
.L154:
	movq	%rax, %rbx
.L123:
	.loc 12 48 42 discriminator 1
	leaq	896(%rbp), %rax
	movq	%rax, %rcx
	call	_ZNSt7__cxx1112basic_stringIcSt11char_traitsIcESaIcEED1Ev
	movq	%rbx, %rax
	movq	%rax, %rcx
	call	_Unwind_Resume
.L157:
	movq	%rax, %rbx
.LBE29:
	.loc 12 51 27
	leaq	928(%rbp), %rax
	movq	%rax, %rcx
	call	_ZN8wxStringD1Ev
	movq	%rbx, %rax
	movq	%rax, %rcx
	call	_Unwind_Resume
.L160:
	movq	%rax, %rbx
.LBB30:
.LBB26:
	.loc 12 56 31
	leaq	976(%rbp), %rax
	movq	%rax, %rcx
	call	_ZN8wxStringD1Ev
	jmp	.L126
.L159:
	movq	%rax, %rbx
.L126:
	.loc 12 56 45 discriminator 3
	leaq	1024(%rbp), %rax
	movq	%rax, %rcx
	call	_ZNSt7__cxx1112basic_stringIcSt11char_traitsIcESaIcEED1Ev
	jmp	.L127
.L158:
	movq	%rax, %rbx
.L127:
	.loc 12 56 41 discriminator 1
	leaq	1056(%rbp), %rax
	movq	%rax, %rcx
	call	_ZNSt7__cxx1112basic_stringIcSt11char_traitsIcESaIcEED1Ev
	movq	%rbx, %rax
	movq	%rax, %rcx
	call	_Unwind_Resume
.L163:
	movq	%rax, %rbx
.LBB25:
	.loc 12 59 35
	leaq	1088(%rbp), %rax
	movq	%rax, %rcx
	call	_ZN8wxStringD1Ev
	jmp	.L129
.L162:
	movq	%rax, %rbx
.L129:
	.loc 12 59 123 discriminator 3
	leaq	1136(%rbp), %rax
	movq	%rax, %rcx
	call	_ZNSt7__cxx1112basic_stringIcSt11char_traitsIcESaIcEED1Ev
	jmp	.L130
.L161:
	movq	%rax, %rbx
.L130:
	.loc 12 59 69 discriminator 1
	leaq	1168(%rbp), %rax
	movq	%rax, %rcx
	call	_ZNSt7__cxx1112basic_stringIcSt11char_traitsIcESaIcEED1Ev
	movq	%rbx, %rax
	movq	%rax, %rcx
	call	_Unwind_Resume
.L164:
	movq	%rax, %rbx
.LBE25:
	.loc 12 61 31
	leaq	1200(%rbp), %rax
	movq	%rax, %rcx
	call	_ZN8wxStringD1Ev
	movq	%rbx, %rax
	movq	%rax, %rcx
	call	_Unwind_Resume
.LEHE62:
.L165:
.LBE26:
.LBE30:
	.loc 12 64 1
	nop
	addq	$1424, %rsp
	popq	%rbx
	.cfi_restore 3
	popq	%rsi
	.cfi_restore 4
	popq	%rbp
	.cfi_restore 6
	.cfi_def_cfa 7, -1400
	ret
	.cfi_endproc
.LFE11181:
	.seh_handler	__gxx_personality_seh0, @unwind, @except
	.seh_handlerdata
.LLSDA11181:
	.byte	0xff
	.byte	0xff
	.byte	0x1
	.uleb128 .LLSDACSE11181-.LLSDACSB11181
.LLSDACSB11181:
	.uleb128 .LEHB11-.LFB11181
	.uleb128 .LEHE11-.LEHB11
	.uleb128 0
	.uleb128 0
	.uleb128 .LEHB12-.LFB11181
	.uleb128 .LEHE12-.LEHB12
	.uleb128 .L132-.LFB11181
	.uleb128 0
	.uleb128 .LEHB13-.LFB11181
	.uleb128 .LEHE13-.LEHB13
	.uleb128 .L133-.LFB11181
	.uleb128 0
	.uleb128 .LEHB14-.LFB11181
	.uleb128 .LEHE14-.LEHB14
	.uleb128 .L134-.LFB11181
	.uleb128 0
	.uleb128 .LEHB15-.LFB11181
	.uleb128 .LEHE15-.LEHB15
	.uleb128 .L135-.LFB11181
	.uleb128 0
	.uleb128 .LEHB16-.LFB11181
	.uleb128 .LEHE16-.LEHB16
	.uleb128 0
	.uleb128 0
	.uleb128 .LEHB17-.LFB11181
	.uleb128 .LEHE17-.LEHB17
	.uleb128 .L136-.LFB11181
	.uleb128 0
	.uleb128 .LEHB18-.LFB11181
	.uleb128 .LEHE18-.LEHB18
	.uleb128 0
	.uleb128 0
	.uleb128 .LEHB19-.LFB11181
	.uleb128 .LEHE19-.LEHB19
	.uleb128 .L137-.LFB11181
	.uleb128 0
	.uleb128 .LEHB20-.LFB11181
	.uleb128 .LEHE20-.LEHB20
	.uleb128 0
	.uleb128 0
	.uleb128 .LEHB21-.LFB11181
	.uleb128 .LEHE21-.LEHB21
	.uleb128 .L138-.LFB11181
	.uleb128 0
	.uleb128 .LEHB22-.LFB11181
	.uleb128 .LEHE22-.LEHB22
	.uleb128 0
	.uleb128 0
	.uleb128 .LEHB23-.LFB11181
	.uleb128 .LEHE23-.LEHB23
	.uleb128 .L139-.LFB11181
	.uleb128 0
	.uleb128 .LEHB24-.LFB11181
	.uleb128 .LEHE24-.LEHB24
	.uleb128 .L140-.LFB11181
	.uleb128 0
	.uleb128 .LEHB25-.LFB11181
	.uleb128 .LEHE25-.LEHB25
	.uleb128 .L141-.LFB11181
	.uleb128 0
	.uleb128 .LEHB26-.LFB11181
	.uleb128 .LEHE26-.LEHB26
	.uleb128 0
	.uleb128 0
	.uleb128 .LEHB27-.LFB11181
	.uleb128 .LEHE27-.LEHB27
	.uleb128 .L142-.LFB11181
	.uleb128 0
	.uleb128 .LEHB28-.LFB11181
	.uleb128 .LEHE28-.LEHB28
	.uleb128 0
	.uleb128 0
	.uleb128 .LEHB29-.LFB11181
	.uleb128 .LEHE29-.LEHB29
	.uleb128 .L143-.LFB11181
	.uleb128 0
	.uleb128 .LEHB30-.LFB11181
	.uleb128 .LEHE30-.LEHB30
	.uleb128 .L144-.LFB11181
	.uleb128 0
	.uleb128 .LEHB31-.LFB11181
	.uleb128 .LEHE31-.LEHB31
	.uleb128 .L145-.LFB11181
	.uleb128 0
	.uleb128 .LEHB32-.LFB11181
	.uleb128 .LEHE32-.LEHB32
	.uleb128 0
	.uleb128 0
	.uleb128 .LEHB33-.LFB11181
	.uleb128 .LEHE33-.LEHB33
	.uleb128 .L146-.LFB11181
	.uleb128 0
	.uleb128 .LEHB34-.LFB11181
	.uleb128 .LEHE34-.LEHB34
	.uleb128 .L147-.LFB11181
	.uleb128 0
	.uleb128 .LEHB35-.LFB11181
	.uleb128 .LEHE35-.LEHB35
	.uleb128 .L148-.LFB11181
	.uleb128 0
	.uleb128 .LEHB36-.LFB11181
	.uleb128 .LEHE36-.LEHB36
	.uleb128 0
	.uleb128 0
	.uleb128 .LEHB37-.LFB11181
	.uleb128 .LEHE37-.LEHB37
	.uleb128 .L149-.LFB11181
	.uleb128 0
	.uleb128 .LEHB38-.LFB11181
	.uleb128 .LEHE38-.LEHB38
	.uleb128 0
	.uleb128 0
	.uleb128 .LEHB39-.LFB11181
	.uleb128 .LEHE39-.LEHB39
	.uleb128 .L150-.LFB11181
	.uleb128 0
	.uleb128 .LEHB40-.LFB11181
	.uleb128 .LEHE40-.LEHB40
	.uleb128 0
	.uleb128 0
	.uleb128 .LEHB41-.LFB11181
	.uleb128 .LEHE41-.LEHB41
	.uleb128 .L151-.LFB11181
	.uleb128 0
	.uleb128 .LEHB42-.LFB11181
	.uleb128 .LEHE42-.LEHB42
	.uleb128 0
	.uleb128 0
	.uleb128 .LEHB43-.LFB11181
	.uleb128 .LEHE43-.LEHB43
	.uleb128 .L152-.LFB11181
	.uleb128 0
	.uleb128 .LEHB44-.LFB11181
	.uleb128 .LEHE44-.LEHB44
	.uleb128 0
	.uleb128 0
	.uleb128 .LEHB45-.LFB11181
	.uleb128 .LEHE45-.LEHB45
	.uleb128 .L153-.LFB11181
	.uleb128 0
	.uleb128 .LEHB46-.LFB11181
	.uleb128 .LEHE46-.LEHB46
	.uleb128 0
	.uleb128 0
	.uleb128 .LEHB47-.LFB11181
	.uleb128 .LEHE47-.LEHB47
	.uleb128 .L154-.LFB11181
	.uleb128 0
	.uleb128 .LEHB48-.LFB11181
	.uleb128 .LEHE48-.LEHB48
	.uleb128 .L155-.LFB11181
	.uleb128 0
	.uleb128 .LEHB49-.LFB11181
	.uleb128 .LEHE49-.LEHB49
	.uleb128 .L156-.LFB11181
	.uleb128 0
	.uleb128 .LEHB50-.LFB11181
	.uleb128 .LEHE50-.LEHB50
	.uleb128 0
	.uleb128 0
	.uleb128 .LEHB51-.LFB11181
	.uleb128 .LEHE51-.LEHB51
	.uleb128 .L157-.LFB11181
	.uleb128 0
	.uleb128 .LEHB52-.LFB11181
	.uleb128 .LEHE52-.LEHB52
	.uleb128 0
	.uleb128 0
	.uleb128 .LEHB53-.LFB11181
	.uleb128 .LEHE53-.LEHB53
	.uleb128 .L158-.LFB11181
	.uleb128 0
	.uleb128 .LEHB54-.LFB11181
	.uleb128 .LEHE54-.LEHB54
	.uleb128 .L159-.LFB11181
	.uleb128 0
	.uleb128 .LEHB55-.LFB11181
	.uleb128 .LEHE55-.LEHB55
	.uleb128 .L160-.LFB11181
	.uleb128 0
	.uleb128 .LEHB56-.LFB11181
	.uleb128 .LEHE56-.LEHB56
	.uleb128 0
	.uleb128 0
	.uleb128 .LEHB57-.LFB11181
	.uleb128 .LEHE57-.LEHB57
	.uleb128 .L161-.LFB11181
	.uleb128 0
	.uleb128 .LEHB58-.LFB11181
	.uleb128 .LEHE58-.LEHB58
	.uleb128 .L162-.LFB11181
	.uleb128 0
	.uleb128 .LEHB59-.LFB11181
	.uleb128 .LEHE59-.LEHB59
	.uleb128 .L163-.LFB11181
	.uleb128 0
	.uleb128 .LEHB60-.LFB11181
	.uleb128 .LEHE60-.LEHB60
	.uleb128 0
	.uleb128 0
	.uleb128 .LEHB61-.LFB11181
	.uleb128 .LEHE61-.LEHB61
	.uleb128 .L164-.LFB11181
	.uleb128 0
	.uleb128 .LEHB62-.LFB11181
	.uleb128 .LEHE62-.LEHB62
	.uleb128 0
	.uleb128 0
.LLSDACSE11181:
	.text
	.seh_endproc
	.section	.text$_ZN9__gnu_cxx12__to_xstringINSt7__cxx1112basic_stringIcSt11char_traitsIcESaIcEEEcEET_PFiPT0_yPKS8_PcEySB_z,"x"
	.linkonce discard
	.globl	_ZN9__gnu_cxx12__to_xstringINSt7__cxx1112basic_stringIcSt11char_traitsIcESaIcEEEcEET_PFiPT0_yPKS8_PcEySB_z
	.def	_ZN9__gnu_cxx12__to_xstringINSt7__cxx1112basic_stringIcSt11char_traitsIcESaIcEEEcEET_PFiPT0_yPKS8_PcEySB_z;	.scl	2;	.type	32;	.endef
	.seh_proc	_ZN9__gnu_cxx12__to_xstringINSt7__cxx1112basic_stringIcSt11char_traitsIcESaIcEEEcEET_PFiPT0_yPKS8_PcEySB_z
_ZN9__gnu_cxx12__to_xstringINSt7__cxx1112basic_stringIcSt11char_traitsIcESaIcEEEcEET_PFiPT0_yPKS8_PcEySB_z:
.LFB11257:
	.file 13 "C:/Program Files/CodeBlocks/MinGW/lib/gcc/x86_64-w64-mingw32/8.1.0/include/c++/ext/string_conversions.h"
	.loc 13 99 5
	.cfi_startproc
	pushq	%rbp
	.seh_pushreg	%rbp
	.cfi_def_cfa_offset 16
	.cfi_offset 6, -16
	pushq	%rbx
	.seh_pushreg	%rbx
	.cfi_def_cfa_offset 24
	.cfi_offset 3, -24
	subq	$72, %rsp
	.seh_stackalloc	72
	.cfi_def_cfa_offset 96
	leaq	128(%rsp), %rbp
	.seh_setframe	%rbp, 128
	.cfi_def_cfa 6, -32
	.seh_endprologue
	movq	%rcx, -32(%rbp)
	movq	%rdx, -24(%rbp)
	movq	%r8, -16(%rbp)
	movq	%r9, -8(%rbp)
	.loc 13 105 58
	movq	-16(%rbp), %rax
	addq	$15, %rax
	shrq	$4, %rax
	salq	$4, %rax
	call	___chkstk_ms
	subq	%rax, %rsp
	leaq	32(%rsp), %rax
	addq	$15, %rax
	shrq	$4, %rax
	salq	$4, %rax
	movq	%rax, -72(%rbp)
	.loc 13 109 25
	movq	%rbp, %rax
	movq	%rax, -88(%rbp)
	.loc 13 111 32
	movq	-88(%rbp), %r9
	movq	-8(%rbp), %r8
	movq	-16(%rbp), %rdx
	movq	-72(%rbp), %rcx
	movq	-24(%rbp), %rax
.LEHB63:
	call	*%rax
.LVL25:
.LEHE63:
	movl	%eax, -76(%rbp)
	.loc 13 115 38
	leaq	-77(%rbp), %rax
	movq	%rax, %rcx
	call	_ZNSaIcEC1Ev
	movl	-76(%rbp), %eax
	cltq
	movq	-72(%rbp), %rdx
	leaq	(%rax,%rdx), %rcx
	leaq	-77(%rbp), %rdx
	movq	-72(%rbp), %rax
	movq	%rdx, %r9
	movq	%rcx, %r8
	movq	%rax, %rdx
	movq	-32(%rbp), %rcx
.LEHB64:
	call	_ZNSt7__cxx1112basic_stringIcSt11char_traitsIcESaIcEEC1IPcvEET_S7_RKS3_
.LEHE64:
	leaq	-77(%rbp), %rax
	movq	%rax, %rcx
	call	_ZNSaIcED1Ev
	jmp	.L170
.L169:
	movq	%rax, %rbx
	leaq	-77(%rbp), %rax
	movq	%rax, %rcx
	call	_ZNSaIcED1Ev
	movq	%rbx, %rax
	movq	%rax, %rcx
.LEHB65:
	call	_Unwind_Resume
.LEHE65:
.L170:
	.loc 13 116 5
	movq	-32(%rbp), %rax
	leaq	-56(%rbp), %rsp
	popq	%rbx
	.cfi_restore 3
	popq	%rbp
	.cfi_restore 6
	.cfi_def_cfa 7, -56
	ret
	.cfi_endproc
.LFE11257:
	.seh_handler	__gxx_personality_seh0, @unwind, @except
	.seh_handlerdata
.LLSDA11257:
	.byte	0xff
	.byte	0xff
	.byte	0x1
	.uleb128 .LLSDACSE11257-.LLSDACSB11257
.LLSDACSB11257:
	.uleb128 .LEHB63-.LFB11257
	.uleb128 .LEHE63-.LEHB63
	.uleb128 0
	.uleb128 0
	.uleb128 .LEHB64-.LFB11257
	.uleb128 .LEHE64-.LEHB64
	.uleb128 .L169-.LFB11257
	.uleb128 0
	.uleb128 .LEHB65-.LFB11257
	.uleb128 .LEHE65-.LEHB65
	.uleb128 0
	.uleb128 0
.LLSDACSE11257:
	.section	.text$_ZN9__gnu_cxx12__to_xstringINSt7__cxx1112basic_stringIcSt11char_traitsIcESaIcEEEcEET_PFiPT0_yPKS8_PcEySB_z,"x"
	.linkonce discard
	.seh_endproc
	.section	.text$_ZNSt7__cxx1112basic_stringIcSt11char_traitsIcESaIcEE12_Alloc_hiderD1Ev,"x"
	.linkonce discard
	.align 2
	.globl	_ZNSt7__cxx1112basic_stringIcSt11char_traitsIcESaIcEE12_Alloc_hiderD1Ev
	.def	_ZNSt7__cxx1112basic_stringIcSt11char_traitsIcESaIcEE12_Alloc_hiderD1Ev;	.scl	2;	.type	32;	.endef
	.seh_proc	_ZNSt7__cxx1112basic_stringIcSt11char_traitsIcESaIcEE12_Alloc_hiderD1Ev
_ZNSt7__cxx1112basic_stringIcSt11char_traitsIcESaIcEE12_Alloc_hiderD1Ev:
.LFB11261:
	.loc 3 139 14
	.cfi_startproc
	pushq	%rbp
	.seh_pushreg	%rbp
	.cfi_def_cfa_offset 16
	.cfi_offset 6, -16
	movq	%rsp, %rbp
	.seh_setframe	%rbp, 0
	.cfi_def_cfa_register 6
	subq	$32, %rsp
	.seh_stackalloc	32
	.seh_endprologue
	movq	%rcx, 16(%rbp)
.LBB31:
	.loc 3 139 14
	movq	16(%rbp), %rcx
	call	_ZNSaIcED2Ev
.LBE31:
	nop
	addq	$32, %rsp
	popq	%rbp
	.cfi_restore 6
	.cfi_def_cfa 7, 8
	ret
	.cfi_endproc
.LFE11261:
	.seh_endproc
	.section	.text$_ZN22wxScopedCharTypeBufferIwED1Ev,"x"
	.linkonce discard
	.align 2
	.globl	_ZN22wxScopedCharTypeBufferIwED1Ev
	.def	_ZN22wxScopedCharTypeBufferIwED1Ev;	.scl	2;	.type	32;	.endef
	.seh_proc	_ZN22wxScopedCharTypeBufferIwED1Ev
_ZN22wxScopedCharTypeBufferIwED1Ev:
.LFB11407:
	.loc 5 125 5
	.cfi_startproc
	pushq	%rbp
	.seh_pushreg	%rbp
	.cfi_def_cfa_offset 16
	.cfi_offset 6, -16
	movq	%rsp, %rbp
	.seh_setframe	%rbp, 0
	.cfi_def_cfa_register 6
	subq	$32, %rsp
	.seh_stackalloc	32
	.seh_endprologue
	movq	%rcx, 16(%rbp)
.LBB32:
	.loc 5 127 9
	movq	16(%rbp), %rcx
	call	_ZN22wxScopedCharTypeBufferIwE6DecRefEv
.LBE32:
	.loc 5 128 5
	nop
	addq	$32, %rsp
	popq	%rbp
	.cfi_restore 6
	.cfi_def_cfa 7, 8
	ret
	.cfi_endproc
.LFE11407:
	.seh_handler	__gxx_personality_seh0, @unwind, @except
	.seh_handlerdata
.LLSDA11407:
	.byte	0xff
	.byte	0xff
	.byte	0x1
	.uleb128 .LLSDACSE11407-.LLSDACSB11407
.LLSDACSB11407:
.LLSDACSE11407:
	.section	.text$_ZN22wxScopedCharTypeBufferIwED1Ev,"x"
	.linkonce discard
	.seh_endproc
	.section	.text$_ZN22wxScopedCharTypeBufferIwEC1ERKS0_,"x"
	.linkonce discard
	.align 2
	.globl	_ZN22wxScopedCharTypeBufferIwEC1ERKS0_
	.def	_ZN22wxScopedCharTypeBufferIwEC1ERKS0_;	.scl	2;	.type	32;	.endef
	.seh_proc	_ZN22wxScopedCharTypeBufferIwEC1ERKS0_
_ZN22wxScopedCharTypeBufferIwEC1ERKS0_:
.LFB11431:
	.loc 5 107 5
	.cfi_startproc
	pushq	%rbp
	.seh_pushreg	%rbp
	.cfi_def_cfa_offset 16
	.cfi_offset 6, -16
	movq	%rsp, %rbp
	.seh_setframe	%rbp, 0
	.cfi_def_cfa_register 6
	subq	$32, %rsp
	.seh_stackalloc	32
	.seh_endprologue
	movq	%rcx, 16(%rbp)
	movq	%rdx, 24(%rbp)
.LBB33:
	.loc 5 109 22
	movq	24(%rbp), %rax
	movq	(%rax), %rdx
	.loc 5 109 9
	movq	16(%rbp), %rax
	movq	%rdx, (%rax)
	.loc 5 110 9
	movq	16(%rbp), %rcx
	call	_ZN22wxScopedCharTypeBufferIwE6IncRefEv
.LBE33:
	.loc 5 111 5
	nop
	addq	$32, %rsp
	popq	%rbp
	.cfi_restore 6
	.cfi_def_cfa 7, 8
	ret
	.cfi_endproc
.LFE11431:
	.seh_endproc
	.section	.text$_ZN8wxString15ConvertedBufferIcED1Ev,"x"
	.linkonce discard
	.align 2
	.globl	_ZN8wxString15ConvertedBufferIcED1Ev
	.def	_ZN8wxString15ConvertedBufferIcED1Ev;	.scl	2;	.type	32;	.endef
	.seh_proc	_ZN8wxString15ConvertedBufferIcED1Ev
_ZN8wxString15ConvertedBufferIcED1Ev:
.LFB11500:
	.loc 7 3489 7
	.cfi_startproc
	pushq	%rbp
	.seh_pushreg	%rbp
	.cfi_def_cfa_offset 16
	.cfi_offset 6, -16
	movq	%rsp, %rbp
	.seh_setframe	%rbp, 0
	.cfi_def_cfa_register 6
	subq	$32, %rsp
	.seh_stackalloc	32
	.seh_endprologue
	movq	%rcx, 16(%rbp)
.LBB34:
	.loc 7 3490 18
	movq	16(%rbp), %rax
	movq	(%rax), %rax
	.loc 7 3490 17
	movq	%rax, %rcx
	call	free
.LBE34:
	.loc 7 3490 26
	nop
	addq	$32, %rsp
	popq	%rbp
	.cfi_restore 6
	.cfi_def_cfa 7, 8
	ret
	.cfi_endproc
.LFE11500:
	.seh_endproc
	.section	.text$_ZN8wxString15ConvertedBufferIcEC1Ev,"x"
	.linkonce discard
	.align 2
	.globl	_ZN8wxString15ConvertedBufferIcEC1Ev
	.def	_ZN8wxString15ConvertedBufferIcEC1Ev;	.scl	2;	.type	32;	.endef
	.seh_proc	_ZN8wxString15ConvertedBufferIcEC1Ev
_ZN8wxString15ConvertedBufferIcEC1Ev:
.LFB11506:
	.loc 7 3488 7
	.cfi_startproc
	pushq	%rbp
	.seh_pushreg	%rbp
	.cfi_def_cfa_offset 16
	.cfi_offset 6, -16
	movq	%rsp, %rbp
	.seh_setframe	%rbp, 0
	.cfi_def_cfa_register 6
	.seh_endprologue
	movq	%rcx, 16(%rbp)
.LBB35:
	.loc 7 3488 36
	movq	16(%rbp), %rax
	movq	$0, (%rax)
.LBE35:
	.loc 7 3488 39
	nop
	popq	%rbp
	.cfi_restore 6
	.cfi_def_cfa 7, 8
	ret
	.cfi_endproc
.LFE11506:
	.seh_endproc
	.section	.text$_ZNK22wxScopedCharTypeBufferIwEcvPKwEv,"x"
	.linkonce discard
	.align 2
	.globl	_ZNK22wxScopedCharTypeBufferIwEcvPKwEv
	.def	_ZNK22wxScopedCharTypeBufferIwEcvPKwEv;	.scl	2;	.type	32;	.endef
	.seh_proc	_ZNK22wxScopedCharTypeBufferIwEcvPKwEv
_ZNK22wxScopedCharTypeBufferIwEcvPKwEv:
.LFB11510:
	.loc 5 157 5
	.cfi_startproc
	pushq	%rbp
	.seh_pushreg	%rbp
	.cfi_def_cfa_offset 16
	.cfi_offset 6, -16
	movq	%rsp, %rbp
	.seh_setframe	%rbp, 0
	.cfi_def_cfa_register 6
	subq	$32, %rsp
	.seh_stackalloc	32
	.seh_endprologue
	movq	%rcx, 16(%rbp)
	.loc 5 157 53
	movq	16(%rbp), %rcx
	call	_ZNK22wxScopedCharTypeBufferIwE4dataEv
	.loc 5 157 56
	addq	$32, %rsp
	popq	%rbp
	.cfi_restore 6
	.cfi_def_cfa 7, 8
	ret
	.cfi_endproc
.LFE11510:
	.seh_endproc
	.section	.text$_ZNK22wxScopedCharTypeBufferIwE4dataEv,"x"
	.linkonce discard
	.align 2
	.globl	_ZNK22wxScopedCharTypeBufferIwE4dataEv
	.def	_ZNK22wxScopedCharTypeBufferIwE4dataEv;	.scl	2;	.type	32;	.endef
	.seh_proc	_ZNK22wxScopedCharTypeBufferIwE4dataEv
_ZNK22wxScopedCharTypeBufferIwE4dataEv:
.LFB11523:
	.loc 5 156 21
	.cfi_startproc
	pushq	%rbp
	.seh_pushreg	%rbp
	.cfi_def_cfa_offset 16
	.cfi_offset 6, -16
	movq	%rsp, %rbp
	.seh_setframe	%rbp, 0
	.cfi_def_cfa_register 6
	subq	$32, %rsp
	.seh_stackalloc	32
	.seh_endprologue
	movq	%rcx, 16(%rbp)
	.loc 5 156 43
	movq	16(%rbp), %rax
	movq	(%rax), %rax
	.loc 5 156 55
	movq	%rax, %rcx
	call	_ZNK22wxScopedCharTypeBufferIwE4Data3GetEv
	.loc 5 156 58
	addq	$32, %rsp
	popq	%rbp
	.cfi_restore 6
	.cfi_def_cfa 7, 8
	ret
	.cfi_endproc
.LFE11523:
	.seh_endproc
	.section	.text$_ZStplIcSt11char_traitsIcESaIcEENSt7__cxx1112basic_stringIT_T0_T1_EEPKS5_OS8_,"x"
	.linkonce discard
	.globl	_ZStplIcSt11char_traitsIcESaIcEENSt7__cxx1112basic_stringIT_T0_T1_EEPKS5_OS8_
	.def	_ZStplIcSt11char_traitsIcESaIcEENSt7__cxx1112basic_stringIT_T0_T1_EEPKS5_OS8_;	.scl	2;	.type	32;	.endef
	.seh_proc	_ZStplIcSt11char_traitsIcESaIcEENSt7__cxx1112basic_stringIT_T0_T1_EEPKS5_OS8_
_ZStplIcSt11char_traitsIcESaIcEENSt7__cxx1112basic_stringIT_T0_T1_EEPKS5_OS8_:
.LFB11693:
	.loc 3 5977 5
	.cfi_startproc
	pushq	%rbp
	.seh_pushreg	%rbp
	.cfi_def_cfa_offset 16
	.cfi_offset 6, -16
	movq	%rsp, %rbp
	.seh_setframe	%rbp, 0
	.cfi_def_cfa_register 6
	subq	$32, %rsp
	.seh_stackalloc	32
	.seh_endprologue
	movq	%rcx, 16(%rbp)
	movq	%rdx, 24(%rbp)
	movq	%r8, 32(%rbp)
	.loc 3 5979 23
	movq	24(%rbp), %rdx
	movq	32(%rbp), %rax
	movq	%rdx, %r8
	movl	$0, %edx
	movq	%rax, %rcx
	call	_ZNSt7__cxx1112basic_stringIcSt11char_traitsIcESaIcEE6insertEyPKc
	movq	%rax, %rcx
	call	_ZSt4moveIRNSt7__cxx1112basic_stringIcSt11char_traitsIcESaIcEEEEONSt16remove_referenceIT_E4typeEOS8_
	.loc 3 5979 46
	movq	%rax, %rdx
	movq	16(%rbp), %rcx
	call	_ZNSt7__cxx1112basic_stringIcSt11char_traitsIcESaIcEEC1EOS4_
	.loc 3 5979 49
	movq	16(%rbp), %rax
	addq	$32, %rsp
	popq	%rbp
	.cfi_restore 6
	.cfi_def_cfa 7, 8
	ret
	.cfi_endproc
.LFE11693:
	.seh_endproc
	.section	.text$_ZStplIcSt11char_traitsIcESaIcEENSt7__cxx1112basic_stringIT_T0_T1_EEOS8_PKS5_,"x"
	.linkonce discard
	.globl	_ZStplIcSt11char_traitsIcESaIcEENSt7__cxx1112basic_stringIT_T0_T1_EEOS8_PKS5_
	.def	_ZStplIcSt11char_traitsIcESaIcEENSt7__cxx1112basic_stringIT_T0_T1_EEOS8_PKS5_;	.scl	2;	.type	32;	.endef
	.seh_proc	_ZStplIcSt11char_traitsIcESaIcEENSt7__cxx1112basic_stringIT_T0_T1_EEOS8_PKS5_
_ZStplIcSt11char_traitsIcESaIcEENSt7__cxx1112basic_stringIT_T0_T1_EEOS8_PKS5_:
.LFB11817:
	.loc 3 5989 5
	.cfi_startproc
	pushq	%rbp
	.seh_pushreg	%rbp
	.cfi_def_cfa_offset 16
	.cfi_offset 6, -16
	movq	%rsp, %rbp
	.seh_setframe	%rbp, 0
	.cfi_def_cfa_register 6
	subq	$32, %rsp
	.seh_stackalloc	32
	.seh_endprologue
	movq	%rcx, 16(%rbp)
	movq	%rdx, 24(%rbp)
	movq	%r8, 32(%rbp)
	.loc 3 5991 23
	movq	32(%rbp), %rdx
	movq	24(%rbp), %rax
	movq	%rax, %rcx
	call	_ZNSt7__cxx1112basic_stringIcSt11char_traitsIcESaIcEE6appendEPKc
	movq	%rax, %rcx
	call	_ZSt4moveIRNSt7__cxx1112basic_stringIcSt11char_traitsIcESaIcEEEEONSt16remove_referenceIT_E4typeEOS8_
	.loc 3 5991 43
	movq	%rax, %rdx
	movq	16(%rbp), %rcx
	call	_ZNSt7__cxx1112basic_stringIcSt11char_traitsIcESaIcEEC1EOS4_
	.loc 3 5991 46
	movq	16(%rbp), %rax
	addq	$32, %rsp
	popq	%rbp
	.cfi_restore 6
	.cfi_def_cfa 7, 8
	ret
	.cfi_endproc
.LFE11817:
	.seh_endproc
	.section	.text$_ZN7MathArt24to_string_with_precisionIdEENSt7__cxx1112basic_stringIcSt11char_traitsIcESaIcEEET_i,"x"
	.linkonce discard
	.globl	_ZN7MathArt24to_string_with_precisionIdEENSt7__cxx1112basic_stringIcSt11char_traitsIcESaIcEEET_i
	.def	_ZN7MathArt24to_string_with_precisionIdEENSt7__cxx1112basic_stringIcSt11char_traitsIcESaIcEEET_i;	.scl	2;	.type	32;	.endef
	.seh_proc	_ZN7MathArt24to_string_with_precisionIdEENSt7__cxx1112basic_stringIcSt11char_traitsIcESaIcEEET_i
_ZN7MathArt24to_string_with_precisionIdEENSt7__cxx1112basic_stringIcSt11char_traitsIcESaIcEEET_i:
.LFB11818:
	.file 14 "../../MathArt/mathart.h"
	.loc 14 38 24
	.cfi_startproc
	pushq	%rbp
	.seh_pushreg	%rbp
	.cfi_def_cfa_offset 16
	.cfi_offset 6, -16
	pushq	%rbx
	.seh_pushreg	%rbx
	.cfi_def_cfa_offset 24
	.cfi_offset 3, -24
	subq	$424, %rsp
	.seh_stackalloc	424
	.cfi_def_cfa_offset 448
	leaq	128(%rsp), %rbp
	.seh_setframe	%rbp, 128
	.cfi_def_cfa 6, 320
	.seh_endprologue
	movq	%rcx, 320(%rbp)
	movsd	%xmm1, 328(%rbp)
	movl	%r8d, 336(%rbp)
	.loc 14 40 28
	leaq	-96(%rbp), %rax
	movl	$16, %edx
	movq	%rax, %rcx
.LEHB66:
	call	_ZNSt7__cxx1119basic_ostringstreamIcSt11char_traitsIcESaIcEEC1ESt13_Ios_Openmode
.LEHE66:
	.loc 14 41 22
	movl	336(%rbp), %eax
	cltq
	leaq	-96(%rbp), %rdx
	leaq	112(%rdx), %rcx
	movq	%rax, %rdx
	call	_ZNSt8ios_base9precisionEx
	.loc 14 42 13
	leaq	-96(%rbp), %rax
	leaq	_ZSt5fixedRSt8ios_base(%rip), %rdx
	movq	%rax, %rcx
.LEHB67:
	call	_ZNSolsEPFRSt8ios_baseS0_E
	.loc 14 42 27
	movsd	328(%rbp), %xmm0
	movapd	%xmm0, %xmm1
	movq	%rax, %rcx
	call	_ZNSolsEd
	.loc 14 43 24
	movq	320(%rbp), %rcx
	leaq	-96(%rbp), %rax
	movq	%rax, %rdx
	call	_ZNKSt7__cxx1119basic_ostringstreamIcSt11char_traitsIcESaIcEE3strEv
.LEHE67:
	nop
	.loc 14 40 28
	leaq	-96(%rbp), %rax
	movq	%rax, %rcx
	call	_ZNSt7__cxx1119basic_ostringstreamIcSt11char_traitsIcESaIcEED1Ev
	.loc 14 43 24
	jmp	.L188
.L187:
	movq	%rax, %rbx
	.loc 14 40 28
	leaq	-96(%rbp), %rax
	movq	%rax, %rcx
	call	_ZNSt7__cxx1119basic_ostringstreamIcSt11char_traitsIcESaIcEED1Ev
	movq	%rbx, %rax
	movq	%rax, %rcx
.LEHB68:
	call	_Unwind_Resume
.LEHE68:
.L188:
	.loc 14 44 5
	movq	320(%rbp), %rax
	addq	$424, %rsp
	popq	%rbx
	.cfi_restore 3
	popq	%rbp
	.cfi_restore 6
	.cfi_def_cfa 7, -408
	ret
	.cfi_endproc
.LFE11818:
	.seh_handler	__gxx_personality_seh0, @unwind, @except
	.seh_handlerdata
.LLSDA11818:
	.byte	0xff
	.byte	0xff
	.byte	0x1
	.uleb128 .LLSDACSE11818-.LLSDACSB11818
.LLSDACSB11818:
	.uleb128 .LEHB66-.LFB11818
	.uleb128 .LEHE66-.LEHB66
	.uleb128 0
	.uleb128 0
	.uleb128 .LEHB67-.LFB11818
	.uleb128 .LEHE67-.LEHB67
	.uleb128 .L187-.LFB11818
	.uleb128 0
	.uleb128 .LEHB68-.LFB11818
	.uleb128 .LEHE68-.LEHB68
	.uleb128 0
	.uleb128 0
.LLSDACSE11818:
	.section	.text$_ZN7MathArt24to_string_with_precisionIdEENSt7__cxx1112basic_stringIcSt11char_traitsIcESaIcEEET_i,"x"
	.linkonce discard
	.seh_endproc
	.section	.text$_ZNSt7__cxx1112basic_stringIcSt11char_traitsIcESaIcEEC1IPcvEET_S7_RKS3_,"x"
	.linkonce discard
	.align 2
	.globl	_ZNSt7__cxx1112basic_stringIcSt11char_traitsIcESaIcEEC1IPcvEET_S7_RKS3_
	.def	_ZNSt7__cxx1112basic_stringIcSt11char_traitsIcESaIcEEC1IPcvEET_S7_RKS3_;	.scl	2;	.type	32;	.endef
	.seh_proc	_ZNSt7__cxx1112basic_stringIcSt11char_traitsIcESaIcEEC1IPcvEET_S7_RKS3_
_ZNSt7__cxx1112basic_stringIcSt11char_traitsIcESaIcEEC1IPcvEET_S7_RKS3_:
.LFB11822:
	.loc 3 604 9
	.cfi_startproc
	pushq	%rbp
	.seh_pushreg	%rbp
	.cfi_def_cfa_offset 16
	.cfi_offset 6, -16
	pushq	%rbx
	.seh_pushreg	%rbx
	.cfi_def_cfa_offset 24
	.cfi_offset 3, -24
	subq	$40, %rsp
	.seh_stackalloc	40
	.cfi_def_cfa_offset 64
	leaq	128(%rsp), %rbp
	.seh_setframe	%rbp, 128
	.cfi_def_cfa 6, -64
	.seh_endprologue
	movq	%rcx, -64(%rbp)
	movq	%rdx, -56(%rbp)
	movq	%r8, -48(%rbp)
	movq	%r9, -40(%rbp)
.LBB36:
	.loc 3 606 36
	movq	-64(%rbp), %rbx
	movq	-64(%rbp), %rcx
.LEHB69:
	call	_ZNSt7__cxx1112basic_stringIcSt11char_traitsIcESaIcEE13_M_local_dataEv
	movq	%rax, %rdx
	movq	-40(%rbp), %rax
	movq	%rax, %r8
	movq	%rbx, %rcx
	call	_ZNSt7__cxx1112basic_stringIcSt11char_traitsIcESaIcEE12_Alloc_hiderC1EPcRKS3_
.LEHE69:
	.loc 3 607 4
	movq	-48(%rbp), %rdx
	movq	-56(%rbp), %rax
	movq	%rdx, %r8
	movq	%rax, %rdx
	movq	-64(%rbp), %rcx
.LEHB70:
	call	_ZNSt7__cxx1112basic_stringIcSt11char_traitsIcESaIcEE12_M_constructIPcEEvT_S7_
.LEHE70:
.LBE36:
	.loc 3 607 32
	jmp	.L192
.L191:
	movq	%rax, %rbx
.LBB37:
	.loc 3 606 36
	movq	-64(%rbp), %rax
	movq	%rax, %rcx
	call	_ZNSt7__cxx1112basic_stringIcSt11char_traitsIcESaIcEE12_Alloc_hiderD1Ev
	movq	%rbx, %rax
	movq	%rax, %rcx
.LEHB71:
	call	_Unwind_Resume
	nop
.LEHE71:
.L192:
.LBE37:
	.loc 3 607 32
	addq	$40, %rsp
	popq	%rbx
	.cfi_restore 3
	popq	%rbp
	.cfi_restore 6
	.cfi_def_cfa 7, -24
	ret
	.cfi_endproc
.LFE11822:
	.seh_handler	__gxx_personality_seh0, @unwind, @except
	.seh_handlerdata
.LLSDA11822:
	.byte	0xff
	.byte	0xff
	.byte	0x1
	.uleb128 .LLSDACSE11822-.LLSDACSB11822
.LLSDACSB11822:
	.uleb128 .LEHB69-.LFB11822
	.uleb128 .LEHE69-.LEHB69
	.uleb128 0
	.uleb128 0
	.uleb128 .LEHB70-.LFB11822
	.uleb128 .LEHE70-.LEHB70
	.uleb128 .L191-.LFB11822
	.uleb128 0
	.uleb128 .LEHB71-.LFB11822
	.uleb128 .LEHE71-.LEHB71
	.uleb128 0
	.uleb128 0
.LLSDACSE11822:
	.section	.text$_ZNSt7__cxx1112basic_stringIcSt11char_traitsIcESaIcEEC1IPcvEET_S7_RKS3_,"x"
	.linkonce discard
	.seh_endproc
	.section	.text$_ZNSt7__cxx1112basic_stringIcSt11char_traitsIcESaIcEE12_M_constructIPcEEvT_S7_,"x"
	.linkonce discard
	.align 2
	.globl	_ZNSt7__cxx1112basic_stringIcSt11char_traitsIcESaIcEE12_M_constructIPcEEvT_S7_
	.def	_ZNSt7__cxx1112basic_stringIcSt11char_traitsIcESaIcEE12_M_constructIPcEEvT_S7_;	.scl	2;	.type	32;	.endef
	.seh_proc	_ZNSt7__cxx1112basic_stringIcSt11char_traitsIcESaIcEE12_M_constructIPcEEvT_S7_
_ZNSt7__cxx1112basic_stringIcSt11char_traitsIcESaIcEE12_M_constructIPcEEvT_S7_:
.LFB11871:
	.loc 3 252 9
	.cfi_startproc
	pushq	%rbp
	.seh_pushreg	%rbp
	.cfi_def_cfa_offset 16
	.cfi_offset 6, -16
	movq	%rsp, %rbp
	.seh_setframe	%rbp, 0
	.cfi_def_cfa_register 6
	subq	$48, %rsp
	.seh_stackalloc	48
	.seh_endprologue
	movq	%rcx, 16(%rbp)
	movq	%rdx, 24(%rbp)
	movq	%r8, 32(%rbp)
	.loc 3 255 4
	movq	32(%rbp), %rdx
	movq	24(%rbp), %rax
	movq	%rdx, %r8
	movq	%rax, %rdx
	movq	16(%rbp), %rcx
	call	_ZNSt7__cxx1112basic_stringIcSt11char_traitsIcESaIcEE16_M_construct_auxIPcEEvT_S7_St12__false_type
	.loc 3 256 9
	nop
	addq	$48, %rsp
	popq	%rbp
	.cfi_restore 6
	.cfi_def_cfa 7, 8
	ret
	.cfi_endproc
.LFE11871:
	.seh_endproc
	.section	.text$_ZN22wxScopedCharTypeBufferIwE4DataD1Ev,"x"
	.linkonce discard
	.align 2
	.globl	_ZN22wxScopedCharTypeBufferIwE4DataD1Ev
	.def	_ZN22wxScopedCharTypeBufferIwE4DataD1Ev;	.scl	2;	.type	32;	.endef
	.seh_proc	_ZN22wxScopedCharTypeBufferIwE4DataD1Ev
_ZN22wxScopedCharTypeBufferIwE4DataD1Ev:
.LFB11905:
	.loc 5 164 12
	.cfi_startproc
	pushq	%rbp
	.seh_pushreg	%rbp
	.cfi_def_cfa_offset 16
	.cfi_offset 6, -16
	movq	%rsp, %rbp
	.seh_setframe	%rbp, 0
	.cfi_def_cfa_register 6
	subq	$32, %rsp
	.seh_stackalloc	32
	.seh_endprologue
	movq	%rcx, 16(%rbp)
.LBB38:
	.loc 5 164 12
	movq	16(%rbp), %rax
	movq	%rax, %rcx
	call	_ZN9wxPrivate17UntypedBufferDataD2Ev
.LBE38:
	nop
	addq	$32, %rsp
	popq	%rbp
	.cfi_restore 6
	.cfi_def_cfa 7, 8
	ret
	.cfi_endproc
.LFE11905:
	.seh_endproc
	.section	.text$_ZN22wxScopedCharTypeBufferIwE6DecRefEv,"x"
	.linkonce discard
	.align 2
	.globl	_ZN22wxScopedCharTypeBufferIwE6DecRefEv
	.def	_ZN22wxScopedCharTypeBufferIwE6DecRefEv;	.scl	2;	.type	32;	.endef
	.seh_proc	_ZN22wxScopedCharTypeBufferIwE6DecRefEv
_ZN22wxScopedCharTypeBufferIwE6DecRefEv:
.LFB11902:
	.loc 5 192 10
	.cfi_startproc
	pushq	%rbp
	.seh_pushreg	%rbp
	.cfi_def_cfa_offset 16
	.cfi_offset 6, -16
	pushq	%rbx
	.seh_pushreg	%rbx
	.cfi_def_cfa_offset 24
	.cfi_offset 3, -24
	subq	$40, %rsp
	.seh_stackalloc	40
	.cfi_def_cfa_offset 64
	leaq	128(%rsp), %rbp
	.seh_setframe	%rbp, 128
	.cfi_def_cfa 6, -64
	.seh_endprologue
	movq	%rcx, -64(%rbp)
	.loc 5 194 14
	movq	-64(%rbp), %rax
	movq	(%rax), %rbx
	.loc 5 194 35
	call	_ZN22wxScopedCharTypeBufferIwE11GetNullDataEv
	.loc 5 194 21
	cmpq	%rax, %rbx
	sete	%al
	.loc 5 194 9
	testb	%al, %al
	jne	.L199
	.loc 5 196 16
	movq	-64(%rbp), %rax
	movq	(%rax), %rax
	.loc 5 196 24
	movzwl	16(%rax), %edx
	.loc 5 196 30
	subl	$1, %edx
	movw	%dx, 16(%rax)
	.loc 5 196 24
	movzwl	16(%rax), %eax
	.loc 5 196 30
	testw	%ax, %ax
	sete	%al
	.loc 5 196 9
	testb	%al, %al
	je	.L198
	.loc 5 197 20
	movq	-64(%rbp), %rax
	movq	(%rax), %rbx
	.loc 5 197 13
	testq	%rbx, %rbx
	je	.L198
	.loc 5 197 13 is_stmt 0 discriminator 1
	movq	%rbx, %rcx
	call	_ZN22wxScopedCharTypeBufferIwE4DataD1Ev
	movq	%rbx, %rcx
	call	_ZdlPv
.L198:
	.loc 5 198 29 is_stmt 1
	call	_ZN22wxScopedCharTypeBufferIwE11GetNullDataEv
	movq	%rax, %rdx
	.loc 5 198 9
	movq	-64(%rbp), %rax
	movq	%rdx, (%rax)
	jmp	.L195
.L199:
	.loc 5 195 13
	nop
.L195:
	.loc 5 199 5
	addq	$40, %rsp
	popq	%rbx
	.cfi_restore 3
	popq	%rbp
	.cfi_restore 6
	.cfi_def_cfa 7, -24
	ret
	.cfi_endproc
.LFE11902:
	.seh_endproc
	.section	.text$_ZN22wxScopedCharTypeBufferIwE11GetNullDataEv,"x"
	.linkonce discard
	.globl	_ZN22wxScopedCharTypeBufferIwE11GetNullDataEv
	.def	_ZN22wxScopedCharTypeBufferIwE11GetNullDataEv;	.scl	2;	.type	32;	.endef
	.seh_proc	_ZN22wxScopedCharTypeBufferIwE11GetNullDataEv
_ZN22wxScopedCharTypeBufferIwE11GetNullDataEv:
.LFB11911:
	.loc 5 180 18
	.cfi_startproc
	pushq	%rbp
	.seh_pushreg	%rbp
	.cfi_def_cfa_offset 16
	.cfi_offset 6, -16
	movq	%rsp, %rbp
	.seh_setframe	%rbp, 0
	.cfi_def_cfa_register 6
	subq	$32, %rsp
	.seh_stackalloc	32
	.seh_endprologue
	.loc 5 182 65
	call	_ZN9wxPrivate18GetUntypedNullDataEv
	.loc 5 183 5
	addq	$32, %rsp
	popq	%rbp
	.cfi_restore 6
	.cfi_def_cfa 7, 8
	ret
	.cfi_endproc
.LFE11911:
	.seh_endproc
	.section	.text$_ZN22wxScopedCharTypeBufferIwE6IncRefEv,"x"
	.linkonce discard
	.align 2
	.globl	_ZN22wxScopedCharTypeBufferIwE6IncRefEv
	.def	_ZN22wxScopedCharTypeBufferIwE6IncRefEv;	.scl	2;	.type	32;	.endef
	.seh_proc	_ZN22wxScopedCharTypeBufferIwE6IncRefEv
_ZN22wxScopedCharTypeBufferIwE6IncRefEv:
.LFB11913:
	.loc 5 185 10
	.cfi_startproc
	pushq	%rbp
	.seh_pushreg	%rbp
	.cfi_def_cfa_offset 16
	.cfi_offset 6, -16
	pushq	%rbx
	.seh_pushreg	%rbx
	.cfi_def_cfa_offset 24
	.cfi_offset 3, -24
	subq	$40, %rsp
	.seh_stackalloc	40
	.cfi_def_cfa_offset 64
	leaq	128(%rsp), %rbp
	.seh_setframe	%rbp, 128
	.cfi_def_cfa 6, -64
	.seh_endprologue
	movq	%rcx, -64(%rbp)
	.loc 5 187 14
	movq	-64(%rbp), %rax
	movq	(%rax), %rbx
	.loc 5 187 35
	call	_ZN22wxScopedCharTypeBufferIwE11GetNullDataEv
	.loc 5 187 21
	cmpq	%rax, %rbx
	sete	%al
	.loc 5 187 9
	testb	%al, %al
	jne	.L205
	.loc 5 189 9
	movq	-64(%rbp), %rax
	movq	(%rax), %rax
	.loc 5 189 17
	movzwl	16(%rax), %edx
	.loc 5 189 9
	addl	$1, %edx
	movw	%dx, 16(%rax)
	jmp	.L202
.L205:
	.loc 5 188 13
	nop
.L202:
	.loc 5 190 5
	addq	$40, %rsp
	popq	%rbx
	.cfi_restore 3
	popq	%rbp
	.cfi_restore 6
	.cfi_def_cfa 7, -24
	ret
	.cfi_endproc
.LFE11913:
	.seh_endproc
	.section	.text$_ZNK22wxScopedCharTypeBufferIwE4Data3GetEv,"x"
	.linkonce discard
	.align 2
	.globl	_ZNK22wxScopedCharTypeBufferIwE4Data3GetEv
	.def	_ZNK22wxScopedCharTypeBufferIwE4Data3GetEv;	.scl	2;	.type	32;	.endef
	.seh_proc	_ZNK22wxScopedCharTypeBufferIwE4Data3GetEv
_ZNK22wxScopedCharTypeBufferIwE4Data3GetEv:
.LFB11941:
	.loc 5 171 19
	.cfi_startproc
	pushq	%rbp
	.seh_pushreg	%rbp
	.cfi_def_cfa_offset 16
	.cfi_offset 6, -16
	movq	%rsp, %rbp
	.seh_setframe	%rbp, 0
	.cfi_def_cfa_register 6
	.seh_endprologue
	movq	%rcx, 16(%rbp)
	.loc 5 171 69
	movq	16(%rbp), %rax
	movq	(%rax), %rax
	.loc 5 171 72
	popq	%rbp
	.cfi_restore 6
	.cfi_def_cfa 7, 8
	ret
	.cfi_endproc
.LFE11941:
	.seh_endproc
	.section	.text$_ZSt4moveIRNSt7__cxx1112basic_stringIcSt11char_traitsIcESaIcEEEEONSt16remove_referenceIT_E4typeEOS8_,"x"
	.linkonce discard
	.globl	_ZSt4moveIRNSt7__cxx1112basic_stringIcSt11char_traitsIcESaIcEEEEONSt16remove_referenceIT_E4typeEOS8_
	.def	_ZSt4moveIRNSt7__cxx1112basic_stringIcSt11char_traitsIcESaIcEEEEONSt16remove_referenceIT_E4typeEOS8_;	.scl	2;	.type	32;	.endef
	.seh_proc	_ZSt4moveIRNSt7__cxx1112basic_stringIcSt11char_traitsIcESaIcEEEEONSt16remove_referenceIT_E4typeEOS8_
_ZSt4moveIRNSt7__cxx1112basic_stringIcSt11char_traitsIcESaIcEEEEONSt16remove_referenceIT_E4typeEOS8_:
.LFB12004:
	.file 15 "C:/Program Files/CodeBlocks/MinGW/lib/gcc/x86_64-w64-mingw32/8.1.0/include/c++/bits/move.h"
	.loc 15 99 5
	.cfi_startproc
	pushq	%rbp
	.seh_pushreg	%rbp
	.cfi_def_cfa_offset 16
	.cfi_offset 6, -16
	movq	%rsp, %rbp
	.seh_setframe	%rbp, 0
	.cfi_def_cfa_register 6
	.seh_endprologue
	movq	%rcx, 16(%rbp)
	.loc 15 100 74
	movq	16(%rbp), %rax
	.loc 15 100 77
	popq	%rbp
	.cfi_restore 6
	.cfi_def_cfa 7, 8
	ret
	.cfi_endproc
.LFE12004:
	.seh_endproc
	.section	.text$_ZNSt7__cxx1112basic_stringIcSt11char_traitsIcESaIcEE16_M_construct_auxIPcEEvT_S7_St12__false_type,"x"
	.linkonce discard
	.align 2
	.globl	_ZNSt7__cxx1112basic_stringIcSt11char_traitsIcESaIcEE16_M_construct_auxIPcEEvT_S7_St12__false_type
	.def	_ZNSt7__cxx1112basic_stringIcSt11char_traitsIcESaIcEE16_M_construct_auxIPcEEvT_S7_St12__false_type;	.scl	2;	.type	32;	.endef
	.seh_proc	_ZNSt7__cxx1112basic_stringIcSt11char_traitsIcESaIcEE16_M_construct_auxIPcEEvT_S7_St12__false_type
_ZNSt7__cxx1112basic_stringIcSt11char_traitsIcESaIcEE16_M_construct_auxIPcEEvT_S7_St12__false_type:
.LFB12048:
	.loc 3 232 9
	.cfi_startproc
	pushq	%rbp
	.seh_pushreg	%rbp
	.cfi_def_cfa_offset 16
	.cfi_offset 6, -16
	movq	%rsp, %rbp
	.seh_setframe	%rbp, 0
	.cfi_def_cfa_register 6
	subq	$48, %rsp
	.seh_stackalloc	48
	.seh_endprologue
	movq	%rcx, 16(%rbp)
	movq	%rdx, 24(%rbp)
	movq	%r8, 32(%rbp)
	movb	%r9b, 40(%rbp)
	.loc 3 236 11
	movq	32(%rbp), %rdx
	movq	24(%rbp), %rax
	movl	%r10d, %r9d
	movq	%rdx, %r8
	movq	%rax, %rdx
	movq	16(%rbp), %rcx
	call	_ZNSt7__cxx1112basic_stringIcSt11char_traitsIcESaIcEE12_M_constructIPcEEvT_S7_St20forward_iterator_tag
	.loc 3 237 2
	nop
	addq	$48, %rsp
	popq	%rbp
	.cfi_restore 6
	.cfi_def_cfa 7, 8
	ret
	.cfi_endproc
.LFE12048:
	.seh_endproc
	.section .rdata,"dr"
	.align 8
.LC11:
	.ascii "basic_string::_M_construct null not valid\0"
	.section	.text$_ZNSt7__cxx1112basic_stringIcSt11char_traitsIcESaIcEE12_M_constructIPcEEvT_S7_St20forward_iterator_tag,"x"
	.linkonce discard
	.align 2
	.globl	_ZNSt7__cxx1112basic_stringIcSt11char_traitsIcESaIcEE12_M_constructIPcEEvT_S7_St20forward_iterator_tag
	.def	_ZNSt7__cxx1112basic_stringIcSt11char_traitsIcESaIcEE12_M_constructIPcEEvT_S7_St20forward_iterator_tag;	.scl	2;	.type	32;	.endef
	.seh_proc	_ZNSt7__cxx1112basic_stringIcSt11char_traitsIcESaIcEE12_M_constructIPcEEvT_S7_St20forward_iterator_tag
_ZNSt7__cxx1112basic_stringIcSt11char_traitsIcESaIcEE12_M_constructIPcEEvT_S7_St20forward_iterator_tag:
.LFB12128:
	.file 16 "C:/Program Files/CodeBlocks/MinGW/lib/gcc/x86_64-w64-mingw32/8.1.0/include/c++/bits/basic_string.tcc"
	.loc 16 206 7
	.cfi_startproc
	pushq	%rbp
	.seh_pushreg	%rbp
	.cfi_def_cfa_offset 16
	.cfi_offset 6, -16
	pushq	%rbx
	.seh_pushreg	%rbx
	.cfi_def_cfa_offset 24
	.cfi_offset 3, -24
	subq	$56, %rsp
	.seh_stackalloc	56
	.cfi_def_cfa_offset 80
	leaq	128(%rsp), %rbp
	.seh_setframe	%rbp, 128
	.cfi_def_cfa 6, -48
	.seh_endprologue
	movq	%rcx, -48(%rbp)
	movq	%rdx, -40(%rbp)
	movq	%r8, -32(%rbp)
	movb	%r9b, -24(%rbp)
	.loc 16 211 34
	movq	-40(%rbp), %rax
	movq	%rax, %rcx
	call	_ZN9__gnu_cxx17__is_null_pointerIcEEbPT_
	.loc 16 211 42
	testb	%al, %al
	je	.L212
	.loc 16 211 42 is_stmt 0 discriminator 1
	movq	-40(%rbp), %rax
	cmpq	-32(%rbp), %rax
	je	.L212
	.loc 16 211 42 discriminator 3
	movl	$1, %eax
	jmp	.L213
.L212:
	.loc 16 211 42 discriminator 4
	movl	$0, %eax
.L213:
	.loc 16 211 2 is_stmt 1 discriminator 6
	testb	%al, %al
	je	.L214
	.loc 16 212 28
	leaq	.LC11(%rip), %rcx
.LEHB72:
	call	_ZSt19__throw_logic_errorPKc
.L214:
	.loc 16 215 57
	movq	-32(%rbp), %rdx
	movq	-40(%rbp), %rax
	movq	%rax, %rcx
	call	_ZSt8distanceIPcENSt15iterator_traitsIT_E15difference_typeES2_S2_
	.loc 16 215 12
	movq	%rax, -88(%rbp)
	.loc 16 217 13
	movq	-88(%rbp), %rax
	.loc 16 217 2
	cmpq	$15, %rax
	jbe	.L215
	.loc 16 219 6
	leaq	-88(%rbp), %rax
	movl	$0, %r8d
	movq	%rax, %rdx
	movq	-48(%rbp), %rcx
	call	_ZNSt7__cxx1112basic_stringIcSt11char_traitsIcESaIcEE9_M_createERyy
	movq	%rax, %rdx
	movq	-48(%rbp), %rcx
	call	_ZNSt7__cxx1112basic_stringIcSt11char_traitsIcESaIcEE7_M_dataEPc
	.loc 16 220 6
	movq	-88(%rbp), %rax
	movq	%rax, %rdx
	movq	-48(%rbp), %rcx
	call	_ZNSt7__cxx1112basic_stringIcSt11char_traitsIcESaIcEE11_M_capacityEy
.LEHE72:
.L215:
	.loc 16 225 6
	movq	-48(%rbp), %rcx
.LEHB73:
	call	_ZNKSt7__cxx1112basic_stringIcSt11char_traitsIcESaIcEE7_M_dataEv
.LEHE73:
	movq	%rax, %rcx
	movq	-32(%rbp), %rdx
	movq	-40(%rbp), %rax
	movq	%rdx, %r8
	movq	%rax, %rdx
	call	_ZNSt7__cxx1112basic_stringIcSt11char_traitsIcESaIcEE13_S_copy_charsEPcS5_S5_
	.loc 16 232 2
	movq	-88(%rbp), %rax
	movq	%rax, %rdx
	movq	-48(%rbp), %rcx
.LEHB74:
	call	_ZNSt7__cxx1112basic_stringIcSt11char_traitsIcESaIcEE13_M_set_lengthEy
.LEHE74:
	.loc 16 233 7
	jmp	.L220
.L218:
	.loc 16 226 2
	movq	%rax, %rcx
	call	__cxa_begin_catch
	.loc 16 228 6
	movq	-48(%rbp), %rcx
.LEHB75:
	call	_ZNSt7__cxx1112basic_stringIcSt11char_traitsIcESaIcEE10_M_disposeEv
	.loc 16 229 6
	call	__cxa_rethrow
.LEHE75:
.L219:
	movq	%rax, %rbx
	.loc 16 226 2
	call	__cxa_end_catch
	movq	%rbx, %rax
	movq	%rax, %rcx
.LEHB76:
	call	_Unwind_Resume
	nop
.LEHE76:
.L220:
	.loc 16 233 7
	addq	$56, %rsp
	popq	%rbx
	.cfi_restore 3
	popq	%rbp
	.cfi_restore 6
	.cfi_def_cfa 7, -40
	ret
	.cfi_endproc
.LFE12128:
	.seh_handler	__gxx_personality_seh0, @unwind, @except
	.seh_handlerdata
	.align 4
.LLSDA12128:
	.byte	0xff
	.byte	0x9b
	.uleb128 .LLSDATT12128-.LLSDATTD12128
.LLSDATTD12128:
	.byte	0x1
	.uleb128 .LLSDACSE12128-.LLSDACSB12128
.LLSDACSB12128:
	.uleb128 .LEHB72-.LFB12128
	.uleb128 .LEHE72-.LEHB72
	.uleb128 0
	.uleb128 0
	.uleb128 .LEHB73-.LFB12128
	.uleb128 .LEHE73-.LEHB73
	.uleb128 .L218-.LFB12128
	.uleb128 0x1
	.uleb128 .LEHB74-.LFB12128
	.uleb128 .LEHE74-.LEHB74
	.uleb128 0
	.uleb128 0
	.uleb128 .LEHB75-.LFB12128
	.uleb128 .LEHE75-.LEHB75
	.uleb128 .L219-.LFB12128
	.uleb128 0
	.uleb128 .LEHB76-.LFB12128
	.uleb128 .LEHE76-.LEHB76
	.uleb128 0
	.uleb128 0
.LLSDACSE12128:
	.byte	0x1
	.byte	0
	.align 4
	.long	0

.LLSDATT12128:
	.section	.text$_ZNSt7__cxx1112basic_stringIcSt11char_traitsIcESaIcEE12_M_constructIPcEEvT_S7_St20forward_iterator_tag,"x"
	.linkonce discard
	.seh_endproc
	.section	.text$_ZN9__gnu_cxx17__is_null_pointerIcEEbPT_,"x"
	.linkonce discard
	.globl	_ZN9__gnu_cxx17__is_null_pointerIcEEbPT_
	.def	_ZN9__gnu_cxx17__is_null_pointerIcEEbPT_;	.scl	2;	.type	32;	.endef
	.seh_proc	_ZN9__gnu_cxx17__is_null_pointerIcEEbPT_
_ZN9__gnu_cxx17__is_null_pointerIcEEbPT_:
.LFB12158:
	.file 17 "C:/Program Files/CodeBlocks/MinGW/lib/gcc/x86_64-w64-mingw32/8.1.0/include/c++/ext/type_traits.h"
	.loc 17 152 5
	.cfi_startproc
	pushq	%rbp
	.seh_pushreg	%rbp
	.cfi_def_cfa_offset 16
	.cfi_offset 6, -16
	movq	%rsp, %rbp
	.seh_setframe	%rbp, 0
	.cfi_def_cfa_register 6
	.seh_endprologue
	movq	%rcx, 16(%rbp)
	.loc 17 153 23
	cmpq	$0, 16(%rbp)
	sete	%al
	.loc 17 153 26
	popq	%rbp
	.cfi_restore 6
	.cfi_def_cfa 7, 8
	ret
	.cfi_endproc
.LFE12158:
	.seh_endproc
	.section	.text$_ZSt19__iterator_categoryIPcENSt15iterator_traitsIT_E17iterator_categoryERKS2_,"x"
	.linkonce discard
	.globl	_ZSt19__iterator_categoryIPcENSt15iterator_traitsIT_E17iterator_categoryERKS2_
	.def	_ZSt19__iterator_categoryIPcENSt15iterator_traitsIT_E17iterator_categoryERKS2_;	.scl	2;	.type	32;	.endef
	.seh_proc	_ZSt19__iterator_categoryIPcENSt15iterator_traitsIT_E17iterator_categoryERKS2_
_ZSt19__iterator_categoryIPcENSt15iterator_traitsIT_E17iterator_categoryERKS2_:
.LFB12160:
	.file 18 "C:/Program Files/CodeBlocks/MinGW/lib/gcc/x86_64-w64-mingw32/8.1.0/include/c++/bits/stl_iterator_base_types.h"
	.loc 18 205 5
	.cfi_startproc
	pushq	%rbp
	.seh_pushreg	%rbp
	.cfi_def_cfa_offset 16
	.cfi_offset 6, -16
	movq	%rsp, %rbp
	.seh_setframe	%rbp, 0
	.cfi_def_cfa_register 6
	.seh_endprologue
	movq	%rcx, 16(%rbp)
	.loc 18 206 68
	popq	%rbp
	.cfi_restore 6
	.cfi_def_cfa 7, 8
	ret
	.cfi_endproc
.LFE12160:
	.seh_endproc
	.section	.text$_ZSt8distanceIPcENSt15iterator_traitsIT_E15difference_typeES2_S2_,"x"
	.linkonce discard
	.globl	_ZSt8distanceIPcENSt15iterator_traitsIT_E15difference_typeES2_S2_
	.def	_ZSt8distanceIPcENSt15iterator_traitsIT_E15difference_typeES2_S2_;	.scl	2;	.type	32;	.endef
	.seh_proc	_ZSt8distanceIPcENSt15iterator_traitsIT_E15difference_typeES2_S2_
_ZSt8distanceIPcENSt15iterator_traitsIT_E15difference_typeES2_S2_:
.LFB12159:
	.file 19 "C:/Program Files/CodeBlocks/MinGW/lib/gcc/x86_64-w64-mingw32/8.1.0/include/c++/bits/stl_iterator_base_funcs.h"
	.loc 19 138 5
	.cfi_startproc
	pushq	%rbp
	.seh_pushreg	%rbp
	.cfi_def_cfa_offset 16
	.cfi_offset 6, -16
	pushq	%rbx
	.seh_pushreg	%rbx
	.cfi_def_cfa_offset 24
	.cfi_offset 3, -24
	subq	$56, %rsp
	.seh_stackalloc	56
	.cfi_def_cfa_offset 80
	leaq	128(%rsp), %rbp
	.seh_setframe	%rbp, 128
	.cfi_def_cfa 6, -48
	.seh_endprologue
	movq	%rcx, -48(%rbp)
	movq	%rdx, -40(%rbp)
	.loc 19 142 33
	leaq	-48(%rbp), %rcx
	call	_ZSt19__iterator_categoryIPcENSt15iterator_traitsIT_E17iterator_categoryERKS2_
	.loc 19 141 29
	movq	-48(%rbp), %rax
	movq	-40(%rbp), %rdx
	movl	%ebx, %r8d
	movq	%rax, %rcx
	call	_ZSt10__distanceIPcENSt15iterator_traitsIT_E15difference_typeES2_S2_St26random_access_iterator_tag
	.loc 19 142 42
	nop
	.loc 19 143 5
	addq	$56, %rsp
	popq	%rbx
	.cfi_restore 3
	popq	%rbp
	.cfi_restore 6
	.cfi_def_cfa 7, -40
	ret
	.cfi_endproc
.LFE12159:
	.seh_endproc
	.section	.text$_ZSt10__distanceIPcENSt15iterator_traitsIT_E15difference_typeES2_S2_St26random_access_iterator_tag,"x"
	.linkonce discard
	.globl	_ZSt10__distanceIPcENSt15iterator_traitsIT_E15difference_typeES2_S2_St26random_access_iterator_tag
	.def	_ZSt10__distanceIPcENSt15iterator_traitsIT_E15difference_typeES2_S2_St26random_access_iterator_tag;	.scl	2;	.type	32;	.endef
	.seh_proc	_ZSt10__distanceIPcENSt15iterator_traitsIT_E15difference_typeES2_S2_St26random_access_iterator_tag
_ZSt10__distanceIPcENSt15iterator_traitsIT_E15difference_typeES2_S2_St26random_access_iterator_tag:
.LFB12188:
	.loc 19 98 5
	.cfi_startproc
	pushq	%rbp
	.seh_pushreg	%rbp
	.cfi_def_cfa_offset 16
	.cfi_offset 6, -16
	movq	%rsp, %rbp
	.seh_setframe	%rbp, 0
	.cfi_def_cfa_register 6
	.seh_endprologue
	movq	%rcx, 16(%rbp)
	movq	%rdx, 24(%rbp)
	movb	%r8b, 32(%rbp)
	.loc 19 104 23
	movq	24(%rbp), %rax
	subq	16(%rbp), %rax
	.loc 19 105 5
	popq	%rbp
	.cfi_restore 6
	.cfi_def_cfa 7, 8
	ret
	.cfi_endproc
.LFE12188:
	.seh_endproc
	.globl	_ZTV15GeradorTabularD
	.section	.rdata$_ZTV15GeradorTabularD,"dr"
	.linkonce same_size
	.align 8
_ZTV15GeradorTabularD:
	.quad	0
	.quad	_ZTI15GeradorTabularD
	.quad	_ZN15GeradorTabularD11gerarTabelaEP21CalculadorAtmosfericod15TIPO_TRAJETORIAdd
	.globl	_ZTV20wxObjectEventFunctor
	.section	.rdata$_ZTV20wxObjectEventFunctor,"dr"
	.linkonce same_size
	.align 8
_ZTV20wxObjectEventFunctor:
	.quad	0
	.quad	_ZTI20wxObjectEventFunctor
	.quad	_ZN20wxObjectEventFunctorD1Ev
	.quad	_ZN20wxObjectEventFunctorD0Ev
	.quad	_ZN20wxObjectEventFunctorclEP12wxEvtHandlerR7wxEvent
	.quad	_ZNK20wxObjectEventFunctor10IsMatchingERK14wxEventFunctor
	.quad	_ZNK20wxObjectEventFunctor13GetEvtHandlerEv
	.quad	_ZNK20wxObjectEventFunctor12GetEvtMethodEv
	.section	.text$_ZN20wxObjectEventFunctorD1Ev,"x"
	.linkonce discard
	.align 2
	.globl	_ZN20wxObjectEventFunctorD1Ev
	.def	_ZN20wxObjectEventFunctorD1Ev;	.scl	2;	.type	32;	.endef
	.seh_proc	_ZN20wxObjectEventFunctorD1Ev
_ZN20wxObjectEventFunctorD1Ev:
.LFB12213:
	.loc 11 240 7
	.cfi_startproc
	pushq	%rbp
	.seh_pushreg	%rbp
	.cfi_def_cfa_offset 16
	.cfi_offset 6, -16
	movq	%rsp, %rbp
	.seh_setframe	%rbp, 0
	.cfi_def_cfa_register 6
	subq	$32, %rsp
	.seh_stackalloc	32
	.seh_endprologue
	movq	%rcx, 16(%rbp)
.LBB39:
	.loc 11 240 7
	leaq	16+_ZTV20wxObjectEventFunctor(%rip), %rdx
	movq	16(%rbp), %rax
	movq	%rdx, (%rax)
	movq	16(%rbp), %rax
	movq	%rax, %rcx
	call	_ZN14wxEventFunctorD2Ev
.LBE39:
	nop
	addq	$32, %rsp
	popq	%rbp
	.cfi_restore 6
	.cfi_def_cfa 7, 8
	ret
	.cfi_endproc
.LFE12213:
	.seh_endproc
	.section	.text$_ZN20wxObjectEventFunctorD0Ev,"x"
	.linkonce discard
	.align 2
	.globl	_ZN20wxObjectEventFunctorD0Ev
	.def	_ZN20wxObjectEventFunctorD0Ev;	.scl	2;	.type	32;	.endef
	.seh_proc	_ZN20wxObjectEventFunctorD0Ev
_ZN20wxObjectEventFunctorD0Ev:
.LFB12214:
	.loc 11 240 7
	.cfi_startproc
	pushq	%rbp
	.seh_pushreg	%rbp
	.cfi_def_cfa_offset 16
	.cfi_offset 6, -16
	movq	%rsp, %rbp
	.seh_setframe	%rbp, 0
	.cfi_def_cfa_register 6
	subq	$32, %rsp
	.seh_stackalloc	32
	.seh_endprologue
	movq	%rcx, 16(%rbp)
	.loc 11 240 7
	movq	16(%rbp), %rcx
	call	_ZN20wxObjectEventFunctorD1Ev
	movq	16(%rbp), %rcx
	call	_ZdlPv
	nop
	addq	$32, %rsp
	popq	%rbp
	.cfi_restore 6
	.cfi_def_cfa 7, 8
	ret
	.cfi_endproc
.LFE12214:
	.seh_endproc
	.globl	_ZTV20wxThreadHelperThread
	.section	.rdata$_ZTV20wxThreadHelperThread,"dr"
	.linkonce same_size
	.align 8
_ZTV20wxThreadHelperThread:
	.quad	0
	.quad	_ZTI20wxThreadHelperThread
	.quad	_ZN8wxThread11TestDestroyEv
	.quad	_ZN20wxThreadHelperThreadD1Ev
	.quad	_ZN20wxThreadHelperThreadD0Ev
	.quad	_ZN20wxThreadHelperThread5EntryEv
	.quad	_ZN8wxThread8OnDeleteEv
	.quad	_ZN8wxThread6OnKillEv
	.quad	_ZN8wxThread6OnExitEv
	.section	.text$_ZN20wxThreadHelperThreadD1Ev,"x"
	.linkonce discard
	.align 2
	.globl	_ZN20wxThreadHelperThreadD1Ev
	.def	_ZN20wxThreadHelperThreadD1Ev;	.scl	2;	.type	32;	.endef
	.seh_proc	_ZN20wxThreadHelperThreadD1Ev
_ZN20wxThreadHelperThreadD1Ev:
.LFB12225:
	.loc 9 663 7
	.cfi_startproc
	pushq	%rbp
	.seh_pushreg	%rbp
	.cfi_def_cfa_offset 16
	.cfi_offset 6, -16
	movq	%rsp, %rbp
	.seh_setframe	%rbp, 0
	.cfi_def_cfa_register 6
	subq	$32, %rsp
	.seh_stackalloc	32
	.seh_endprologue
	movq	%rcx, 16(%rbp)
.LBB40:
	.loc 9 663 7
	leaq	16+_ZTV20wxThreadHelperThread(%rip), %rdx
	movq	16(%rbp), %rax
	movq	%rdx, (%rax)
	movq	16(%rbp), %rax
	movq	%rax, %rcx
	call	_ZN8wxThreadD2Ev
.LBE40:
	nop
	addq	$32, %rsp
	popq	%rbp
	.cfi_restore 6
	.cfi_def_cfa 7, 8
	ret
	.cfi_endproc
.LFE12225:
	.seh_endproc
	.section	.text$_ZN20wxThreadHelperThreadD0Ev,"x"
	.linkonce discard
	.align 2
	.globl	_ZN20wxThreadHelperThreadD0Ev
	.def	_ZN20wxThreadHelperThreadD0Ev;	.scl	2;	.type	32;	.endef
	.seh_proc	_ZN20wxThreadHelperThreadD0Ev
_ZN20wxThreadHelperThreadD0Ev:
.LFB12226:
	.loc 9 663 7
	.cfi_startproc
	pushq	%rbp
	.seh_pushreg	%rbp
	.cfi_def_cfa_offset 16
	.cfi_offset 6, -16
	movq	%rsp, %rbp
	.seh_setframe	%rbp, 0
	.cfi_def_cfa_register 6
	subq	$32, %rsp
	.seh_stackalloc	32
	.seh_endprologue
	movq	%rcx, 16(%rbp)
	.loc 9 663 7
	movq	16(%rbp), %rcx
	call	_ZN20wxThreadHelperThreadD1Ev
	movq	16(%rbp), %rcx
	call	_ZdlPv
	nop
	addq	$32, %rsp
	popq	%rbp
	.cfi_restore 6
	.cfi_def_cfa 7, 8
	ret
	.cfi_endproc
.LFE12226:
	.seh_endproc
	.globl	_ZTI15GeradorTabularD
	.section	.rdata$_ZTI15GeradorTabularD,"dr"
	.linkonce same_size
	.align 8
_ZTI15GeradorTabularD:
	.quad	_ZTVN10__cxxabiv120__si_class_type_infoE+16
	.quad	_ZTS15GeradorTabularD
	.quad	_ZTI14GeradorTabular
	.globl	_ZTS15GeradorTabularD
	.section	.rdata$_ZTS15GeradorTabularD,"dr"
	.linkonce same_size
	.align 16
_ZTS15GeradorTabularD:
	.ascii "15GeradorTabularD\0"
	.globl	_ZTI14GeradorTabular
	.section	.rdata$_ZTI14GeradorTabular,"dr"
	.linkonce same_size
	.align 8
_ZTI14GeradorTabular:
	.quad	_ZTVN10__cxxabiv117__class_type_infoE+16
	.quad	_ZTS14GeradorTabular
	.globl	_ZTS14GeradorTabular
	.section	.rdata$_ZTS14GeradorTabular,"dr"
	.linkonce same_size
	.align 16
_ZTS14GeradorTabular:
	.ascii "14GeradorTabular\0"
	.globl	_ZTI20wxObjectEventFunctor
	.section	.rdata$_ZTI20wxObjectEventFunctor,"dr"
	.linkonce same_size
	.align 8
_ZTI20wxObjectEventFunctor:
	.quad	_ZTVN10__cxxabiv120__si_class_type_infoE+16
	.quad	_ZTS20wxObjectEventFunctor
	.quad	_ZTI14wxEventFunctor
	.globl	_ZTS20wxObjectEventFunctor
	.section	.rdata$_ZTS20wxObjectEventFunctor,"dr"
	.linkonce same_size
	.align 16
_ZTS20wxObjectEventFunctor:
	.ascii "20wxObjectEventFunctor\0"
	.globl	_ZTI14wxEventFunctor
	.section	.rdata$_ZTI14wxEventFunctor,"dr"
	.linkonce same_size
	.align 8
_ZTI14wxEventFunctor:
	.quad	_ZTVN10__cxxabiv117__class_type_infoE+16
	.quad	_ZTS14wxEventFunctor
	.globl	_ZTS14wxEventFunctor
	.section	.rdata$_ZTS14wxEventFunctor,"dr"
	.linkonce same_size
	.align 16
_ZTS14wxEventFunctor:
	.ascii "14wxEventFunctor\0"
	.globl	_ZTI20wxThreadHelperThread
	.section	.rdata$_ZTI20wxThreadHelperThread,"dr"
	.linkonce same_size
	.align 8
_ZTI20wxThreadHelperThread:
	.quad	_ZTVN10__cxxabiv120__si_class_type_infoE+16
	.quad	_ZTS20wxThreadHelperThread
	.quad	_ZTI8wxThread
	.globl	_ZTS20wxThreadHelperThread
	.section	.rdata$_ZTS20wxThreadHelperThread,"dr"
	.linkonce same_size
	.align 16
_ZTS20wxThreadHelperThread:
	.ascii "20wxThreadHelperThread\0"
	.globl	_ZTI8wxThread
	.section	.rdata$_ZTI8wxThread,"dr"
	.linkonce same_size
	.align 8
_ZTI8wxThread:
	.quad	_ZTVN10__cxxabiv117__class_type_infoE+16
	.quad	_ZTS8wxThread
	.globl	_ZTS8wxThread
	.section	.rdata$_ZTS8wxThread,"dr"
	.linkonce same_size
	.align 8
_ZTS8wxThread:
	.ascii "8wxThread\0"
	.text
	.def	__tcf_0;	.scl	3;	.type	32;	.endef
	.seh_proc	__tcf_0
__tcf_0:
.LFB12248:
	.file 20 "C:/Program Files/CodeBlocks/MinGW/lib/gcc/x86_64-w64-mingw32/8.1.0/include/c++/iostream"
	.loc 20 74 25
	.cfi_startproc
	pushq	%rbp
	.seh_pushreg	%rbp
	.cfi_def_cfa_offset 16
	.cfi_offset 6, -16
	movq	%rsp, %rbp
	.seh_setframe	%rbp, 0
	.cfi_def_cfa_register 6
	subq	$32, %rsp
	.seh_stackalloc	32
	.seh_endprologue
	.loc 20 74 25
	leaq	_ZStL8__ioinit(%rip), %rcx
	call	_ZNSt8ios_base4InitD1Ev
	nop
	addq	$32, %rsp
	popq	%rbp
	.cfi_restore 6
	.cfi_def_cfa 7, 8
	ret
	.cfi_endproc
.LFE12248:
	.seh_endproc
	.def	_Z41__static_initialization_and_destruction_0ii;	.scl	3;	.type	32;	.endef
	.seh_proc	_Z41__static_initialization_and_destruction_0ii
_Z41__static_initialization_and_destruction_0ii:
.LFB12247:
	.loc 12 64 1
	.cfi_startproc
	pushq	%rbp
	.seh_pushreg	%rbp
	.cfi_def_cfa_offset 16
	.cfi_offset 6, -16
	movq	%rsp, %rbp
	.seh_setframe	%rbp, 0
	.cfi_def_cfa_register 6
	subq	$32, %rsp
	.seh_stackalloc	32
	.seh_endprologue
	movl	%ecx, 16(%rbp)
	movl	%edx, 24(%rbp)
	.loc 12 64 1
	cmpl	$1, 16(%rbp)
	jne	.L236
	.loc 12 64 1 is_stmt 0 discriminator 1
	cmpl	$65535, 24(%rbp)
	jne	.L236
	.loc 20 74 25 is_stmt 1
	leaq	_ZStL8__ioinit(%rip), %rcx
	call	_ZNSt8ios_base4InitC1Ev
	leaq	__tcf_0(%rip), %rcx
	call	atexit
.L236:
	.loc 12 64 1
	nop
	addq	$32, %rsp
	popq	%rbp
	.cfi_restore 6
	.cfi_def_cfa 7, 8
	ret
	.cfi_endproc
.LFE12247:
	.seh_endproc
	.def	_GLOBAL__sub_I__ZN15GeradorTabularDC2EP10wxTextCtrl;	.scl	3;	.type	32;	.endef
	.seh_proc	_GLOBAL__sub_I__ZN15GeradorTabularDC2EP10wxTextCtrl
_GLOBAL__sub_I__ZN15GeradorTabularDC2EP10wxTextCtrl:
.LFB12319:
	.loc 12 64 1
	.cfi_startproc
	pushq	%rbp
	.seh_pushreg	%rbp
	.cfi_def_cfa_offset 16
	.cfi_offset 6, -16
	movq	%rsp, %rbp
	.seh_setframe	%rbp, 0
	.cfi_def_cfa_register 6
	subq	$32, %rsp
	.seh_stackalloc	32
	.seh_endprologue
	.loc 12 64 1
	movl	$65535, %edx
	movl	$1, %ecx
	call	_Z41__static_initialization_and_destruction_0ii
	nop
	addq	$32, %rsp
	popq	%rbp
	.cfi_restore 6
	.cfi_def_cfa 7, 8
	ret
	.cfi_endproc
.LFE12319:
	.seh_endproc
	.section	.ctors,"w"
	.align 8
	.quad	_GLOBAL__sub_I__ZN15GeradorTabularDC2EP10wxTextCtrl
	.section .rdata,"dr"
	.align 8
.LC8:
	.long	0
	.long	1072693248
	.align 8
.LC9:
	.long	0
	.long	1079574528
	.text
.Letext0:
	.file 21 "C:/Program Files/CodeBlocks/MinGW/lib/gcc/x86_64-w64-mingw32/8.1.0/include/c++/bits/stringfwd.h"
	.file 22 "C:/Program Files/CodeBlocks/MinGW/lib/gcc/x86_64-w64-mingw32/8.1.0/include/c++/type_traits"
	.file 23 "C:/Program Files/CodeBlocks/MinGW/lib/gcc/x86_64-w64-mingw32/8.1.0/include/c++/bits/stl_pair.h"
	.file 24 "C:/Program Files/CodeBlocks/MinGW/lib/gcc/x86_64-w64-mingw32/8.1.0/include/c++/bits/cpp_type_traits.h"
	.file 25 "C:/Program Files/CodeBlocks/MinGW/lib/gcc/x86_64-w64-mingw32/8.1.0/include/c++/debug/debug.h"
	.file 26 "C:/Program Files/CodeBlocks/MinGW/lib/gcc/x86_64-w64-mingw32/8.1.0/include/c++/bits/exception_ptr.h"
	.file 27 "C:/Program Files/CodeBlocks/MinGW/lib/gcc/x86_64-w64-mingw32/8.1.0/include/c++/x86_64-w64-mingw32/bits/c++config.h"
	.file 28 "C:/Program Files/CodeBlocks/MinGW/lib/gcc/x86_64-w64-mingw32/8.1.0/include/c++/new"
	.file 29 "C:/Program Files/CodeBlocks/MinGW/lib/gcc/x86_64-w64-mingw32/8.1.0/include/c++/bits/allocator.h"
	.file 30 "C:/Program Files/CodeBlocks/MinGW/lib/gcc/x86_64-w64-mingw32/8.1.0/include/c++/cwchar"
	.file 31 "C:/Program Files/CodeBlocks/MinGW/lib/gcc/x86_64-w64-mingw32/8.1.0/include/c++/bits/char_traits.h"
	.file 32 "C:/Program Files/CodeBlocks/MinGW/lib/gcc/x86_64-w64-mingw32/8.1.0/include/c++/cstdint"
	.file 33 "C:/Program Files/CodeBlocks/MinGW/lib/gcc/x86_64-w64-mingw32/8.1.0/include/c++/clocale"
	.file 34 "C:/Program Files/CodeBlocks/MinGW/lib/gcc/x86_64-w64-mingw32/8.1.0/include/c++/cstdlib"
	.file 35 "C:/Program Files/CodeBlocks/MinGW/lib/gcc/x86_64-w64-mingw32/8.1.0/include/c++/cstdio"
	.file 36 "C:/Program Files/CodeBlocks/MinGW/lib/gcc/x86_64-w64-mingw32/8.1.0/include/c++/bits/alloc_traits.h"
	.file 37 "C:/Program Files/CodeBlocks/MinGW/lib/gcc/x86_64-w64-mingw32/8.1.0/include/c++/initializer_list"
	.file 38 "C:/Program Files/CodeBlocks/MinGW/lib/gcc/x86_64-w64-mingw32/8.1.0/include/c++/bits/stl_list.h"
	.file 39 "C:/Program Files/CodeBlocks/MinGW/lib/gcc/x86_64-w64-mingw32/8.1.0/include/c++/bits/std_abs.h"
	.file 40 "C:/Program Files/CodeBlocks/MinGW/lib/gcc/x86_64-w64-mingw32/8.1.0/include/c++/cmath"
	.file 41 "C:/Program Files/CodeBlocks/MinGW/lib/gcc/x86_64-w64-mingw32/8.1.0/include/c++/system_error"
	.file 42 "C:/Program Files/CodeBlocks/MinGW/lib/gcc/x86_64-w64-mingw32/8.1.0/include/c++/cwctype"
	.file 43 "C:/Program Files/CodeBlocks/MinGW/lib/gcc/x86_64-w64-mingw32/8.1.0/include/c++/iosfwd"
	.file 44 "C:/Program Files/CodeBlocks/MinGW/lib/gcc/x86_64-w64-mingw32/8.1.0/include/c++/bits/uses_allocator.h"
	.file 45 "C:/Program Files/CodeBlocks/MinGW/lib/gcc/x86_64-w64-mingw32/8.1.0/include/c++/tuple"
	.file 46 "C:/Program Files/CodeBlocks/MinGW/lib/gcc/x86_64-w64-mingw32/8.1.0/include/c++/bits/postypes.h"
	.file 47 "C:/Program Files/CodeBlocks/MinGW/lib/gcc/x86_64-w64-mingw32/8.1.0/include/c++/bits/predefined_ops.h"
	.file 48 "C:/Program Files/CodeBlocks/MinGW/lib/gcc/x86_64-w64-mingw32/8.1.0/include/c++/ext/new_allocator.h"
	.file 49 "C:/Program Files/CodeBlocks/MinGW/lib/gcc/x86_64-w64-mingw32/8.1.0/include/c++/ext/numeric_traits.h"
	.file 50 "C:/Program Files/CodeBlocks/MinGW/lib/gcc/x86_64-w64-mingw32/8.1.0/include/c++/ext/alloc_traits.h"
	.file 51 "C:/Program Files/CodeBlocks/MinGW/lib/gcc/x86_64-w64-mingw32/8.1.0/include/c++/bits/stl_iterator.h"
	.file 52 "C:/Program Files/CodeBlocks/MinGW/x86_64-w64-mingw32/include/vadefs.h"
	.file 53 "C:/Program Files/CodeBlocks/MinGW/x86_64-w64-mingw32/include/crtdefs.h"
	.file 54 "C:/Program Files/CodeBlocks/MinGW/x86_64-w64-mingw32/include/locale.h"
	.file 55 "C:/Program Files/CodeBlocks/MinGW/x86_64-w64-mingw32/include/wchar.h"
	.file 56 "C:/Program Files/CodeBlocks/MinGW/x86_64-w64-mingw32/include/swprintf.inl"
	.file 57 "C:/Program Files/CodeBlocks/MinGW/x86_64-w64-mingw32/include/stdint.h"
	.file 58 "C:/Program Files/CodeBlocks/MinGW/x86_64-w64-mingw32/include/ctype.h"
	.file 59 "C:/Program Files/CodeBlocks/MinGW/x86_64-w64-mingw32/include/process.h"
	.file 60 "C:/Program Files/CodeBlocks/MinGW/x86_64-w64-mingw32/include/pthread.h"
	.file 61 "C:/Program Files/CodeBlocks/MinGW/lib/gcc/x86_64-w64-mingw32/8.1.0/include/c++/x86_64-w64-mingw32/bits/atomic_word.h"
	.file 62 "C:/Program Files/CodeBlocks/MinGW/x86_64-w64-mingw32/include/stdlib.h"
	.file 63 "C:/Program Files/CodeBlocks/MinGW/x86_64-w64-mingw32/include/malloc.h"
	.file 64 "../../CalculadorNumerico/calculador/../padroes/observable.h"
	.file 65 "../../CalculadorNumerico/calculador/../projetil/projetil.h"
	.file 66 "C:/Program Files/CodeBlocks/MinGW/lib/gcc/x86_64-w64-mingw32/8.1.0/include/c++/stdlib.h"
	.file 67 "../wxMSW-3.0.5_gcc810_x64_Dev/include/wx/chartype.h"
	.file 68 "../wxMSW-3.0.5_gcc810_x64_Dev/include/wx/debug.h"
	.file 69 "../wxMSW-3.0.5_gcc810_x64_Dev/include/wx/defs.h"
	.file 70 "C:/Program Files/CodeBlocks/MinGW/x86_64-w64-mingw32/include/wctype.h"
	.file 71 "C:/Program Files/CodeBlocks/MinGW/x86_64-w64-mingw32/include/time.h"
	.file 72 "../wxMSW-3.0.5_gcc810_x64_Dev/include/wx/fontenc.h"
	.file 73 "../wxMSW-3.0.5_gcc810_x64_Dev/include/wx/stringimpl.h"
	.file 74 "../wxMSW-3.0.5_gcc810_x64_Dev/include/wx/unichar.h"
	.file 75 "../wxMSW-3.0.5_gcc810_x64_Dev/include/wx/strvararg.h"
	.file 76 "../wxMSW-3.0.5_gcc810_x64_Dev/include/wx/rtti.h"
	.file 77 "../wxMSW-3.0.5_gcc810_x64_Dev/include/wx/object.h"
	.file 78 "../wxMSW-3.0.5_gcc810_x64_Dev/include/wx/hashmap.h"
	.file 79 "../wxMSW-3.0.5_gcc810_x64_Dev/include/wx/list.h"
	.file 80 "C:/Program Files/CodeBlocks/MinGW/x86_64-w64-mingw32/include/math.h"
	.file 81 "C:/Program Files/CodeBlocks/MinGW/lib/gcc/x86_64-w64-mingw32/8.1.0/include/c++/math.h"
	.file 82 "../wxMSW-3.0.5_gcc810_x64_Dev/include/wx/gdicmn.h"
	.file 83 "../wxMSW-3.0.5_gcc810_x64_Dev/include/wx/msw/gdiimage.h"
	.file 84 "../wxMSW-3.0.5_gcc810_x64_Dev/include/wx/filefn.h"
	.file 85 "../wxMSW-3.0.5_gcc810_x64_Dev/include/wx/longlong.h"
	.file 86 "../wxMSW-3.0.5_gcc810_x64_Dev/include/wx/window.h"
	.file 87 "../wxMSW-3.0.5_gcc810_x64_Dev/include/wx/utils.h"
	.file 88 "../wxMSW-3.0.5_gcc810_x64_Dev/include/wx/any.h"
	.file 89 "../wxMSW-3.0.5_gcc810_x64_Dev/include/wx/anystr.h"
	.file 90 "../wxMSW-3.0.5_gcc810_x64_Dev/include/wx/datetime.h"
	.file 91 "../wxMSW-3.0.5_gcc810_x64_Dev/include/wx/variant.h"
	.file 92 "../wxMSW-3.0.5_gcc810_x64_Dev/include/wx/font.h"
	.file 93 "../wxMSW-3.0.5_gcc810_x64_Dev/include/wx/colour.h"
	.file 94 "../wxMSW-3.0.5_gcc810_x64_Dev/include/wx/validate.h"
	.file 95 "../wxMSW-3.0.5_gcc810_x64_Dev/include/wx/accel.h"
	.file 96 "../wxMSW-3.0.5_gcc810_x64_Dev/include/wx/control.h"
	.file 97 "../wxMSW-3.0.5_gcc810_x64_Dev/include/wx/msw/textentry.h"
	.file 98 "../wxMSW-3.0.5_gcc810_x64_Dev/include/wx/textctrl.h"
	.file 99 "C:/temp/ballisticKernelCpp/interfaceGrafica/calculadorBalisiticaGraficoWindows/tabelaDialog/geradorTabularD.h"
	.file 100 "C:/temp/ballisticKernelCpp/interfaceGrafica/calculadorBalisiticaGraficoWindows/tabelaDialog/geradorTabular.h"
	.file 101 "<built-in>"
	.file 102 "../../CalculadorNumerico/calculador/calculador.h"