	.file	"geradorTabularF.cpp"
	.text
.Ltext0:
	.cfi_sections	.debug_frame
	.section .rdata,"dr"
_ZStL19piecewise_construct:
	.space 1
	.section	.text$_ZNKSt9type_info4nameEv,"x"
	.linkonce discard
	.align 2
	.globl	_ZNKSt9type_info4nameEv
	.def	_ZNKSt9type_info4nameEv;	.scl	2;	.type	32;	.endef
	.seh_proc	_ZNKSt9type_info4nameEv
_ZNKSt9type_info4nameEv:
.LFB310:
	.file 1 "C:/Program Files/CodeBlocks/MinGW/lib/gcc/x86_64-w64-mingw32/8.1.0/include/c++/typeinfo"
	.loc 1 99 17
	.cfi_startproc
	pushq	%rbp
	.seh_pushreg	%rbp
	.cfi_def_cfa_offset 16
	.cfi_offset 6, -16
	movq	%rsp, %rbp
	.seh_setframe	%rbp, 0
	.cfi_def_cfa_register 6
	.seh_endprologue
	movq	%rcx, 16(%rbp)
	.loc 1 100 14
	movq	16(%rbp), %rax
	movq	8(%rax), %rax
	.loc 1 100 22
	movzbl	(%rax), %eax
	.loc 1 100 31
	cmpb	$42, %al
	jne	.L2
	.loc 1 100 33 discriminator 1
	movq	16(%rbp), %rax
	movq	8(%rax), %rax
	.loc 1 100 31 discriminator 1
	addq	$1, %rax
	.loc 1 100 46 discriminator 1
	jmp	.L4
.L2:
	.loc 1 100 31 discriminator 2
	movq	16(%rbp), %rax
	movq	8(%rax), %rax
.L4:
	.loc 1 100 54 discriminator 5
	popq	%rbp
	.cfi_restore 6
	.cfi_def_cfa 7, 8
	ret
	.cfi_endproc
.LFE310:
	.seh_endproc
	.section	.text$_ZN10BaseObjectD2Ev,"x"
	.linkonce discard
	.align 2
	.globl	_ZN10BaseObjectD2Ev
	.def	_ZN10BaseObjectD2Ev;	.scl	2;	.type	32;	.endef
	.seh_proc	_ZN10BaseObjectD2Ev
_ZN10BaseObjectD2Ev:
.LFB1349:
	.file 2 "../../CalculadorNumerico/calculador/../padroes/baseobject.h"
	.loc 2 8 17
	.cfi_startproc
	pushq	%rbp
	.seh_pushreg	%rbp
	.cfi_def_cfa_offset 16
	.cfi_offset 6, -16
	movq	%rsp, %rbp
	.seh_setframe	%rbp, 0
	.cfi_def_cfa_register 6
	.seh_endprologue
	movq	%rcx, 16(%rbp)
.LBB2:
	.loc 2 8 31
	leaq	16+_ZTV10BaseObject(%rip), %rdx
	movq	16(%rbp), %rax
	movq	%rdx, (%rax)
.LBE2:
	.loc 2 8 32
	nop
	popq	%rbp
	.cfi_restore 6
	.cfi_def_cfa 7, 8
	ret
	.cfi_endproc
.LFE1349:
	.seh_endproc
	.section	.text$_ZN10BaseObjectD1Ev,"x"
	.linkonce discard
	.align 2
	.globl	_ZN10BaseObjectD1Ev
	.def	_ZN10BaseObjectD1Ev;	.scl	2;	.type	32;	.endef
	.seh_proc	_ZN10BaseObjectD1Ev
_ZN10BaseObjectD1Ev:
.LFB1350:
	.loc 2 8 17
	.cfi_startproc
	pushq	%rbp
	.seh_pushreg	%rbp
	.cfi_def_cfa_offset 16
	.cfi_offset 6, -16
	movq	%rsp, %rbp
	.seh_setframe	%rbp, 0
	.cfi_def_cfa_register 6
	.seh_endprologue
	movq	%rcx, 16(%rbp)
.LBB3:
	.loc 2 8 31
	leaq	16+_ZTV10BaseObject(%rip), %rdx
	movq	16(%rbp), %rax
	movq	%rdx, (%rax)
.LBE3:
	.loc 2 8 32
	nop
	popq	%rbp
	.cfi_restore 6
	.cfi_def_cfa 7, 8
	ret
	.cfi_endproc
.LFE1350:
	.seh_endproc
	.section	.text$_ZN10BaseObjectD0Ev,"x"
	.linkonce discard
	.align 2
	.globl	_ZN10BaseObjectD0Ev
	.def	_ZN10BaseObjectD0Ev;	.scl	2;	.type	32;	.endef
	.seh_proc	_ZN10BaseObjectD0Ev
_ZN10BaseObjectD0Ev:
.LFB1351:
	.loc 2 8 17
	.cfi_startproc
	pushq	%rbp
	.seh_pushreg	%rbp
	.cfi_def_cfa_offset 16
	.cfi_offset 6, -16
	movq	%rsp, %rbp
	.seh_setframe	%rbp, 0
	.cfi_def_cfa_register 6
	subq	$32, %rsp
	.seh_stackalloc	32
	.seh_endprologue
	movq	%rcx, 16(%rbp)
	.loc 2 8 32
	movq	16(%rbp), %rcx
	call	_ZN10BaseObjectD1Ev
	movq	16(%rbp), %rcx
	call	_ZdlPv
	nop
	addq	$32, %rsp
	popq	%rbp
	.cfi_restore 6
	.cfi_def_cfa 7, 8
	ret
	.cfi_endproc
.LFE1351:
	.seh_endproc
	.section	.text$_ZN16ElementosDisparo11getElevacaoEv,"x"
	.linkonce discard
	.align 2
	.globl	_ZN16ElementosDisparo11getElevacaoEv
	.def	_ZN16ElementosDisparo11getElevacaoEv;	.scl	2;	.type	32;	.endef
	.seh_proc	_ZN16ElementosDisparo11getElevacaoEv
_ZN16ElementosDisparo11getElevacaoEv:
.LFB1545:
	.file 3 "../../CalculadorNumerico/calculador/elementosdisparo.h"
	.loc 3 12 16
	.cfi_startproc
	pushq	%rbp
	.seh_pushreg	%rbp
	.cfi_def_cfa_offset 16
	.cfi_offset 6, -16
	movq	%rsp, %rbp
	.seh_setframe	%rbp, 0
	.cfi_def_cfa_register 6
	.seh_endprologue
	movq	%rcx, 16(%rbp)
	.loc 3 12 37
	movq	16(%rbp), %rax
	movsd	16(%rax), %xmm0
	movq	%xmm0, %rax
	.loc 3 12 46
	movq	%rax, %xmm0
	popq	%rbp
	.cfi_restore 6
	.cfi_def_cfa 7, 8
	ret
	.cfi_endproc
.LFE1545:
	.seh_endproc
	.section	.text$_ZN8Projetil13getMassaTotalEv,"x"
	.linkonce discard
	.align 2
	.globl	_ZN8Projetil13getMassaTotalEv
	.def	_ZN8Projetil13getMassaTotalEv;	.scl	2;	.type	32;	.endef
	.seh_proc	_ZN8Projetil13getMassaTotalEv
_ZN8Projetil13getMassaTotalEv:
.LFB1568:
	.file 4 "../../CalculadorNumerico/calculador/../projetil/projetil.h"
	.loc 4 20 16
	.cfi_startproc
	pushq	%rbp
	.seh_pushreg	%rbp
	.cfi_def_cfa_offset 16
	.cfi_offset 6, -16
	movq	%rsp, %rbp
	.seh_setframe	%rbp, 0
	.cfi_def_cfa_register 6
	.seh_endprologue
	movq	%rcx, 16(%rbp)
	.loc 4 20 39
	movq	16(%rbp), %rax
	movsd	96(%rax), %xmm1
	.loc 4 20 48
	movq	16(%rbp), %rax
	movsd	104(%rax), %xmm0
	.loc 4 20 67
	movq	16(%rbp), %rax
	movsd	112(%rax), %xmm2
	.loc 4 20 65
	subsd	%xmm2, %xmm0
	movapd	%xmm0, %xmm2
	.loc 4 20 85
	movq	16(%rbp), %rax
	movsd	120(%rax), %xmm0
	.loc 4 20 84
	mulsd	%xmm2, %xmm0
	.loc 4 20 85
	addsd	%xmm1, %xmm0
	movq	%xmm0, %rax
	.loc 4 20 100
	movq	%rax, %xmm0
	popq	%rbp
	.cfi_restore 6
	.cfi_def_cfa 7, 8
	ret
	.cfi_endproc
.LFE1568:
	.seh_endproc
	.section	.text$_ZN8Projetil18getQuadradosPadraoEv,"x"
	.linkonce discard
	.align 2
	.globl	_ZN8Projetil18getQuadradosPadraoEv
	.def	_ZN8Projetil18getQuadradosPadraoEv;	.scl	2;	.type	32;	.endef
	.seh_proc	_ZN8Projetil18getQuadradosPadraoEv
_ZN8Projetil18getQuadradosPadraoEv:
.LFB1570:
	.loc 4 22 16
	.cfi_startproc
	pushq	%rbp
	.seh_pushreg	%rbp
	.cfi_def_cfa_offset 16
	.cfi_offset 6, -16
	movq	%rsp, %rbp
	.seh_setframe	%rbp, 0
	.cfi_def_cfa_register 6
	.seh_endprologue
	movq	%rcx, 16(%rbp)
	.loc 4 22 44
	movq	16(%rbp), %rax
	movsd	112(%rax), %xmm0
	movq	%xmm0, %rax
	.loc 4 22 61
	movq	%rax, %xmm0
	popq	%rbp
	.cfi_restore 6
	.cfi_def_cfa 7, 8
	ret
	.cfi_endproc
.LFE1570:
	.seh_endproc
	.section	.text$_ZN21CalculadorAtmosferico13getMassaTotalEv,"x"
	.linkonce discard
	.align 2
	.globl	_ZN21CalculadorAtmosferico13getMassaTotalEv
	.def	_ZN21CalculadorAtmosferico13getMassaTotalEv;	.scl	2;	.type	32;	.endef
	.seh_proc	_ZN21CalculadorAtmosferico13getMassaTotalEv
_ZN21CalculadorAtmosferico13getMassaTotalEv:
.LFB1594:
	.file 5 "../../CalculadorNumerico/calculador/calculadorAtmosferico.h"
	.loc 5 29 16
	.cfi_startproc
	pushq	%rbp
	.seh_pushreg	%rbp
	.cfi_def_cfa_offset 16
	.cfi_offset 6, -16
	movq	%rsp, %rbp
	.seh_setframe	%rbp, 0
	.cfi_def_cfa_register 6
	subq	$32, %rsp
	.seh_stackalloc	32
	.seh_endprologue
	movq	%rcx, 16(%rbp)
	.loc 5 29 61
	movq	16(%rbp), %rax
	addq	$96, %rax
	movq	%rax, %rcx
	call	_ZN8Projetil13getMassaTotalEv
	movq	%xmm0, %rax
	.loc 5 29 64
	movq	%rax, %xmm0
	addq	$32, %rsp
	popq	%rbp
	.cfi_restore 6
	.cfi_def_cfa 7, 8
	ret
	.cfi_endproc
.LFE1594:
	.seh_endproc
	.section	.text$_ZN21CalculadorAtmosferico18getQuadradosPadraoEv,"x"
	.linkonce discard
	.align 2
	.globl	_ZN21CalculadorAtmosferico18getQuadradosPadraoEv
	.def	_ZN21CalculadorAtmosferico18getQuadradosPadraoEv;	.scl	2;	.type	32;	.endef
	.seh_proc	_ZN21CalculadorAtmosferico18getQuadradosPadraoEv
_ZN21CalculadorAtmosferico18getQuadradosPadraoEv:
.LFB1596:
	.loc 5 31 16
	.cfi_startproc
	pushq	%rbp
	.seh_pushreg	%rbp
	.cfi_def_cfa_offset 16
	.cfi_offset 6, -16
	movq	%rsp, %rbp
	.seh_setframe	%rbp, 0
	.cfi_def_cfa_register 6
	subq	$32, %rsp
	.seh_stackalloc	32
	.seh_endprologue
	movq	%rcx, 16(%rbp)
	.loc 5 31 71
	movq	16(%rbp), %rax
	addq	$96, %rax
	movq	%rax, %rcx
	call	_ZN8Projetil18getQuadradosPadraoEv
	movq	%xmm0, %rax
	.loc 5 31 74
	movq	%rax, %xmm0
	addq	$32, %rsp
	popq	%rbp
	.cfi_restore 6
	.cfi_def_cfa 7, 8
	ret
	.cfi_endproc
.LFE1596:
	.seh_endproc
	.section	.text$_ZN21CalculadorAtmosferico15setChecarLimiteEb,"x"
	.linkonce discard
	.align 2
	.globl	_ZN21CalculadorAtmosferico15setChecarLimiteEb
	.def	_ZN21CalculadorAtmosferico15setChecarLimiteEb;	.scl	2;	.type	32;	.endef
	.seh_proc	_ZN21CalculadorAtmosferico15setChecarLimiteEb
_ZN21CalculadorAtmosferico15setChecarLimiteEb:
.LFB1599:
	.loc 5 37 14
	.cfi_startproc
	pushq	%rbp
	.seh_pushreg	%rbp
	.cfi_def_cfa_offset 16
	.cfi_offset 6, -16
	movq	%rsp, %rbp
	.seh_setframe	%rbp, 0
	.cfi_def_cfa_register 6
	.seh_endprologue
	movq	%rcx, 16(%rbp)
	movl	%edx, %eax
	movb	%al, 24(%rbp)
	.loc 5 37 68
	movq	16(%rbp), %rdx
	movzbl	24(%rbp), %eax
	movb	%al, 298(%rdx)
	.loc 5 37 83
	nop
	popq	%rbp
	.cfi_restore 6
	.cfi_def_cfa 7, 8
	ret
	.cfi_endproc
.LFE1599:
	.seh_endproc
	.section	.text$_ZN9wxPrivate17UntypedBufferDataD2Ev,"x"
	.linkonce discard
	.align 2
	.globl	_ZN9wxPrivate17UntypedBufferDataD2Ev
	.def	_ZN9wxPrivate17UntypedBufferDataD2Ev;	.scl	2;	.type	32;	.endef
	.seh_proc	_ZN9wxPrivate17UntypedBufferDataD2Ev
_ZN9wxPrivate17UntypedBufferDataD2Ev:
.LFB1664:
	.file 6 "../wxMSW-3.0.5_gcc810_x64_Dev/include/wx/buffer.h"
	.loc 6 41 5
	.cfi_startproc
	pushq	%rbp
	.seh_pushreg	%rbp
	.cfi_def_cfa_offset 16
	.cfi_offset 6, -16
	movq	%rsp, %rbp
	.seh_setframe	%rbp, 0
	.cfi_def_cfa_register 6
	subq	$32, %rsp
	.seh_stackalloc	32
	.seh_endprologue
	movq	%rcx, 16(%rbp)
.LBB4:
	.loc 6 43 14
	movq	16(%rbp), %rax
	movzbl	18(%rax), %eax
	.loc 6 43 9
	testb	%al, %al
	je	.L21
	.loc 6 44 17
	movq	16(%rbp), %rax
	movq	(%rax), %rax
	movq	%rax, %rcx
	call	free
.L21:
.LBE4:
	.loc 6 45 5
	nop
	addq	$32, %rsp
	popq	%rbp
	.cfi_restore 6
	.cfi_def_cfa 7, 8
	ret
	.cfi_endproc
.LFE1664:
	.seh_endproc
	.section	.text$_Z16wxGet_wxConvLibcv,"x"
	.linkonce discard
	.globl	_Z16wxGet_wxConvLibcv
	.def	_Z16wxGet_wxConvLibcv;	.scl	2;	.type	32;	.endef
	.seh_proc	_Z16wxGet_wxConvLibcv
_Z16wxGet_wxConvLibcv:
.LFB1852:
	.file 7 "../wxMSW-3.0.5_gcc810_x64_Dev/include/wx/strconv.h"
	.loc 7 576 109
	.cfi_startproc
	pushq	%rbp
	.seh_pushreg	%rbp
	.cfi_def_cfa_offset 16
	.cfi_offset 6, -16
	movq	%rsp, %rbp
	.seh_setframe	%rbp, 0
	.cfi_def_cfa_register 6
	subq	$32, %rsp
	.seh_stackalloc	32
	.seh_endprologue
	.loc 7 576 116
	movq	.refptr.wxConvLibcPtr(%rip), %rax
	movq	(%rax), %rax
	.loc 7 576 111
	testq	%rax, %rax
	jne	.L23
	.loc 7 576 168 discriminator 1
	call	_Z19wxGet_wxConvLibcPtrv
	movq	%rax, %rdx
	.loc 7 576 147 discriminator 1
	movq	.refptr.wxConvLibcPtr(%rip), %rax
	movq	%rdx, (%rax)
.L23:
	.loc 7 576 180 discriminator 3
	movq	.refptr.wxConvLibcPtr(%rip), %rax
	movq	(%rax), %rax
	.loc 7 576 195 discriminator 3
	addq	$32, %rsp
	popq	%rbp
	.cfi_restore 6
	.cfi_def_cfa 7, 8
	ret
	.cfi_endproc
.LFE1852:
	.seh_endproc
	.section	.text$_ZN8wxString17SubstrBufFromTypeI22wxScopedCharTypeBufferIwEED1Ev,"x"
	.linkonce discard
	.align 2
	.globl	_ZN8wxString17SubstrBufFromTypeI22wxScopedCharTypeBufferIwEED1Ev
	.def	_ZN8wxString17SubstrBufFromTypeI22wxScopedCharTypeBufferIwEED1Ev;	.scl	2;	.type	32;	.endef
	.seh_proc	_ZN8wxString17SubstrBufFromTypeI22wxScopedCharTypeBufferIwEED1Ev
_ZN8wxString17SubstrBufFromTypeI22wxScopedCharTypeBufferIwEED1Ev:
.LFB2325:
	.file 8 "../wxMSW-3.0.5_gcc810_x64_Dev/include/wx/string.h"
	.loc 8 425 10
	.cfi_startproc
	pushq	%rbp
	.seh_pushreg	%rbp
	.cfi_def_cfa_offset 16
	.cfi_offset 6, -16
	movq	%rsp, %rbp
	.seh_setframe	%rbp, 0
	.cfi_def_cfa_register 6
	subq	$32, %rsp
	.seh_stackalloc	32
	.seh_endprologue
	movq	%rcx, 16(%rbp)
.LBB5:
	.loc 8 425 10
	movq	16(%rbp), %rax
	movq	%rax, %rcx
	call	_ZN22wxScopedCharTypeBufferIwED1Ev
.LBE5:
	nop
	addq	$32, %rsp
	popq	%rbp
	.cfi_restore 6
	.cfi_def_cfa 7, 8
	ret
	.cfi_endproc
.LFE2325:
	.seh_endproc
	.section	.text$_ZN8wxString7ImplStrEPKcRK8wxMBConv,"x"
	.linkonce discard
	.globl	_ZN8wxString7ImplStrEPKcRK8wxMBConv
	.def	_ZN8wxString7ImplStrEPKcRK8wxMBConv;	.scl	2;	.type	32;	.endef
	.seh_proc	_ZN8wxString7ImplStrEPKcRK8wxMBConv
_ZN8wxString7ImplStrEPKcRK8wxMBConv:
.LFB2322:
	.loc 8 475 30
	.cfi_startproc
	pushq	%rbp
	.seh_pushreg	%rbp
	.cfi_def_cfa_offset 16
	.cfi_offset 6, -16
	pushq	%rbx
	.seh_pushreg	%rbx
	.cfi_def_cfa_offset 24
	.cfi_offset 3, -24
	subq	$56, %rsp
	.seh_stackalloc	56
	.cfi_def_cfa_offset 80
	leaq	128(%rsp), %rbp
	.seh_setframe	%rbp, 128
	.cfi_def_cfa 6, -48
	.seh_endprologue
	movq	%rcx, -48(%rbp)
	movq	%rdx, -40(%rbp)
	movq	%r8, -32(%rbp)
	.loc 8 477 24
	movq	.refptr._ZN8wxString4nposE(%rip), %rax
	movq	(%rax), %rcx
	leaq	-96(%rbp), %rax
	movq	-32(%rbp), %r8
	movq	-40(%rbp), %rdx
	movq	%r8, %r9
	movq	%rcx, %r8
	movq	%rax, %rcx
.LEHB0:
	call	_ZN8wxString10ConvertStrEPKcyRK8wxMBConv
.LEHE0:
	.loc 8 477 42
	leaq	-96(%rbp), %rax
	movq	%rax, %rdx
	movq	-48(%rbp), %rcx
.LEHB1:
	call	_ZN22wxScopedCharTypeBufferIwEC1ERKS0_
.LEHE1:
	nop
	.loc 8 477 24
	leaq	-96(%rbp), %rax
	movq	%rax, %rcx
	call	_ZN8wxString17SubstrBufFromTypeI22wxScopedCharTypeBufferIwEED1Ev
	.loc 8 477 42
	jmp	.L30
.L29:
	movq	%rax, %rbx
	.loc 8 477 24
	leaq	-96(%rbp), %rax
	movq	%rax, %rcx
	call	_ZN8wxString17SubstrBufFromTypeI22wxScopedCharTypeBufferIwEED1Ev
	movq	%rbx, %rax
	movq	%rax, %rcx
.LEHB2:
	call	_Unwind_Resume
.LEHE2:
.L30:
	.loc 8 477 48
	movq	-48(%rbp), %rax
	addq	$56, %rsp
	popq	%rbx
	.cfi_restore 3
	popq	%rbp
	.cfi_restore 6
	.cfi_def_cfa 7, -40
	ret
	.cfi_endproc
.LFE2322:
	.def	__gxx_personality_seh0;	.scl	2;	.type	32;	.endef
	.seh_handler	__gxx_personality_seh0, @unwind, @except
	.seh_handlerdata
.LLSDA2322:
	.byte	0xff
	.byte	0xff
	.byte	0x1
	.uleb128 .LLSDACSE2322-.LLSDACSB2322
.LLSDACSB2322:
	.uleb128 .LEHB0-.LFB2322
	.uleb128 .LEHE0-.LEHB0
	.uleb128 0
	.uleb128 0
	.uleb128 .LEHB1-.LFB2322
	.uleb128 .LEHE1-.LEHB1
	.uleb128 .L29-.LFB2322
	.uleb128 0
	.uleb128 .LEHB2-.LFB2322
	.uleb128 .LEHE2-.LEHB2
	.uleb128 0
	.uleb128 0
.LLSDACSE2322:
	.section	.text$_ZN8wxString7ImplStrEPKcRK8wxMBConv,"x"
	.linkonce discard
	.seh_endproc
	.section	.text$_ZN8wxStringD1Ev,"x"
	.linkonce discard
	.align 2
	.globl	_ZN8wxStringD1Ev
	.def	_ZN8wxStringD1Ev;	.scl	2;	.type	32;	.endef
	.seh_proc	_ZN8wxStringD1Ev
_ZN8wxStringD1Ev:
.LFB2402:
	.loc 8 393 7
	.cfi_startproc
	pushq	%rbp
	.seh_pushreg	%rbp
	.cfi_def_cfa_offset 16
	.cfi_offset 6, -16
	movq	%rsp, %rbp
	.seh_setframe	%rbp, 0
	.cfi_def_cfa_register 6
	subq	$32, %rsp
	.seh_stackalloc	32
	.seh_endprologue
	movq	%rcx, 16(%rbp)
.LBB6:
	.loc 8 393 7
	movq	16(%rbp), %rax
	addq	$32, %rax
	movq	%rax, %rcx
	call	_ZN8wxString15ConvertedBufferIcED1Ev
	movq	16(%rbp), %rax
	movq	%rax, %rcx
	call	_ZNSt7__cxx1112basic_stringIwSt11char_traitsIwESaIwEED1Ev
.LBE6:
	nop
	addq	$32, %rsp
	popq	%rbp
	.cfi_restore 6
	.cfi_def_cfa 7, 8
	ret
	.cfi_endproc
.LFE2402:
	.seh_endproc
	.section	.text$_ZN8wxStringC1EPKc,"x"
	.linkonce discard
	.align 2
	.globl	_ZN8wxStringC1EPKc
	.def	_ZN8wxStringC1EPKc;	.scl	2;	.type	32;	.endef
	.seh_proc	_ZN8wxStringC1EPKc
_ZN8wxStringC1EPKc:
.LFB2458:
	.loc 8 1241 3
	.cfi_startproc
	pushq	%rbp
	.seh_pushreg	%rbp
	.cfi_def_cfa_offset 16
	.cfi_offset 6, -16
	pushq	%rbx
	.seh_pushreg	%rbx
	.cfi_def_cfa_offset 24
	.cfi_offset 3, -24
	subq	$56, %rsp
	.seh_stackalloc	56
	.cfi_def_cfa_offset 80
	leaq	128(%rsp), %rbp
	.seh_setframe	%rbp, 128
	.cfi_def_cfa 6, -48
	.seh_endprologue
	movq	%rcx, -48(%rbp)
	movq	%rdx, -40(%rbp)
.LBB7:
	.loc 8 1242 26
	movq	-48(%rbp), %rbx
	leaq	-89(%rbp), %rax
	movq	%rax, %rcx
	call	_ZNSaIwEC1Ev
.LEHB3:
	.loc 8 1242 25
	call	_Z16wxGet_wxConvLibcv
	movq	%rax, %rcx
	.loc 8 1242 21
	leaq	-88(%rbp), %rax
	movq	-40(%rbp), %rdx
	movq	%rcx, %r8
	movq	%rax, %rcx
	call	_ZN8wxString7ImplStrEPKcRK8wxMBConv
.LEHE3:
	.loc 8 1242 26 discriminator 4
	leaq	-88(%rbp), %rax
	movq	%rax, %rcx
.LEHB4:
	call	_ZNK22wxScopedCharTypeBufferIwEcvPKwEv
	movq	%rax, %rdx
	leaq	-89(%rbp), %rax
	movq	%rax, %r8
	movq	%rbx, %rcx
	call	_ZNSt7__cxx1112basic_stringIwSt11char_traitsIwESaIwEEC1EPKwRKS3_
.LEHE4:
	.loc 8 1242 21 discriminator 8
	leaq	-88(%rbp), %rax
	movq	%rax, %rcx
	call	_ZN22wxScopedCharTypeBufferIwED1Ev
	.loc 8 1242 26 discriminator 8
	leaq	-89(%rbp), %rax
	movq	%rax, %rcx
	call	_ZNSaIwED1Ev
	movq	-48(%rbp), %rax
	addq	$32, %rax
	movq	%rax, %rcx
	call	_ZN8wxString15ConvertedBufferIcEC1Ev
.LBE7:
	.loc 8 1242 29 discriminator 8
	jmp	.L37
.L36:
	movq	%rax, %rbx
.LBB8:
	.loc 8 1242 21
	leaq	-88(%rbp), %rax
	movq	%rax, %rcx
	call	_ZN22wxScopedCharTypeBufferIwED1Ev
	jmp	.L34
.L35:
	movq	%rax, %rbx
.L34:
	.loc 8 1242 26 discriminator 3
	leaq	-89(%rbp), %rax
	movq	%rax, %rcx
	call	_ZNSaIwED1Ev
	movq	%rbx, %rax
	movq	%rax, %rcx
.LEHB5:
	call	_Unwind_Resume
	nop
.LEHE5:
.L37:
.LBE8:
	.loc 8 1242 29
	addq	$56, %rsp
	popq	%rbx
	.cfi_restore 3
	popq	%rbp
	.cfi_restore 6
	.cfi_def_cfa 7, -40
	ret
	.cfi_endproc
.LFE2458:
	.seh_handler	__gxx_personality_seh0, @unwind, @except
	.seh_handlerdata
.LLSDA2458:
	.byte	0xff
	.byte	0xff
	.byte	0x1
	.uleb128 .LLSDACSE2458-.LLSDACSB2458
.LLSDACSB2458:
	.uleb128 .LEHB3-.LFB2458
	.uleb128 .LEHE3-.LEHB3
	.uleb128 .L35-.LFB2458
	.uleb128 0
	.uleb128 .LEHB4-.LFB2458
	.uleb128 .LEHE4-.LEHB4
	.uleb128 .L36-.LFB2458
	.uleb128 0
	.uleb128 .LEHB5-.LFB2458
	.uleb128 .LEHE5-.LEHB5
	.uleb128 0
	.uleb128 0
.LLSDACSE2458:
	.section	.text$_ZN8wxStringC1EPKc,"x"
	.linkonce discard
	.seh_endproc
	.section .rdata,"dr"
	.align 4
_ZL15wxInvalidOffset:
	.long	-1
	.section	.text$_ZN23wxCriticalSectionLockerC1ER17wxCriticalSection,"x"
	.linkonce discard
	.align 2
	.globl	_ZN23wxCriticalSectionLockerC1ER17wxCriticalSection
	.def	_ZN23wxCriticalSectionLockerC1ER17wxCriticalSection;	.scl	2;	.type	32;	.endef
	.seh_proc	_ZN23wxCriticalSectionLockerC1ER17wxCriticalSection
_ZN23wxCriticalSectionLockerC1ER17wxCriticalSection:
.LFB8060:
	.file 9 "../wxMSW-3.0.5_gcc810_x64_Dev/include/wx/thread.h"
	.loc 9 304 5
	.cfi_startproc
	pushq	%rbp
	.seh_pushreg	%rbp
	.cfi_def_cfa_offset 16
	.cfi_offset 6, -16
	movq	%rsp, %rbp
	.seh_setframe	%rbp, 0
	.cfi_def_cfa_register 6
	subq	$32, %rsp
	.seh_stackalloc	32
	.seh_endprologue
	movq	%rcx, 16(%rbp)
	movq	%rdx, 24(%rbp)
.LBB9:
	.loc 9 305 24
	movq	16(%rbp), %rax
	movq	24(%rbp), %rdx
	movq	%rdx, (%rax)
	.loc 9 307 9
	movq	16(%rbp), %rax
	movq	(%rax), %rax
	.loc 9 307 25
	movq	%rax, %rcx
	call	_ZN17wxCriticalSection5EnterEv
.LBE9:
	.loc 9 308 5
	nop
	addq	$32, %rsp
	popq	%rbp
	.cfi_restore 6
	.cfi_def_cfa 7, 8
	ret
	.cfi_endproc
.LFE8060:
	.seh_endproc
	.section	.text$_ZN23wxCriticalSectionLockerD1Ev,"x"
	.linkonce discard
	.align 2
	.globl	_ZN23wxCriticalSectionLockerD1Ev
	.def	_ZN23wxCriticalSectionLockerD1Ev;	.scl	2;	.type	32;	.endef
	.seh_proc	_ZN23wxCriticalSectionLockerD1Ev
_ZN23wxCriticalSectionLockerD1Ev:
.LFB8063:
	.loc 9 310 5
	.cfi_startproc
	pushq	%rbp
	.seh_pushreg	%rbp
	.cfi_def_cfa_offset 16
	.cfi_offset 6, -16
	movq	%rsp, %rbp
	.seh_setframe	%rbp, 0
	.cfi_def_cfa_register 6
	subq	$32, %rsp
	.seh_stackalloc	32
	.seh_endprologue
	movq	%rcx, 16(%rbp)
.LBB10:
	.loc 9 312 9
	movq	16(%rbp), %rax
	movq	(%rax), %rax
	.loc 9 312 25
	movq	%rax, %rcx
	call	_ZN17wxCriticalSection5LeaveEv
.LBE10:
	.loc 9 313 5
	nop
	addq	$32, %rsp
	popq	%rbp
	.cfi_restore 6
	.cfi_def_cfa 7, 8
	ret
	.cfi_endproc
.LFE8063:
	.seh_handler	__gxx_personality_seh0, @unwind, @except
	.seh_handlerdata
.LLSDA8063:
	.byte	0xff
	.byte	0xff
	.byte	0x1
	.uleb128 .LLSDACSE8063-.LLSDACSB8063
.LLSDACSB8063:
.LLSDACSE8063:
	.section	.text$_ZN23wxCriticalSectionLockerD1Ev,"x"
	.linkonce discard
	.seh_endproc
	.section	.text$_ZN8wxThread8OnDeleteEv,"x"
	.linkonce discard
	.align 2
	.globl	_ZN8wxThread8OnDeleteEv
	.def	_ZN8wxThread8OnDeleteEv;	.scl	2;	.type	32;	.endef
	.seh_proc	_ZN8wxThread8OnDeleteEv
_ZN8wxThread8OnDeleteEv:
.LFB8069:
	.loc 9 627 18
	.cfi_startproc
	pushq	%rbp
	.seh_pushreg	%rbp
	.cfi_def_cfa_offset 16
	.cfi_offset 6, -16
	movq	%rsp, %rbp
	.seh_setframe	%rbp, 0
	.cfi_def_cfa_register 6
	.seh_endprologue
	movq	%rcx, 16(%rbp)
	.loc 9 627 30
	nop
	popq	%rbp
	.cfi_restore 6
	.cfi_def_cfa 7, 8
	ret
	.cfi_endproc
.LFE8069:
	.seh_endproc
	.section	.text$_ZN8wxThread6OnKillEv,"x"
	.linkonce discard
	.align 2
	.globl	_ZN8wxThread6OnKillEv
	.def	_ZN8wxThread6OnKillEv;	.scl	2;	.type	32;	.endef
	.seh_proc	_ZN8wxThread6OnKillEv
_ZN8wxThread6OnKillEv:
.LFB8070:
	.loc 9 631 18
	.cfi_startproc
	pushq	%rbp
	.seh_pushreg	%rbp
	.cfi_def_cfa_offset 16
	.cfi_offset 6, -16
	movq	%rsp, %rbp
	.seh_setframe	%rbp, 0
	.cfi_def_cfa_register 6
	.seh_endprologue
	movq	%rcx, 16(%rbp)
	.loc 9 631 28
	nop
	popq	%rbp
	.cfi_restore 6
	.cfi_def_cfa 7, 8
	ret
	.cfi_endproc
.LFE8070:
	.seh_endproc
	.section	.text$_ZN8wxThread6OnExitEv,"x"
	.linkonce discard
	.align 2
	.globl	_ZN8wxThread6OnExitEv
	.def	_ZN8wxThread6OnExitEv;	.scl	2;	.type	32;	.endef
	.seh_proc	_ZN8wxThread6OnExitEv
_ZN8wxThread6OnExitEv:
.LFB8071:
	.loc 9 641 18
	.cfi_startproc
	pushq	%rbp
	.seh_pushreg	%rbp
	.cfi_def_cfa_offset 16
	.cfi_offset 6, -16
	movq	%rsp, %rbp
	.seh_setframe	%rbp, 0
	.cfi_def_cfa_register 6
	.seh_endprologue
	movq	%rcx, 16(%rbp)
	.loc 9 641 29
	nop
	popq	%rbp
	.cfi_restore 6
	.cfi_def_cfa 7, 8
	ret
	.cfi_endproc
.LFE8071:
	.seh_endproc
	.section	.text$_ZN20wxThreadHelperThread5EntryEv,"x"
	.linkonce discard
	.align 2
	.globl	_ZN20wxThreadHelperThread5EntryEv
	.def	_ZN20wxThreadHelperThread5EntryEv;	.scl	2;	.type	32;	.endef
	.seh_proc	_ZN20wxThreadHelperThread5EntryEv
_ZN20wxThreadHelperThread5EntryEv:
.LFB8086:
	.loc 9 767 1
	.cfi_startproc
	pushq	%rbp
	.seh_pushreg	%rbp
	.cfi_def_cfa_offset 16
	.cfi_offset 6, -16
	pushq	%rbx
	.seh_pushreg	%rbx
	.cfi_def_cfa_offset 24
	.cfi_offset 3, -24
	subq	$56, %rsp
	.seh_stackalloc	56
	.cfi_def_cfa_offset 80
	leaq	128(%rsp), %rbp
	.seh_setframe	%rbp, 128
	.cfi_def_cfa 6, -48
	.seh_endprologue
	movq	%rcx, -48(%rbp)
	.loc 9 768 27
	movq	-48(%rbp), %rax
	movq	64(%rax), %rdx
	movq	-48(%rbp), %rax
	movq	64(%rax), %rax
	.loc 9 768 41
	movq	(%rax), %rax
	addq	$16, %rax
	movq	(%rax), %rax
	.loc 9 768 40
	movq	%rdx, %rcx
	call	*%rax
.LVL0:
	movq	%rax, -88(%rbp)
	.loc 9 770 36
	movq	-48(%rbp), %rax
	movq	64(%rax), %rax
	.loc 9 770 44
	leaq	24(%rax), %rdx
	.loc 9 770 57
	leaq	-96(%rbp), %rax
	movq	%rax, %rcx
	call	_ZN23wxCriticalSectionLockerC1ER17wxCriticalSection
	.loc 9 776 10
	movq	-48(%rbp), %rax
	movq	64(%rax), %rax
	.loc 9 776 18
	movl	16(%rax), %eax
	.loc 9 776 5
	testl	%eax, %eax
	jne	.L44
	.loc 9 777 9
	movq	-48(%rbp), %rax
	movq	64(%rax), %rax
	.loc 9 777 26
	movq	$0, 8(%rax)
.L44:
	.loc 9 779 12
	movq	-88(%rbp), %rbx
	.loc 9 770 57
	leaq	-96(%rbp), %rax
	movq	%rax, %rcx
	call	_ZN23wxCriticalSectionLockerD1Ev
	.loc 9 779 12
	movq	%rbx, %rax
	.loc 9 780 1
	addq	$56, %rsp
	popq	%rbx
	.cfi_restore 3
	popq	%rbp
	.cfi_restore 6
	.cfi_def_cfa 7, -40
	ret
	.cfi_endproc
.LFE8086:
	.seh_endproc
	.section	.text$_ZN16wxTypeIdentifierC1EPKc,"x"
	.linkonce discard
	.align 2
	.globl	_ZN16wxTypeIdentifierC1EPKc
	.def	_ZN16wxTypeIdentifierC1EPKc;	.scl	2;	.type	32;	.endef
	.seh_proc	_ZN16wxTypeIdentifierC1EPKc
_ZN16wxTypeIdentifierC1EPKc:
.LFB8117:
	.file 10 "../wxMSW-3.0.5_gcc810_x64_Dev/include/wx/typeinfo.h"
	.loc 10 66 5
	.cfi_startproc
	pushq	%rbp
	.seh_pushreg	%rbp
	.cfi_def_cfa_offset 16
	.cfi_offset 6, -16
	movq	%rsp, %rbp
	.seh_setframe	%rbp, 0
	.cfi_def_cfa_register 6
	.seh_endprologue
	movq	%rcx, 16(%rbp)
	movq	%rdx, 24(%rbp)
.LBB11:
	.loc 10 68 21
	movq	16(%rbp), %rax
	movq	24(%rbp), %rdx
	movq	%rdx, (%rax)
.LBE11:
	.loc 10 69 5
	nop
	popq	%rbp
	.cfi_restore 6
	.cfi_def_cfa 7, 8
	ret
	.cfi_endproc
.LFE8117:
	.seh_endproc
	.section	.text$_ZN16wxTypeIdentifiereqERKS_,"x"
	.linkonce discard
	.align 2
	.globl	_ZN16wxTypeIdentifiereqERKS_
	.def	_ZN16wxTypeIdentifiereqERKS_;	.scl	2;	.type	32;	.endef
	.seh_proc	_ZN16wxTypeIdentifiereqERKS_
_ZN16wxTypeIdentifiereqERKS_:
.LFB8118:
	.loc 10 71 10
	.cfi_startproc
	pushq	%rbp
	.seh_pushreg	%rbp
	.cfi_def_cfa_offset 16
	.cfi_offset 6, -16
	movq	%rsp, %rbp
	.seh_setframe	%rbp, 0
	.cfi_def_cfa_register 6
	subq	$32, %rsp
	.seh_stackalloc	32
	.seh_endprologue
	movq	%rcx, 16(%rbp)
	movq	%rdx, 24(%rbp)
	.loc 10 73 42
	movq	24(%rbp), %rax
	movq	(%rax), %rdx
	.loc 10 73 22
	movq	16(%rbp), %rax
	movq	(%rax), %rax
	movq	%rax, %rcx
	call	strcmp
	.loc 10 73 58
	testl	%eax, %eax
	sete	%al
	.loc 10 74 5
	addq	$32, %rsp
	popq	%rbp
	.cfi_restore 6
	.cfi_def_cfa 7, 8
	ret
	.cfi_endproc
.LFE8118:
	.seh_endproc
	.section	.text$_ZNK20wxObjectEventFunctor10IsMatchingERK14wxEventFunctor,"x"
	.linkonce discard
	.align 2
	.globl	_ZNK20wxObjectEventFunctor10IsMatchingERK14wxEventFunctor
	.def	_ZNK20wxObjectEventFunctor10IsMatchingERK14wxEventFunctor;	.scl	2;	.type	32;	.endef
	.seh_proc	_ZNK20wxObjectEventFunctor10IsMatchingERK14wxEventFunctor
_ZNK20wxObjectEventFunctor10IsMatchingERK14wxEventFunctor:
.LFB9149:
	.file 11 "../wxMSW-3.0.5_gcc810_x64_Dev/include/wx/event.h"
	.loc 11 249 18
	.cfi_startproc
	pushq	%rbp
	.seh_pushreg	%rbp
	.cfi_def_cfa_offset 16
	.cfi_offset 6, -16
	movq	%rsp, %rbp
	.seh_setframe	%rbp, 0
	.cfi_def_cfa_register 6
	subq	$64, %rsp
	.seh_stackalloc	64
	.seh_endprologue
	movq	%rcx, 16(%rbp)
	movq	%rdx, 24(%rbp)
.LBB12:
	.loc 11 251 83
	movq	16(%rbp), %rax
	movq	(%rax), %rax
	subq	$8, %rax
	.loc 11 251 58
	movq	(%rax), %rax
	movq	%rax, %rcx
	call	_ZNKSt9type_info4nameEv
	movq	%rax, %rdx
	leaq	-24(%rbp), %rax
	movq	%rax, %rcx
	call	_ZN16wxTypeIdentifierC1EPKc
	.loc 11 251 38
	movq	24(%rbp), %rax
	movq	(%rax), %rax
	subq	$8, %rax
	.loc 11 251 14
	movq	(%rax), %rax
	movq	%rax, %rcx
	call	_ZNKSt9type_info4nameEv
	movq	%rax, %rdx
	leaq	-16(%rbp), %rax
	movq	%rax, %rcx
	call	_ZN16wxTypeIdentifierC1EPKc
	.loc 11 251 55
	leaq	-24(%rbp), %rdx
	leaq	-16(%rbp), %rax
	movq	%rax, %rcx
	call	_ZN16wxTypeIdentifiereqERKS_
	.loc 11 251 9
	testb	%al, %al
	je	.L50
.LBB13:
	.loc 11 253 41
	movq	24(%rbp), %rax
	movq	%rax, -8(%rbp)
	.loc 11 262 40
	movq	16(%rbp), %rax
	movq	16(%rax), %rdx
	movq	-8(%rbp), %rax
	movq	16(%rax), %rax
	.loc 11 262 74
	cmpq	%rax, %rdx
	jne	.L51
	.loc 11 262 40 discriminator 1
	movq	16(%rbp), %rax
	movq	24(%rax), %rdx
	movq	-8(%rbp), %rax
	movq	24(%rax), %rax
	.loc 11 262 31 discriminator 1
	cmpq	%rax, %rdx
	je	.L52
	.loc 11 262 40 discriminator 4
	movq	16(%rbp), %rax
	movq	16(%rax), %rax
	.loc 11 262 31 discriminator 4
	testq	%rax, %rax
	je	.L52
.L51:
	.loc 11 262 70 discriminator 6
	movq	-8(%rbp), %rax
	movq	16(%rax), %rax
	.loc 11 262 49 discriminator 6
	testq	%rax, %rax
	jne	.L53
.L52:
	.loc 11 263 22 discriminator 7
	movq	16(%rbp), %rax
	movq	8(%rax), %rdx
	.loc 11 263 41 discriminator 7
	movq	-8(%rbp), %rax
	movq	8(%rax), %rax
	.loc 11 262 74 discriminator 7
	cmpq	%rax, %rdx
	je	.L54
	.loc 11 263 60
	movq	-8(%rbp), %rax
	movq	8(%rax), %rax
	.loc 11 263 51
	testq	%rax, %rax
	jne	.L53
.L54:
	.loc 11 262 74 discriminator 9
	movl	$1, %eax
	.loc 11 263 77 discriminator 9
	jmp	.L56
.L53:
	.loc 11 262 74 discriminator 8
	movl	$0, %eax
	.loc 11 263 77 discriminator 8
	jmp	.L56
.L50:
.LBE13:
	.loc 11 266 20
	movl	$0, %eax
.L56:
.LBE12:
	.loc 11 267 5
	addq	$64, %rsp
	popq	%rbp
	.cfi_restore 6
	.cfi_def_cfa 7, 8
	ret
	.cfi_endproc
.LFE9149:
	.seh_endproc
	.section	.text$_ZNK20wxObjectEventFunctor13GetEvtHandlerEv,"x"
	.linkonce discard
	.align 2
	.globl	_ZNK20wxObjectEventFunctor13GetEvtHandlerEv
	.def	_ZNK20wxObjectEventFunctor13GetEvtHandlerEv;	.scl	2;	.type	32;	.endef
	.seh_proc	_ZNK20wxObjectEventFunctor13GetEvtHandlerEv
_ZNK20wxObjectEventFunctor13GetEvtHandlerEv:
.LFB9150:
	.loc 11 269 27
	.cfi_startproc
	pushq	%rbp
	.seh_pushreg	%rbp
	.cfi_def_cfa_offset 16
	.cfi_offset 6, -16
	movq	%rsp, %rbp
	.seh_setframe	%rbp, 0
	.cfi_def_cfa_register 6
	.seh_endprologue
	movq	%rcx, 16(%rbp)
	.loc 11 270 18
	movq	16(%rbp), %rax
	movq	8(%rax), %rax
	.loc 11 270 29
	popq	%rbp
	.cfi_restore 6
	.cfi_def_cfa 7, 8
	ret
	.cfi_endproc
.LFE9150:
	.seh_endproc
	.section	.text$_ZNK20wxObjectEventFunctor12GetEvtMethodEv,"x"
	.linkonce discard
	.align 2
	.globl	_ZNK20wxObjectEventFunctor12GetEvtMethodEv
	.def	_ZNK20wxObjectEventFunctor12GetEvtMethodEv;	.scl	2;	.type	32;	.endef
	.seh_proc	_ZNK20wxObjectEventFunctor12GetEvtMethodEv
_ZNK20wxObjectEventFunctor12GetEvtMethodEv:
.LFB9151:
	.loc 11 272 29
	.cfi_startproc
	pushq	%rbp
	.seh_pushreg	%rbp
	.cfi_def_cfa_offset 16
	.cfi_offset 6, -16
	movq	%rsp, %rbp
	.seh_setframe	%rbp, 0
	.cfi_def_cfa_register 6
	.seh_endprologue
	movq	%rcx, 16(%rbp)
	movq	%rdx, 24(%rbp)
	.loc 11 273 18
	movq	16(%rbp), %rcx
	movq	24(%rbp), %rax
	movq	24(%rax), %rdx
	movq	16(%rax), %rax
	movq	%rax, (%rcx)
	movq	%rdx, 8(%rcx)
	.loc 11 273 28
	movq	16(%rbp), %rax
	popq	%rbp
	.cfi_restore 6
	.cfi_def_cfa 7, 8
	ret
	.cfi_endproc
.LFE9151:
	.seh_endproc
	.section	.text$_ZN20wxObjectEventFunctorclEP12wxEvtHandlerR7wxEvent,"x"
	.linkonce discard
	.align 2
	.globl	_ZN20wxObjectEventFunctorclEP12wxEvtHandlerR7wxEvent
	.def	_ZN20wxObjectEventFunctorclEP12wxEvtHandlerR7wxEvent;	.scl	2;	.type	32;	.endef
	.seh_proc	_ZN20wxObjectEventFunctorclEP12wxEvtHandlerR7wxEvent
_ZN20wxObjectEventFunctorclEP12wxEvtHandlerR7wxEvent:
.LFB9949:
	.loc 11 3775 1
	.cfi_startproc
	pushq	%rbp
	.seh_pushreg	%rbp
	.cfi_def_cfa_offset 16
	.cfi_offset 6, -16
	movq	%rsp, %rbp
	.seh_setframe	%rbp, 0
	.cfi_def_cfa_register 6
	subq	$48, %rsp
	.seh_stackalloc	48
	.seh_endprologue
	movq	%rcx, 16(%rbp)
	movq	%rdx, 24(%rbp)
	movq	%r8, 32(%rbp)
	.loc 11 3776 40
	movq	16(%rbp), %rax
	movq	8(%rax), %rax
	.loc 11 3776 50
	testq	%rax, %rax
	je	.L62
	.loc 11 3776 50 is_stmt 0 discriminator 1
	movq	16(%rbp), %rax
	movq	8(%rax), %rax
	jmp	.L63
.L62:
	.loc 11 3776 50 discriminator 2
	movq	24(%rbp), %rax
.L63:
	.loc 11 3776 26 is_stmt 1 discriminator 4
	movq	%rax, -8(%rbp)
	.loc 11 3778 35 discriminator 4
	movq	16(%rbp), %rax
	movq	24(%rax), %rax
	.loc 11 3778 29 discriminator 4
	movq	%rax, %rdx
	movq	-8(%rbp), %rax
	leaq	(%rdx,%rax), %rcx
	.loc 11 3778 35 discriminator 4
	movq	16(%rbp), %rax
	movq	16(%rax), %rax
	andl	$1, %eax
	testq	%rax, %rax
	je	.L64
	.loc 11 3778 35 is_stmt 0 discriminator 1
	movq	16(%rbp), %rax
	movq	24(%rax), %rax
	movq	%rax, %rdx
	movq	-8(%rbp), %rax
	addq	%rdx, %rax
	movq	(%rax), %rdx
	movq	16(%rbp), %rax
	movq	16(%rax), %rax
	subq	$1, %rax
	addq	%rdx, %rax
	movq	(%rax), %rax
	jmp	.L65
.L64:
	.loc 11 3778 35 discriminator 2
	movq	16(%rbp), %rax
	movq	16(%rax), %rax
.L65:
	.loc 11 3778 29 is_stmt 1 discriminator 4
	movq	32(%rbp), %rdx
	call	*%rax
.LVL1:
	.loc 11 3779 1 discriminator 4
	nop
	addq	$48, %rsp
	popq	%rbp
	.cfi_restore 6
	.cfi_def_cfa 7, 8
	ret
	.cfi_endproc
.LFE9949:
	.seh_endproc
	.section .rdata,"dr"
_ZL19wxALPHA_TRANSPARENT:
	.space 1
_ZL14wxALPHA_OPAQUE:
	.byte	-1
.lcomm _ZStL8__ioinit,1,1
	.align 4
_ZL21wxOutOfRangeTextCoord:
	.long	-1
	.align 4
_ZL18wxInvalidTextCoord:
	.long	-2
	.section	.text$_ZN10BaseObjectC2ERKS_,"x"
	.linkonce discard
	.align 2
	.globl	_ZN10BaseObjectC2ERKS_
	.def	_ZN10BaseObjectC2ERKS_;	.scl	2;	.type	32;	.endef
	.seh_proc	_ZN10BaseObjectC2ERKS_
_ZN10BaseObjectC2ERKS_:
.LFB10895:
	.loc 2 5 7
	.cfi_startproc
	pushq	%rbp
	.seh_pushreg	%rbp
	.cfi_def_cfa_offset 16
	.cfi_offset 6, -16
	movq	%rsp, %rbp
	.seh_setframe	%rbp, 0
	.cfi_def_cfa_register 6
	.seh_endprologue
	movq	%rcx, 16(%rbp)
	movq	%rdx, 24(%rbp)
.LBB14:
	.loc 2 5 7
	leaq	16+_ZTV10BaseObject(%rip), %rdx
	movq	16(%rbp), %rax
	movq	%rdx, (%rax)
.LBE14:
	nop
	popq	%rbp
	.cfi_restore 6
	.cfi_def_cfa 7, 8
	ret
	.cfi_endproc
.LFE10895:
	.seh_endproc
	.section	.text$_ZN10BaseObjectaSERKS_,"x"
	.linkonce discard
	.align 2
	.globl	_ZN10BaseObjectaSERKS_
	.def	_ZN10BaseObjectaSERKS_;	.scl	2;	.type	32;	.endef
	.seh_proc	_ZN10BaseObjectaSERKS_
_ZN10BaseObjectaSERKS_:
.LFB10933:
	.loc 2 5 7
	.cfi_startproc
	pushq	%rbp
	.seh_pushreg	%rbp
	.cfi_def_cfa_offset 16
	.cfi_offset 6, -16
	movq	%rsp, %rbp
	.seh_setframe	%rbp, 0
	.cfi_def_cfa_register 6
	.seh_endprologue
	movq	%rcx, 16(%rbp)
	movq	%rdx, 24(%rbp)
	.loc 2 5 7
	movq	16(%rbp), %rax
	popq	%rbp
	.cfi_restore 6
	.cfi_def_cfa 7, 8
	ret
	.cfi_endproc
.LFE10933:
	.seh_endproc
	.section .rdata,"dr"
_ZStL13allocator_arg:
	.space 1
_ZStL6ignore:
	.space 1
	.section	.text$_ZN12Configuracao22getDeltaPesoFormFactorEv,"x"
	.linkonce discard
	.align 2
	.globl	_ZN12Configuracao22getDeltaPesoFormFactorEv
	.def	_ZN12Configuracao22getDeltaPesoFormFactorEv;	.scl	2;	.type	32;	.endef
	.seh_proc	_ZN12Configuracao22getDeltaPesoFormFactorEv
_ZN12Configuracao22getDeltaPesoFormFactorEv:
.LFB11180:
	.file 12 "C:/temp/ballisticKernelCpp/interfaceGrafica/calculadorBalisiticaGraficoWindows/configuracao.h"
	.loc 12 21 16
	.cfi_startproc
	pushq	%rbp
	.seh_pushreg	%rbp
	.cfi_def_cfa_offset 16
	.cfi_offset 6, -16
	movq	%rsp, %rbp
	.seh_setframe	%rbp, 0
	.cfi_def_cfa_register 6
	.seh_endprologue
	movq	%rcx, 16(%rbp)
	.loc 12 21 54
	movq	16(%rbp), %rax
	movsd	32(%rax), %xmm0
	movq	%xmm0, %rax
	.loc 12 21 74
	movq	%rax, %xmm0
	popq	%rbp
	.cfi_restore 6
	.cfi_def_cfa 7, 8
	ret
	.cfi_endproc
.LFE11180:
	.seh_endproc
	.section	.text$_ZN12Configuracao25getDesvioProvavelElevacaoEv,"x"
	.linkonce discard
	.align 2
	.globl	_ZN12Configuracao25getDesvioProvavelElevacaoEv
	.def	_ZN12Configuracao25getDesvioProvavelElevacaoEv;	.scl	2;	.type	32;	.endef
	.seh_proc	_ZN12Configuracao25getDesvioProvavelElevacaoEv
_ZN12Configuracao25getDesvioProvavelElevacaoEv:
.LFB11186:
	.loc 12 27 16
	.cfi_startproc
	pushq	%rbp
	.seh_pushreg	%rbp
	.cfi_def_cfa_offset 16
	.cfi_offset 6, -16
	movq	%rsp, %rbp
	.seh_setframe	%rbp, 0
	.cfi_def_cfa_register 6
	.seh_endprologue
	movq	%rcx, 16(%rbp)
	.loc 12 27 51
	movq	16(%rbp), %rax
	movsd	40(%rax), %xmm0
	movq	%xmm0, %rax
	.loc 12 27 74
	movq	%rax, %xmm0
	popq	%rbp
	.cfi_restore 6
	.cfi_def_cfa 7, 8
	ret
	.cfi_endproc
.LFE11186:
	.seh_endproc
	.section	.text$_ZN12Configuracao24getDesvioProvavelArrastoEv,"x"
	.linkonce discard
	.align 2
	.globl	_ZN12Configuracao24getDesvioProvavelArrastoEv
	.def	_ZN12Configuracao24getDesvioProvavelArrastoEv;	.scl	2;	.type	32;	.endef
	.seh_proc	_ZN12Configuracao24getDesvioProvavelArrastoEv
_ZN12Configuracao24getDesvioProvavelArrastoEv:
.LFB11188:
	.loc 12 29 16
	.cfi_startproc
	pushq	%rbp
	.seh_pushreg	%rbp
	.cfi_def_cfa_offset 16
	.cfi_offset 6, -16
	movq	%rsp, %rbp
	.seh_setframe	%rbp, 0
	.cfi_def_cfa_register 6
	.seh_endprologue
	movq	%rcx, 16(%rbp)
	.loc 12 29 50
	movq	16(%rbp), %rax
	movsd	48(%rax), %xmm0
	movq	%xmm0, %rax
	.loc 12 29 72
	movq	%rax, %xmm0
	popq	%rbp
	.cfi_restore 6
	.cfi_def_cfa 7, 8
	ret
	.cfi_endproc
.LFE11188:
	.seh_endproc
	.section	.text$_ZN12Configuracao27getDesvioProvavelVelocidadeEv,"x"
	.linkonce discard
	.align 2
	.globl	_ZN12Configuracao27getDesvioProvavelVelocidadeEv
	.def	_ZN12Configuracao27getDesvioProvavelVelocidadeEv;	.scl	2;	.type	32;	.endef
	.seh_proc	_ZN12Configuracao27getDesvioProvavelVelocidadeEv
_ZN12Configuracao27getDesvioProvavelVelocidadeEv:
.LFB11190:
	.loc 12 31 16
	.cfi_startproc
	pushq	%rbp
	.seh_pushreg	%rbp
	.cfi_def_cfa_offset 16
	.cfi_offset 6, -16
	movq	%rsp, %rbp
	.seh_setframe	%rbp, 0
	.cfi_def_cfa_register 6
	.seh_endprologue
	movq	%rcx, 16(%rbp)
	.loc 12 31 53
	movq	16(%rbp), %rax
	movsd	64(%rax), %xmm0
	movq	%xmm0, %rax
	.loc 12 31 78
	movq	%rax, %xmm0
	popq	%rbp
	.cfi_restore 6
	.cfi_def_cfa 7, 8
	ret
	.cfi_endproc
.LFE11190:
	.seh_endproc
	.section	.text$_ZN14VentoConstante30setVelocidadeVentoLongitudinalEd,"x"
	.linkonce discard
	.align 2
	.globl	_ZN14VentoConstante30setVelocidadeVentoLongitudinalEd
	.def	_ZN14VentoConstante30setVelocidadeVentoLongitudinalEd;	.scl	2;	.type	32;	.endef
	.seh_proc	_ZN14VentoConstante30setVelocidadeVentoLongitudinalEd
_ZN14VentoConstante30setVelocidadeVentoLongitudinalEd:
.LFB11287:
	.file 13 "../../CalculadorNumerico/atmosfera/vento/ventoConstante.h"
	.loc 13 14 14
	.cfi_startproc
	pushq	%rbp
	.seh_pushreg	%rbp
	.cfi_def_cfa_offset 16
	.cfi_offset 6, -16
	movq	%rsp, %rbp
	.seh_setframe	%rbp, 0
	.cfi_def_cfa_register 6
	.seh_endprologue
	movq	%rcx, 16(%rbp)
	movsd	%xmm1, 24(%rbp)
	.loc 13 14 105
	movq	16(%rbp), %rax
	movsd	24(%rbp), %xmm0
	movsd	%xmm0, 8(%rax)
	.loc 13 14 130
	nop
	popq	%rbp
	.cfi_restore 6
	.cfi_def_cfa 7, 8
	ret
	.cfi_endproc
.LFE11287:
	.seh_endproc
	.section	.text$_ZN22PesoDensidadeConstante16setPesoDensidadeEd,"x"
	.linkonce discard
	.align 2
	.globl	_ZN22PesoDensidadeConstante16setPesoDensidadeEd
	.def	_ZN22PesoDensidadeConstante16setPesoDensidadeEd;	.scl	2;	.type	32;	.endef
	.seh_proc	_ZN22PesoDensidadeConstante16setPesoDensidadeEd
_ZN22PesoDensidadeConstante16setPesoDensidadeEd:
.LFB11288:
	.file 14 "../../CalculadorNumerico/atmosfera/pesoDensidade/PesoDensidadeConstante.h"
	.loc 14 12 14
	.cfi_startproc
	pushq	%rbp
	.seh_pushreg	%rbp
	.cfi_def_cfa_offset 16
	.cfi_offset 6, -16
	movq	%rsp, %rbp
	.seh_setframe	%rbp, 0
	.cfi_def_cfa_register 6
	.seh_endprologue
	movq	%rcx, 16(%rbp)
	movsd	%xmm1, 24(%rbp)
	.loc 14 12 55
	movq	16(%rbp), %rax
	movsd	24(%rbp), %xmm0
	movsd	%xmm0, 8(%rax)
	.loc 14 12 62
	nop
	popq	%rbp
	.cfi_restore 6
	.cfi_def_cfa 7, 8
	ret
	.cfi_endproc
.LFE11288:
	.seh_endproc
	.section	.text$_ZN24PesoTemperaturaConstante18setPesoTemperaturaEd,"x"
	.linkonce discard
	.align 2
	.globl	_ZN24PesoTemperaturaConstante18setPesoTemperaturaEd
	.def	_ZN24PesoTemperaturaConstante18setPesoTemperaturaEd;	.scl	2;	.type	32;	.endef
	.seh_proc	_ZN24PesoTemperaturaConstante18setPesoTemperaturaEd
_ZN24PesoTemperaturaConstante18setPesoTemperaturaEd:
.LFB11289:
	.file 15 "../../CalculadorNumerico/atmosfera/pesoTemperatura/PesoTemperaturaConstante.h"
	.loc 15 13 14
	.cfi_startproc
	pushq	%rbp
	.seh_pushreg	%rbp
	.cfi_def_cfa_offset 16
	.cfi_offset 6, -16
	movq	%rsp, %rbp
	.seh_setframe	%rbp, 0
	.cfi_def_cfa_register 6
	.seh_endprologue
	movq	%rcx, 16(%rbp)
	movsd	%xmm1, 24(%rbp)
	.loc 15 13 57
	movq	16(%rbp), %rax
	movsd	24(%rbp), %xmm0
	movsd	%xmm0, 8(%rax)
	.loc 15 13 64
	nop
	popq	%rbp
	.cfi_restore 6
	.cfi_def_cfa 7, 8
	ret
	.cfi_endproc
.LFE11289:
	.seh_endproc
	.section	.text$_ZN16ElementosDisparoC1ERKS_,"x"
	.linkonce discard
	.align 2
	.globl	_ZN16ElementosDisparoC1ERKS_
	.def	_ZN16ElementosDisparoC1ERKS_;	.scl	2;	.type	32;	.endef
	.seh_proc	_ZN16ElementosDisparoC1ERKS_
_ZN16ElementosDisparoC1ERKS_:
.LFB11298:
	.loc 3 6 7
	.cfi_startproc
	pushq	%rbp
	.seh_pushreg	%rbp
	.cfi_def_cfa_offset 16
	.cfi_offset 6, -16
	movq	%rsp, %rbp
	.seh_setframe	%rbp, 0
	.cfi_def_cfa_register 6
	subq	$32, %rsp
	.seh_stackalloc	32
	.seh_endprologue
	movq	%rcx, 16(%rbp)
	movq	%rdx, 24(%rbp)
.LBB15:
	.loc 3 6 7
	movq	16(%rbp), %rax
	movq	24(%rbp), %rdx
	movq	%rax, %rcx
	call	_ZN10BaseObjectC2ERKS_
	leaq	16+_ZTV16ElementosDisparo(%rip), %rdx
	movq	16(%rbp), %rax
	movq	%rdx, (%rax)
	movq	24(%rbp), %rax
	movzbl	8(%rax), %eax
	movq	16(%rbp), %rdx
	movb	%al, 8(%rdx)
	movq	24(%rbp), %rax
	movsd	16(%rax), %xmm0
	movq	16(%rbp), %rax
	movsd	%xmm0, 16(%rax)
	movq	24(%rbp), %rax
	movsd	24(%rax), %xmm0
	movq	16(%rbp), %rax
	movsd	%xmm0, 24(%rax)
.LBE15:
	nop
	addq	$32, %rsp
	popq	%rbp
	.cfi_restore 6
	.cfi_def_cfa 7, 8
	ret
	.cfi_endproc
.LFE11298:
	.seh_endproc
	.section	.text$_ZN25ExceptionQuasiConvergence19getElementosDisparoEv,"x"
	.linkonce discard
	.align 2
	.globl	_ZN25ExceptionQuasiConvergence19getElementosDisparoEv
	.def	_ZN25ExceptionQuasiConvergence19getElementosDisparoEv;	.scl	2;	.type	32;	.endef
	.seh_proc	_ZN25ExceptionQuasiConvergence19getElementosDisparoEv
_ZN25ExceptionQuasiConvergence19getElementosDisparoEv:
.LFB11303:
	.file 16 "../../CalculadorNumerico/excecoes/ExceptionQuasiConvergence.h"
	.loc 16 16 26
	.cfi_startproc
	pushq	%rbp
	.seh_pushreg	%rbp
	.cfi_def_cfa_offset 16
	.cfi_offset 6, -16
	movq	%rsp, %rbp
	.seh_setframe	%rbp, 0
	.cfi_def_cfa_register 6
	subq	$32, %rsp
	.seh_stackalloc	32
	.seh_endprologue
	movq	%rcx, 16(%rbp)
	movq	%rdx, 24(%rbp)
	.loc 16 16 55
	movq	24(%rbp), %rax
	addq	$8, %rax
	movq	%rax, %rdx
	movq	16(%rbp), %rcx
	call	_ZN16ElementosDisparoC1ERKS_
	.loc 16 16 72
	movq	16(%rbp), %rax
	addq	$32, %rsp
	popq	%rbp
	.cfi_restore 6
	.cfi_def_cfa 7, 8
	ret
	.cfi_endproc
.LFE11303:
	.seh_endproc
	.text
	.align 2
	.globl	_ZN15GeradorTabularFC2EP10wxTextCtrl
	.def	_ZN15GeradorTabularFC2EP10wxTextCtrl;	.scl	2;	.type	32;	.endef
	.seh_proc	_ZN15GeradorTabularFC2EP10wxTextCtrl
_ZN15GeradorTabularFC2EP10wxTextCtrl:
.LFB11320:
	.file 17 "C:/temp/ballisticKernelCpp/interfaceGrafica/calculadorBalisiticaGraficoWindows/tabelaDialog/geradorTabularF.cpp"
	.loc 17 17 1
	.cfi_startproc
	pushq	%rbp
	.seh_pushreg	%rbp
	.cfi_def_cfa_offset 16
	.cfi_offset 6, -16
	movq	%rsp, %rbp
	.seh_setframe	%rbp, 0
	.cfi_def_cfa_register 6
	subq	$32, %rsp
	.seh_stackalloc	32
	.seh_endprologue
	movq	%rcx, 16(%rbp)
	movq	%rdx, 24(%rbp)
.LBB16:
	.loc 17 17 85
	movq	16(%rbp), %rax
	movq	24(%rbp), %rdx
	movq	%rax, %rcx
	call	_ZN14GeradorTabularC2EP10wxTextCtrl
	leaq	16+_ZTV15GeradorTabularF(%rip), %rdx
	movq	16(%rbp), %rax
	movq	%rdx, (%rax)
.LBE16:
	.loc 17 20 1
	nop
	addq	$32, %rsp
	popq	%rbp
	.cfi_restore 6
	.cfi_def_cfa 7, 8
	ret
	.cfi_endproc
.LFE11320:
	.seh_endproc
	.globl	_ZN15GeradorTabularFC1EP10wxTextCtrl
	.def	_ZN15GeradorTabularFC1EP10wxTextCtrl;	.scl	2;	.type	32;	.endef
	.set	_ZN15GeradorTabularFC1EP10wxTextCtrl,_ZN15GeradorTabularFC2EP10wxTextCtrl
	.section	.text$_ZN16ElementosDisparoaSEOS_,"x"
	.linkonce discard
	.align 2
	.globl	_ZN16ElementosDisparoaSEOS_
	.def	_ZN16ElementosDisparoaSEOS_;	.scl	2;	.type	32;	.endef
	.seh_proc	_ZN16ElementosDisparoaSEOS_
_ZN16ElementosDisparoaSEOS_:
.LFB11323:
	.loc 3 6 7
	.cfi_startproc
	pushq	%rbp
	.seh_pushreg	%rbp
	.cfi_def_cfa_offset 16
	.cfi_offset 6, -16
	movq	%rsp, %rbp
	.seh_setframe	%rbp, 0
	.cfi_def_cfa_register 6
	subq	$32, %rsp
	.seh_stackalloc	32
	.seh_endprologue
	movq	%rcx, 16(%rbp)
	movq	%rdx, 24(%rbp)
	.loc 3 6 7
	movq	16(%rbp), %rax
	movq	24(%rbp), %rdx
	movq	%rax, %rcx
	call	_ZN10BaseObjectaSERKS_
	movq	24(%rbp), %rax
	movzbl	8(%rax), %eax
	movq	16(%rbp), %rdx
	movb	%al, 8(%rdx)
	movq	24(%rbp), %rax
	movsd	16(%rax), %xmm0
	movq	16(%rbp), %rax
	movsd	%xmm0, 16(%rax)
	movq	24(%rbp), %rax
	movsd	24(%rax), %xmm0
	movq	16(%rbp), %rax
	movsd	%xmm0, 24(%rax)
	movq	16(%rbp), %rax
	addq	$32, %rsp
	popq	%rbp
	.cfi_restore 6
	.cfi_def_cfa 7, 8
	ret
	.cfi_endproc
.LFE11323:
	.seh_endproc
	.section	.text$_ZN12ElementosVooaSEOS_,"x"
	.linkonce discard
	.align 2
	.globl	_ZN12ElementosVooaSEOS_
	.def	_ZN12ElementosVooaSEOS_;	.scl	2;	.type	32;	.endef
	.seh_proc	_ZN12ElementosVooaSEOS_
_ZN12ElementosVooaSEOS_:
.LFB11324:
	.file 18 "../../CalculadorNumerico/calculador/elementosvoo.h"
	.loc 18 7 7
	.cfi_startproc
	pushq	%rbp
	.seh_pushreg	%rbp
	.cfi_def_cfa_offset 16
	.cfi_offset 6, -16
	movq	%rsp, %rbp
	.seh_setframe	%rbp, 0
	.cfi_def_cfa_register 6
	subq	$32, %rsp
	.seh_stackalloc	32
	.seh_endprologue
	movq	%rcx, 16(%rbp)
	movq	%rdx, 24(%rbp)
	.loc 18 7 7
	movq	16(%rbp), %rax
	movq	24(%rbp), %rdx
	movq	%rax, %rcx
	call	_ZN10BaseObjectaSERKS_
	movq	24(%rbp), %rax
	movsd	8(%rax), %xmm0
	movq	16(%rbp), %rax
	movsd	%xmm0, 8(%rax)
	movq	24(%rbp), %rax
	movsd	16(%rax), %xmm0
	movq	16(%rbp), %rax
	movsd	%xmm0, 16(%rax)
	movq	24(%rbp), %rax
	movsd	24(%rax), %xmm0
	movq	16(%rbp), %rax
	movsd	%xmm0, 24(%rax)
	movq	24(%rbp), %rax
	movsd	32(%rax), %xmm0
	movq	16(%rbp), %rax
	movsd	%xmm0, 32(%rax)
	movq	24(%rbp), %rax
	movsd	40(%rax), %xmm0
	movq	16(%rbp), %rax
	movsd	%xmm0, 40(%rax)
	movq	24(%rbp), %rax
	movsd	48(%rax), %xmm0
	movq	16(%rbp), %rax
	movsd	%xmm0, 48(%rax)
	movq	24(%rbp), %rax
	movsd	56(%rax), %xmm0
	movq	16(%rbp), %rax
	movsd	%xmm0, 56(%rax)
	movq	24(%rbp), %rax
	movsd	64(%rax), %xmm0
	movq	16(%rbp), %rax
	movsd	%xmm0, 64(%rax)
	movq	24(%rbp), %rax
	movsd	72(%rax), %xmm0
	movq	16(%rbp), %rax
	movsd	%xmm0, 72(%rax)
	movq	24(%rbp), %rax
	movsd	80(%rax), %xmm0
	movq	16(%rbp), %rax
	movsd	%xmm0, 80(%rax)
	movq	24(%rbp), %rax
	movsd	88(%rax), %xmm0
	movq	16(%rbp), %rax
	movsd	%xmm0, 88(%rax)
	movq	16(%rbp), %rax
	addq	$32, %rsp
	popq	%rbp
	.cfi_restore 6
	.cfi_def_cfa 7, 8
	ret
	.cfi_endproc
.LFE11324:
	.seh_endproc
	.section .rdata,"dr"
.LC0:
	.ascii "Tabela F \0"
.LC1:
	.ascii "Mergulhante\0"
.LC2:
	.ascii "Vertical\0"
.LC3:
	.ascii " m/s  \0"
.LC4:
	.ascii "\12\0"
	.align 8
.LC5:
	.ascii "Alcance\11Elv\11D FS\11D Alc\11Garfo\11Tempo\11Derv\11Vento\11|\11Vo\11Vo\11Vento\11Vento\11Tmp\11Tmp\11Dens\11Dens\11Qd\11Qd\11\12\0"
	.align 8
.LC6:
	.ascii "\11\11 10m\11por mil\11\11Voo\11\11lateral\11|\11Dec\11Inc\11frente\11cauda\11Dec\11Inc\11Dec\11Inc\11Dec\11Inc\11\12\0"
.LC23:
	.ascii "\11\0"
.LC24:
	.ascii "\11|\11\0"
.LC25:
	.ascii "Fim.\12\0"
.LC26:
	.ascii " Conv \0"
.LC27:
	.ascii " Trj \0"
.LC28:
	.ascii " Out \0"
	.align 8
.LC29:
	.ascii "\12Limite de validade do Modelo.\12\0"
	.text
	.align 2
	.globl	_ZN15GeradorTabularF11gerarTabelaEP21CalculadorAtmosfericod15TIPO_TRAJETORIAdd
	.def	_ZN15GeradorTabularF11gerarTabelaEP21CalculadorAtmosfericod15TIPO_TRAJETORIAdd;	.scl	2;	.type	32;	.endef
	.seh_proc	_ZN15GeradorTabularF11gerarTabelaEP21CalculadorAtmosfericod15TIPO_TRAJETORIAdd
_ZN15GeradorTabularF11gerarTabelaEP21CalculadorAtmosfericod15TIPO_TRAJETORIAdd:
.LFB11322:
	.loc 17 23 1
	.cfi_startproc
	pushq	%rbp
	.seh_pushreg	%rbp
	.cfi_def_cfa_offset 16
	.cfi_offset 6, -16
	pushq	%rdi
	.seh_pushreg	%rdi
	.cfi_def_cfa_offset 24
	.cfi_offset 5, -24
	pushq	%rsi
	.seh_pushreg	%rsi
	.cfi_def_cfa_offset 32
	.cfi_offset 4, -32
	pushq	%rbx
	.seh_pushreg	%rbx
	.cfi_def_cfa_offset 40
	.cfi_offset 3, -40
	movl	$5400, %eax
	call	___chkstk_ms
	subq	%rax, %rsp
	.seh_stackalloc	5400
	.cfi_def_cfa_offset 5440
	leaq	128(%rsp), %rbp
	.seh_setframe	%rbp, 128
	.cfi_def_cfa 6, 5312
	movaps	%xmm6, 5232(%rbp)
	.seh_savexmm	%xmm6, 5360
	movaps	%xmm7, 5248(%rbp)
	.seh_savexmm	%xmm7, 5376
	.cfi_offset 23, -80
	.cfi_offset 24, -64
	.seh_endprologue
	movq	%rcx, 5312(%rbp)
	movq	%rdx, 5320(%rbp)
	movsd	%xmm2, 5328(%rbp)
	movl	%r9d, 5336(%rbp)
	.loc 17 25 15
	leaq	80(%rbp), %rax
	movq	%rax, %rcx
.LEHB6:
	call	_ZN12ElementosVooC1Ev
.LEHE6:
	.loc 17 26 19
	leaq	48(%rbp), %rax
	movq	%rax, %rcx
.LEHB7:
	call	_ZN16ElementosDisparoC1Ev
.LEHE7:
	.loc 17 27 40
	leaq	176(%rbp), %rax
	movsd	5344(%rbp), %xmm1
	movsd	5328(%rbp), %xmm0
	movq	5320(%rbp), %rdx
	movapd	%xmm1, %xmm3
	movapd	%xmm0, %xmm2
	movq	%rax, %rcx
.LEHB8:
	call	_ZN21CalculadorAtmosferico6limiteEdd
	.loc 17 27 61 discriminator 1
	movsd	192(%rbp), %xmm0
	cvttsd2si	%xmm0, %eax
	movl	%eax, 5204(%rbp)
	.loc 17 27 40 discriminator 1
	leaq	176(%rbp), %rax
	movq	%rax, %rcx
	call	_ZN12ElementosVooD1Ev
	.loc 17 28 12 discriminator 1
	movl	5204(%rbp), %ecx
	movl	$1374389535, %edx
	movl	%ecx, %eax
	imull	%edx
	sarl	$5, %edx
	movl	%ecx, %eax
	sarl	$31, %eax
	subl	%eax, %edx
	movl	%edx, %eax
	movl	%eax, 5204(%rbp)
	.loc 17 29 12 discriminator 1
	movl	5204(%rbp), %eax
	imull	$100, %eax, %eax
	movl	%eax, 5204(%rbp)
	.loc 17 31 5 discriminator 1
	movq	5312(%rbp), %rax
	movq	8(%rax), %rsi
	movq	5312(%rbp), %rax
	movq	8(%rax), %rax
	.loc 17 31 40 discriminator 1
	movq	(%rax), %rax
	addq	$1928, %rax
	movq	(%rax), %rbx
	.loc 17 31 28 discriminator 1
	leaq	272(%rbp), %rax
	leaq	.LC0(%rip), %rdx
	movq	%rax, %rcx
	call	_ZN8wxStringC1EPKc
.LEHE8:
	leaq	272(%rbp), %rax
	movq	%rax, %rdx
	movq	%rsi, %rcx
.LEHB9:
	call	*%rbx
.LVL2:
.LEHE9:
	.loc 17 31 28 is_stmt 0 discriminator 3
	leaq	272(%rbp), %rax
	movq	%rax, %rcx
	call	_ZN8wxStringD1Ev
	.loc 17 32 5 is_stmt 1 discriminator 3
	movq	5312(%rbp), %rax
	movq	8(%rax), %rdi
	movq	5312(%rbp), %rax
	movq	8(%rax), %rax
	.loc 17 32 158 discriminator 3
	movq	(%rax), %rax
	addq	$1928, %rax
	movq	(%rax), %rsi
	.loc 17 32 76 discriminator 3
	cmpl	$0, 5336(%rbp)
	jne	.L89
	.loc 17 32 76 is_stmt 0 discriminator 1
	leaq	.LC1(%rip), %rbx
	jmp	.L90
.L89:
	.loc 17 32 76 discriminator 2
	leaq	.LC2(%rip), %rbx
.L90:
	.loc 17 32 49 is_stmt 1 discriminator 4
	leaq	464(%rbp), %rax
	movsd	5328(%rbp), %xmm0
	movl	$1, %r8d
	movapd	%xmm0, %xmm1
	movq	%rax, %rcx
.LEHB10:
	call	_ZN8wxString10FromDoubleEdi
.LEHE10:
	.loc 17 32 65 discriminator 5
	leaq	416(%rbp), %rax
	leaq	464(%rbp), %rdx
	leaq	.LC3(%rip), %r8
	movq	%rax, %rcx
.LEHB11:
	call	_ZplRK8wxStringPKc
.LEHE11:
	.loc 17 32 76 discriminator 7
	leaq	368(%rbp), %rax
	leaq	416(%rbp), %rdx
	movq	%rbx, %r8
	movq	%rax, %rcx
.LEHB12:
	call	_ZplRK8wxStringPKc
.LEHE12:
	.loc 17 32 152 discriminator 9
	leaq	320(%rbp), %rax
	leaq	368(%rbp), %rdx
	leaq	.LC4(%rip), %r8
	movq	%rax, %rcx
.LEHB13:
	call	_ZplRK8wxStringPKc
.LEHE13:
	.loc 17 32 28 discriminator 11
	leaq	320(%rbp), %rax
	movq	%rax, %rdx
	movq	%rdi, %rcx
.LEHB14:
	call	*%rsi
.LVL3:
.LEHE14:
	.loc 17 32 152 discriminator 13
	leaq	320(%rbp), %rax
	movq	%rax, %rcx
	call	_ZN8wxStringD1Ev
	.loc 17 32 76 discriminator 13
	leaq	368(%rbp), %rax
	movq	%rax, %rcx
	call	_ZN8wxStringD1Ev
	.loc 17 32 65 discriminator 13
	leaq	416(%rbp), %rax
	movq	%rax, %rcx
	call	_ZN8wxStringD1Ev
	.loc 17 32 49 discriminator 13
	leaq	464(%rbp), %rax
	movq	%rax, %rcx
	call	_ZN8wxStringD1Ev
	.loc 17 33 5 discriminator 13
	movq	5312(%rbp), %rax
	movq	8(%rax), %rsi
	movq	5312(%rbp), %rax
	movq	8(%rax), %rax
	.loc 17 33 142 discriminator 13
	movq	(%rax), %rax
	addq	$1928, %rax
	movq	(%rax), %rbx
	.loc 17 33 28 discriminator 13
	leaq	512(%rbp), %rax
	leaq	.LC5(%rip), %rdx
	movq	%rax, %rcx
.LEHB15:
	call	_ZN8wxStringC1EPKc
.LEHE15:
	.loc 17 33 28 is_stmt 0 discriminator 1
	leaq	512(%rbp), %rax
	movq	%rax, %rdx
	movq	%rsi, %rcx
.LEHB16:
	call	*%rbx
.LVL4:
.LEHE16:
	.loc 17 33 28 discriminator 3
	leaq	512(%rbp), %rax
	movq	%rax, %rcx
	call	_ZN8wxStringD1Ev
	.loc 17 34 5 is_stmt 1 discriminator 3
	movq	5312(%rbp), %rax
	movq	8(%rax), %rsi
	movq	5312(%rbp), %rax
	movq	8(%rax), %rax
	.loc 17 34 128 discriminator 3
	movq	(%rax), %rax
	addq	$1928, %rax
	movq	(%rax), %rbx
	.loc 17 34 28 discriminator 3
	leaq	560(%rbp), %rax
	leaq	.LC6(%rip), %rdx
	movq	%rax, %rcx
.LEHB17:
	call	_ZN8wxStringC1EPKc
.LEHE17:
	.loc 17 34 28 is_stmt 0 discriminator 1
	leaq	560(%rbp), %rax
	movq	%rax, %rdx
	movq	%rsi, %rcx
.LEHB18:
	call	*%rbx
.LVL5:
.LEHE18:
	.loc 17 34 28 discriminator 3
	leaq	560(%rbp), %rax
	movq	%rax, %rcx
	call	_ZN8wxStringD1Ev
	.loc 17 36 12 is_stmt 1 discriminator 3
	movsd	.LC7(%rip), %xmm0
	movsd	%xmm0, 5192(%rbp)
	.loc 17 38 12 discriminator 3
	movsd	.LC8(%rip), %xmm0
	movsd	%xmm0, 5184(%rbp)
	.loc 17 42 32 discriminator 3
	movq	5320(%rbp), %rax
	movl	$0, %edx
	movq	%rax, %rcx
	call	_ZN21CalculadorAtmosferico15setChecarLimiteEb
	.loc 17 44 61 discriminator 3
	cmpl	$0, 5336(%rbp)
	je	.L91
	.loc 17 44 61 is_stmt 0 discriminator 1
	movl	5204(%rbp), %eax
	subl	$100, %eax
	jmp	.L92
.L91:
	.loc 17 44 61 discriminator 2
	movl	$100, %eax
.L92:
	.loc 17 44 9 is_stmt 1 discriminator 4
	movl	%eax, 5180(%rbp)
	.loc 17 45 58 discriminator 4
	cmpl	$0, 5336(%rbp)
	jne	.L93
	.loc 17 45 58 is_stmt 0 discriminator 1
	movl	5204(%rbp), %eax
	jmp	.L94
.L93:
	.loc 17 45 58 discriminator 2
	movl	$100, %eax
.L94:
	.loc 17 45 9 is_stmt 1 discriminator 4
	movl	%eax, 5176(%rbp)
	.loc 17 46 9 discriminator 4
	movl	$100, 5228(%rbp)
	.loc 17 47 5 discriminator 4
	cmpl	$0, 5336(%rbp)
	jne	.L95
	.loc 17 48 45
	leaq	48(%rbp), %rax
	movl	$1, %r9d
	pxor	%xmm2, %xmm2
	pxor	%xmm1, %xmm1
	movq	%rax, %rcx
.LEHB19:
	call	_ZN16ElementosDisparo19setElementosDisparoEddb
	jmp	.L96
.L95:
	.loc 17 51 45
	movsd	.LC10(%rip), %xmm0
	leaq	48(%rbp), %rax
	movl	$1, %r9d
	pxor	%xmm2, %xmm2
	movapd	%xmm0, %xmm1
	movq	%rax, %rcx
	call	_ZN16ElementosDisparo19setElementosDisparoEddb
.LEHE19:
	.loc 17 52 19
	negl	5228(%rbp)
.L96:
.LBB17:
	.loc 17 58 17
	movl	5180(%rbp), %eax
	movl	%eax, 5224(%rbp)
.L107:
	.loc 17 58 63 discriminator 1
	movl	5224(%rbp), %eax
	cmpl	5176(%rbp), %eax
	jge	.L97
	.loc 17 58 44 discriminator 3
	movl	5180(%rbp), %eax
	cmpl	5176(%rbp), %eax
	jl	.L98
.L97:
	.loc 17 58 63 discriminator 4
	movl	5224(%rbp), %eax
	cmpl	5176(%rbp), %eax
	jle	.L99
	.loc 17 58 83 discriminator 5
	movl	5180(%rbp), %eax
	cmpl	5176(%rbp), %eax
	jle	.L99
.L98:
.LBB18:
	.loc 17 63 152
	movq	5320(%rbp), %rax
	movq	(%rax), %rax
	addq	$8, %rax
	movq	(%rax), %rbx
	.loc 17 63 58
	leaq	48(%rbp), %rax
	movq	%rax, %rcx
	call	_ZN16ElementosDisparo11getElevacaoEv
	movq	%xmm0, %rcx
	cvtsi2sd	5224(%rbp), %xmm1
	leaq	608(%rbp), %rax
	movsd	5328(%rbp), %xmm2
	movq	5320(%rbp), %rdx
	movl	$1, 72(%rsp)
	movq	%rcx, 64(%rsp)
	movsd	5352(%rbp), %xmm0
	movsd	%xmm0, 56(%rsp)
	movsd	5344(%rbp), %xmm0
	movsd	%xmm0, 48(%rsp)
	movl	5336(%rbp), %ecx
	movl	%ecx, 40(%rsp)
	pxor	%xmm0, %xmm0
	movsd	%xmm0, 32(%rsp)
	movapd	%xmm2, %xmm3
	movapd	%xmm1, %xmm2
	movq	%rax, %rcx
.LEHB20:
	call	*%rbx
.LVL6:
.LEHE20:
	.loc 17 63 152 discriminator 1
	leaq	608(%rbp), %rdx
	leaq	48(%rbp), %rax
	movq	%rax, %rcx
	call	_ZN16ElementosDisparoaSEOS_
	.loc 17 63 58 discriminator 1
	leaq	608(%rbp), %rax
	movq	%rax, %rcx
	call	_ZN16ElementosDisparoD1Ev
.L124:
	.loc 17 96 63
	movq	5320(%rbp), %rbx
	leaq	48(%rbp), %rax
	movq	%rax, %rcx
	call	_ZN16ElementosDisparo11getElevacaoEv
	movq	%xmm0, %rdx
	leaq	864(%rbp), %rax
	movsd	5328(%rbp), %xmm1
	movl	$1, 48(%rsp)
	movsd	5344(%rbp), %xmm0
	movsd	%xmm0, 40(%rsp)
	pxor	%xmm0, %xmm0
	movsd	%xmm0, 32(%rsp)
	movapd	%xmm1, %xmm3
	movq	%rdx, %xmm2
	movq	%rbx, %rdx
	movq	%rax, %rcx
.LEHB21:
	call	_ZN10Calculador27solucaoDiretaUltimoElementoEdddd4RAMO
	.loc 17 96 118 discriminator 1
	leaq	864(%rbp), %rdx
	leaq	80(%rbp), %rax
	movq	%rax, %rcx
	call	_ZN12ElementosVooaSEOS_
	.loc 17 96 63 discriminator 1
	leaq	864(%rbp), %rax
	movq	%rax, %rcx
	call	_ZN12ElementosVooD1Ev
	.loc 17 97 22 discriminator 1
	leaq	-48(%rbp), %rax
	movq	%rax, %rcx
	call	_ZN12ElementosVooC1Ev
.LEHE21:
	.loc 17 100 45
	movsd	128(%rbp), %xmm0
	.loc 17 100 31
	movq	.LC11(%rip), %xmm1
	andpd	%xmm0, %xmm1
	.loc 17 100 16
	movsd	.LC12(%rip), %xmm0
	divsd	%xmm1, %xmm0
	movsd	%xmm0, 5216(%rbp)
	.loc 17 101 32
	movsd	168(%rbp), %xmm1
	.loc 17 101 9
	movsd	5216(%rbp), %xmm0
	comisd	%xmm1, %xmm0
	jb	.L100
	.loc 17 102 17
	pxor	%xmm0, %xmm0
	movsd	%xmm0, 5216(%rbp)
.L100:
	.loc 17 105 16
	movsd	.LC12(%rip), %xmm0
	movsd	%xmm0, 5208(%rbp)
	.loc 17 106 40
	leaq	48(%rbp), %rax
	movq	%rax, %rcx
	call	_ZN16ElementosDisparo11getElevacaoEv
	.loc 17 106 43
	comisd	.LC13(%rip), %xmm0
	seta	%al
	.loc 17 106 9
	testb	%al, %al
	je	.L102
	.loc 17 107 27
	movsd	5208(%rbp), %xmm0
	movq	.LC14(%rip), %xmm1
	xorpd	%xmm1, %xmm0
	movsd	%xmm0, 5208(%rbp)
.L102:
	.loc 17 108 66
	movq	5320(%rbp), %rbx
	.loc 17 108 95
	leaq	48(%rbp), %rax
	movq	%rax, %rcx
	call	_ZN16ElementosDisparo11getElevacaoEv
	.loc 17 108 66
	movapd	%xmm0, %xmm1
	addsd	5208(%rbp), %xmm1
	leaq	960(%rbp), %rax
	movsd	5328(%rbp), %xmm2
	movl	$1, 48(%rsp)
	movsd	5344(%rbp), %xmm0
	movsd	%xmm0, 40(%rsp)
	pxor	%xmm0, %xmm0
	movsd	%xmm0, 32(%rsp)
	movapd	%xmm2, %xmm3
	movapd	%xmm1, %xmm2
	movq	%rbx, %rdx
	movq	%rax, %rcx
.LEHB22:
	call	_ZN10Calculador27solucaoDiretaUltimoElementoEdddd4RAMO
	.loc 17 108 136 discriminator 1
	leaq	960(%rbp), %rdx
	leaq	-48(%rbp), %rax
	movq	%rax, %rcx
	call	_ZN12ElementosVooaSEOS_
	.loc 17 108 66 discriminator 1
	leaq	960(%rbp), %rax
	movq	%rax, %rcx
	call	_ZN12ElementosVooD1Ev
	.loc 17 109 63 discriminator 1
	movsd	-32(%rbp), %xmm0
	.loc 17 109 81 discriminator 1
	movsd	96(%rbp), %xmm1
	.loc 17 109 66 discriminator 1
	subsd	%xmm1, %xmm0
	.loc 17 109 46 discriminator 1
	movq	.LC11(%rip), %xmm1
	andpd	%xmm1, %xmm0
	.loc 17 109 16 discriminator 1
	divsd	5208(%rbp), %xmm0
	movsd	%xmm0, 5168(%rbp)
	.loc 17 112 23 discriminator 1
	movsd	.LC12(%rip), %xmm0
	movsd	%xmm0, 5208(%rbp)
	.loc 17 113 66 discriminator 1
	movq	5320(%rbp), %rbx
	.loc 17 113 95 discriminator 1
	leaq	48(%rbp), %rax
	movq	%rax, %rcx
	call	_ZN16ElementosDisparo11getElevacaoEv
	.loc 17 113 66 discriminator 1
	movapd	%xmm0, %xmm1
	addsd	5208(%rbp), %xmm1
	leaq	1056(%rbp), %rax
	movsd	5328(%rbp), %xmm2
	movl	$1, 48(%rsp)
	movsd	5344(%rbp), %xmm0
	movsd	%xmm0, 40(%rsp)
	pxor	%xmm0, %xmm0
	movsd	%xmm0, 32(%rsp)
	movapd	%xmm2, %xmm3
	movapd	%xmm1, %xmm2
	movq	%rbx, %rdx
	movq	%rax, %rcx
	call	_ZN10Calculador27solucaoDiretaUltimoElementoEdddd4RAMO
	.loc 17 113 137 discriminator 1
	leaq	1056(%rbp), %rdx
	leaq	-48(%rbp), %rax
	movq	%rax, %rcx
	call	_ZN12ElementosVooaSEOS_
	.loc 17 113 66 discriminator 1
	leaq	1056(%rbp), %rax
	movq	%rax, %rcx
	call	_ZN12ElementosVooD1Ev
	.loc 17 114 59 discriminator 1
	movsd	-32(%rbp), %xmm0
	.loc 17 114 77 discriminator 1
	movsd	96(%rbp), %xmm1
	.loc 17 114 62 discriminator 1
	subsd	%xmm1, %xmm0
	.loc 17 114 42 discriminator 1
	movq	.LC11(%rip), %xmm1
	andpd	%xmm1, %xmm0
	.loc 17 114 16 discriminator 1
	divsd	5208(%rbp), %xmm0
	movsd	%xmm0, 5160(%rbp)
	.loc 17 116 74 discriminator 1
	movl	$16, %ecx
	call	_Znwy
.LEHE22:
	movq	%rax, %rbx
	movsd	.LC15(%rip), %xmm0
	movapd	%xmm0, %xmm1
	movq	%rbx, %rcx
.LEHB23:
	call	_ZN22PesoDensidadeConstanteC1Ed
.LEHE23:
	.loc 17 116 74 is_stmt 0 discriminator 3
	movq	%rbx, 5152(%rbp)
	.loc 17 117 37 is_stmt 1 discriminator 3
	movq	5152(%rbp), %rdx
	movq	5320(%rbp), %rax
	movq	%rax, %rcx
.LEHB24:
	call	_ZN21CalculadorAtmosferico16setPesoDensidadeEP13PesoDensidade
	.loc 17 118 66
	movq	5320(%rbp), %rbx
	leaq	48(%rbp), %rax
	movq	%rax, %rcx
	call	_ZN16ElementosDisparo11getElevacaoEv
	movq	%xmm0, %rdx
	leaq	1152(%rbp), %rax
	movsd	5328(%rbp), %xmm1
	movl	$1, 48(%rsp)
	movsd	5344(%rbp), %xmm0
	movsd	%xmm0, 40(%rsp)
	pxor	%xmm0, %xmm0
	movsd	%xmm0, 32(%rsp)
	movapd	%xmm1, %xmm3
	movq	%rdx, %xmm2
	movq	%rbx, %rdx
	movq	%rax, %rcx
	call	_ZN10Calculador27solucaoDiretaUltimoElementoEdddd4RAMO
	.loc 17 118 121 discriminator 1
	leaq	1152(%rbp), %rdx
	leaq	-48(%rbp), %rax
	movq	%rax, %rcx
	call	_ZN12ElementosVooaSEOS_
	.loc 17 118 66 discriminator 1
	leaq	1152(%rbp), %rax
	movq	%rax, %rcx
	call	_ZN12ElementosVooD1Ev
	.loc 17 119 37 discriminator 1
	movq	5320(%rbp), %rax
	movl	$0, %edx
	movq	%rax, %rcx
	call	_ZN21CalculadorAtmosferico16setPesoDensidadeEP13PesoDensidade
	.loc 17 120 16
	movq	5152(%rbp), %rax
	movq	%rax, %rcx
	call	_ZdlPv
	.loc 17 121 57
	movsd	96(%rbp), %xmm0
	.loc 17 121 78
	movsd	-32(%rbp), %xmm1
	.loc 17 121 60
	subsd	%xmm1, %xmm0
	.loc 17 121 43
	movq	.LC11(%rip), %xmm1
	andpd	%xmm1, %xmm0
	.loc 17 121 16
	movsd	.LC12(%rip), %xmm1
	divsd	%xmm1, %xmm0
	movsd	%xmm0, 5144(%rbp)
	.loc 17 123 16
	movsd	.LC7(%rip), %xmm0
	movsd	%xmm0, 5136(%rbp)
	.loc 17 124 66
	movq	5320(%rbp), %rbx
	movsd	5328(%rbp), %xmm0
	movapd	%xmm0, %xmm6
	subsd	5136(%rbp), %xmm6
	leaq	48(%rbp), %rax
	movq	%rax, %rcx
	call	_ZN16ElementosDisparo11getElevacaoEv
	movq	%xmm0, %rdx
	leaq	1248(%rbp), %rax
	movl	$1, 48(%rsp)
	movsd	5344(%rbp), %xmm0
	movsd	%xmm0, 40(%rsp)
	pxor	%xmm0, %xmm0
	movsd	%xmm0, 32(%rsp)
	movapd	%xmm6, %xmm3
	movq	%rdx, %xmm2
	movq	%rbx, %rdx
	movq	%rax, %rcx
	call	_ZN10Calculador27solucaoDiretaUltimoElementoEdddd4RAMO
	.loc 17 124 140 discriminator 1
	leaq	1248(%rbp), %rdx
	leaq	-48(%rbp), %rax
	movq	%rax, %rcx
	call	_ZN12ElementosVooaSEOS_
	.loc 17 124 66 discriminator 1
	leaq	1248(%rbp), %rax
	movq	%rax, %rcx
	call	_ZN12ElementosVooD1Ev
	.loc 17 125 58 discriminator 1
	movsd	96(%rbp), %xmm0
	.loc 17 125 79 discriminator 1
	movsd	-32(%rbp), %xmm1
	.loc 17 125 61 discriminator 1
	subsd	%xmm1, %xmm0
	.loc 17 125 44 discriminator 1
	movq	.LC11(%rip), %xmm1
	andpd	%xmm1, %xmm0
	.loc 17 125 16 discriminator 1
	divsd	5136(%rbp), %xmm0
	movsd	%xmm0, 5128(%rbp)
	.loc 17 127 66 discriminator 1
	movq	.refptr.config(%rip), %rax
	movq	(%rax), %rax
	movq	%rax, %rcx
	call	_ZN12Configuracao27getDesvioProvavelVelocidadeEv
	movq	%xmm0, %rax
	movq	%rax, 5120(%rbp)
	.loc 17 128 60 discriminator 1
	movq	.refptr.config(%rip), %rax
	movq	(%rax), %rax
	movq	%rax, %rcx
	call	_ZN12Configuracao24getDesvioProvavelArrastoEv
	movq	%xmm0, %rax
	movq	%rax, 5112(%rbp)
	.loc 17 129 62 discriminator 1
	movq	.refptr.config(%rip), %rax
	movq	(%rax), %rax
	movq	%rax, %rcx
	call	_ZN12Configuracao25getDesvioProvavelElevacaoEv
	movq	%xmm0, %rax
	movq	%rax, 5104(%rbp)
	.loc 17 131 48 discriminator 1
	movsd	5128(%rbp), %xmm0
	mulsd	5120(%rbp), %xmm0
	movl	$2, %edx
	call	_ZSt3powIdiEN9__gnu_cxx11__promote_2IT_T0_NS0_9__promoteIS2_XsrSt12__is_integerIS2_E7__valueEE6__typeENS4_IS3_XsrS5_IS3_E7__valueEE6__typeEE6__typeES2_S3_
	movapd	%xmm0, %xmm6
	.loc 17 131 93 discriminator 1
	movsd	5144(%rbp), %xmm0
	mulsd	5112(%rbp), %xmm0
	movl	$2, %edx
	call	_ZSt3powIdiEN9__gnu_cxx11__promote_2IT_T0_NS0_9__promoteIS2_XsrSt12__is_integerIS2_E7__valueEE6__typeENS4_IS3_XsrS5_IS3_E7__valueEE6__typeEE6__typeES2_S3_
	.loc 17 131 88 discriminator 1
	addsd	%xmm0, %xmm6
	.loc 17 131 134 discriminator 1
	movsd	5160(%rbp), %xmm0
	mulsd	5104(%rbp), %xmm0
	movl	$2, %edx
	call	_ZSt3powIdiEN9__gnu_cxx11__promote_2IT_T0_NS0_9__promoteIS2_XsrSt12__is_integerIS2_E7__valueEE6__typeENS4_IS3_XsrS5_IS3_E7__valueEE6__typeEE6__typeES2_S3_
	.loc 17 131 44 discriminator 1
	addsd	%xmm6, %xmm0
	call	sqrt
	movq	%xmm0, %rax
	movq	%rax, 5096(%rbp)
	.loc 17 133 27 discriminator 1
	movsd	5096(%rbp), %xmm1
	movsd	.LC16(%rip), %xmm0
	mulsd	%xmm1, %xmm0
	.loc 17 133 16 discriminator 1
	divsd	5168(%rbp), %xmm0
	movsd	%xmm0, 5088(%rbp)
	.loc 17 138 41 discriminator 1
	movsd	112(%rbp), %xmm0
	.loc 17 138 43 discriminator 1
	cvtsi2sd	5224(%rbp), %xmm1
	.loc 17 138 16 discriminator 1
	divsd	%xmm1, %xmm0
	movsd	%xmm0, 5080(%rbp)
	.loc 17 139 25 discriminator 1
	movq	5080(%rbp), %rax
	movq	%rax, %xmm0
	call	atan
	movapd	%xmm0, %xmm1
	.loc 17 139 37 discriminator 1
	movsd	.LC17(%rip), %xmm0
	mulsd	%xmm1, %xmm0
	.loc 17 139 19 discriminator 1
	movsd	.LC18(%rip), %xmm1
	divsd	%xmm1, %xmm0
	movsd	%xmm0, 5080(%rbp)
	.loc 17 141 63 discriminator 1
	movsd	168(%rbp), %xmm6
	.loc 17 141 84 discriminator 1
	movsd	96(%rbp), %xmm7
	.loc 17 141 131 discriminator 1
	leaq	48(%rbp), %rax
	movq	%rax, %rcx
	call	_ZN16ElementosDisparo11getElevacaoEv
	movapd	%xmm0, %xmm1
	.loc 17 141 133 discriminator 1
	movsd	.LC18(%rip), %xmm0
	mulsd	%xmm1, %xmm0
	.loc 17 141 102 discriminator 1
	movsd	.LC17(%rip), %xmm1
	divsd	%xmm1, %xmm0
	call	cos
	.loc 17 141 98 discriminator 1
	mulsd	5328(%rbp), %xmm0
	.loc 17 141 86 discriminator 1
	divsd	%xmm0, %xmm7
	movapd	%xmm7, %xmm0
	.loc 17 141 69 discriminator 1
	subsd	%xmm0, %xmm6
	movapd	%xmm6, %xmm1
	.loc 17 141 48 discriminator 1
	movsd	.LC19(%rip), %xmm0
	mulsd	%xmm1, %xmm0
	.loc 17 141 182 discriminator 1
	movsd	96(%rbp), %xmm1
	.loc 17 141 184 discriminator 1
	divsd	%xmm1, %xmm0
	movsd	%xmm0, 5072(%rbp)
	.loc 17 142 28 discriminator 1
	movq	5072(%rbp), %rax
	movq	%rax, %xmm0
	call	atan
	movapd	%xmm0, %xmm1
	.loc 17 142 43 discriminator 1
	movsd	.LC17(%rip), %xmm0
	mulsd	%xmm1, %xmm0
	.loc 17 142 22 discriminator 1
	movsd	.LC18(%rip), %xmm1
	divsd	%xmm1, %xmm0
	movsd	%xmm0, 5072(%rbp)
	.loc 17 146 66 discriminator 1
	movq	5320(%rbp), %rbx
	movsd	5328(%rbp), %xmm0
	movapd	%xmm0, %xmm6
	subsd	5136(%rbp), %xmm6
	leaq	48(%rbp), %rax
	movq	%rax, %rcx
	call	_ZN16ElementosDisparo11getElevacaoEv
	movq	%xmm0, %rdx
	leaq	1344(%rbp), %rax
	movl	$1, 48(%rsp)
	movsd	5344(%rbp), %xmm0
	movsd	%xmm0, 40(%rsp)
	pxor	%xmm0, %xmm0
	movsd	%xmm0, 32(%rsp)
	movapd	%xmm6, %xmm3
	movq	%rdx, %xmm2
	movq	%rbx, %rdx
	movq	%rax, %rcx
	call	_ZN10Calculador27solucaoDiretaUltimoElementoEdddd4RAMO
	.loc 17 146 140 discriminator 1
	leaq	1344(%rbp), %rdx
	leaq	-48(%rbp), %rax
	movq	%rax, %rcx
	call	_ZN12ElementosVooaSEOS_
	.loc 17 146 66 discriminator 1
	leaq	1344(%rbp), %rax
	movq	%rax, %rcx
	call	_ZN12ElementosVooD1Ev
	.loc 17 147 39 discriminator 1
	movsd	96(%rbp), %xmm0
	.loc 17 147 60 discriminator 1
	movsd	-32(%rbp), %xmm1
	.loc 17 147 42 discriminator 1
	subsd	%xmm1, %xmm0
	.loc 17 147 23 discriminator 1
	divsd	5136(%rbp), %xmm0
	movsd	%xmm0, 5064(%rbp)
	.loc 17 148 66 discriminator 1
	movq	5320(%rbp), %rbx
	movsd	5328(%rbp), %xmm0
	movapd	%xmm0, %xmm6
	addsd	5136(%rbp), %xmm6
	leaq	48(%rbp), %rax
	movq	%rax, %rcx
	call	_ZN16ElementosDisparo11getElevacaoEv
	movq	%xmm0, %rdx
	leaq	1440(%rbp), %rax
	movl	$1, 48(%rsp)
	movsd	5344(%rbp), %xmm0
	movsd	%xmm0, 40(%rsp)
	pxor	%xmm0, %xmm0
	movsd	%xmm0, 32(%rsp)
	movapd	%xmm6, %xmm3
	movq	%rdx, %xmm2
	movq	%rbx, %rdx
	movq	%rax, %rcx
	call	_ZN10Calculador27solucaoDiretaUltimoElementoEdddd4RAMO
	.loc 17 148 140 discriminator 1
	leaq	1440(%rbp), %rdx
	leaq	-48(%rbp), %rax
	movq	%rax, %rcx
	call	_ZN12ElementosVooaSEOS_
	.loc 17 148 66 discriminator 1
	leaq	1440(%rbp), %rax
	movq	%rax, %rcx
	call	_ZN12ElementosVooD1Ev
	.loc 17 149 39 discriminator 1
	movsd	96(%rbp), %xmm0
	.loc 17 149 60 discriminator 1
	movsd	-32(%rbp), %xmm1
	.loc 17 149 42 discriminator 1
	subsd	%xmm1, %xmm0
	.loc 17 149 23 discriminator 1
	divsd	5136(%rbp), %xmm0
	movsd	%xmm0, 5056(%rbp)
	.loc 17 151 16 discriminator 1
	pxor	%xmm0, %xmm0
	movsd	%xmm0, 5048(%rbp)
	.loc 17 151 35 discriminator 1
	pxor	%xmm0, %xmm0
	movsd	%xmm0, 5040(%rbp)
	.loc 17 152 66 discriminator 1
	movl	$24, %ecx
	call	_Znwy
.LEHE24:
	movq	%rax, %rbx
	movsd	5184(%rbp), %xmm0
	pxor	%xmm2, %xmm2
	movapd	%xmm0, %xmm1
	movq	%rbx, %rcx
.LEHB25:
	call	_ZN14VentoConstanteC1Edd
.LEHE25:
	.loc 17 152 66 is_stmt 0 discriminator 3
	movq	%rbx, 5032(%rbp)
	.loc 17 153 29 is_stmt 1 discriminator 3
	movq	5032(%rbp), %rdx
	movq	5320(%rbp), %rax
	movq	%rax, %rcx
.LEHB26:
	call	_ZN21CalculadorAtmosferico8setVentoEP5Vento
	.loc 17 154 66
	movq	5320(%rbp), %rbx
	leaq	48(%rbp), %rax
	movq	%rax, %rcx
	call	_ZN16ElementosDisparo11getElevacaoEv
	movq	%xmm0, %rdx
	leaq	1536(%rbp), %rax
	movsd	5328(%rbp), %xmm1
	movl	$1, 48(%rsp)
	movsd	5344(%rbp), %xmm0
	movsd	%xmm0, 40(%rsp)
	pxor	%xmm0, %xmm0
	movsd	%xmm0, 32(%rsp)
	movapd	%xmm1, %xmm3
	movq	%rdx, %xmm2
	movq	%rbx, %rdx
	movq	%rax, %rcx
	call	_ZN10Calculador27solucaoDiretaUltimoElementoEdddd4RAMO
	.loc 17 154 125 discriminator 1
	leaq	1536(%rbp), %rdx
	leaq	-48(%rbp), %rax
	movq	%rax, %rcx
	call	_ZN12ElementosVooaSEOS_
	.loc 17 154 66 discriminator 1
	leaq	1536(%rbp), %rax
	movq	%rax, %rcx
	call	_ZN12ElementosVooD1Ev
	.loc 17 155 36 discriminator 1
	movsd	96(%rbp), %xmm0
	.loc 17 155 57 discriminator 1
	movsd	-32(%rbp), %xmm1
	.loc 17 155 39 discriminator 1
	subsd	%xmm1, %xmm0
	.loc 17 155 20 discriminator 1
	divsd	5184(%rbp), %xmm0
	movsd	%xmm0, 5040(%rbp)
	.loc 17 156 46 discriminator 1
	movsd	5184(%rbp), %xmm0
	movq	.LC14(%rip), %xmm1
	xorpd	%xmm1, %xmm0
	movq	5032(%rbp), %rax
	movapd	%xmm0, %xmm1
	movq	%rax, %rcx
	call	_ZN14VentoConstante30setVelocidadeVentoLongitudinalEd
	.loc 17 157 66 discriminator 1
	movq	5320(%rbp), %rbx
	movsd	5328(%rbp), %xmm1
	pxor	%xmm0, %xmm0
	movapd	%xmm1, %xmm6
	addsd	%xmm0, %xmm6
	leaq	48(%rbp), %rax
	movq	%rax, %rcx
	call	_ZN16ElementosDisparo11getElevacaoEv
	movq	%xmm0, %rdx
	leaq	1632(%rbp), %rax
	movl	$1, 48(%rsp)
	movsd	5344(%rbp), %xmm0
	movsd	%xmm0, 40(%rsp)
	pxor	%xmm0, %xmm0
	movsd	%xmm0, 32(%rsp)
	movapd	%xmm6, %xmm3
	movq	%rdx, %xmm2
	movq	%rbx, %rdx
	movq	%rax, %rcx
	call	_ZN10Calculador27solucaoDiretaUltimoElementoEdddd4RAMO
	.loc 17 157 125 discriminator 1
	leaq	1632(%rbp), %rdx
	leaq	-48(%rbp), %rax
	movq	%rax, %rcx
	call	_ZN12ElementosVooaSEOS_
	.loc 17 157 66 discriminator 1
	leaq	1632(%rbp), %rax
	movq	%rax, %rcx
	call	_ZN12ElementosVooD1Ev
	.loc 17 158 37 discriminator 1
	movsd	96(%rbp), %xmm0
	.loc 17 158 58 discriminator 1
	movsd	-32(%rbp), %xmm1
	.loc 17 158 40 discriminator 1
	subsd	%xmm1, %xmm0
	.loc 17 158 21 discriminator 1
	divsd	5184(%rbp), %xmm0
	movsd	%xmm0, 5048(%rbp)
	.loc 17 159 29 discriminator 1
	movq	5320(%rbp), %rax
	movl	$0, %edx
	movq	%rax, %rcx
	call	_ZN21CalculadorAtmosferico8setVentoEP5Vento
	.loc 17 160 21
	cmpq	$0, 5032(%rbp)
	je	.L103
	.loc 17 160 16 discriminator 1
	movq	5032(%rbp), %rax
	movq	(%rax), %rax
	addq	$8, %rax
	movq	(%rax), %rax
	movq	5032(%rbp), %rdx
	movq	%rdx, %rcx
	call	*%rax
.LVL7:
.L103:
	.loc 17 162 16
	pxor	%xmm0, %xmm0
	movsd	%xmm0, 5024(%rbp)
	.loc 17 162 36
	pxor	%xmm0, %xmm0
	movsd	%xmm0, 5016(%rbp)
	.loc 17 163 51
	movl	$16, %ecx
	call	_Znwy
.LEHE26:
	movq	%rax, %rbx
	movsd	.LC15(%rip), %xmm0
	movapd	%xmm0, %xmm1
	movq	%rbx, %rcx
.LEHB27:
	call	_ZN22PesoDensidadeConstanteC1Ed
.LEHE27:
	.loc 17 163 18 discriminator 3
	movq	%rbx, 5152(%rbp)
	.loc 17 164 37 discriminator 3
	movq	5152(%rbp), %rdx
	movq	5320(%rbp), %rax
	movq	%rax, %rcx
.LEHB28:
	call	_ZN21CalculadorAtmosferico16setPesoDensidadeEP13PesoDensidade
	.loc 17 165 66
	movq	5320(%rbp), %rbx
	leaq	48(%rbp), %rax
	movq	%rax, %rcx
	call	_ZN16ElementosDisparo11getElevacaoEv
	movq	%xmm0, %rdx
	leaq	1728(%rbp), %rax
	movsd	5328(%rbp), %xmm1
	movl	$1, 48(%rsp)
	movsd	5344(%rbp), %xmm0
	movsd	%xmm0, 40(%rsp)
	pxor	%xmm0, %xmm0
	movsd	%xmm0, 32(%rsp)
	movapd	%xmm1, %xmm3
	movq	%rdx, %xmm2
	movq	%rbx, %rdx
	movq	%rax, %rcx
	call	_ZN10Calculador27solucaoDiretaUltimoElementoEdddd4RAMO
	.loc 17 165 121 discriminator 1
	leaq	1728(%rbp), %rdx
	leaq	-48(%rbp), %rax
	movq	%rax, %rcx
	call	_ZN12ElementosVooaSEOS_
	.loc 17 165 66 discriminator 1
	leaq	1728(%rbp), %rax
	movq	%rax, %rcx
	call	_ZN12ElementosVooD1Ev
	.loc 17 166 38 discriminator 1
	movsd	96(%rbp), %xmm0
	.loc 17 166 59 discriminator 1
	movsd	-32(%rbp), %xmm1
	.loc 17 166 41 discriminator 1
	subsd	%xmm1, %xmm0
	.loc 17 166 22 discriminator 1
	movsd	.LC12(%rip), %xmm1
	divsd	%xmm1, %xmm0
	movsd	%xmm0, 5016(%rbp)
	.loc 17 167 35 discriminator 1
	movsd	.LC20(%rip), %xmm0
	movq	5152(%rbp), %rax
	movapd	%xmm0, %xmm1
	movq	%rax, %rcx
	call	_ZN22PesoDensidadeConstante16setPesoDensidadeEd
	.loc 17 168 66 discriminator 1
	movq	5320(%rbp), %rbx
	leaq	48(%rbp), %rax
	movq	%rax, %rcx
	call	_ZN16ElementosDisparo11getElevacaoEv
	movq	%xmm0, %rdx
	leaq	1824(%rbp), %rax
	movsd	5328(%rbp), %xmm1
	movl	$1, 48(%rsp)
	movsd	5344(%rbp), %xmm0
	movsd	%xmm0, 40(%rsp)
	pxor	%xmm0, %xmm0
	movsd	%xmm0, 32(%rsp)
	movapd	%xmm1, %xmm3
	movq	%rdx, %xmm2
	movq	%rbx, %rdx
	movq	%rax, %rcx
	call	_ZN10Calculador27solucaoDiretaUltimoElementoEdddd4RAMO
	.loc 17 168 121 discriminator 1
	leaq	1824(%rbp), %rdx
	leaq	-48(%rbp), %rax
	movq	%rax, %rcx
	call	_ZN12ElementosVooaSEOS_
	.loc 17 168 66 discriminator 1
	leaq	1824(%rbp), %rax
	movq	%rax, %rcx
	call	_ZN12ElementosVooD1Ev
	.loc 17 169 38 discriminator 1
	movsd	96(%rbp), %xmm0
	.loc 17 169 59 discriminator 1
	movsd	-32(%rbp), %xmm1
	.loc 17 169 41 discriminator 1
	subsd	%xmm1, %xmm0
	.loc 17 169 22 discriminator 1
	movsd	.LC12(%rip), %xmm1
	divsd	%xmm1, %xmm0
	movsd	%xmm0, 5024(%rbp)
	.loc 17 170 37 discriminator 1
	movq	5320(%rbp), %rax
	movl	$0, %edx
	movq	%rax, %rcx
	call	_ZN21CalculadorAtmosferico16setPesoDensidadeEP13PesoDensidade
	.loc 17 171 16
	movq	5152(%rbp), %rax
	movq	%rax, %rcx
	call	_ZdlPv
	.loc 17 173 16
	pxor	%xmm0, %xmm0
	movsd	%xmm0, 5008(%rbp)
	.loc 17 173 31
	pxor	%xmm0, %xmm0
	movsd	%xmm0, 5000(%rbp)
	.loc 17 174 79
	movl	$16, %ecx
	call	_Znwy
.LEHE28:
	movq	%rax, %rbx
	movsd	.LC15(%rip), %xmm0
	movapd	%xmm0, %xmm1
	movq	%rbx, %rcx
.LEHB29:
	call	_ZN24PesoTemperaturaConstanteC1Ed
.LEHE29:
	.loc 17 174 79 is_stmt 0 discriminator 3
	movq	%rbx, 4992(%rbp)
	.loc 17 175 39 is_stmt 1 discriminator 3
	movq	4992(%rbp), %rdx
	movq	5320(%rbp), %rax
	movq	%rax, %rcx
.LEHB30:
	call	_ZN21CalculadorAtmosferico18setPesoTemperaturaEP15PesoTemperatura
	.loc 17 176 66
	movq	5320(%rbp), %rbx
	leaq	48(%rbp), %rax
	movq	%rax, %rcx
	call	_ZN16ElementosDisparo11getElevacaoEv
	movq	%xmm0, %rdx
	leaq	1920(%rbp), %rax
	movsd	5328(%rbp), %xmm1
	movl	$1, 48(%rsp)
	movsd	5344(%rbp), %xmm0
	movsd	%xmm0, 40(%rsp)
	pxor	%xmm0, %xmm0
	movsd	%xmm0, 32(%rsp)
	movapd	%xmm1, %xmm3
	movq	%rdx, %xmm2
	movq	%rbx, %rdx
	movq	%rax, %rcx
	call	_ZN10Calculador27solucaoDiretaUltimoElementoEdddd4RAMO
	.loc 17 176 121 discriminator 1
	leaq	1920(%rbp), %rdx
	leaq	-48(%rbp), %rax
	movq	%rax, %rcx
	call	_ZN12ElementosVooaSEOS_
	.loc 17 176 66 discriminator 1
	leaq	1920(%rbp), %rax
	movq	%rax, %rcx
	call	_ZN12ElementosVooD1Ev
	.loc 17 177 33 discriminator 1
	movsd	96(%rbp), %xmm0
	.loc 17 177 54 discriminator 1
	movsd	-32(%rbp), %xmm1
	.loc 17 177 36 discriminator 1
	subsd	%xmm1, %xmm0
	.loc 17 177 17 discriminator 1
	movsd	.LC12(%rip), %xmm1
	divsd	%xmm1, %xmm0
	movsd	%xmm0, 5000(%rbp)
	.loc 17 178 37 discriminator 1
	movsd	.LC20(%rip), %xmm0
	movq	4992(%rbp), %rax
	movapd	%xmm0, %xmm1
	movq	%rax, %rcx
	call	_ZN24PesoTemperaturaConstante18setPesoTemperaturaEd
	.loc 17 179 66 discriminator 1
	movq	5320(%rbp), %rbx
	leaq	48(%rbp), %rax
	movq	%rax, %rcx
	call	_ZN16ElementosDisparo11getElevacaoEv
	movq	%xmm0, %rdx
	leaq	2016(%rbp), %rax
	movsd	5328(%rbp), %xmm1
	movl	$1, 48(%rsp)
	movsd	5344(%rbp), %xmm0
	movsd	%xmm0, 40(%rsp)
	pxor	%xmm0, %xmm0
	movsd	%xmm0, 32(%rsp)
	movapd	%xmm1, %xmm3
	movq	%rdx, %xmm2
	movq	%rbx, %rdx
	movq	%rax, %rcx
	call	_ZN10Calculador27solucaoDiretaUltimoElementoEdddd4RAMO
	.loc 17 179 121 discriminator 1
	leaq	2016(%rbp), %rdx
	leaq	-48(%rbp), %rax
	movq	%rax, %rcx
	call	_ZN12ElementosVooaSEOS_
	.loc 17 179 66 discriminator 1
	leaq	2016(%rbp), %rax
	movq	%rax, %rcx
	call	_ZN12ElementosVooD1Ev
	.loc 17 180 33 discriminator 1
	movsd	96(%rbp), %xmm0
	.loc 17 180 54 discriminator 1
	movsd	-32(%rbp), %xmm1
	.loc 17 180 36 discriminator 1
	subsd	%xmm1, %xmm0
	.loc 17 180 17 discriminator 1
	movsd	.LC12(%rip), %xmm1
	divsd	%xmm1, %xmm0
	movsd	%xmm0, 5008(%rbp)
	.loc 17 181 39 discriminator 1
	movq	5320(%rbp), %rax
	movl	$0, %edx
	movq	%rax, %rcx
	call	_ZN21CalculadorAtmosferico18setPesoTemperaturaEP15PesoTemperatura
	.loc 17 182 16
	movq	4992(%rbp), %rax
	movq	%rax, %rcx
	call	_ZdlPv
	.loc 17 184 16
	pxor	%xmm0, %xmm0
	movsd	%xmm0, 4984(%rbp)
	.loc 17 184 31
	pxor	%xmm0, %xmm0
	movsd	%xmm0, 4976(%rbp)
	.loc 17 185 63
	movq	.refptr.config(%rip), %rax
	movq	(%rax), %rax
	movq	%rax, %rcx
	call	_ZN12Configuracao22getDeltaPesoFormFactorEv
	movq	%xmm0, %rax
	movq	%rax, 4968(%rbp)
	.loc 17 186 48
	movq	5320(%rbp), %rax
	movq	%rax, %rcx
	call	_ZN21CalculadorAtmosferico13getMassaTotalEv
	movq	%xmm0, %rax
	movq	%rax, 4960(%rbp)
	.loc 17 187 59
	movq	5320(%rbp), %rax
	movq	%rax, %rcx
	call	_ZN21CalculadorAtmosferico18getQuadradosPadraoEv
	movq	%xmm0, %rax
	movq	%rax, 4952(%rbp)
	.loc 17 188 39
	movsd	4952(%rbp), %xmm1
	movsd	.LC21(%rip), %xmm0
	addsd	%xmm1, %xmm0
	movq	5320(%rbp), %rax
	movapd	%xmm0, %xmm1
	movq	%rax, %rcx
	call	_ZN21CalculadorAtmosferico18setNumeroQuadradosEd
	.loc 17 189 46
	movq	5320(%rbp), %rax
	movq	%rax, %rcx
	call	_ZN21CalculadorAtmosferico13getMassaTotalEv
	movq	%xmm0, %rax
	movq	%rax, 4944(%rbp)
	.loc 17 190 58
	movsd	4960(%rbp), %xmm1
	movsd	.LC22(%rip), %xmm0
	mulsd	%xmm1, %xmm0
	.loc 17 190 134
	movsd	4944(%rbp), %xmm2
	movsd	.LC22(%rip), %xmm1
	mulsd	%xmm2, %xmm1
	.loc 17 190 45
	divsd	%xmm1, %xmm0
	call	sqrt
	.loc 17 190 40
	mulsd	4968(%rbp), %xmm0
	.loc 17 190 24
	movsd	5328(%rbp), %xmm1
	mulsd	%xmm1, %xmm0
	movsd	%xmm0, 4936(%rbp)
	.loc 17 191 66
	movq	5320(%rbp), %rbx
	leaq	48(%rbp), %rax
	movq	%rax, %rcx
	call	_ZN16ElementosDisparo11getElevacaoEv
	movq	%xmm0, %rdx
	leaq	2112(%rbp), %rax
	movsd	4936(%rbp), %xmm1
	movl	$1, 48(%rsp)
	movsd	5344(%rbp), %xmm0
	movsd	%xmm0, 40(%rsp)
	pxor	%xmm0, %xmm0
	movsd	%xmm0, 32(%rsp)
	movapd	%xmm1, %xmm3
	movq	%rdx, %xmm2
	movq	%rbx, %rdx
	movq	%rax, %rcx
	call	_ZN10Calculador27solucaoDiretaUltimoElementoEdddd4RAMO
	.loc 17 191 125 discriminator 1
	leaq	2112(%rbp), %rdx
	leaq	-48(%rbp), %rax
	movq	%rax, %rcx
	call	_ZN12ElementosVooaSEOS_
	.loc 17 191 66 discriminator 1
	leaq	2112(%rbp), %rax
	movq	%rax, %rcx
	call	_ZN12ElementosVooD1Ev
	.loc 17 192 33 discriminator 1
	movsd	96(%rbp), %xmm0
	.loc 17 192 54 discriminator 1
	movsd	-32(%rbp), %xmm1
	.loc 17 192 17 discriminator 1
	subsd	%xmm1, %xmm0
	movsd	%xmm0, 4976(%rbp)
	.loc 17 193 39 discriminator 1
	movsd	4952(%rbp), %xmm0
	movsd	.LC21(%rip), %xmm1
	subsd	%xmm1, %xmm0
	movq	5320(%rbp), %rax
	movapd	%xmm0, %xmm1
	movq	%rax, %rcx
	call	_ZN21CalculadorAtmosferico18setNumeroQuadradosEd
	.loc 17 194 46
	movq	5320(%rbp), %rax
	movq	%rax, %rcx
	call	_ZN21CalculadorAtmosferico13getMassaTotalEv
	movq	%xmm0, %rax
	movq	%rax, 4944(%rbp)
	.loc 17 195 30
	movsd	.LC21(%rip), %xmm0
	movapd	%xmm0, %xmm6
	divsd	4968(%rbp), %xmm6
	.loc 17 195 51
	movsd	4960(%rbp), %xmm0
	divsd	4944(%rbp), %xmm0
	call	sqrt
	.loc 17 195 46
	mulsd	%xmm6, %xmm0
	.loc 17 195 24
	movsd	5328(%rbp), %xmm1
	mulsd	%xmm1, %xmm0
	movsd	%xmm0, 4936(%rbp)
	.loc 17 196 66
	movq	5320(%rbp), %rbx
	leaq	48(%rbp), %rax
	movq	%rax, %rcx
	call	_ZN16ElementosDisparo11getElevacaoEv
	movq	%xmm0, %rdx
	leaq	2208(%rbp), %rax
	movsd	4936(%rbp), %xmm1
	movl	$1, 48(%rsp)
	movsd	5344(%rbp), %xmm0
	movsd	%xmm0, 40(%rsp)
	pxor	%xmm0, %xmm0
	movsd	%xmm0, 32(%rsp)
	movapd	%xmm1, %xmm3
	movq	%rdx, %xmm2
	movq	%rbx, %rdx
	movq	%rax, %rcx
	call	_ZN10Calculador27solucaoDiretaUltimoElementoEdddd4RAMO
	.loc 17 196 125 discriminator 1
	leaq	2208(%rbp), %rdx
	leaq	-48(%rbp), %rax
	movq	%rax, %rcx
	call	_ZN12ElementosVooaSEOS_
	.loc 17 196 66 discriminator 1
	leaq	2208(%rbp), %rax
	movq	%rax, %rcx
	call	_ZN12ElementosVooD1Ev
	.loc 17 197 33 discriminator 1
	movsd	96(%rbp), %xmm0
	.loc 17 197 54 discriminator 1
	movsd	-32(%rbp), %xmm1
	.loc 17 197 17 discriminator 1
	subsd	%xmm1, %xmm0
	movsd	%xmm0, 4984(%rbp)
	.loc 17 198 45 discriminator 1
	movq	5320(%rbp), %rax
	movq	%rax, %rcx
	call	_ZN21CalculadorAtmosferico24setNumeroQuadradosPadraoEv
	.loc 17 201 9
	movq	5312(%rbp), %rax
	movq	8(%rax), %rsi
	movq	5312(%rbp), %rax
	movq	8(%rax), %rax
	.loc 17 207 108
	movq	(%rax), %rax
	addq	$1928, %rax
	movq	(%rax), %rbx
	.loc 17 207 89
	leaq	2400(%rbp), %rax
	movsd	4976(%rbp), %xmm0
	movl	$0, %r8d
	movapd	%xmm0, %xmm1
	movq	%rax, %rcx
	call	_ZN8wxString10FromDoubleEdi
.LEHE30:
	.loc 17 207 47 discriminator 1
	leaq	2544(%rbp), %rax
	movsd	4984(%rbp), %xmm0
	movl	$0, %r8d
	movapd	%xmm0, %xmm1
	movq	%rax, %rcx
.LEHB31:
	call	_ZN8wxString10FromDoubleEdi
.LEHE31:
	.loc 17 206 94
	leaq	2688(%rbp), %rax
	movsd	5016(%rbp), %xmm0
	movl	$1, %r8d
	movapd	%xmm0, %xmm1
	movq	%rax, %rcx
.LEHB32:
	call	_ZN8wxString10FromDoubleEdi
.LEHE32:
	.loc 17 206 47 discriminator 1
	leaq	2832(%rbp), %rax
	movsd	5024(%rbp), %xmm0
	movl	$1, %r8d
	movapd	%xmm0, %xmm1
	movq	%rax, %rcx
.LEHB33:
	call	_ZN8wxString10FromDoubleEdi
.LEHE33:
	.loc 17 205 89
	leaq	2976(%rbp), %rax
	movsd	5000(%rbp), %xmm0
	movl	$1, %r8d
	movapd	%xmm0, %xmm1
	movq	%rax, %rcx
.LEHB34:
	call	_ZN8wxString10FromDoubleEdi
.LEHE34:
	.loc 17 205 47 discriminator 1
	leaq	3120(%rbp), %rax
	movsd	5008(%rbp), %xmm0
	movl	$1, %r8d
	movapd	%xmm0, %xmm1
	movq	%rax, %rcx
.LEHB35:
	call	_ZN8wxString10FromDoubleEdi
.LEHE35:
	.loc 17 204 93
	leaq	3264(%rbp), %rax
	movsd	5040(%rbp), %xmm0
	movl	$1, %r8d
	movapd	%xmm0, %xmm1
	movq	%rax, %rcx
.LEHB36:
	call	_ZN8wxString10FromDoubleEdi
.LEHE36:
	.loc 17 204 47 discriminator 1
	leaq	3408(%rbp), %rax
	movsd	5048(%rbp), %xmm0
	movl	$1, %r8d
	movapd	%xmm0, %xmm1
	movq	%rax, %rcx
.LEHB37:
	call	_ZN8wxString10FromDoubleEdi
.LEHE37:
	.loc 17 203 145
	leaq	3552(%rbp), %rax
	movsd	5056(%rbp), %xmm0
	movl	$1, %r8d
	movapd	%xmm0, %xmm1
	movq	%rax, %rcx
.LEHB38:
	call	_ZN8wxString10FromDoubleEdi
.LEHE38:
	.loc 17 203 97 discriminator 1
	leaq	3696(%rbp), %rax
	movsd	5064(%rbp), %xmm0
	movl	$1, %r8d
	movapd	%xmm0, %xmm1
	movq	%rax, %rcx
.LEHB39:
	call	_ZN8wxString10FromDoubleEdi
.LEHE39:
	.loc 17 203 47 discriminator 3
	leaq	3840(%rbp), %rax
	movsd	5072(%rbp), %xmm0
	movl	$2, %r8d
	movapd	%xmm0, %xmm1
	movq	%rax, %rcx
.LEHB40:
	call	_ZN8wxString10FromDoubleEdi
.LEHE40:
	.loc 17 202 236
	leaq	3984(%rbp), %rax
	movsd	5080(%rbp), %xmm0
	movl	$1, %r8d
	movapd	%xmm0, %xmm1
	movq	%rax, %rcx
.LEHB41:
	call	_ZN8wxString10FromDoubleEdi
.LEHE41:
	.loc 17 202 183 discriminator 1
	movsd	168(%rbp), %xmm0
	leaq	4128(%rbp), %rax
	movl	$1, %r8d
	movapd	%xmm0, %xmm1
	movq	%rax, %rcx
.LEHB42:
	call	_ZN8wxString10FromDoubleEdi
.LEHE42:
	.loc 17 202 143 discriminator 3
	leaq	4272(%rbp), %rax
	movsd	5088(%rbp), %xmm0
	movl	$0, %r8d
	movapd	%xmm0, %xmm1
	movq	%rax, %rcx
.LEHB43:
	call	_ZN8wxString10FromDoubleEdi
.LEHE43:
	.loc 17 202 85 discriminator 5
	leaq	4416(%rbp), %rax
	movsd	5168(%rbp), %xmm0
	movl	$0, %r8d
	movapd	%xmm0, %xmm1
	movq	%rax, %rcx
.LEHB44:
	call	_ZN8wxString10FromDoubleEdi
.LEHE44:
	.loc 17 202 47 discriminator 7
	leaq	4560(%rbp), %rax
	movsd	5216(%rbp), %xmm0
	movl	$2, %r8d
	movapd	%xmm0, %xmm1
	movq	%rax, %rcx
.LEHB45:
	call	_ZN8wxString10FromDoubleEdi
.LEHE45:
	.loc 17 201 92
	leaq	48(%rbp), %rax
	movq	%rax, %rcx
	call	_ZN16ElementosDisparo11getElevacaoEv
	movq	%xmm0, %rdx
	leaq	4704(%rbp), %rax
	movl	$1, %r8d
	movq	%rdx, %xmm1
	movq	%rax, %rcx
.LEHB46:
	call	_ZN8wxString10FromDoubleEdi
.LEHE46:
	.loc 17 201 53 discriminator 1
	cvtsi2sd	5224(%rbp), %xmm0
	leaq	4800(%rbp), %rax
	movl	$-1, %r8d
	movapd	%xmm0, %xmm1
	movq	%rax, %rcx
.LEHB47:
	call	_ZN8wxString10FromDoubleEdi
.LEHE47:
	.loc 17 201 63 discriminator 3
	leaq	4752(%rbp), %rax
	leaq	4800(%rbp), %rdx
	leaq	.LC23(%rip), %r8
	movq	%rax, %rcx
.LEHB48:
	call	_ZplRK8wxStringPKc
.LEHE48:
	.loc 17 201 70 discriminator 5
	leaq	4656(%rbp), %rax
	leaq	4704(%rbp), %rcx
	leaq	4752(%rbp), %rdx
	movq	%rcx, %r8
	movq	%rax, %rcx
.LEHB49:
	call	_ZplRK8wxStringS1_
.LEHE49:
	.loc 17 201 128 discriminator 7
	leaq	4608(%rbp), %rax
	leaq	4656(%rbp), %rdx
	leaq	.LC23(%rip), %r8
	movq	%rax, %rcx
.LEHB50:
	call	_ZplRK8wxStringPKc
.LEHE50:
	.loc 17 202 25
	leaq	4512(%rbp), %rax
	leaq	4560(%rbp), %rcx
	leaq	4608(%rbp), %rdx
	movq	%rcx, %r8
	movq	%rax, %rcx
.LEHB51:
	call	_ZplRK8wxStringS1_
.LEHE51:
	.loc 17 202 56 discriminator 9
	leaq	4464(%rbp), %rax
	leaq	4512(%rbp), %rdx
	leaq	.LC23(%rip), %r8
	movq	%rax, %rcx
.LEHB52:
	call	_ZplRK8wxStringPKc
.LEHE52:
	.loc 17 202 63 discriminator 11
	leaq	4368(%rbp), %rax
	leaq	4416(%rbp), %rcx
	leaq	4464(%rbp), %rdx
	movq	%rcx, %r8
	movq	%rax, %rcx
.LEHB53:
	call	_ZplRK8wxStringS1_
.LEHE53:
	.loc 17 202 114 discriminator 13
	leaq	4320(%rbp), %rax
	leaq	4368(%rbp), %rdx
	leaq	.LC23(%rip), %r8
	movq	%rax, %rcx
.LEHB54:
	call	_ZplRK8wxStringPKc
.LEHE54:
	.loc 17 202 121 discriminator 15
	leaq	4224(%rbp), %rax
	leaq	4272(%rbp), %rcx
	leaq	4320(%rbp), %rdx
	movq	%rcx, %r8
	movq	%rax, %rcx
.LEHB55:
	call	_ZplRK8wxStringS1_
.LEHE55:
	.loc 17 202 154 discriminator 17
	leaq	4176(%rbp), %rax
	leaq	4224(%rbp), %rdx
	leaq	.LC23(%rip), %r8
	movq	%rax, %rcx
.LEHB56:
	call	_ZplRK8wxStringPKc
.LEHE56:
	.loc 17 202 161 discriminator 19
	leaq	4080(%rbp), %rax
	leaq	4128(%rbp), %rcx
	leaq	4176(%rbp), %rdx
	movq	%rcx, %r8
	movq	%rax, %rcx
.LEHB57:
	call	_ZplRK8wxStringS1_
.LEHE57:
	.loc 17 202 207 discriminator 21
	leaq	4032(%rbp), %rax
	leaq	4080(%rbp), %rdx
	leaq	.LC23(%rip), %r8
	movq	%rax, %rcx
.LEHB58:
	call	_ZplRK8wxStringPKc
.LEHE58:
	.loc 17 202 214 discriminator 23
	leaq	3936(%rbp), %rax
	leaq	3984(%rbp), %rcx
	leaq	4032(%rbp), %rdx
	movq	%rcx, %r8
	movq	%rax, %rcx
.LEHB59:
	call	_ZplRK8wxStringS1_
.LEHE59:
	.loc 17 202 251 discriminator 25
	leaq	3888(%rbp), %rax
	leaq	3936(%rbp), %rdx
	leaq	.LC23(%rip), %r8
	movq	%rax, %rcx
.LEHB60:
	call	_ZplRK8wxStringPKc
.LEHE60:
	.loc 17 203 25
	leaq	3792(%rbp), %rax
	leaq	3840(%rbp), %rcx
	leaq	3888(%rbp), %rdx
	movq	%rcx, %r8
	movq	%rax, %rcx
.LEHB61:
	call	_ZplRK8wxStringS1_
.LEHE61:
	.loc 17 203 65 discriminator 5
	leaq	3744(%rbp), %rax
	leaq	3792(%rbp), %rdx
	leaq	.LC24(%rip), %r8
	movq	%rax, %rcx
.LEHB62:
	call	_ZplRK8wxStringPKc
.LEHE62:
	.loc 17 203 75 discriminator 7
	leaq	3648(%rbp), %rax
	leaq	3696(%rbp), %rcx
	leaq	3744(%rbp), %rdx
	movq	%rcx, %r8
	movq	%rax, %rcx
.LEHB63:
	call	_ZplRK8wxStringS1_
.LEHE63:
	.loc 17 203 116 discriminator 9
	leaq	3600(%rbp), %rax
	leaq	3648(%rbp), %rdx
	leaq	.LC23(%rip), %r8
	movq	%rax, %rcx
.LEHB64:
	call	_ZplRK8wxStringPKc
.LEHE64:
	.loc 17 203 123 discriminator 11
	leaq	3504(%rbp), %rax
	leaq	3552(%rbp), %rcx
	leaq	3600(%rbp), %rdx
	movq	%rcx, %r8
	movq	%rax, %rcx
.LEHB65:
	call	_ZplRK8wxStringS1_
.LEHE65:
	.loc 17 203 164 discriminator 13
	leaq	3456(%rbp), %rax
	leaq	3504(%rbp), %rdx
	leaq	.LC23(%rip), %r8
	movq	%rax, %rcx
.LEHB66:
	call	_ZplRK8wxStringPKc
.LEHE66:
	.loc 17 204 25
	leaq	3360(%rbp), %rax
	leaq	3408(%rbp), %rcx
	leaq	3456(%rbp), %rdx
	movq	%rcx, %r8
	movq	%rax, %rcx
.LEHB67:
	call	_ZplRK8wxStringS1_
.LEHE67:
	.loc 17 204 64 discriminator 3
	leaq	3312(%rbp), %rax
	leaq	3360(%rbp), %rdx
	leaq	.LC23(%rip), %r8
	movq	%rax, %rcx
.LEHB68:
	call	_ZplRK8wxStringPKc
.LEHE68:
	.loc 17 204 71 discriminator 5
	leaq	3216(%rbp), %rax
	leaq	3264(%rbp), %rcx
	leaq	3312(%rbp), %rdx
	movq	%rcx, %r8
	movq	%rax, %rcx
.LEHB69:
	call	_ZplRK8wxStringS1_
.LEHE69:
	.loc 17 204 109 discriminator 7
	leaq	3168(%rbp), %rax
	leaq	3216(%rbp), %rdx
	leaq	.LC23(%rip), %r8
	movq	%rax, %rcx
.LEHB70:
	call	_ZplRK8wxStringPKc
.LEHE70:
	.loc 17 205 25
	leaq	3072(%rbp), %rax
	leaq	3120(%rbp), %rcx
	leaq	3168(%rbp), %rdx
	movq	%rcx, %r8
	movq	%rax, %rcx
.LEHB71:
	call	_ZplRK8wxStringS1_
.LEHE71:
	.loc 17 205 60 discriminator 3
	leaq	3024(%rbp), %rax
	leaq	3072(%rbp), %rdx
	leaq	.LC23(%rip), %r8
	movq	%rax, %rcx
.LEHB72:
	call	_ZplRK8wxStringPKc
.LEHE72:
	.loc 17 205 67 discriminator 5
	leaq	2928(%rbp), %rax
	leaq	2976(%rbp), %rcx
	leaq	3024(%rbp), %rdx
	movq	%rcx, %r8
	movq	%rax, %rcx
.LEHB73:
	call	_ZplRK8wxStringS1_
.LEHE73:
	.loc 17 205 102 discriminator 7
	leaq	2880(%rbp), %rax
	leaq	2928(%rbp), %rdx
	leaq	.LC23(%rip), %r8
	movq	%rax, %rcx
.LEHB74:
	call	_ZplRK8wxStringPKc
.LEHE74:
	.loc 17 206 25
	leaq	2784(%rbp), %rax
	leaq	2832(%rbp), %rcx
	leaq	2880(%rbp), %rdx
	movq	%rcx, %r8
	movq	%rax, %rcx
.LEHB75:
	call	_ZplRK8wxStringS1_
.LEHE75:
	.loc 17 206 65 discriminator 3
	leaq	2736(%rbp), %rax
	leaq	2784(%rbp), %rdx
	leaq	.LC23(%rip), %r8
	movq	%rax, %rcx
.LEHB76:
	call	_ZplRK8wxStringPKc
.LEHE76:
	.loc 17 206 72 discriminator 5
	leaq	2640(%rbp), %rax
	leaq	2688(%rbp), %rcx
	leaq	2736(%rbp), %rdx
	movq	%rcx, %r8
	movq	%rax, %rcx
.LEHB77:
	call	_ZplRK8wxStringS1_
.LEHE77:
	.loc 17 206 112 discriminator 7
	leaq	2592(%rbp), %rax
	leaq	2640(%rbp), %rdx
	leaq	.LC23(%rip), %r8
	movq	%rax, %rcx
.LEHB78:
	call	_ZplRK8wxStringPKc
.LEHE78:
	.loc 17 207 25
	leaq	2496(%rbp), %rax
	leaq	2544(%rbp), %rcx
	leaq	2592(%rbp), %rdx
	movq	%rcx, %r8
	movq	%rax, %rcx
.LEHB79:
	call	_ZplRK8wxStringS1_
.LEHE79:
	.loc 17 207 60 discriminator 3
	leaq	2448(%rbp), %rax
	leaq	2496(%rbp), %rdx
	leaq	.LC23(%rip), %r8
	movq	%rax, %rcx
.LEHB80:
	call	_ZplRK8wxStringPKc
.LEHE80:
	.loc 17 207 67 discriminator 5
	leaq	2352(%rbp), %rax
	leaq	2400(%rbp), %rcx
	leaq	2448(%rbp), %rdx
	movq	%rcx, %r8
	movq	%rax, %rcx
.LEHB81:
	call	_ZplRK8wxStringS1_
.LEHE81:
	.loc 17 207 102 discriminator 7
	leaq	2304(%rbp), %rax
	leaq	2352(%rbp), %rdx
	leaq	.LC4(%rip), %r8
	movq	%rax, %rcx
.LEHB82:
	call	_ZplRK8wxStringPKc
.LEHE82:
	.loc 17 201 32
	leaq	2304(%rbp), %rax
	movq	%rax, %rdx
	movq	%rsi, %rcx
.LEHB83:
	call	*%rbx
.LVL8:
.LEHE83:
	.loc 17 207 102
	leaq	2304(%rbp), %rax
	movq	%rax, %rcx
	call	_ZN8wxStringD1Ev
	.loc 17 207 67
	leaq	2352(%rbp), %rax
	movq	%rax, %rcx
	call	_ZN8wxStringD1Ev
	.loc 17 207 60
	leaq	2448(%rbp), %rax
	movq	%rax, %rcx
	call	_ZN8wxStringD1Ev
	.loc 17 207 25
	leaq	2496(%rbp), %rax
	movq	%rax, %rcx
	call	_ZN8wxStringD1Ev
	.loc 17 206 112
	leaq	2592(%rbp), %rax
	movq	%rax, %rcx
	call	_ZN8wxStringD1Ev
	.loc 17 206 72
	leaq	2640(%rbp), %rax
	movq	%rax, %rcx
	call	_ZN8wxStringD1Ev
	.loc 17 206 65
	leaq	2736(%rbp), %rax
	movq	%rax, %rcx
	call	_ZN8wxStringD1Ev
	.loc 17 206 25
	leaq	2784(%rbp), %rax
	movq	%rax, %rcx
	call	_ZN8wxStringD1Ev
	.loc 17 205 102
	leaq	2880(%rbp), %rax
	movq	%rax, %rcx
	call	_ZN8wxStringD1Ev
	.loc 17 205 67
	leaq	2928(%rbp), %rax
	movq	%rax, %rcx
	call	_ZN8wxStringD1Ev
	.loc 17 205 60
	leaq	3024(%rbp), %rax
	movq	%rax, %rcx
	call	_ZN8wxStringD1Ev
	.loc 17 205 25
	leaq	3072(%rbp), %rax
	movq	%rax, %rcx
	call	_ZN8wxStringD1Ev
	.loc 17 204 109
	leaq	3168(%rbp), %rax
	movq	%rax, %rcx
	call	_ZN8wxStringD1Ev
	.loc 17 204 71
	leaq	3216(%rbp), %rax
	movq	%rax, %rcx
	call	_ZN8wxStringD1Ev
	.loc 17 204 64
	leaq	3312(%rbp), %rax
	movq	%rax, %rcx
	call	_ZN8wxStringD1Ev
	.loc 17 204 25
	leaq	3360(%rbp), %rax
	movq	%rax, %rcx
	call	_ZN8wxStringD1Ev
	.loc 17 203 164
	leaq	3456(%rbp), %rax
	movq	%rax, %rcx
	call	_ZN8wxStringD1Ev
	.loc 17 203 123
	leaq	3504(%rbp), %rax
	movq	%rax, %rcx
	call	_ZN8wxStringD1Ev
	.loc 17 203 116
	leaq	3600(%rbp), %rax
	movq	%rax, %rcx
	call	_ZN8wxStringD1Ev
	.loc 17 203 75
	leaq	3648(%rbp), %rax
	movq	%rax, %rcx
	call	_ZN8wxStringD1Ev
	.loc 17 203 65
	leaq	3744(%rbp), %rax
	movq	%rax, %rcx
	call	_ZN8wxStringD1Ev
	.loc 17 203 25
	leaq	3792(%rbp), %rax
	movq	%rax, %rcx
	call	_ZN8wxStringD1Ev
	.loc 17 202 251
	leaq	3888(%rbp), %rax
	movq	%rax, %rcx
	call	_ZN8wxStringD1Ev
	.loc 17 202 214
	leaq	3936(%rbp), %rax
	movq	%rax, %rcx
	call	_ZN8wxStringD1Ev
	.loc 17 202 207
	leaq	4032(%rbp), %rax
	movq	%rax, %rcx
	call	_ZN8wxStringD1Ev
	.loc 17 202 161
	leaq	4080(%rbp), %rax
	movq	%rax, %rcx
	call	_ZN8wxStringD1Ev
	.loc 17 202 154
	leaq	4176(%rbp), %rax
	movq	%rax, %rcx
	call	_ZN8wxStringD1Ev
	.loc 17 202 121
	leaq	4224(%rbp), %rax
	movq	%rax, %rcx
	call	_ZN8wxStringD1Ev
	.loc 17 202 114
	leaq	4320(%rbp), %rax
	movq	%rax, %rcx
	call	_ZN8wxStringD1Ev
	.loc 17 202 63
	leaq	4368(%rbp), %rax
	movq	%rax, %rcx
	call	_ZN8wxStringD1Ev
	.loc 17 202 56
	leaq	4464(%rbp), %rax
	movq	%rax, %rcx
	call	_ZN8wxStringD1Ev
	.loc 17 202 25
	leaq	4512(%rbp), %rax
	movq	%rax, %rcx
	call	_ZN8wxStringD1Ev
	.loc 17 201 128
	leaq	4608(%rbp), %rax
	movq	%rax, %rcx
	call	_ZN8wxStringD1Ev
	.loc 17 201 70
	leaq	4656(%rbp), %rax
	movq	%rax, %rcx
	call	_ZN8wxStringD1Ev
	.loc 17 201 63
	leaq	4752(%rbp), %rax
	movq	%rax, %rcx
	call	_ZN8wxStringD1Ev
	.loc 17 201 53
	leaq	4800(%rbp), %rax
	movq	%rax, %rcx
	call	_ZN8wxStringD1Ev
	.loc 17 201 92
	leaq	4704(%rbp), %rax
	movq	%rax, %rcx
	call	_ZN8wxStringD1Ev
	.loc 17 202 47
	leaq	4560(%rbp), %rax
	movq	%rax, %rcx
	call	_ZN8wxStringD1Ev
	.loc 17 202 85
	leaq	4416(%rbp), %rax
	movq	%rax, %rcx
	call	_ZN8wxStringD1Ev
	.loc 17 202 143
	leaq	4272(%rbp), %rax
	movq	%rax, %rcx
	call	_ZN8wxStringD1Ev
	.loc 17 202 183
	leaq	4128(%rbp), %rax
	movq	%rax, %rcx
	call	_ZN8wxStringD1Ev
	.loc 17 202 236
	leaq	3984(%rbp), %rax
	movq	%rax, %rcx
	call	_ZN8wxStringD1Ev
	.loc 17 203 47
	leaq	3840(%rbp), %rax
	movq	%rax, %rcx
	call	_ZN8wxStringD1Ev
	.loc 17 203 97
	leaq	3696(%rbp), %rax
	movq	%rax, %rcx
	call	_ZN8wxStringD1Ev
	.loc 17 203 145
	leaq	3552(%rbp), %rax
	movq	%rax, %rcx
	call	_ZN8wxStringD1Ev
	.loc 17 204 47
	leaq	3408(%rbp), %rax
	movq	%rax, %rcx
	call	_ZN8wxStringD1Ev
	.loc 17 204 93
	leaq	3264(%rbp), %rax
	movq	%rax, %rcx
	call	_ZN8wxStringD1Ev
	.loc 17 205 47
	leaq	3120(%rbp), %rax
	movq	%rax, %rcx
	call	_ZN8wxStringD1Ev
	.loc 17 205 89
	leaq	2976(%rbp), %rax
	movq	%rax, %rcx
	call	_ZN8wxStringD1Ev
	.loc 17 206 47
	leaq	2832(%rbp), %rax
	movq	%rax, %rcx
	call	_ZN8wxStringD1Ev
	.loc 17 206 94
	leaq	2688(%rbp), %rax
	movq	%rax, %rcx
	call	_ZN8wxStringD1Ev
	.loc 17 207 47
	leaq	2544(%rbp), %rax
	movq	%rax, %rcx
	call	_ZN8wxStringD1Ev
	.loc 17 207 89
	leaq	2400(%rbp), %rax
	movq	%rax, %rcx
	call	_ZN8wxStringD1Ev
.LEHB84:
	.loc 17 213 16
	call	_Z7wxYieldv
.LEHE84:
	.loc 17 215 12
	movq	5312(%rbp), %rax
	movzbl	16(%rax), %eax
	.loc 17 215 9
	testb	%al, %al
	je	.L104
	movl	$0, %ebx
	.loc 17 216 13
	jmp	.L105
.L104:
	movl	$1, %ebx
.L105:
	leaq	-48(%rbp), %rax
	movq	%rax, %rcx
	call	_ZN12ElementosVooD1Ev
	cmpl	$1, %ebx
	jne	.L99
.LBE18:
	.loc 17 58 112 discriminator 3
	movl	5228(%rbp), %eax
	addl	%eax, 5224(%rbp)
	.loc 17 58 5 discriminator 3
	jmp	.L107
.L99:
.LBE17:
	.loc 17 219 32
	movq	5320(%rbp), %rax
	movl	$1, %edx
	movq	%rax, %rcx
	call	_ZN21CalculadorAtmosferico15setChecarLimiteEb
	.loc 17 220 5
	movq	5312(%rbp), %rax
	movq	8(%rax), %rsi
	movq	5312(%rbp), %rax
	movq	8(%rax), %rax
	.loc 17 220 37
	movq	(%rax), %rax
	addq	$1928, %rax
	movq	(%rax), %rbx
	.loc 17 220 28
	leaq	4848(%rbp), %rax
	leaq	.LC25(%rip), %rdx
	movq	%rax, %rcx
.LEHB85:
	call	_ZN8wxStringC1EPKc
.LEHE85:
	.loc 17 220 28 is_stmt 0 discriminator 1
	leaq	4848(%rbp), %rax
	movq	%rax, %rdx
	movq	%rsi, %rcx
.LEHB86:
	call	*%rbx
.LVL9:
.LEHE86:
	.loc 17 220 28 discriminator 3
	leaq	4848(%rbp), %rax
	movq	%rax, %rcx
	call	_ZN8wxStringD1Ev
	.loc 17 26 19 is_stmt 1 discriminator 3
	leaq	48(%rbp), %rax
	movq	%rax, %rcx
	call	_ZN16ElementosDisparoD1Ev
	.loc 17 25 15 discriminator 3
	leaq	80(%rbp), %rax
	movq	%rax, %rcx
	call	_ZN12ElementosVooD1Ev
	.loc 17 221 1 discriminator 3
	jmp	.L271
.L195:
	movq	%rax, %rbx
	.loc 17 31 28
	leaq	272(%rbp), %rax
	movq	%rax, %rcx
	call	_ZN8wxStringD1Ev
	jmp	.L109
.L199:
	movq	%rax, %rbx
	.loc 17 32 152
	leaq	320(%rbp), %rax
	movq	%rax, %rcx
	call	_ZN8wxStringD1Ev
	jmp	.L111
.L198:
	movq	%rax, %rbx
.L111:
	.loc 17 32 76 discriminator 10
	leaq	368(%rbp), %rax
	movq	%rax, %rcx
	call	_ZN8wxStringD1Ev
	jmp	.L112
.L197:
	movq	%rax, %rbx
.L112:
	.loc 17 32 65 discriminator 8
	leaq	416(%rbp), %rax
	movq	%rax, %rcx
	call	_ZN8wxStringD1Ev
	jmp	.L113
.L196:
	movq	%rax, %rbx
.L113:
	.loc 17 32 49 discriminator 6
	leaq	464(%rbp), %rax
	movq	%rax, %rcx
	call	_ZN8wxStringD1Ev
	jmp	.L109
.L200:
	movq	%rax, %rbx
	.loc 17 33 28
	leaq	512(%rbp), %rax
	movq	%rax, %rcx
	call	_ZN8wxStringD1Ev
	jmp	.L109
.L201:
	movq	%rax, %rbx
	.loc 17 34 28
	leaq	560(%rbp), %rax
	movq	%rax, %rcx
	call	_ZN8wxStringD1Ev
	jmp	.L109
.L202:
	cmpq	$5, %rdx
	ja	.L117
	leaq	0(,%rdx,4), %rcx
	leaq	.L119(%rip), %rdx
	movl	(%rcx,%rdx), %edx
	movslq	%edx, %rdx
	leaq	.L119(%rip), %rcx
	addq	%rcx, %rdx
	jmp	*%rdx
	.section .rdata,"dr"
	.align 4
.L119:
	.long	.L117-.L119
	.long	.L123-.L119
	.long	.L122-.L119
	.long	.L121-.L119
	.long	.L120-.L119
	.long	.L118-.L119
	.text
.L117:
	movq	%rax, %rbx
	jmp	.L109
.L123:
.LBB29:
.LBB28:
.LBB19:
	.loc 17 65 37
	movq	%rax, %rcx
	call	__cxa_begin_catch
	movq	%rax, 4928(%rbp)
	.loc 17 67 13
	movq	5312(%rbp), %rax
	movq	8(%rax), %rsi
	movq	5312(%rbp), %rax
	movq	8(%rax), %rax
	.loc 17 67 45
	movq	(%rax), %rax
	addq	$1928, %rax
	movq	(%rax), %rbx
	.loc 17 67 36
	leaq	640(%rbp), %rax
	leaq	.LC26(%rip), %rdx
	movq	%rax, %rcx
.LEHB87:
	call	_ZN8wxStringC1EPKc
.LEHE87:
	.loc 17 67 36 is_stmt 0 discriminator 1
	leaq	640(%rbp), %rax
	movq	%rax, %rdx
	movq	%rsi, %rcx
.LEHB88:
	call	*%rbx
.LVL10:
.LEHE88:
	.loc 17 67 36 discriminator 3
	leaq	640(%rbp), %rax
	movq	%rax, %rcx
	call	_ZN8wxStringD1Ev
.LEHB89:
	.loc 17 65 37 is_stmt 1 discriminator 3
	call	__cxa_end_catch
	.loc 17 65 37 is_stmt 0
	jmp	.L124
.L122:
.LBE19:
.LBB20:
	.loc 17 69 42 is_stmt 1
	movq	%rax, %rcx
	call	__cxa_begin_catch
	movq	%rax, 4920(%rbp)
	.loc 17 72 54
	leaq	688(%rbp), %rax
	movq	4920(%rbp), %rdx
	movq	%rax, %rcx
	call	_ZN25ExceptionQuasiConvergence19getElementosDisparoEv
	.loc 17 72 55
	leaq	688(%rbp), %rdx
	leaq	48(%rbp), %rax
	movq	%rax, %rcx
	call	_ZN16ElementosDisparoaSEOS_
	.loc 17 72 54
	leaq	688(%rbp), %rax
	movq	%rax, %rcx
	call	_ZN16ElementosDisparoD1Ev
	.loc 17 69 42
	call	__cxa_end_catch
.LEHE89:
	jmp	.L124
.L121:
.LBE20:
.LBB21:
	.loc 17 74 36
	movq	%rax, %rcx
	call	__cxa_begin_catch
	movq	%rax, 4912(%rbp)
	.loc 17 76 13
	movq	5312(%rbp), %rax
	movq	8(%rax), %rsi
	movq	5312(%rbp), %rax
	movq	8(%rax), %rax
	.loc 17 76 44
	movq	(%rax), %rax
	addq	$1928, %rax
	movq	(%rax), %rbx
	.loc 17 76 36
	leaq	720(%rbp), %rax
	leaq	.LC27(%rip), %rdx
	movq	%rax, %rcx
.LEHB90:
	call	_ZN8wxStringC1EPKc
.LEHE90:
	.loc 17 76 36 is_stmt 0 discriminator 1
	leaq	720(%rbp), %rax
	movq	%rax, %rdx
	movq	%rsi, %rcx
.LEHB91:
	call	*%rbx
.LVL11:
.LEHE91:
	.loc 17 76 36 discriminator 3
	leaq	720(%rbp), %rax
	movq	%rax, %rcx
	call	_ZN8wxStringD1Ev
	.loc 17 77 13 is_stmt 1 discriminator 3
	nop
.LEHB92:
	.loc 17 74 36 discriminator 3
	call	__cxa_end_catch
.LEHE92:
	.loc 17 74 36 is_stmt 0
	jmp	.L99
.L120:
.LBE21:
.LBB22:
	.loc 17 79 36 is_stmt 1
	movq	%rax, %rcx
	call	__cxa_begin_catch
	movq	%rax, 4904(%rbp)
	.loc 17 81 13
	movq	5312(%rbp), %rax
	movq	8(%rax), %rsi
	movq	5312(%rbp), %rax
	movq	8(%rax), %rax
	.loc 17 81 44
	movq	(%rax), %rax
	addq	$1928, %rax
	movq	(%rax), %rbx
	.loc 17 81 36
	leaq	768(%rbp), %rax
	leaq	.LC28(%rip), %rdx
	movq	%rax, %rcx
.LEHB93:
	call	_ZN8wxStringC1EPKc
.LEHE93:
	.loc 17 81 36 is_stmt 0 discriminator 1
	leaq	768(%rbp), %rax
	movq	%rax, %rdx
	movq	%rsi, %rcx
.LEHB94:
	call	*%rbx
.LVL12:
.LEHE94:
	.loc 17 81 36 discriminator 3
	leaq	768(%rbp), %rax
	movq	%rax, %rcx
	call	_ZN8wxStringD1Ev
	.loc 17 82 13 is_stmt 1 discriminator 3
	nop
.LEHB95:
	.loc 17 79 36 discriminator 3
	call	__cxa_end_catch
.LEHE95:
	.loc 17 79 36 is_stmt 0
	jmp	.L99
.L118:
.LBE22:
.LBB23:
	.loc 17 84 35 is_stmt 1
	movq	%rax, %rcx
	call	__cxa_begin_catch
	movq	%rax, 4896(%rbp)
	.loc 17 86 13
	movq	5312(%rbp), %rax
	movq	8(%rax), %rsi
	movq	5312(%rbp), %rax
	movq	8(%rax), %rax
	.loc 17 86 72
	movq	(%rax), %rax
	addq	$1928, %rax
	movq	(%rax), %rbx
	.loc 17 86 36
	leaq	816(%rbp), %rax
	leaq	.LC29(%rip), %rdx
	movq	%rax, %rcx
.LEHB96:
	call	_ZN8wxStringC1EPKc
.LEHE96:
	.loc 17 86 36 is_stmt 0 discriminator 1
	leaq	816(%rbp), %rax
	movq	%rax, %rdx
	movq	%rsi, %rcx
.LEHB97:
	call	*%rbx
.LVL13:
.LEHE97:
	.loc 17 86 36 discriminator 3
	leaq	816(%rbp), %rax
	movq	%rax, %rcx
	call	_ZN8wxStringD1Ev
	.loc 17 87 13 is_stmt 1 discriminator 3
	nop
.LEHB98:
	.loc 17 84 35 discriminator 3
	call	__cxa_end_catch
.LEHE98:
	.loc 17 84 35 is_stmt 0
	jmp	.L99
.L204:
	movq	%rax, %rbx
.LBE23:
.LBB24:
	.loc 17 67 36 is_stmt 1
	leaq	640(%rbp), %rax
	movq	%rax, %rcx
	call	_ZN8wxStringD1Ev
	jmp	.L126
.L203:
	movq	%rax, %rbx
.L126:
	.loc 17 65 37
	call	__cxa_end_catch
	jmp	.L109
.L206:
	movq	%rax, %rbx
.LBE24:
.LBB25:
	.loc 17 76 36
	leaq	720(%rbp), %rax
	movq	%rax, %rcx
	call	_ZN8wxStringD1Ev
	jmp	.L128
.L205:
	movq	%rax, %rbx
.L128:
	.loc 17 74 36
	call	__cxa_end_catch
	jmp	.L109
.L208:
	movq	%rax, %rbx
.LBE25:
.LBB26:
	.loc 17 81 36
	leaq	768(%rbp), %rax
	movq	%rax, %rcx
	call	_ZN8wxStringD1Ev
	jmp	.L130
.L207:
	movq	%rax, %rbx
.L130:
	.loc 17 79 36
	call	__cxa_end_catch
	jmp	.L109
.L210:
	movq	%rax, %rbx
.LBE26:
.LBB27:
	.loc 17 86 36
	leaq	816(%rbp), %rax
	movq	%rax, %rcx
	call	_ZN8wxStringD1Ev
	jmp	.L132
.L209:
	movq	%rax, %rbx
.L132:
	.loc 17 84 35
	call	__cxa_end_catch
	jmp	.L109
.L212:
	movq	%rax, %rsi
.LBE27:
	.loc 17 116 74
	movq	%rbx, %rcx
	call	_ZdlPv
	movq	%rsi, %rbx
	jmp	.L134
.L213:
	movq	%rax, %rsi
	.loc 17 152 66
	movq	%rbx, %rcx
	call	_ZdlPv
	movq	%rsi, %rbx
	jmp	.L134
.L214:
	movq	%rax, %rsi
	.loc 17 163 51
	movq	%rbx, %rcx
	call	_ZdlPv
	movq	%rsi, %rbx
	jmp	.L134
.L215:
	movq	%rax, %rsi
	.loc 17 174 79
	movq	%rbx, %rcx
	call	_ZdlPv
	movq	%rsi, %rbx
	jmp	.L134
.L268:
	movq	%rax, %rbx
	.loc 17 207 102
	leaq	2304(%rbp), %rax
	movq	%rax, %rcx
	call	_ZN8wxStringD1Ev
	jmp	.L139
.L267:
	movq	%rax, %rbx
.L139:
	.loc 17 207 67 discriminator 8
	leaq	2352(%rbp), %rax
	movq	%rax, %rcx
	call	_ZN8wxStringD1Ev
	jmp	.L140
.L266:
	movq	%rax, %rbx
.L140:
	.loc 17 207 60 discriminator 6
	leaq	2448(%rbp), %rax
	movq	%rax, %rcx
	call	_ZN8wxStringD1Ev
	jmp	.L141
.L265:
	movq	%rax, %rbx
.L141:
	.loc 17 207 25 discriminator 4
	leaq	2496(%rbp), %rax
	movq	%rax, %rcx
	call	_ZN8wxStringD1Ev
	jmp	.L142
.L264:
	movq	%rax, %rbx
.L142:
	.loc 17 206 112
	leaq	2592(%rbp), %rax
	movq	%rax, %rcx
	call	_ZN8wxStringD1Ev
	jmp	.L143
.L263:
	movq	%rax, %rbx
.L143:
	.loc 17 206 72 discriminator 8
	leaq	2640(%rbp), %rax
	movq	%rax, %rcx
	call	_ZN8wxStringD1Ev
	jmp	.L144
.L262:
	movq	%rax, %rbx
.L144:
	.loc 17 206 65 discriminator 6
	leaq	2736(%rbp), %rax
	movq	%rax, %rcx
	call	_ZN8wxStringD1Ev
	jmp	.L145
.L261:
	movq	%rax, %rbx
.L145:
	.loc 17 206 25 discriminator 4
	leaq	2784(%rbp), %rax
	movq	%rax, %rcx
	call	_ZN8wxStringD1Ev
	jmp	.L146
.L260:
	movq	%rax, %rbx
.L146:
	.loc 17 205 102
	leaq	2880(%rbp), %rax
	movq	%rax, %rcx
	call	_ZN8wxStringD1Ev
	jmp	.L147
.L259:
	movq	%rax, %rbx
.L147:
	.loc 17 205 67 discriminator 8
	leaq	2928(%rbp), %rax
	movq	%rax, %rcx
	call	_ZN8wxStringD1Ev
	jmp	.L148
.L258:
	movq	%rax, %rbx
.L148:
	.loc 17 205 60 discriminator 6
	leaq	3024(%rbp), %rax
	movq	%rax, %rcx
	call	_ZN8wxStringD1Ev
	jmp	.L149
.L257:
	movq	%rax, %rbx
.L149:
	.loc 17 205 25 discriminator 4
	leaq	3072(%rbp), %rax
	movq	%rax, %rcx
	call	_ZN8wxStringD1Ev
	jmp	.L150
.L256:
	movq	%rax, %rbx
.L150:
	.loc 17 204 109
	leaq	3168(%rbp), %rax
	movq	%rax, %rcx
	call	_ZN8wxStringD1Ev
	jmp	.L151
.L255:
	movq	%rax, %rbx
.L151:
	.loc 17 204 71 discriminator 8
	leaq	3216(%rbp), %rax
	movq	%rax, %rcx
	call	_ZN8wxStringD1Ev
	jmp	.L152
.L254:
	movq	%rax, %rbx
.L152:
	.loc 17 204 64 discriminator 6
	leaq	3312(%rbp), %rax
	movq	%rax, %rcx
	call	_ZN8wxStringD1Ev
	jmp	.L153
.L253:
	movq	%rax, %rbx
.L153:
	.loc 17 204 25 discriminator 4
	leaq	3360(%rbp), %rax
	movq	%rax, %rcx
	call	_ZN8wxStringD1Ev
	jmp	.L154
.L252:
	movq	%rax, %rbx
.L154:
	.loc 17 203 164
	leaq	3456(%rbp), %rax
	movq	%rax, %rcx
	call	_ZN8wxStringD1Ev
	jmp	.L155
.L251:
	movq	%rax, %rbx
.L155:
	.loc 17 203 123 discriminator 14
	leaq	3504(%rbp), %rax
	movq	%rax, %rcx
	call	_ZN8wxStringD1Ev
	jmp	.L156
.L250:
	movq	%rax, %rbx
.L156:
	.loc 17 203 116 discriminator 12
	leaq	3600(%rbp), %rax
	movq	%rax, %rcx
	call	_ZN8wxStringD1Ev
	jmp	.L157
.L249:
	movq	%rax, %rbx
.L157:
	.loc 17 203 75 discriminator 10
	leaq	3648(%rbp), %rax
	movq	%rax, %rcx
	call	_ZN8wxStringD1Ev
	jmp	.L158
.L248:
	movq	%rax, %rbx
.L158:
	.loc 17 203 65 discriminator 8
	leaq	3744(%rbp), %rax
	movq	%rax, %rcx
	call	_ZN8wxStringD1Ev
	jmp	.L159
.L247:
	movq	%rax, %rbx
.L159:
	.loc 17 203 25 discriminator 6
	leaq	3792(%rbp), %rax
	movq	%rax, %rcx
	call	_ZN8wxStringD1Ev
	jmp	.L160
.L246:
	movq	%rax, %rbx
.L160:
	.loc 17 202 251
	leaq	3888(%rbp), %rax
	movq	%rax, %rcx
	call	_ZN8wxStringD1Ev
	jmp	.L161
.L245:
	movq	%rax, %rbx
.L161:
	.loc 17 202 214 discriminator 26
	leaq	3936(%rbp), %rax
	movq	%rax, %rcx
	call	_ZN8wxStringD1Ev
	jmp	.L162
.L244:
	movq	%rax, %rbx
.L162:
	.loc 17 202 207 discriminator 24
	leaq	4032(%rbp), %rax
	movq	%rax, %rcx
	call	_ZN8wxStringD1Ev
	jmp	.L163
.L243:
	movq	%rax, %rbx
.L163:
	.loc 17 202 161 discriminator 22
	leaq	4080(%rbp), %rax
	movq	%rax, %rcx
	call	_ZN8wxStringD1Ev
	jmp	.L164
.L242:
	movq	%rax, %rbx
.L164:
	.loc 17 202 154 discriminator 20
	leaq	4176(%rbp), %rax
	movq	%rax, %rcx
	call	_ZN8wxStringD1Ev
	jmp	.L165
.L241:
	movq	%rax, %rbx
.L165:
	.loc 17 202 121 discriminator 18
	leaq	4224(%rbp), %rax
	movq	%rax, %rcx
	call	_ZN8wxStringD1Ev
	jmp	.L166
.L240:
	movq	%rax, %rbx
.L166:
	.loc 17 202 114 discriminator 16
	leaq	4320(%rbp), %rax
	movq	%rax, %rcx
	call	_ZN8wxStringD1Ev
	jmp	.L167
.L239:
	movq	%rax, %rbx
.L167:
	.loc 17 202 63 discriminator 14
	leaq	4368(%rbp), %rax
	movq	%rax, %rcx
	call	_ZN8wxStringD1Ev
	jmp	.L168
.L238:
	movq	%rax, %rbx
.L168:
	.loc 17 202 56 discriminator 12
	leaq	4464(%rbp), %rax
	movq	%rax, %rcx
	call	_ZN8wxStringD1Ev
	jmp	.L169
.L237:
	movq	%rax, %rbx
.L169:
	.loc 17 202 25 discriminator 10
	leaq	4512(%rbp), %rax
	movq	%rax, %rcx
	call	_ZN8wxStringD1Ev
	jmp	.L170
.L236:
	movq	%rax, %rbx
.L170:
	.loc 17 201 128
	leaq	4608(%rbp), %rax
	movq	%rax, %rcx
	call	_ZN8wxStringD1Ev
	jmp	.L171
.L235:
	movq	%rax, %rbx
.L171:
	.loc 17 201 70 discriminator 8
	leaq	4656(%rbp), %rax
	movq	%rax, %rcx
	call	_ZN8wxStringD1Ev
	jmp	.L172
.L234:
	movq	%rax, %rbx
.L172:
	.loc 17 201 63 discriminator 6
	leaq	4752(%rbp), %rax
	movq	%rax, %rcx
	call	_ZN8wxStringD1Ev
	jmp	.L173
.L233:
	movq	%rax, %rbx
.L173:
	.loc 17 201 53 discriminator 4
	leaq	4800(%rbp), %rax
	movq	%rax, %rcx
	call	_ZN8wxStringD1Ev
	jmp	.L174
.L232:
	movq	%rax, %rbx
.L174:
	.loc 17 201 92 discriminator 2
	leaq	4704(%rbp), %rax
	movq	%rax, %rcx
	call	_ZN8wxStringD1Ev
	jmp	.L175
.L231:
	movq	%rax, %rbx
.L175:
	.loc 17 202 47
	leaq	4560(%rbp), %rax
	movq	%rax, %rcx
	call	_ZN8wxStringD1Ev
	jmp	.L176
.L230:
	movq	%rax, %rbx
.L176:
	.loc 17 202 85 discriminator 8
	leaq	4416(%rbp), %rax
	movq	%rax, %rcx
	call	_ZN8wxStringD1Ev
	jmp	.L177
.L229:
	movq	%rax, %rbx
.L177:
	.loc 17 202 143 discriminator 6
	leaq	4272(%rbp), %rax
	movq	%rax, %rcx
	call	_ZN8wxStringD1Ev
	jmp	.L178
.L228:
	movq	%rax, %rbx
.L178:
	.loc 17 202 183 discriminator 4
	leaq	4128(%rbp), %rax
	movq	%rax, %rcx
	call	_ZN8wxStringD1Ev
	jmp	.L179
.L227:
	movq	%rax, %rbx
.L179:
	.loc 17 202 236 discriminator 2
	leaq	3984(%rbp), %rax
	movq	%rax, %rcx
	call	_ZN8wxStringD1Ev
	jmp	.L180
.L226:
	movq	%rax, %rbx
.L180:
	.loc 17 203 47
	leaq	3840(%rbp), %rax
	movq	%rax, %rcx
	call	_ZN8wxStringD1Ev
	jmp	.L181
.L225:
	movq	%rax, %rbx
.L181:
	.loc 17 203 97 discriminator 4
	leaq	3696(%rbp), %rax
	movq	%rax, %rcx
	call	_ZN8wxStringD1Ev
	jmp	.L182
.L224:
	movq	%rax, %rbx
.L182:
	.loc 17 203 145 discriminator 2
	leaq	3552(%rbp), %rax
	movq	%rax, %rcx
	call	_ZN8wxStringD1Ev
	jmp	.L183
.L223:
	movq	%rax, %rbx
.L183:
	.loc 17 204 47
	leaq	3408(%rbp), %rax
	movq	%rax, %rcx
	call	_ZN8wxStringD1Ev
	jmp	.L184
.L222:
	movq	%rax, %rbx
.L184:
	.loc 17 204 93 discriminator 2
	leaq	3264(%rbp), %rax
	movq	%rax, %rcx
	call	_ZN8wxStringD1Ev
	jmp	.L185
.L221:
	movq	%rax, %rbx
.L185:
	.loc 17 205 47
	leaq	3120(%rbp), %rax
	movq	%rax, %rcx
	call	_ZN8wxStringD1Ev
	jmp	.L186
.L220:
	movq	%rax, %rbx
.L186:
	.loc 17 205 89 discriminator 2
	leaq	2976(%rbp), %rax
	movq	%rax, %rcx
	call	_ZN8wxStringD1Ev
	jmp	.L187
.L219:
	movq	%rax, %rbx
.L187:
	.loc 17 206 47
	leaq	2832(%rbp), %rax
	movq	%rax, %rcx
	call	_ZN8wxStringD1Ev
	jmp	.L188
.L218:
	movq	%rax, %rbx
.L188:
	.loc 17 206 94 discriminator 2
	leaq	2688(%rbp), %rax
	movq	%rax, %rcx
	call	_ZN8wxStringD1Ev
	jmp	.L189
.L217:
	movq	%rax, %rbx
.L189:
	.loc 17 207 47
	leaq	2544(%rbp), %rax
	movq	%rax, %rcx
	call	_ZN8wxStringD1Ev
	jmp	.L190
.L216:
	movq	%rax, %rbx
.L190:
	.loc 17 207 89 discriminator 2
	leaq	2400(%rbp), %rax
	movq	%rax, %rcx
	call	_ZN8wxStringD1Ev
	jmp	.L134
.L211:
	movq	%rax, %rbx
.L134:
	.loc 17 97 22
	leaq	-48(%rbp), %rax
	movq	%rax, %rcx
	call	_ZN12ElementosVooD1Ev
	jmp	.L109
.L269:
	movq	%rax, %rbx
.LBE28:
.LBE29:
	.loc 17 220 28
	leaq	4848(%rbp), %rax
	movq	%rax, %rcx
	call	_ZN8wxStringD1Ev
	jmp	.L109
.L194:
	movq	%rax, %rbx
.L109:
	.loc 17 26 19
	leaq	48(%rbp), %rax
	movq	%rax, %rcx
	call	_ZN16ElementosDisparoD1Ev
	jmp	.L192
.L193:
	movq	%rax, %rbx
.L192:
	.loc 17 25 15
	leaq	80(%rbp), %rax
	movq	%rax, %rcx
	call	_ZN12ElementosVooD1Ev
	movq	%rbx, %rax
	movq	%rax, %rcx
.LEHB99:
	call	_Unwind_Resume
	nop
.LEHE99:
.L271:
	.loc 17 221 1
	movaps	5232(%rbp), %xmm6
	movaps	5248(%rbp), %xmm7
	addq	$5400, %rsp
	.cfi_restore 24
	.cfi_restore 23
	popq	%rbx
	.cfi_restore 3
	popq	%rsi
	.cfi_restore 4
	popq	%rdi
	.cfi_restore 5
	popq	%rbp
	.cfi_restore 6
	.cfi_def_cfa 7, 5432
	ret
	.cfi_endproc
.LFE11322:
	.seh_handler	__gxx_personality_seh0, @unwind, @except
	.seh_handlerdata
	.align 4
.LLSDA11322:
	.byte	0xff
	.byte	0x9b
	.uleb128 .LLSDATT11322-.LLSDATTD11322
.LLSDATTD11322:
	.byte	0x1
	.uleb128 .LLSDACSE11322-.LLSDACSB11322
.LLSDACSB11322:
	.uleb128 .LEHB6-.LFB11322
	.uleb128 .LEHE6-.LEHB6
	.uleb128 0
	.uleb128 0
	.uleb128 .LEHB7-.LFB11322
	.uleb128 .LEHE7-.LEHB7
	.uleb128 .L193-.LFB11322
	.uleb128 0
	.uleb128 .LEHB8-.LFB11322
	.uleb128 .LEHE8-.LEHB8
	.uleb128 .L194-.LFB11322
	.uleb128 0
	.uleb128 .LEHB9-.LFB11322
	.uleb128 .LEHE9-.LEHB9
	.uleb128 .L195-.LFB11322
	.uleb128 0
	.uleb128 .LEHB10-.LFB11322
	.uleb128 .LEHE10-.LEHB10
	.uleb128 .L194-.LFB11322
	.uleb128 0
	.uleb128 .LEHB11-.LFB11322
	.uleb128 .LEHE11-.LEHB11
	.uleb128 .L196-.LFB11322
	.uleb128 0
	.uleb128 .LEHB12-.LFB11322
	.uleb128 .LEHE12-.LEHB12
	.uleb128 .L197-.LFB11322
	.uleb128 0
	.uleb128 .LEHB13-.LFB11322
	.uleb128 .LEHE13-.LEHB13
	.uleb128 .L198-.LFB11322
	.uleb128 0
	.uleb128 .LEHB14-.LFB11322
	.uleb128 .LEHE14-.LEHB14
	.uleb128 .L199-.LFB11322
	.uleb128 0
	.uleb128 .LEHB15-.LFB11322
	.uleb128 .LEHE15-.LEHB15
	.uleb128 .L194-.LFB11322
	.uleb128 0
	.uleb128 .LEHB16-.LFB11322
	.uleb128 .LEHE16-.LEHB16
	.uleb128 .L200-.LFB11322
	.uleb128 0
	.uleb128 .LEHB17-.LFB11322
	.uleb128 .LEHE17-.LEHB17
	.uleb128 .L194-.LFB11322
	.uleb128 0
	.uleb128 .LEHB18-.LFB11322
	.uleb128 .LEHE18-.LEHB18
	.uleb128 .L201-.LFB11322
	.uleb128 0
	.uleb128 .LEHB19-.LFB11322
	.uleb128 .LEHE19-.LEHB19
	.uleb128 .L194-.LFB11322
	.uleb128 0
	.uleb128 .LEHB20-.LFB11322
	.uleb128 .LEHE20-.LEHB20
	.uleb128 .L202-.LFB11322
	.uleb128 0xb
	.uleb128 .LEHB21-.LFB11322
	.uleb128 .LEHE21-.LEHB21
	.uleb128 .L194-.LFB11322
	.uleb128 0
	.uleb128 .LEHB22-.LFB11322
	.uleb128 .LEHE22-.LEHB22
	.uleb128 .L211-.LFB11322
	.uleb128 0
	.uleb128 .LEHB23-.LFB11322
	.uleb128 .LEHE23-.LEHB23
	.uleb128 .L212-.LFB11322
	.uleb128 0
	.uleb128 .LEHB24-.LFB11322
	.uleb128 .LEHE24-.LEHB24
	.uleb128 .L211-.LFB11322
	.uleb128 0
	.uleb128 .LEHB25-.LFB11322
	.uleb128 .LEHE25-.LEHB25
	.uleb128 .L213-.LFB11322
	.uleb128 0
	.uleb128 .LEHB26-.LFB11322
	.uleb128 .LEHE26-.LEHB26
	.uleb128 .L211-.LFB11322
	.uleb128 0
	.uleb128 .LEHB27-.LFB11322
	.uleb128 .LEHE27-.LEHB27
	.uleb128 .L214-.LFB11322
	.uleb128 0
	.uleb128 .LEHB28-.LFB11322
	.uleb128 .LEHE28-.LEHB28
	.uleb128 .L211-.LFB11322
	.uleb128 0
	.uleb128 .LEHB29-.LFB11322
	.uleb128 .LEHE29-.LEHB29
	.uleb128 .L215-.LFB11322
	.uleb128 0
	.uleb128 .LEHB30-.LFB11322
	.uleb128 .LEHE30-.LEHB30
	.uleb128 .L211-.LFB11322
	.uleb128 0
	.uleb128 .LEHB31-.LFB11322
	.uleb128 .LEHE31-.LEHB31
	.uleb128 .L216-.LFB11322
	.uleb128 0
	.uleb128 .LEHB32-.LFB11322
	.uleb128 .LEHE32-.LEHB32
	.uleb128 .L217-.LFB11322
	.uleb128 0
	.uleb128 .LEHB33-.LFB11322
	.uleb128 .LEHE33-.LEHB33
	.uleb128 .L218-.LFB11322
	.uleb128 0
	.uleb128 .LEHB34-.LFB11322
	.uleb128 .LEHE34-.LEHB34
	.uleb128 .L219-.LFB11322
	.uleb128 0
	.uleb128 .LEHB35-.LFB11322
	.uleb128 .LEHE35-.LEHB35
	.uleb128 .L220-.LFB11322
	.uleb128 0
	.uleb128 .LEHB36-.LFB11322
	.uleb128 .LEHE36-.LEHB36
	.uleb128 .L221-.LFB11322
	.uleb128 0
	.uleb128 .LEHB37-.LFB11322
	.uleb128 .LEHE37-.LEHB37
	.uleb128 .L222-.LFB11322
	.uleb128 0
	.uleb128 .LEHB38-.LFB11322
	.uleb128 .LEHE38-.LEHB38
	.uleb128 .L223-.LFB11322
	.uleb128 0
	.uleb128 .LEHB39-.LFB11322
	.uleb128 .LEHE39-.LEHB39
	.uleb128 .L224-.LFB11322
	.uleb128 0
	.uleb128 .LEHB40-.LFB11322
	.uleb128 .LEHE40-.LEHB40
	.uleb128 .L225-.LFB11322
	.uleb128 0
	.uleb128 .LEHB41-.LFB11322
	.uleb128 .LEHE41-.LEHB41
	.uleb128 .L226-.LFB11322
	.uleb128 0
	.uleb128 .LEHB42-.LFB11322
	.uleb128 .LEHE42-.LEHB42
	.uleb128 .L227-.LFB11322
	.uleb128 0
	.uleb128 .LEHB43-.LFB11322
	.uleb128 .LEHE43-.LEHB43
	.uleb128 .L228-.LFB11322
	.uleb128 0
	.uleb128 .LEHB44-.LFB11322
	.uleb128 .LEHE44-.LEHB44
	.uleb128 .L229-.LFB11322
	.uleb128 0
	.uleb128 .LEHB45-.LFB11322
	.uleb128 .LEHE45-.LEHB45
	.uleb128 .L230-.LFB11322
	.uleb128 0
	.uleb128 .LEHB46-.LFB11322
	.uleb128 .LEHE46-.LEHB46
	.uleb128 .L231-.LFB11322
	.uleb128 0
	.uleb128 .LEHB47-.LFB11322
	.uleb128 .LEHE47-.LEHB47
	.uleb128 .L232-.LFB11322
	.uleb128 0
	.uleb128 .LEHB48-.LFB11322
	.uleb128 .LEHE48-.LEHB48
	.uleb128 .L233-.LFB11322
	.uleb128 0
	.uleb128 .LEHB49-.LFB11322
	.uleb128 .LEHE49-.LEHB49
	.uleb128 .L234-.LFB11322
	.uleb128 0
	.uleb128 .LEHB50-.LFB11322
	.uleb128 .LEHE50-.LEHB50
	.uleb128 .L235-.LFB11322
	.uleb128 0
	.uleb128 .LEHB51-.LFB11322
	.uleb128 .LEHE51-.LEHB51
	.uleb128 .L236-.LFB11322
	.uleb128 0
	.uleb128 .LEHB52-.LFB11322
	.uleb128 .LEHE52-.LEHB52
	.uleb128 .L237-.LFB11322
	.uleb128 0
	.uleb128 .LEHB53-.LFB11322
	.uleb128 .LEHE53-.LEHB53
	.uleb128 .L238-.LFB11322
	.uleb128 0
	.uleb128 .LEHB54-.LFB11322
	.uleb128 .LEHE54-.LEHB54
	.uleb128 .L239-.LFB11322
	.uleb128 0
	.uleb128 .LEHB55-.LFB11322
	.uleb128 .LEHE55-.LEHB55
	.uleb128 .L240-.LFB11322
	.uleb128 0
	.uleb128 .LEHB56-.LFB11322
	.uleb128 .LEHE56-.LEHB56
	.uleb128 .L241-.LFB11322
	.uleb128 0
	.uleb128 .LEHB57-.LFB11322
	.uleb128 .LEHE57-.LEHB57
	.uleb128 .L242-.LFB11322
	.uleb128 0
	.uleb128 .LEHB58-.LFB11322
	.uleb128 .LEHE58-.LEHB58
	.uleb128 .L243-.LFB11322
	.uleb128 0
	.uleb128 .LEHB59-.LFB11322
	.uleb128 .LEHE59-.LEHB59
	.uleb128 .L244-.LFB11322
	.uleb128 0
	.uleb128 .LEHB60-.LFB11322
	.uleb128 .LEHE60-.LEHB60
	.uleb128 .L245-.LFB11322
	.uleb128 0
	.uleb128 .LEHB61-.LFB11322
	.uleb128 .LEHE61-.LEHB61
	.uleb128 .L246-.LFB11322
	.uleb128 0
	.uleb128 .LEHB62-.LFB11322
	.uleb128 .LEHE62-.LEHB62
	.uleb128 .L247-.LFB11322
	.uleb128 0
	.uleb128 .LEHB63-.LFB11322
	.uleb128 .LEHE63-.LEHB63
	.uleb128 .L248-.LFB11322
	.uleb128 0
	.uleb128 .LEHB64-.LFB11322
	.uleb128 .LEHE64-.LEHB64
	.uleb128 .L249-.LFB11322
	.uleb128 0
	.uleb128 .LEHB65-.LFB11322
	.uleb128 .LEHE65-.LEHB65
	.uleb128 .L250-.LFB11322
	.uleb128 0
	.uleb128 .LEHB66-.LFB11322
	.uleb128 .LEHE66-.LEHB66
	.uleb128 .L251-.LFB11322
	.uleb128 0
	.uleb128 .LEHB67-.LFB11322
	.uleb128 .LEHE67-.LEHB67
	.uleb128 .L252-.LFB11322
	.uleb128 0
	.uleb128 .LEHB68-.LFB11322
	.uleb128 .LEHE68-.LEHB68
	.uleb128 .L253-.LFB11322
	.uleb128 0
	.uleb128 .LEHB69-.LFB11322
	.uleb128 .LEHE69-.LEHB69
	.uleb128 .L254-.LFB11322
	.uleb128 0
	.uleb128 .LEHB70-.LFB11322
	.uleb128 .LEHE70-.LEHB70
	.uleb128 .L255-.LFB11322
	.uleb128 0
	.uleb128 .LEHB71-.LFB11322
	.uleb128 .LEHE71-.LEHB71
	.uleb128 .L256-.LFB11322
	.uleb128 0
	.uleb128 .LEHB72-.LFB11322
	.uleb128 .LEHE72-.LEHB72
	.uleb128 .L257-.LFB11322
	.uleb128 0
	.uleb128 .LEHB73-.LFB11322
	.uleb128 .LEHE73-.LEHB73
	.uleb128 .L258-.LFB11322
	.uleb128 0
	.uleb128 .LEHB74-.LFB11322
	.uleb128 .LEHE74-.LEHB74
	.uleb128 .L259-.LFB11322
	.uleb128 0
	.uleb128 .LEHB75-.LFB11322
	.uleb128 .LEHE75-.LEHB75
	.uleb128 .L260-.LFB11322
	.uleb128 0
	.uleb128 .LEHB76-.LFB11322
	.uleb128 .LEHE76-.LEHB76
	.uleb128 .L261-.LFB11322
	.uleb128 0
	.uleb128 .LEHB77-.LFB11322
	.uleb128 .LEHE77-.LEHB77
	.uleb128 .L262-.LFB11322
	.uleb128 0
	.uleb128 .LEHB78-.LFB11322
	.uleb128 .LEHE78-.LEHB78
	.uleb128 .L263-.LFB11322
	.uleb128 0
	.uleb128 .LEHB79-.LFB11322
	.uleb128 .LEHE79-.LEHB79
	.uleb128 .L264-.LFB11322
	.uleb128 0
	.uleb128 .LEHB80-.LFB11322
	.uleb128 .LEHE80-.LEHB80
	.uleb128 .L265-.LFB11322
	.uleb128 0
	.uleb128 .LEHB81-.LFB11322
	.uleb128 .LEHE81-.LEHB81
	.uleb128 .L266-.LFB11322
	.uleb128 0
	.uleb128 .LEHB82-.LFB11322
	.uleb128 .LEHE82-.LEHB82
	.uleb128 .L267-.LFB11322
	.uleb128 0
	.uleb128 .LEHB83-.LFB11322
	.uleb128 .LEHE83-.LEHB83
	.uleb128 .L268-.LFB11322
	.uleb128 0
	.uleb128 .LEHB84-.LFB11322
	.uleb128 .LEHE84-.LEHB84
	.uleb128 .L211-.LFB11322
	.uleb128 0
	.uleb128 .LEHB85-.LFB11322
	.uleb128 .LEHE85-.LEHB85
	.uleb128 .L194-.LFB11322
	.uleb128 0
	.uleb128 .LEHB86-.LFB11322
	.uleb128 .LEHE86-.LEHB86
	.uleb128 .L269-.LFB11322
	.uleb128 0
	.uleb128 .LEHB87-.LFB11322
	.uleb128 .LEHE87-.LEHB87
	.uleb128 .L203-.LFB11322
	.uleb128 0
	.uleb128 .LEHB88-.LFB11322
	.uleb128 .LEHE88-.LEHB88
	.uleb128 .L204-.LFB11322
	.uleb128 0
	.uleb128 .LEHB89-.LFB11322
	.uleb128 .LEHE89-.LEHB89
	.uleb128 .L194-.LFB11322
	.uleb128 0
	.uleb128 .LEHB90-.LFB11322
	.uleb128 .LEHE90-.LEHB90
	.uleb128 .L205-.LFB11322
	.uleb128 0
	.uleb128 .LEHB91-.LFB11322
	.uleb128 .LEHE91-.LEHB91
	.uleb128 .L206-.LFB11322
	.uleb128 0
	.uleb128 .LEHB92-.LFB11322
	.uleb128 .LEHE92-.LEHB92
	.uleb128 .L194-.LFB11322
	.uleb128 0
	.uleb128 .LEHB93-.LFB11322
	.uleb128 .LEHE93-.LEHB93
	.uleb128 .L207-.LFB11322
	.uleb128 0
	.uleb128 .LEHB94-.LFB11322
	.uleb128 .LEHE94-.LEHB94
	.uleb128 .L208-.LFB11322
	.uleb128 0
	.uleb128 .LEHB95-.LFB11322
	.uleb128 .LEHE95-.LEHB95
	.uleb128 .L194-.LFB11322
	.uleb128 0
	.uleb128 .LEHB96-.LFB11322
	.uleb128 .LEHE96-.LEHB96
	.uleb128 .L209-.LFB11322
	.uleb128 0
	.uleb128 .LEHB97-.LFB11322
	.uleb128 .LEHE97-.LEHB97
	.uleb128 .L210-.LFB11322
	.uleb128 0
	.uleb128 .LEHB98-.LFB11322
	.uleb128 .LEHE98-.LEHB98
	.uleb128 .L194-.LFB11322
	.uleb128 0
	.uleb128 .LEHB99-.LFB11322
	.uleb128 .LEHE99-.LEHB99
	.uleb128 0
	.uleb128 0
.LLSDACSE11322:
	.byte	0
	.byte	0
	.byte	0x5
	.byte	0x7d
	.byte	0x4
	.byte	0x7d
	.byte	0x3
	.byte	0x7d
	.byte	0x2
	.byte	0x7d
	.byte	0x1
	.byte	0x7d
	.align 4
	.long	.LDFCM0-.
	.long	.LDFCM1-.
	.long	.LDFCM2-.
	.long	.LDFCM3-.
	.long	.LDFCM4-.
.LLSDATT11322:
	.text
	.seh_endproc
	.section	.text$_ZN22wxScopedCharTypeBufferIwED1Ev,"x"
	.linkonce discard
	.align 2
	.globl	_ZN22wxScopedCharTypeBufferIwED1Ev
	.def	_ZN22wxScopedCharTypeBufferIwED1Ev;	.scl	2;	.type	32;	.endef
	.seh_proc	_ZN22wxScopedCharTypeBufferIwED1Ev
_ZN22wxScopedCharTypeBufferIwED1Ev:
.LFB11550:
	.loc 6 125 5
	.cfi_startproc
	pushq	%rbp
	.seh_pushreg	%rbp
	.cfi_def_cfa_offset 16
	.cfi_offset 6, -16
	movq	%rsp, %rbp
	.seh_setframe	%rbp, 0
	.cfi_def_cfa_register 6
	subq	$32, %rsp
	.seh_stackalloc	32
	.seh_endprologue
	movq	%rcx, 16(%rbp)
.LBB30:
	.loc 6 127 9
	movq	16(%rbp), %rcx
	call	_ZN22wxScopedCharTypeBufferIwE6DecRefEv
.LBE30:
	.loc 6 128 5
	nop
	addq	$32, %rsp
	popq	%rbp
	.cfi_restore 6
	.cfi_def_cfa 7, 8
	ret
	.cfi_endproc
.LFE11550:
	.seh_handler	__gxx_personality_seh0, @unwind, @except
	.seh_handlerdata
.LLSDA11550:
	.byte	0xff
	.byte	0xff
	.byte	0x1
	.uleb128 .LLSDACSE11550-.LLSDACSB11550
.LLSDACSB11550:
.LLSDACSE11550:
	.section	.text$_ZN22wxScopedCharTypeBufferIwED1Ev,"x"
	.linkonce discard
	.seh_endproc
	.section	.text$_ZN22wxScopedCharTypeBufferIwEC1ERKS0_,"x"
	.linkonce discard
	.align 2
	.globl	_ZN22wxScopedCharTypeBufferIwEC1ERKS0_
	.def	_ZN22wxScopedCharTypeBufferIwEC1ERKS0_;	.scl	2;	.type	32;	.endef
	.seh_proc	_ZN22wxScopedCharTypeBufferIwEC1ERKS0_
_ZN22wxScopedCharTypeBufferIwEC1ERKS0_:
.LFB11574:
	.loc 6 107 5
	.cfi_startproc
	pushq	%rbp
	.seh_pushreg	%rbp
	.cfi_def_cfa_offset 16
	.cfi_offset 6, -16
	movq	%rsp, %rbp
	.seh_setframe	%rbp, 0
	.cfi_def_cfa_register 6
	subq	$32, %rsp
	.seh_stackalloc	32
	.seh_endprologue
	movq	%rcx, 16(%rbp)
	movq	%rdx, 24(%rbp)
.LBB31:
	.loc 6 109 22
	movq	24(%rbp), %rax
	movq	(%rax), %rdx
	.loc 6 109 9
	movq	16(%rbp), %rax
	movq	%rdx, (%rax)
	.loc 6 110 9
	movq	16(%rbp), %rcx
	call	_ZN22wxScopedCharTypeBufferIwE6IncRefEv
.LBE31:
	.loc 6 111 5
	nop
	addq	$32, %rsp
	popq	%rbp
	.cfi_restore 6
	.cfi_def_cfa 7, 8
	ret
	.cfi_endproc
.LFE11574:
	.seh_endproc
	.section	.text$_ZN8wxString15ConvertedBufferIcED1Ev,"x"
	.linkonce discard
	.align 2
	.globl	_ZN8wxString15ConvertedBufferIcED1Ev
	.def	_ZN8wxString15ConvertedBufferIcED1Ev;	.scl	2;	.type	32;	.endef
	.seh_proc	_ZN8wxString15ConvertedBufferIcED1Ev
_ZN8wxString15ConvertedBufferIcED1Ev:
.LFB11643:
	.loc 8 3489 7
	.cfi_startproc
	pushq	%rbp
	.seh_pushreg	%rbp
	.cfi_def_cfa_offset 16
	.cfi_offset 6, -16
	movq	%rsp, %rbp
	.seh_setframe	%rbp, 0
	.cfi_def_cfa_register 6
	subq	$32, %rsp
	.seh_stackalloc	32
	.seh_endprologue
	movq	%rcx, 16(%rbp)
.LBB32:
	.loc 8 3490 18
	movq	16(%rbp), %rax
	movq	(%rax), %rax
	.loc 8 3490 17
	movq	%rax, %rcx
	call	free
.LBE32:
	.loc 8 3490 26
	nop
	addq	$32, %rsp
	popq	%rbp
	.cfi_restore 6
	.cfi_def_cfa 7, 8
	ret
	.cfi_endproc
.LFE11643:
	.seh_endproc
	.section	.text$_ZN8wxString15ConvertedBufferIcEC1Ev,"x"
	.linkonce discard
	.align 2
	.globl	_ZN8wxString15ConvertedBufferIcEC1Ev
	.def	_ZN8wxString15ConvertedBufferIcEC1Ev;	.scl	2;	.type	32;	.endef
	.seh_proc	_ZN8wxString15ConvertedBufferIcEC1Ev
_ZN8wxString15ConvertedBufferIcEC1Ev:
.LFB11649:
	.loc 8 3488 7
	.cfi_startproc
	pushq	%rbp
	.seh_pushreg	%rbp
	.cfi_def_cfa_offset 16
	.cfi_offset 6, -16
	movq	%rsp, %rbp
	.seh_setframe	%rbp, 0
	.cfi_def_cfa_register 6
	.seh_endprologue
	movq	%rcx, 16(%rbp)
.LBB33:
	.loc 8 3488 36
	movq	16(%rbp), %rax
	movq	$0, (%rax)
.LBE33:
	.loc 8 3488 39
	nop
	popq	%rbp
	.cfi_restore 6
	.cfi_def_cfa 7, 8
	ret
	.cfi_endproc
.LFE11649:
	.seh_endproc
	.section	.text$_ZNK22wxScopedCharTypeBufferIwEcvPKwEv,"x"
	.linkonce discard
	.align 2
	.globl	_ZNK22wxScopedCharTypeBufferIwEcvPKwEv
	.def	_ZNK22wxScopedCharTypeBufferIwEcvPKwEv;	.scl	2;	.type	32;	.endef
	.seh_proc	_ZNK22wxScopedCharTypeBufferIwEcvPKwEv
_ZNK22wxScopedCharTypeBufferIwEcvPKwEv:
.LFB11653:
	.loc 6 157 5
	.cfi_startproc
	pushq	%rbp
	.seh_pushreg	%rbp
	.cfi_def_cfa_offset 16
	.cfi_offset 6, -16
	movq	%rsp, %rbp
	.seh_setframe	%rbp, 0
	.cfi_def_cfa_register 6
	subq	$32, %rsp
	.seh_stackalloc	32
	.seh_endprologue
	movq	%rcx, 16(%rbp)
	.loc 6 157 53
	movq	16(%rbp), %rcx
	call	_ZNK22wxScopedCharTypeBufferIwE4dataEv
	.loc 6 157 56
	addq	$32, %rsp
	popq	%rbp
	.cfi_restore 6
	.cfi_def_cfa 7, 8
	ret
	.cfi_endproc
.LFE11653:
	.seh_endproc
	.section	.text$_ZNK22wxScopedCharTypeBufferIwE4dataEv,"x"
	.linkonce discard
	.align 2
	.globl	_ZNK22wxScopedCharTypeBufferIwE4dataEv
	.def	_ZNK22wxScopedCharTypeBufferIwE4dataEv;	.scl	2;	.type	32;	.endef
	.seh_proc	_ZNK22wxScopedCharTypeBufferIwE4dataEv
_ZNK22wxScopedCharTypeBufferIwE4dataEv:
.LFB11666:
	.loc 6 156 21
	.cfi_startproc
	pushq	%rbp
	.seh_pushreg	%rbp
	.cfi_def_cfa_offset 16
	.cfi_offset 6, -16
	movq	%rsp, %rbp
	.seh_setframe	%rbp, 0
	.cfi_def_cfa_register 6
	subq	$32, %rsp
	.seh_stackalloc	32
	.seh_endprologue
	movq	%rcx, 16(%rbp)
	.loc 6 156 43
	movq	16(%rbp), %rax
	movq	(%rax), %rax
	.loc 6 156 55
	movq	%rax, %rcx
	call	_ZNK22wxScopedCharTypeBufferIwE4Data3GetEv
	.loc 6 156 58
	addq	$32, %rsp
	popq	%rbp
	.cfi_restore 6
	.cfi_def_cfa 7, 8
	ret
	.cfi_endproc
.LFE11666:
	.seh_endproc
	.section	.text$_ZSt3powIdiEN9__gnu_cxx11__promote_2IT_T0_NS0_9__promoteIS2_XsrSt12__is_integerIS2_E7__valueEE6__typeENS4_IS3_XsrS5_IS3_E7__valueEE6__typeEE6__typeES2_S3_,"x"
	.linkonce discard
	.globl	_ZSt3powIdiEN9__gnu_cxx11__promote_2IT_T0_NS0_9__promoteIS2_XsrSt12__is_integerIS2_E7__valueEE6__typeENS4_IS3_XsrS5_IS3_E7__valueEE6__typeEE6__typeES2_S3_
	.def	_ZSt3powIdiEN9__gnu_cxx11__promote_2IT_T0_NS0_9__promoteIS2_XsrSt12__is_integerIS2_E7__valueEE6__typeENS4_IS3_XsrS5_IS3_E7__valueEE6__typeEE6__typeES2_S3_;	.scl	2;	.type	32;	.endef
	.seh_proc	_ZSt3powIdiEN9__gnu_cxx11__promote_2IT_T0_NS0_9__promoteIS2_XsrSt12__is_integerIS2_E7__valueEE6__typeENS4_IS3_XsrS5_IS3_E7__valueEE6__typeEE6__typeES2_S3_
_ZSt3powIdiEN9__gnu_cxx11__promote_2IT_T0_NS0_9__promoteIS2_XsrSt12__is_integerIS2_E7__valueEE6__typeENS4_IS3_XsrS5_IS3_E7__valueEE6__typeEE6__typeES2_S3_:
.LFB11975:
	.file 19 "C:/Program Files/CodeBlocks/MinGW/lib/gcc/x86_64-w64-mingw32/8.1.0/include/c++/cmath"
	.loc 19 415 5
	.cfi_startproc
	pushq	%rbp
	.seh_pushreg	%rbp
	.cfi_def_cfa_offset 16
	.cfi_offset 6, -16
	movq	%rsp, %rbp
	.seh_setframe	%rbp, 0
	.cfi_def_cfa_register 6
	subq	$32, %rsp
	.seh_stackalloc	32
	.seh_endprologue
	movsd	%xmm0, 16(%rbp)
	movl	%edx, 24(%rbp)
	.loc 19 418 17
	cvtsi2sd	24(%rbp), %xmm0
	movapd	%xmm0, %xmm1
	movsd	16(%rbp), %xmm0
	call	pow
	movq	%xmm0, %rax
	.loc 19 419 5
	movq	%rax, %xmm0
	addq	$32, %rsp
	popq	%rbp
	.cfi_restore 6
	.cfi_def_cfa 7, 8
	ret
	.cfi_endproc
.LFE11975:
	.seh_endproc
	.section	.text$_ZN22wxScopedCharTypeBufferIwE4DataD1Ev,"x"
	.linkonce discard
	.align 2
	.globl	_ZN22wxScopedCharTypeBufferIwE4DataD1Ev
	.def	_ZN22wxScopedCharTypeBufferIwE4DataD1Ev;	.scl	2;	.type	32;	.endef
	.seh_proc	_ZN22wxScopedCharTypeBufferIwE4DataD1Ev
_ZN22wxScopedCharTypeBufferIwE4DataD1Ev:
.LFB12062:
	.loc 6 164 12
	.cfi_startproc
	pushq	%rbp
	.seh_pushreg	%rbp
	.cfi_def_cfa_offset 16
	.cfi_offset 6, -16
	movq	%rsp, %rbp
	.seh_setframe	%rbp, 0
	.cfi_def_cfa_register 6
	subq	$32, %rsp
	.seh_stackalloc	32
	.seh_endprologue
	movq	%rcx, 16(%rbp)
.LBB34:
	.loc 6 164 12
	movq	16(%rbp), %rax
	movq	%rax, %rcx
	call	_ZN9wxPrivate17UntypedBufferDataD2Ev
.LBE34:
	nop
	addq	$32, %rsp
	popq	%rbp
	.cfi_restore 6
	.cfi_def_cfa 7, 8
	ret
	.cfi_endproc
.LFE12062:
	.seh_endproc
	.section	.text$_ZN22wxScopedCharTypeBufferIwE6DecRefEv,"x"
	.linkonce discard
	.align 2
	.globl	_ZN22wxScopedCharTypeBufferIwE6DecRefEv
	.def	_ZN22wxScopedCharTypeBufferIwE6DecRefEv;	.scl	2;	.type	32;	.endef
	.seh_proc	_ZN22wxScopedCharTypeBufferIwE6DecRefEv
_ZN22wxScopedCharTypeBufferIwE6DecRefEv:
.LFB12059:
	.loc 6 192 10
	.cfi_startproc
	pushq	%rbp
	.seh_pushreg	%rbp
	.cfi_def_cfa_offset 16
	.cfi_offset 6, -16
	pushq	%rbx
	.seh_pushreg	%rbx
	.cfi_def_cfa_offset 24
	.cfi_offset 3, -24
	subq	$40, %rsp
	.seh_stackalloc	40
	.cfi_def_cfa_offset 64
	leaq	128(%rsp), %rbp
	.seh_setframe	%rbp, 128
	.cfi_def_cfa 6, -64
	.seh_endprologue
	movq	%rcx, -64(%rbp)
	.loc 6 194 14
	movq	-64(%rbp), %rax
	movq	(%rax), %rbx
	.loc 6 194 35
	call	_ZN22wxScopedCharTypeBufferIwE11GetNullDataEv
	.loc 6 194 21
	cmpq	%rax, %rbx
	sete	%al
	.loc 6 194 9
	testb	%al, %al
	jne	.L287
	.loc 6 196 16
	movq	-64(%rbp), %rax
	movq	(%rax), %rax
	.loc 6 196 24
	movzwl	16(%rax), %edx
	.loc 6 196 30
	subl	$1, %edx
	movw	%dx, 16(%rax)
	.loc 6 196 24
	movzwl	16(%rax), %eax
	.loc 6 196 30
	testw	%ax, %ax
	sete	%al
	.loc 6 196 9
	testb	%al, %al
	je	.L286
	.loc 6 197 20
	movq	-64(%rbp), %rax
	movq	(%rax), %rbx
	.loc 6 197 13
	testq	%rbx, %rbx
	je	.L286
	.loc 6 197 13 is_stmt 0 discriminator 1
	movq	%rbx, %rcx
	call	_ZN22wxScopedCharTypeBufferIwE4DataD1Ev
	movq	%rbx, %rcx
	call	_ZdlPv
.L286:
	.loc 6 198 29 is_stmt 1
	call	_ZN22wxScopedCharTypeBufferIwE11GetNullDataEv
	movq	%rax, %rdx
	.loc 6 198 9
	movq	-64(%rbp), %rax
	movq	%rdx, (%rax)
	jmp	.L283
.L287:
	.loc 6 195 13
	nop
.L283:
	.loc 6 199 5
	addq	$40, %rsp
	popq	%rbx
	.cfi_restore 3
	popq	%rbp
	.cfi_restore 6
	.cfi_def_cfa 7, -24
	ret
	.cfi_endproc
.LFE12059:
	.seh_endproc
	.section	.text$_ZN22wxScopedCharTypeBufferIwE11GetNullDataEv,"x"
	.linkonce discard
	.globl	_ZN22wxScopedCharTypeBufferIwE11GetNullDataEv
	.def	_ZN22wxScopedCharTypeBufferIwE11GetNullDataEv;	.scl	2;	.type	32;	.endef
	.seh_proc	_ZN22wxScopedCharTypeBufferIwE11GetNullDataEv
_ZN22wxScopedCharTypeBufferIwE11GetNullDataEv:
.LFB12068:
	.loc 6 180 18
	.cfi_startproc
	pushq	%rbp
	.seh_pushreg	%rbp
	.cfi_def_cfa_offset 16
	.cfi_offset 6, -16
	movq	%rsp, %rbp
	.seh_setframe	%rbp, 0
	.cfi_def_cfa_register 6
	subq	$32, %rsp
	.seh_stackalloc	32
	.seh_endprologue
	.loc 6 182 65
	call	_ZN9wxPrivate18GetUntypedNullDataEv
	.loc 6 183 5
	addq	$32, %rsp
	popq	%rbp
	.cfi_restore 6
	.cfi_def_cfa 7, 8
	ret
	.cfi_endproc
.LFE12068:
	.seh_endproc
	.section	.text$_ZN22wxScopedCharTypeBufferIwE6IncRefEv,"x"
	.linkonce discard
	.align 2
	.globl	_ZN22wxScopedCharTypeBufferIwE6IncRefEv
	.def	_ZN22wxScopedCharTypeBufferIwE6IncRefEv;	.scl	2;	.type	32;	.endef
	.seh_proc	_ZN22wxScopedCharTypeBufferIwE6IncRefEv
_ZN22wxScopedCharTypeBufferIwE6IncRefEv:
.LFB12070:
	.loc 6 185 10
	.cfi_startproc
	pushq	%rbp
	.seh_pushreg	%rbp
	.cfi_def_cfa_offset 16
	.cfi_offset 6, -16
	pushq	%rbx
	.seh_pushreg	%rbx
	.cfi_def_cfa_offset 24
	.cfi_offset 3, -24
	subq	$40, %rsp
	.seh_stackalloc	40
	.cfi_def_cfa_offset 64
	leaq	128(%rsp), %rbp
	.seh_setframe	%rbp, 128
	.cfi_def_cfa 6, -64
	.seh_endprologue
	movq	%rcx, -64(%rbp)
	.loc 6 187 14
	movq	-64(%rbp), %rax
	movq	(%rax), %rbx
	.loc 6 187 35
	call	_ZN22wxScopedCharTypeBufferIwE11GetNullDataEv
	.loc 6 187 21
	cmpq	%rax, %rbx
	sete	%al
	.loc 6 187 9
	testb	%al, %al
	jne	.L293
	.loc 6 189 9
	movq	-64(%rbp), %rax
	movq	(%rax), %rax
	.loc 6 189 17
	movzwl	16(%rax), %edx
	.loc 6 189 9
	addl	$1, %edx
	movw	%dx, 16(%rax)
	jmp	.L290
.L293:
	.loc 6 188 13
	nop
.L290:
	.loc 6 190 5
	addq	$40, %rsp
	popq	%rbx
	.cfi_restore 3
	popq	%rbp
	.cfi_restore 6
	.cfi_def_cfa 7, -24
	ret
	.cfi_endproc
.LFE12070:
	.seh_endproc
	.section	.text$_ZNK22wxScopedCharTypeBufferIwE4Data3GetEv,"x"
	.linkonce discard
	.align 2
	.globl	_ZNK22wxScopedCharTypeBufferIwE4Data3GetEv
	.def	_ZNK22wxScopedCharTypeBufferIwE4Data3GetEv;	.scl	2;	.type	32;	.endef
	.seh_proc	_ZNK22wxScopedCharTypeBufferIwE4Data3GetEv
_ZNK22wxScopedCharTypeBufferIwE4Data3GetEv:
.LFB12098:
	.loc 6 171 19
	.cfi_startproc
	pushq	%rbp
	.seh_pushreg	%rbp
	.cfi_def_cfa_offset 16
	.cfi_offset 6, -16
	movq	%rsp, %rbp
	.seh_setframe	%rbp, 0
	.cfi_def_cfa_register 6
	.seh_endprologue
	movq	%rcx, 16(%rbp)
	.loc 6 171 69
	movq	16(%rbp), %rax
	movq	(%rax), %rax
	.loc 6 171 72
	popq	%rbp
	.cfi_restore 6
	.cfi_def_cfa 7, 8
	ret
	.cfi_endproc
.LFE12098:
	.seh_endproc
	.globl	_ZTV15GeradorTabularF
	.section	.rdata$_ZTV15GeradorTabularF,"dr"
	.linkonce same_size
	.align 8
_ZTV15GeradorTabularF:
	.quad	0
	.quad	_ZTI15GeradorTabularF
	.quad	_ZN15GeradorTabularF11gerarTabelaEP21CalculadorAtmosfericod15TIPO_TRAJETORIAdd
	.globl	_ZTV20wxObjectEventFunctor
	.section	.rdata$_ZTV20wxObjectEventFunctor,"dr"
	.linkonce same_size
	.align 8
_ZTV20wxObjectEventFunctor:
	.quad	0
	.quad	_ZTI20wxObjectEventFunctor
	.quad	_ZN20wxObjectEventFunctorD1Ev
	.quad	_ZN20wxObjectEventFunctorD0Ev
	.quad	_ZN20wxObjectEventFunctorclEP12wxEvtHandlerR7wxEvent
	.quad	_ZNK20wxObjectEventFunctor10IsMatchingERK14wxEventFunctor
	.quad	_ZNK20wxObjectEventFunctor13GetEvtHandlerEv
	.quad	_ZNK20wxObjectEventFunctor12GetEvtMethodEv
	.section	.text$_ZN20wxObjectEventFunctorD1Ev,"x"
	.linkonce discard
	.align 2
	.globl	_ZN20wxObjectEventFunctorD1Ev
	.def	_ZN20wxObjectEventFunctorD1Ev;	.scl	2;	.type	32;	.endef
	.seh_proc	_ZN20wxObjectEventFunctorD1Ev
_ZN20wxObjectEventFunctorD1Ev:
.LFB12452:
	.loc 11 240 7
	.cfi_startproc
	pushq	%rbp
	.seh_pushreg	%rbp
	.cfi_def_cfa_offset 16
	.cfi_offset 6, -16
	movq	%rsp, %rbp
	.seh_setframe	%rbp, 0
	.cfi_def_cfa_register 6
	subq	$32, %rsp
	.seh_stackalloc	32
	.seh_endprologue
	movq	%rcx, 16(%rbp)
.LBB35:
	.loc 11 240 7
	leaq	16+_ZTV20wxObjectEventFunctor(%rip), %rdx
	movq	16(%rbp), %rax
	movq	%rdx, (%rax)
	movq	16(%rbp), %rax
	movq	%rax, %rcx
	call	_ZN14wxEventFunctorD2Ev
.LBE35:
	nop
	addq	$32, %rsp
	popq	%rbp
	.cfi_restore 6
	.cfi_def_cfa 7, 8
	ret
	.cfi_endproc
.LFE12452:
	.seh_endproc
	.section	.text$_ZN20wxObjectEventFunctorD0Ev,"x"
	.linkonce discard
	.align 2
	.globl	_ZN20wxObjectEventFunctorD0Ev
	.def	_ZN20wxObjectEventFunctorD0Ev;	.scl	2;	.type	32;	.endef
	.seh_proc	_ZN20wxObjectEventFunctorD0Ev
_ZN20wxObjectEventFunctorD0Ev:
.LFB12453:
	.loc 11 240 7
	.cfi_startproc
	pushq	%rbp
	.seh_pushreg	%rbp
	.cfi_def_cfa_offset 16
	.cfi_offset 6, -16
	movq	%rsp, %rbp
	.seh_setframe	%rbp, 0
	.cfi_def_cfa_register 6
	subq	$32, %rsp
	.seh_stackalloc	32
	.seh_endprologue
	movq	%rcx, 16(%rbp)
	.loc 11 240 7
	movq	16(%rbp), %rcx
	call	_ZN20wxObjectEventFunctorD1Ev
	movq	16(%rbp), %rcx
	call	_ZdlPv
	nop
	addq	$32, %rsp
	popq	%rbp
	.cfi_restore 6
	.cfi_def_cfa 7, 8
	ret
	.cfi_endproc
.LFE12453:
	.seh_endproc
	.globl	_ZTV20wxThreadHelperThread
	.section	.rdata$_ZTV20wxThreadHelperThread,"dr"
	.linkonce same_size
	.align 8
_ZTV20wxThreadHelperThread:
	.quad	0
	.quad	_ZTI20wxThreadHelperThread
	.quad	_ZN8wxThread11TestDestroyEv
	.quad	_ZN20wxThreadHelperThreadD1Ev
	.quad	_ZN20wxThreadHelperThreadD0Ev
	.quad	_ZN20wxThreadHelperThread5EntryEv
	.quad	_ZN8wxThread8OnDeleteEv
	.quad	_ZN8wxThread6OnKillEv
	.quad	_ZN8wxThread6OnExitEv
	.section	.text$_ZN20wxThreadHelperThreadD1Ev,"x"
	.linkonce discard
	.align 2
	.globl	_ZN20wxThreadHelperThreadD1Ev
	.def	_ZN20wxThreadHelperThreadD1Ev;	.scl	2;	.type	32;	.endef
	.seh_proc	_ZN20wxThreadHelperThreadD1Ev
_ZN20wxThreadHelperThreadD1Ev:
.LFB12464:
	.loc 9 663 7
	.cfi_startproc
	pushq	%rbp
	.seh_pushreg	%rbp
	.cfi_def_cfa_offset 16
	.cfi_offset 6, -16
	movq	%rsp, %rbp
	.seh_setframe	%rbp, 0
	.cfi_def_cfa_register 6
	subq	$32, %rsp
	.seh_stackalloc	32
	.seh_endprologue
	movq	%rcx, 16(%rbp)
.LBB36:
	.loc 9 663 7
	leaq	16+_ZTV20wxThreadHelperThread(%rip), %rdx
	movq	16(%rbp), %rax
	movq	%rdx, (%rax)
	movq	16(%rbp), %rax
	movq	%rax, %rcx
	call	_ZN8wxThreadD2Ev
.LBE36:
	nop
	addq	$32, %rsp
	popq	%rbp
	.cfi_restore 6
	.cfi_def_cfa 7, 8
	ret
	.cfi_endproc
.LFE12464:
	.seh_endproc
	.section	.text$_ZN20wxThreadHelperThreadD0Ev,"x"
	.linkonce discard
	.align 2
	.globl	_ZN20wxThreadHelperThreadD0Ev
	.def	_ZN20wxThreadHelperThreadD0Ev;	.scl	2;	.type	32;	.endef
	.seh_proc	_ZN20wxThreadHelperThreadD0Ev
_ZN20wxThreadHelperThreadD0Ev:
.LFB12465:
	.loc 9 663 7
	.cfi_startproc
	pushq	%rbp
	.seh_pushreg	%rbp
	.cfi_def_cfa_offset 16
	.cfi_offset 6, -16
	movq	%rsp, %rbp
	.seh_setframe	%rbp, 0
	.cfi_def_cfa_register 6
	subq	$32, %rsp
	.seh_stackalloc	32
	.seh_endprologue
	movq	%rcx, 16(%rbp)
	.loc 9 663 7
	movq	16(%rbp), %rcx
	call	_ZN20wxThreadHelperThreadD1Ev
	movq	16(%rbp), %rcx
	call	_ZdlPv
	nop
	addq	$32, %rsp
	popq	%rbp
	.cfi_restore 6
	.cfi_def_cfa 7, 8
	ret
	.cfi_endproc
.LFE12465:
	.seh_endproc
	.globl	_ZTV12ElementosVoo
	.section	.rdata$_ZTV12ElementosVoo,"dr"
	.linkonce same_size
	.align 8
_ZTV12ElementosVoo:
	.quad	0
	.quad	_ZTI12ElementosVoo
	.quad	_ZN12ElementosVooD1Ev
	.quad	_ZN12ElementosVooD0Ev
	.globl	_ZTV16ElementosDisparo
	.section	.rdata$_ZTV16ElementosDisparo,"dr"
	.linkonce same_size
	.align 8
_ZTV16ElementosDisparo:
	.quad	0
	.quad	_ZTI16ElementosDisparo
	.quad	_ZN16ElementosDisparoD1Ev
	.quad	_ZN16ElementosDisparoD0Ev
	.section	.text$_ZN16ElementosDisparoD1Ev,"x"
	.linkonce discard
	.align 2
	.globl	_ZN16ElementosDisparoD1Ev
	.def	_ZN16ElementosDisparoD1Ev;	.scl	2;	.type	32;	.endef
	.seh_proc	_ZN16ElementosDisparoD1Ev
_ZN16ElementosDisparoD1Ev:
.LFB12488:
	.loc 3 6 7
	.cfi_startproc
	pushq	%rbp
	.seh_pushreg	%rbp
	.cfi_def_cfa_offset 16
	.cfi_offset 6, -16
	movq	%rsp, %rbp
	.seh_setframe	%rbp, 0
	.cfi_def_cfa_register 6
	subq	$32, %rsp
	.seh_stackalloc	32
	.seh_endprologue
	movq	%rcx, 16(%rbp)
.LBB37:
	.loc 3 6 7
	leaq	16+_ZTV16ElementosDisparo(%rip), %rdx
	movq	16(%rbp), %rax
	movq	%rdx, (%rax)
	movq	16(%rbp), %rax
	movq	%rax, %rcx
	call	_ZN10BaseObjectD2Ev
.LBE37:
	nop
	addq	$32, %rsp
	popq	%rbp
	.cfi_restore 6
	.cfi_def_cfa 7, 8
	ret
	.cfi_endproc
.LFE12488:
	.seh_endproc
	.section	.text$_ZN16ElementosDisparoD0Ev,"x"
	.linkonce discard
	.align 2
	.globl	_ZN16ElementosDisparoD0Ev
	.def	_ZN16ElementosDisparoD0Ev;	.scl	2;	.type	32;	.endef
	.seh_proc	_ZN16ElementosDisparoD0Ev
_ZN16ElementosDisparoD0Ev:
.LFB12489:
	.loc 3 6 7
	.cfi_startproc
	pushq	%rbp
	.seh_pushreg	%rbp
	.cfi_def_cfa_offset 16
	.cfi_offset 6, -16
	movq	%rsp, %rbp
	.seh_setframe	%rbp, 0
	.cfi_def_cfa_register 6
	subq	$32, %rsp
	.seh_stackalloc	32
	.seh_endprologue
	movq	%rcx, 16(%rbp)
	.loc 3 6 7
	movq	16(%rbp), %rcx
	call	_ZN16ElementosDisparoD1Ev
	movq	16(%rbp), %rcx
	call	_ZdlPv
	nop
	addq	$32, %rsp
	popq	%rbp
	.cfi_restore 6
	.cfi_def_cfa 7, 8
	ret
	.cfi_endproc
.LFE12489:
	.seh_endproc
	.globl	_ZTV10BaseObject
	.section	.rdata$_ZTV10BaseObject,"dr"
	.linkonce same_size
	.align 8
_ZTV10BaseObject:
	.quad	0
	.quad	_ZTI10BaseObject
	.quad	_ZN10BaseObjectD1Ev
	.quad	_ZN10BaseObjectD0Ev
	.globl	_ZTI18ExceptionYawRepose
	.section	.rdata$_ZTI18ExceptionYawRepose,"dr"
	.linkonce same_size
	.align 8
_ZTI18ExceptionYawRepose:
	.quad	_ZTVN10__cxxabiv120__si_class_type_infoE+16
	.quad	_ZTS18ExceptionYawRepose
	.quad	_ZTISt9exception
	.globl	_ZTS18ExceptionYawRepose
	.section	.rdata$_ZTS18ExceptionYawRepose,"dr"
	.linkonce same_size
	.align 16
_ZTS18ExceptionYawRepose:
	.ascii "18ExceptionYawRepose\0"
	.globl	_ZTI19ExceptionTrajectory
	.section	.rdata$_ZTI19ExceptionTrajectory,"dr"
	.linkonce same_size
	.align 8
_ZTI19ExceptionTrajectory:
	.quad	_ZTVN10__cxxabiv120__si_class_type_infoE+16
	.quad	_ZTS19ExceptionTrajectory
	.quad	_ZTISt9exception
	.globl	_ZTS19ExceptionTrajectory
	.section	.rdata$_ZTS19ExceptionTrajectory,"dr"
	.linkonce same_size
	.align 16
_ZTS19ExceptionTrajectory:
	.ascii "19ExceptionTrajectory\0"
	.globl	_ZTI19ExceptionOutOfBound
	.section	.rdata$_ZTI19ExceptionOutOfBound,"dr"
	.linkonce same_size
	.align 8
_ZTI19ExceptionOutOfBound:
	.quad	_ZTVN10__cxxabiv120__si_class_type_infoE+16
	.quad	_ZTS19ExceptionOutOfBound
	.quad	_ZTISt9exception
	.globl	_ZTS19ExceptionOutOfBound
	.section	.rdata$_ZTS19ExceptionOutOfBound,"dr"
	.linkonce same_size
	.align 16
_ZTS19ExceptionOutOfBound:
	.ascii "19ExceptionOutOfBound\0"
	.globl	_ZTI25ExceptionQuasiConvergence
	.section	.rdata$_ZTI25ExceptionQuasiConvergence,"dr"
	.linkonce same_size
	.align 8
_ZTI25ExceptionQuasiConvergence:
	.quad	_ZTVN10__cxxabiv120__si_class_type_infoE+16
	.quad	_ZTS25ExceptionQuasiConvergence
	.quad	_ZTISt9exception
	.globl	_ZTS25ExceptionQuasiConvergence
	.section	.rdata$_ZTS25ExceptionQuasiConvergence,"dr"
	.linkonce same_size
	.align 16
_ZTS25ExceptionQuasiConvergence:
	.ascii "25ExceptionQuasiConvergence\0"
	.globl	_ZTI20ExceptionConvergence
	.section	.rdata$_ZTI20ExceptionConvergence,"dr"
	.linkonce same_size
	.align 8
_ZTI20ExceptionConvergence:
	.quad	_ZTVN10__cxxabiv120__si_class_type_infoE+16
	.quad	_ZTS20ExceptionConvergence
	.quad	_ZTISt9exception
	.globl	_ZTS20ExceptionConvergence
	.section	.rdata$_ZTS20ExceptionConvergence,"dr"
	.linkonce same_size
	.align 16
_ZTS20ExceptionConvergence:
	.ascii "20ExceptionConvergence\0"
	.globl	_ZTI15GeradorTabularF
	.section	.rdata$_ZTI15GeradorTabularF,"dr"
	.linkonce same_size
	.align 8
_ZTI15GeradorTabularF:
	.quad	_ZTVN10__cxxabiv120__si_class_type_infoE+16
	.quad	_ZTS15GeradorTabularF
	.quad	_ZTI14GeradorTabular
	.globl	_ZTS15GeradorTabularF
	.section	.rdata$_ZTS15GeradorTabularF,"dr"
	.linkonce same_size
	.align 16
_ZTS15GeradorTabularF:
	.ascii "15GeradorTabularF\0"
	.globl	_ZTI14GeradorTabular
	.section	.rdata$_ZTI14GeradorTabular,"dr"
	.linkonce same_size
	.align 8
_ZTI14GeradorTabular:
	.quad	_ZTVN10__cxxabiv117__class_type_infoE+16
	.quad	_ZTS14GeradorTabular
	.globl	_ZTS14GeradorTabular
	.section	.rdata$_ZTS14GeradorTabular,"dr"
	.linkonce same_size
	.align 16
_ZTS14GeradorTabular:
	.ascii "14GeradorTabular\0"
	.globl	_ZTI20wxObjectEventFunctor
	.section	.rdata$_ZTI20wxObjectEventFunctor,"dr"
	.linkonce same_size
	.align 8
_ZTI20wxObjectEventFunctor:
	.quad	_ZTVN10__cxxabiv120__si_class_type_infoE+16
	.quad	_ZTS20wxObjectEventFunctor
	.quad	_ZTI14wxEventFunctor
	.globl	_ZTS20wxObjectEventFunctor
	.section	.rdata$_ZTS20wxObjectEventFunctor,"dr"
	.linkonce same_size
	.align 16
_ZTS20wxObjectEventFunctor:
	.ascii "20wxObjectEventFunctor\0"
	.globl	_ZTI14wxEventFunctor
	.section	.rdata$_ZTI14wxEventFunctor,"dr"
	.linkonce same_size
	.align 8
_ZTI14wxEventFunctor:
	.quad	_ZTVN10__cxxabiv117__class_type_infoE+16
	.quad	_ZTS14wxEventFunctor
	.globl	_ZTS14wxEventFunctor
	.section	.rdata$_ZTS14wxEventFunctor,"dr"
	.linkonce same_size
	.align 16
_ZTS14wxEventFunctor:
	.ascii "14wxEventFunctor\0"
	.globl	_ZTI20wxThreadHelperThread
	.section	.rdata$_ZTI20wxThreadHelperThread,"dr"
	.linkonce same_size
	.align 8
_ZTI20wxThreadHelperThread:
	.quad	_ZTVN10__cxxabiv120__si_class_type_infoE+16
	.quad	_ZTS20wxThreadHelperThread
	.quad	_ZTI8wxThread
	.globl	_ZTS20wxThreadHelperThread
	.section	.rdata$_ZTS20wxThreadHelperThread,"dr"
	.linkonce same_size
	.align 16
_ZTS20wxThreadHelperThread:
	.ascii "20wxThreadHelperThread\0"
	.globl	_ZTI8wxThread
	.section	.rdata$_ZTI8wxThread,"dr"
	.linkonce same_size
	.align 8
_ZTI8wxThread:
	.quad	_ZTVN10__cxxabiv117__class_type_infoE+16
	.quad	_ZTS8wxThread
	.globl	_ZTS8wxThread
	.section	.rdata$_ZTS8wxThread,"dr"
	.linkonce same_size
	.align 8
_ZTS8wxThread:
	.ascii "8wxThread\0"
	.globl	_ZTI12ElementosVoo
	.section	.rdata$_ZTI12ElementosVoo,"dr"
	.linkonce same_size
	.align 8
_ZTI12ElementosVoo:
	.quad	_ZTVN10__cxxabiv120__si_class_type_infoE+16
	.quad	_ZTS12ElementosVoo
	.quad	_ZTI10BaseObject
	.globl	_ZTI16ElementosDisparo
	.section	.rdata$_ZTI16ElementosDisparo,"dr"
	.linkonce same_size
	.align 8
_ZTI16ElementosDisparo:
	.quad	_ZTVN10__cxxabiv120__si_class_type_infoE+16
	.quad	_ZTS16ElementosDisparo
	.quad	_ZTI10BaseObject
	.globl	_ZTS16ElementosDisparo
	.section	.rdata$_ZTS16ElementosDisparo,"dr"
	.linkonce same_size
	.align 16
_ZTS16ElementosDisparo:
	.ascii "16ElementosDisparo\0"
	.globl	_ZTI10BaseObject
	.section	.rdata$_ZTI10BaseObject,"dr"
	.linkonce same_size
	.align 8
_ZTI10BaseObject:
	.quad	_ZTVN10__cxxabiv117__class_type_infoE+16
	.quad	_ZTS10BaseObject
	.globl	_ZTS10BaseObject
	.section	.rdata$_ZTS10BaseObject,"dr"
	.linkonce same_size
	.align 8
_ZTS10BaseObject:
	.ascii "10BaseObject\0"
	.globl	_ZTISt9exception
	.section	.rdata$_ZTISt9exception,"dr"
	.linkonce same_size
	.align 8
_ZTISt9exception:
	.quad	_ZTVN10__cxxabiv117__class_type_infoE+16
	.quad	_ZTSSt9exception
	.globl	_ZTSSt9exception
	.section	.rdata$_ZTSSt9exception,"dr"
	.linkonce same_size
	.align 8
_ZTSSt9exception:
	.ascii "St9exception\0"
	.text
	.def	__tcf_0;	.scl	3;	.type	32;	.endef
	.seh_proc	__tcf_0
__tcf_0:
.LFB12491:
	.file 20 "C:/Program Files/CodeBlocks/MinGW/lib/gcc/x86_64-w64-mingw32/8.1.0/include/c++/iostream"
	.loc 20 74 25
	.cfi_startproc
	pushq	%rbp
	.seh_pushreg	%rbp
	.cfi_def_cfa_offset 16
	.cfi_offset 6, -16
	movq	%rsp, %rbp
	.seh_setframe	%rbp, 0
	.cfi_def_cfa_register 6
	subq	$32, %rsp
	.seh_stackalloc	32
	.seh_endprologue
	.loc 20 74 25
	leaq	_ZStL8__ioinit(%rip), %rcx
	call	_ZNSt8ios_base4InitD1Ev
	nop
	addq	$32, %rsp
	popq	%rbp
	.cfi_restore 6
	.cfi_def_cfa 7, 8
	ret
	.cfi_endproc
.LFE12491:
	.seh_endproc
	.def	_Z41__static_initialization_and_destruction_0ii;	.scl	3;	.type	32;	.endef
	.seh_proc	_Z41__static_initialization_and_destruction_0ii
_Z41__static_initialization_and_destruction_0ii:
.LFB12490:
	.loc 17 221 1
	.cfi_startproc
	pushq	%rbp
	.seh_pushreg	%rbp
	.cfi_def_cfa_offset 16
	.cfi_offset 6, -16
	movq	%rsp, %rbp
	.seh_setframe	%rbp, 0
	.cfi_def_cfa_register 6
	subq	$32, %rsp
	.seh_stackalloc	32
	.seh_endprologue
	movl	%ecx, 16(%rbp)
	movl	%edx, 24(%rbp)
	.loc 17 221 1
	cmpl	$1, 16(%rbp)
	jne	.L305
	.loc 17 221 1 is_stmt 0 discriminator 1
	cmpl	$65535, 24(%rbp)
	jne	.L305
	.loc 20 74 25 is_stmt 1
	leaq	_ZStL8__ioinit(%rip), %rcx
	call	_ZNSt8ios_base4InitC1Ev
	leaq	__tcf_0(%rip), %rcx
	call	atexit
.L305:
	.loc 17 221 1
	nop
	addq	$32, %rsp
	popq	%rbp
	.cfi_restore 6
	.cfi_def_cfa 7, 8
	ret
	.cfi_endproc
.LFE12490:
	.seh_endproc
	.section	.text$_ZN12ElementosVooD1Ev,"x"
	.linkonce discard
	.align 2
	.globl	_ZN12ElementosVooD1Ev
	.def	_ZN12ElementosVooD1Ev;	.scl	2;	.type	32;	.endef
	.seh_proc	_ZN12ElementosVooD1Ev
_ZN12ElementosVooD1Ev:
.LFB12546:
	.loc 18 7 7
	.cfi_startproc
	pushq	%rbp
	.seh_pushreg	%rbp
	.cfi_def_cfa_offset 16
	.cfi_offset 6, -16
	movq	%rsp, %rbp
	.seh_setframe	%rbp, 0
	.cfi_def_cfa_register 6
	subq	$32, %rsp
	.seh_stackalloc	32
	.seh_endprologue
	movq	%rcx, 16(%rbp)
.LBB38:
	.loc 18 7 7
	leaq	16+_ZTV12ElementosVoo(%rip), %rdx
	movq	16(%rbp), %rax
	movq	%rdx, (%rax)
	movq	16(%rbp), %rax
	movq	%rax, %rcx
	call	_ZN10BaseObjectD2Ev
.LBE38:
	nop
	addq	$32, %rsp
	popq	%rbp
	.cfi_restore 6
	.cfi_def_cfa 7, 8
	ret
	.cfi_endproc
.LFE12546:
	.seh_endproc
	.section	.text$_ZN12ElementosVooD0Ev,"x"
	.linkonce discard
	.align 2
	.globl	_ZN12ElementosVooD0Ev
	.def	_ZN12ElementosVooD0Ev;	.scl	2;	.type	32;	.endef
	.seh_proc	_ZN12ElementosVooD0Ev
_ZN12ElementosVooD0Ev:
.LFB12547:
	.loc 18 7 7
	.cfi_startproc
	pushq	%rbp
	.seh_pushreg	%rbp
	.cfi_def_cfa_offset 16
	.cfi_offset 6, -16
	movq	%rsp, %rbp
	.seh_setframe	%rbp, 0
	.cfi_def_cfa_register 6
	subq	$32, %rsp
	.seh_stackalloc	32
	.seh_endprologue
	movq	%rcx, 16(%rbp)
	.loc 18 7 7
	movq	16(%rbp), %rcx
	call	_ZN12ElementosVooD1Ev
	movq	16(%rbp), %rcx
	call	_ZdlPv
	nop
	addq	$32, %rsp
	popq	%rbp
	.cfi_restore 6
	.cfi_def_cfa 7, 8
	ret
	.cfi_endproc
.LFE12547:
	.seh_endproc
	.globl	_ZTS12ElementosVoo
	.section	.rdata$_ZTS12ElementosVoo,"dr"
	.linkonce same_size
	.align 8
_ZTS12ElementosVoo:
	.ascii "12ElementosVoo\0"
	.text
	.def	_GLOBAL__sub_I__ZN15GeradorTabularFC2EP10wxTextCtrl;	.scl	3;	.type	32;	.endef
	.seh_proc	_GLOBAL__sub_I__ZN15GeradorTabularFC2EP10wxTextCtrl
_GLOBAL__sub_I__ZN15GeradorTabularFC2EP10wxTextCtrl:
.LFB12606:
	.loc 17 221 1
	.cfi_startproc
	pushq	%rbp
	.seh_pushreg	%rbp
	.cfi_def_cfa_offset 16
	.cfi_offset 6, -16
	movq	%rsp, %rbp
	.seh_setframe	%rbp, 0
	.cfi_def_cfa_register 6
	subq	$32, %rsp
	.seh_stackalloc	32
	.seh_endprologue
	.loc 17 221 1
	movl	$65535, %edx
	movl	$1, %ecx
	call	_Z41__static_initialization_and_destruction_0ii
	nop
	addq	$32, %rsp
	popq	%rbp
	.cfi_restore 6
	.cfi_def_cfa 7, 8
	ret
	.cfi_endproc
.LFE12606:
	.seh_endproc
	.section	.ctors,"w"
	.align 8
	.quad	_GLOBAL__sub_I__ZN15GeradorTabularFC2EP10wxTextCtrl
	.section .rdata,"dr"
	.align 8
.LC7:
	.long	0
	.long	1076756480
	.align 8
.LC8:
	.long	-874568957
	.long	1077524664
	.align 8
.LC10:
	.long	0
	.long	1083129856
	.align 16
.LC11:
	.long	-1
	.long	2147483647
	.long	0
	.long	0
	.align 8
.LC12:
	.long	0
	.long	1076101120
	.align 8
.LC13:
	.long	0
	.long	1082720256
	.align 16
.LC14:
	.long	0
	.long	-2147483648
	.long	0
	.long	0
	.align 8
.LC15:
	.long	-1717986918
	.long	1072798105
	.align 8
.LC16:
	.long	0
	.long	1074790400
	.align 8
.LC17:
	.long	0
	.long	1084817408
	.align 8
.LC18:
	.long	1413754136
	.long	1074340347
	.align 8
.LC19:
	.long	-731522824
	.long	1071674936
	.align 8
.LC20:
	.long	-858993459
	.long	1072483532
	.align 8
.LC21:
	.long	0
	.long	1072693248
	.align 8
.LC22:
	.long	1236437744
	.long	1072706184
	.text
.Letext0:
	.file 21 "C:/Program Files/CodeBlocks/MinGW/lib/gcc/x86_64-w64-mingw32/8.1.0/include/c++/bits/basic_string.h"
	.file 22 "C:/Program Files/CodeBlocks/MinGW/lib/gcc/x86_64-w64-mingw32/8.1.0/include/c++/bits/basic_string.tcc"
	.file 23 "C:/Program Files/CodeBlocks/MinGW/lib/gcc/x86_64-w64-mingw32/8.1.0/include/c++/bits/stringfwd.h"
	.file 24 "C:/Program Files/CodeBlocks/MinGW/lib/gcc/x86_64-w64-mingw32/8.1.0/include/c++/type_traits"
	.file 25 "C:/Program Files/CodeBlocks/MinGW/lib/gcc/x86_64-w64-mingw32/8.1.0/include/c++/bits/stl_pair.h"
	.file 26 "C:/Program Files/CodeBlocks/MinGW/lib/gcc/x86_64-w64-mingw32/8.1.0/include/c++/bits/cpp_type_traits.h"
	.file 27 "C:/Program Files/CodeBlocks/MinGW/lib/gcc/x86_64-w64-mingw32/8.1.0/include/c++/bits/stl_iterator_base_types.h"
	.file 28 "C:/Program Files/CodeBlocks/MinGW/lib/gcc/x86_64-w64-mingw32/8.1.0/include/c++/debug/debug.h"
	.file 29 "C:/Program Files/CodeBlocks/MinGW/lib/gcc/x86_64-w64-mingw32/8.1.0/include/c++/bits/exception_ptr.h"
	.file 30 "C:/Program Files/CodeBlocks/MinGW/lib/gcc/x86_64-w64-mingw32/8.1.0/include/c++/x86_64-w64-mingw32/bits/c++config.h"
	.file 31 "C:/Program Files/CodeBlocks/MinGW/lib/gcc/x86_64-w64-mingw32/8.1.0/include/c++/new"
	.file 32 "C:/Program Files/CodeBlocks/MinGW/lib/gcc/x86_64-w64-mingw32/8.1.0/include/c++/bits/allocator.h"
	.file 33 "C:/Program Files/CodeBlocks/MinGW/lib/gcc/x86_64-w64-mingw32/8.1.0/include/c++/cwchar"
	.file 34 "C:/Program Files/CodeBlocks/MinGW/lib/gcc/x86_64-w64-mingw32/8.1.0/include/c++/bits/char_traits.h"
	.file 35 "C:/Program Files/CodeBlocks/MinGW/lib/gcc/x86_64-w64-mingw32/8.1.0/include/c++/cstdint"
	.file 36 "C:/Program Files/CodeBlocks/MinGW/lib/gcc/x86_64-w64-mingw32/8.1.0/include/c++/clocale"
	.file 37 "C:/Program Files/CodeBlocks/MinGW/lib/gcc/x86_64-w64-mingw32/8.1.0/include/c++/cstdlib"
	.file 38 "C:/Program Files/CodeBlocks/MinGW/lib/gcc/x86_64-w64-mingw32/8.1.0/include/c++/cstdio"
	.file 39 "C:/Program Files/CodeBlocks/MinGW/lib/gcc/x86_64-w64-mingw32/8.1.0/include/c++/bits/alloc_traits.h"
	.file 40 "C:/Program Files/CodeBlocks/MinGW/lib/gcc/x86_64-w64-mingw32/8.1.0/include/c++/initializer_list"
	.file 41 "C:/Program Files/CodeBlocks/MinGW/lib/gcc/x86_64-w64-mingw32/8.1.0/include/c++/bits/stl_list.h"
	.file 42 "C:/Program Files/CodeBlocks/MinGW/lib/gcc/x86_64-w64-mingw32/8.1.0/include/c++/bits/std_abs.h"
	.file 43 "C:/Program Files/CodeBlocks/MinGW/lib/gcc/x86_64-w64-mingw32/8.1.0/include/c++/system_error"
	.file 44 "C:/Program Files/CodeBlocks/MinGW/lib/gcc/x86_64-w64-mingw32/8.1.0/include/c++/bits/ios_base.h"
	.file 45 "C:/Program Files/CodeBlocks/MinGW/lib/gcc/x86_64-w64-mingw32/8.1.0/include/c++/cwctype"
	.file 46 "C:/Program Files/CodeBlocks/MinGW/lib/gcc/x86_64-w64-mingw32/8.1.0/include/c++/iosfwd"
	.file 47 "C:/Program Files/CodeBlocks/MinGW/lib/gcc/x86_64-w64-mingw32/8.1.0/include/c++/bits/stl_vector.h"
	.file 48 "C:/Program Files/CodeBlocks/MinGW/lib/gcc/x86_64-w64-mingw32/8.1.0/include/c++/bits/vector.tcc"
	.file 49 "C:/Program Files/CodeBlocks/MinGW/lib/gcc/x86_64-w64-mingw32/8.1.0/include/c++/bits/uses_allocator.h"
	.file 50 "C:/Program Files/CodeBlocks/MinGW/lib/gcc/x86_64-w64-mingw32/8.1.0/include/c++/tuple"
	.file 51 "C:/Program Files/CodeBlocks/MinGW/lib/gcc/x86_64-w64-mingw32/8.1.0/include/c++/bits/stl_iterator_base_funcs.h"
	.file 52 "C:/Program Files/CodeBlocks/MinGW/lib/gcc/x86_64-w64-mingw32/8.1.0/include/c++/bits/predefined_ops.h"
	.file 53 "C:/Program Files/CodeBlocks/MinGW/lib/gcc/x86_64-w64-mingw32/8.1.0/include/c++/ext/new_allocator.h"
	.file 54 "C:/Program Files/CodeBlocks/MinGW/lib/gcc/x86_64-w64-mingw32/8.1.0/include/c++/ext/numeric_traits.h"
	.file 55 "C:/Program Files/CodeBlocks/MinGW/lib/gcc/x86_64-w64-mingw32/8.1.0/include/c++/ext/alloc_traits.h"
	.file 56 "C:/Program Files/CodeBlocks/MinGW/lib/gcc/x86_64-w64-mingw32/8.1.0/include/c++/bits/stl_iterator.h"
	.file 57 "C:/Program Files/CodeBlocks/MinGW/lib/gcc/x86_64-w64-mingw32/8.1.0/include/c++/ext/type_traits.h"
	.file 58 "C:/Program Files/CodeBlocks/MinGW/x86_64-w64-mingw32/include/vadefs.h"
	.file 59 "C:/Program Files/CodeBlocks/MinGW/x86_64-w64-mingw32/include/crtdefs.h"
	.file 60 "C:/Program Files/CodeBlocks/MinGW/x86_64-w64-mingw32/include/locale.h"
	.file 61 "C:/Program Files/CodeBlocks/MinGW/x86_64-w64-mingw32/include/wchar.h"
	.file 62 "C:/Program Files/CodeBlocks/MinGW/x86_64-w64-mingw32/include/swprintf.inl"
	.file 63 "C:/Program Files/CodeBlocks/MinGW/x86_64-w64-mingw32/include/stdint.h"
	.file 64 "C:/Program Files/CodeBlocks/MinGW/x86_64-w64-mingw32/include/stdio.h"
	.file 65 "C:/Program Files/CodeBlocks/MinGW/x86_64-w64-mingw32/include/ctype.h"
	.file 66 "C:/Program Files/CodeBlocks/MinGW/x86_64-w64-mingw32/include/process.h"
	.file 67 "C:/Program Files/CodeBlocks/MinGW/x86_64-w64-mingw32/include/pthread.h"
	.file 68 "C:/Program Files/CodeBlocks/MinGW/lib/gcc/x86_64-w64-mingw32/8.1.0/include/c++/x86_64-w64-mingw32/bits/atomic_word.h"
	.file 69 "C:/Program Files/CodeBlocks/MinGW/x86_64-w64-mingw32/include/stdlib.h"
	.file 70 "C:/Program Files/CodeBlocks/MinGW/x86_64-w64-mingw32/include/malloc.h"
	.file 71 "../../CalculadorNumerico/calculador/../padroes/observable.h"
	.file 72 "../../CalculadorNumerico/calculador/calculador.h"
	.file 73 "C:/Program Files/CodeBlocks/MinGW/lib/gcc/x86_64-w64-mingw32/8.1.0/include/c++/stdlib.h"
	.file 74 "../wxMSW-3.0.5_gcc810_x64_Dev/include/wx/chartype.h"
	.file 75 "../wxMSW-3.0.5_gcc810_x64_Dev/include/wx/debug.h"
	.file 76 "../wxMSW-3.0.5_gcc810_x64_Dev/include/wx/defs.h"
	.file 77 "C:/Program Files/CodeBlocks/MinGW/x86_64-w64-mingw32/include/wctype.h"
	.file 78 "C:/Program Files/CodeBlocks/MinGW/x86_64-w64-mingw32/include/time.h"
	.file 79 "../wxMSW-3.0.5_gcc810_x64_Dev/include/wx/fontenc.h"
	.file 80 "../wxMSW-3.0.5_gcc810_x64_Dev/include/wx/stringimpl.h"
	.file 81 "../wxMSW-3.0.5_gcc810_x64_Dev/include/wx/unichar.h"
	.file 82 "../wxMSW-3.0.5_gcc810_x64_Dev/include/wx/strvararg.h"
	.file 83 "../wxMSW-3.0.5_gcc810_x64_Dev/include/wx/rtti.h"
	.file 84 "../wxMSW-3.0.5_gcc810_x64_Dev/include/wx/object.h"
	.file 85 "../wxMSW-3.0.5_gcc810_x64_Dev/include/wx/hashmap.h"
	.file 86 "../wxMSW-3.0.5_gcc810_x64_Dev/include/wx/list.h"
	.file 87 "C:/Program Files/CodeBlocks/MinGW/x86_64-w64-mingw32/include/math.h"
	.file 88 "C:/Program Files/CodeBlocks/MinGW/lib/gcc/x86_64-w64-mingw32/8.1.0/include/c++/math.h"
	.file 89 "../wxMSW-3.0.5_gcc810_x64_Dev/include/wx/gdicmn.h"
	.file 90 "../wxMSW-3.0.5_gcc810_x64_Dev/include/wx/msw/gdiimage.h"
	.file 91 "../wxMSW-3.0.5_gcc810_x64_Dev/include/wx/filefn.h"
	.file 92 "../wxMSW-3.0.5_gcc810_x64_Dev/include/wx/longlong.h"
	.file 93 "../wxMSW-3.0.5_gcc810_x64_Dev/include/wx/window.h"
	.file 94 "../wxMSW-3.0.5_gcc810_x64_Dev/include/wx/utils.h"
	.file 95 "../wxMSW-3.0.5_gcc810_x64_Dev/include/wx/any.h"
	.file 96 "../wxMSW-3.0.5_gcc810_x64_Dev/include/wx/anystr.h"
	.file 97 "../wxMSW-3.0.5_gcc810_x64_Dev/include/wx/datetime.h"
	.file 98 "../wxMSW-3.0.5_gcc810_x64_Dev/include/wx/variant.h"
	.file 99 "../wxMSW-3.0.5_gcc810_x64_Dev/include/wx/font.h"
	.file 100 "../wxMSW-3.0.5_gcc810_x64_Dev/include/wx/colour.h"
	.file 101 "../wxMSW-3.0.5_gcc810_x64_Dev/include/wx/validate.h"
	.file 102 "../wxMSW-3.0.5_gcc810_x64_Dev/include/wx/accel.h"
	.file 103 "../wxMSW-3.0.5_gcc810_x64_Dev/include/wx/control.h"
	.file 104 "../wxMSW-3.0.5_gcc810_x64_Dev/include/wx/msw/textentry.h"
	.file 105 "../wxMSW-3.0.5_gcc810_x64_Dev/include/wx/textctrl.h"
	.file 106 "../../CalculadorNumerico/projetil/../sql/sqlite3.h"
	.file 107 "../../CalculadorNumerico/projetil/ProjetilDAO.h"
	.file 108 "../../CalculadorNumerico/coeficientes/coeficienteAerodinamico.h"
	.file 109 "../../CalculadorNumerico/coeficientes/coeficientesdao.h"
	.file 110 "../../CalculadorNumerico/fatoresdeajuste/calculadorFator.h"
	.file 111 "C:/temp/ballisticKernelCpp/interfaceGrafica/calculadorBalisiticaGraficoWindows/globais.h"
	.file 112 "../../CalculadorNumerico/coeficientes/CoeficienteDrag.h"
	.file 113 "C:/temp/ballisticKernelCpp/interfaceGrafica/calculadorBalisiticaGraficoWindows/tabelaDialog/geradorTabularF.h"
	.file 114 "C:/temp/ballisticKernelCpp/interfaceGrafica/calculadorBalisiticaGraficoWindows/tabelaDialog/GeradorTabular.h"
	.file 115 "../../CalculadorNumerico/excecoes/ExceptionYawRepose.h"
	.file 116 "../../CalculadorNumerico/excecoes/ExceptionTrajectory.h"
	.file 117 "../../CalculadorNumerico/excecoes/ExceptionOutOfBound.h"
	.file 118 "../../CalculadorNumerico/excecoes/ExceptionConvergence.h"
	.file 119 "<built-in>"