	.file	"informacaoDialog.cpp"
	.text
.Ltext0:
	.cfi_sections	.debug_frame
	.section	.text$_ZN9wxPrivate17UntypedBufferDataD2Ev,"x"
	.linkonce discard
	.align 2
	.globl	_ZN9wxPrivate17UntypedBufferDataD2Ev
	.def	_ZN9wxPrivate17UntypedBufferDataD2Ev;	.scl	2;	.type	32;	.endef
	.seh_proc	_ZN9wxPrivate17UntypedBufferDataD2Ev
_ZN9wxPrivate17UntypedBufferDataD2Ev:
.LFB122:
	.file 1 "../wxMSW-3.0.5_gcc810_x64_Dev/include/wx/buffer.h"
	.loc 1 41 5
	.cfi_startproc
	pushq	%rbp
	.seh_pushreg	%rbp
	.cfi_def_cfa_offset 16
	.cfi_offset 6, -16
	movq	%rsp, %rbp
	.seh_setframe	%rbp, 0
	.cfi_def_cfa_register 6
	subq	$32, %rsp
	.seh_stackalloc	32
	.seh_endprologue
	movq	%rcx, 16(%rbp)
.LBB2:
	.loc 1 43 14
	movq	16(%rbp), %rax
	movzbl	18(%rax), %eax
	.loc 1 43 9
	testb	%al, %al
	je	.L3
	.loc 1 44 17
	movq	16(%rbp), %rax
	movq	(%rax), %rax
	movq	%rax, %rcx
	call	free
.L3:
.LBE2:
	.loc 1 45 5
	nop
	addq	$32, %rsp
	popq	%rbp
	.cfi_restore 6
	.cfi_def_cfa 7, 8
	ret
	.cfi_endproc
.LFE122:
	.seh_endproc
	.section	.text$_ZN8wxMBConvC2Ev,"x"
	.linkonce discard
	.align 2
	.globl	_ZN8wxMBConvC2Ev
	.def	_ZN8wxMBConvC2Ev;	.scl	2;	.type	32;	.endef
	.seh_proc	_ZN8wxMBConvC2Ev
_ZN8wxMBConvC2Ev:
.LFB243:
	.file 2 "../wxMSW-3.0.5_gcc810_x64_Dev/include/wx/strconv.h"
	.loc 2 47 7
	.cfi_startproc
	pushq	%rbp
	.seh_pushreg	%rbp
	.cfi_def_cfa_offset 16
	.cfi_offset 6, -16
	movq	%rsp, %rbp
	.seh_setframe	%rbp, 0
	.cfi_def_cfa_register 6
	.seh_endprologue
	movq	%rcx, 16(%rbp)
.LBB3:
	.loc 2 47 7
	movq	.refptr._ZTV8wxMBConv(%rip), %rax
	leaq	16(%rax), %rdx
	movq	16(%rbp), %rax
	movq	%rdx, (%rax)
.LBE3:
	nop
	popq	%rbp
	.cfi_restore 6
	.cfi_def_cfa 7, 8
	ret
	.cfi_endproc
.LFE243:
	.seh_endproc
	.section	.text$_ZN18wxMBConvStrictUTF8C2Ev,"x"
	.linkonce discard
	.align 2
	.globl	_ZN18wxMBConvStrictUTF8C2Ev
	.def	_ZN18wxMBConvStrictUTF8C2Ev;	.scl	2;	.type	32;	.endef
	.seh_proc	_ZN18wxMBConvStrictUTF8C2Ev
_ZN18wxMBConvStrictUTF8C2Ev:
.LFB267:
	.loc 2 341 7
	.cfi_startproc
	pushq	%rbp
	.seh_pushreg	%rbp
	.cfi_def_cfa_offset 16
	.cfi_offset 6, -16
	movq	%rsp, %rbp
	.seh_setframe	%rbp, 0
	.cfi_def_cfa_register 6
	subq	$32, %rsp
	.seh_stackalloc	32
	.seh_endprologue
	movq	%rcx, 16(%rbp)
.LBB4:
	.loc 2 341 7
	movq	16(%rbp), %rax
	movq	%rax, %rcx
	call	_ZN8wxMBConvC2Ev
	movq	.refptr._ZTV18wxMBConvStrictUTF8(%rip), %rax
	leaq	16(%rax), %rdx
	movq	16(%rbp), %rax
	movq	%rdx, (%rax)
.LBE4:
	nop
	addq	$32, %rsp
	popq	%rbp
	.cfi_restore 6
	.cfi_def_cfa 7, 8
	ret
	.cfi_endproc
.LFE267:
	.seh_endproc
	.section	.text$_ZN18wxMBConvStrictUTF8D2Ev,"x"
	.linkonce discard
	.align 2
	.globl	_ZN18wxMBConvStrictUTF8D2Ev
	.def	_ZN18wxMBConvStrictUTF8D2Ev;	.scl	2;	.type	32;	.endef
	.seh_proc	_ZN18wxMBConvStrictUTF8D2Ev
_ZN18wxMBConvStrictUTF8D2Ev:
.LFB271:
	.loc 2 341 7
	.cfi_startproc
	pushq	%rbp
	.seh_pushreg	%rbp
	.cfi_def_cfa_offset 16
	.cfi_offset 6, -16
	movq	%rsp, %rbp
	.seh_setframe	%rbp, 0
	.cfi_def_cfa_register 6
	subq	$32, %rsp
	.seh_stackalloc	32
	.seh_endprologue
	movq	%rcx, 16(%rbp)
.LBB5:
	.loc 2 341 7
	movq	.refptr._ZTV18wxMBConvStrictUTF8(%rip), %rax
	leaq	16(%rax), %rdx
	movq	16(%rbp), %rax
	movq	%rdx, (%rax)
	movq	16(%rbp), %rax
	movq	%rax, %rcx
	call	_ZN8wxMBConvD2Ev
.LBE5:
	nop
	addq	$32, %rsp
	popq	%rbp
	.cfi_restore 6
	.cfi_def_cfa 7, 8
	ret
	.cfi_endproc
.LFE271:
	.seh_endproc
	.section	.text$_ZN12wxMBConvUTF8C1Ei,"x"
	.linkonce discard
	.align 2
	.globl	_ZN12wxMBConvUTF8C1Ei
	.def	_ZN12wxMBConvUTF8C1Ei;	.scl	2;	.type	32;	.endef
	.seh_proc	_ZN12wxMBConvUTF8C1Ei
_ZN12wxMBConvUTF8C1Ei:
.LFB275:
	.loc 2 370 5
	.cfi_startproc
	pushq	%rbp
	.seh_pushreg	%rbp
	.cfi_def_cfa_offset 16
	.cfi_offset 6, -16
	movq	%rsp, %rbp
	.seh_setframe	%rbp, 0
	.cfi_def_cfa_register 6
	subq	$32, %rsp
	.seh_stackalloc	32
	.seh_endprologue
	movq	%rcx, 16(%rbp)
	movl	%edx, 24(%rbp)
.LBB6:
	.loc 2 370 73
	movq	16(%rbp), %rax
	movq	%rax, %rcx
	call	_ZN18wxMBConvStrictUTF8C2Ev
	movq	.refptr._ZTV12wxMBConvUTF8(%rip), %rax
	leaq	16(%rax), %rdx
	movq	16(%rbp), %rax
	movq	%rdx, (%rax)
	movq	16(%rbp), %rax
	movl	24(%rbp), %edx
	movl	%edx, 8(%rax)
.LBE6:
	.loc 2 370 77
	nop
	addq	$32, %rsp
	popq	%rbp
	.cfi_restore 6
	.cfi_def_cfa 7, 8
	ret
	.cfi_endproc
.LFE275:
	.seh_endproc
	.section	.text$_Z16wxGet_wxConvLibcv,"x"
	.linkonce discard
	.globl	_Z16wxGet_wxConvLibcv
	.def	_Z16wxGet_wxConvLibcv;	.scl	2;	.type	32;	.endef
	.seh_proc	_Z16wxGet_wxConvLibcv
_Z16wxGet_wxConvLibcv:
.LFB310:
	.loc 2 576 109
	.cfi_startproc
	pushq	%rbp
	.seh_pushreg	%rbp
	.cfi_def_cfa_offset 16
	.cfi_offset 6, -16
	movq	%rsp, %rbp
	.seh_setframe	%rbp, 0
	.cfi_def_cfa_register 6
	subq	$32, %rsp
	.seh_stackalloc	32
	.seh_endprologue
	.loc 2 576 116
	movq	.refptr.wxConvLibcPtr(%rip), %rax
	movq	(%rax), %rax
	.loc 2 576 111
	testq	%rax, %rax
	jne	.L9
	.loc 2 576 168 discriminator 1
	call	_Z19wxGet_wxConvLibcPtrv
	movq	%rax, %rdx
	.loc 2 576 147 discriminator 1
	movq	.refptr.wxConvLibcPtr(%rip), %rax
	movq	%rdx, (%rax)
.L9:
	.loc 2 576 180 discriminator 3
	movq	.refptr.wxConvLibcPtr(%rip), %rax
	movq	(%rax), %rax
	.loc 2 576 195 discriminator 3
	addq	$32, %rsp
	popq	%rbp
	.cfi_restore 6
	.cfi_def_cfa 7, 8
	ret
	.cfi_endproc
.LFE310:
	.seh_endproc
	.section .rdata,"dr"
_ZStL19piecewise_construct:
	.space 1
	.section	.text$_ZNKSt9type_info4nameEv,"x"
	.linkonce discard
	.align 2
	.globl	_ZNKSt9type_info4nameEv
	.def	_ZNKSt9type_info4nameEv;	.scl	2;	.type	32;	.endef
	.seh_proc	_ZNKSt9type_info4nameEv
_ZNKSt9type_info4nameEv:
.LFB711:
	.file 3 "C:/Program Files/CodeBlocks/MinGW/lib/gcc/x86_64-w64-mingw32/8.1.0/include/c++/typeinfo"
	.loc 3 99 17
	.cfi_startproc
	pushq	%rbp
	.seh_pushreg	%rbp
	.cfi_def_cfa_offset 16
	.cfi_offset 6, -16
	movq	%rsp, %rbp
	.seh_setframe	%rbp, 0
	.cfi_def_cfa_register 6
	.seh_endprologue
	movq	%rcx, 16(%rbp)
	.loc 3 100 14
	movq	16(%rbp), %rax
	movq	8(%rax), %rax
	.loc 3 100 22
	movzbl	(%rax), %eax
	.loc 3 100 31
	cmpb	$42, %al
	jne	.L12
	.loc 3 100 33 discriminator 1
	movq	16(%rbp), %rax
	movq	8(%rax), %rax
	.loc 3 100 31 discriminator 1
	addq	$1, %rax
	.loc 3 100 46 discriminator 1
	jmp	.L14
.L12:
	.loc 3 100 31 discriminator 2
	movq	16(%rbp), %rax
	movq	8(%rax), %rax
.L14:
	.loc 3 100 54 discriminator 5
	popq	%rbp
	.cfi_restore 6
	.cfi_def_cfa 7, 8
	ret
	.cfi_endproc
.LFE711:
	.seh_endproc
	.section .rdata,"dr"
	.align 2
.LC0:
	.ascii "\0\0"
	.section	.text$_ZN8wxString7ImplStrEPKw,"x"
	.linkonce discard
	.globl	_ZN8wxString7ImplStrEPKw
	.def	_ZN8wxString7ImplStrEPKw;	.scl	2;	.type	32;	.endef
	.seh_proc	_ZN8wxString7ImplStrEPKw
_ZN8wxString7ImplStrEPKw:
.LFB1709:
	.file 4 "../wxMSW-3.0.5_gcc810_x64_Dev/include/wx/string.h"
	.loc 4 471 25
	.cfi_startproc
	pushq	%rbp
	.seh_pushreg	%rbp
	.cfi_def_cfa_offset 16
	.cfi_offset 6, -16
	movq	%rsp, %rbp
	.seh_setframe	%rbp, 0
	.cfi_def_cfa_register 6
	.seh_endprologue
	movq	%rcx, 16(%rbp)
	.loc 4 472 18
	cmpq	$0, 16(%rbp)
	je	.L16
	.loc 4 472 18 is_stmt 0 discriminator 1
	movq	16(%rbp), %rax
	.loc 4 472 26 is_stmt 1 discriminator 1
	jmp	.L18
.L16:
	.loc 4 472 18 discriminator 2
	leaq	.LC0(%rip), %rax
.L18:
	.loc 4 472 31 discriminator 5
	popq	%rbp
	.cfi_restore 6
	.cfi_def_cfa 7, 8
	ret
	.cfi_endproc
.LFE1709:
	.seh_endproc
	.section	.text$_ZN8wxString17SubstrBufFromTypeI22wxScopedCharTypeBufferIwEED1Ev,"x"
	.linkonce discard
	.align 2
	.globl	_ZN8wxString17SubstrBufFromTypeI22wxScopedCharTypeBufferIwEED1Ev
	.def	_ZN8wxString17SubstrBufFromTypeI22wxScopedCharTypeBufferIwEED1Ev;	.scl	2;	.type	32;	.endef
	.seh_proc	_ZN8wxString17SubstrBufFromTypeI22wxScopedCharTypeBufferIwEED1Ev
_ZN8wxString17SubstrBufFromTypeI22wxScopedCharTypeBufferIwEED1Ev:
.LFB1714:
	.loc 4 425 10
	.cfi_startproc
	pushq	%rbp
	.seh_pushreg	%rbp
	.cfi_def_cfa_offset 16
	.cfi_offset 6, -16
	movq	%rsp, %rbp
	.seh_setframe	%rbp, 0
	.cfi_def_cfa_register 6
	subq	$32, %rsp
	.seh_stackalloc	32
	.seh_endprologue
	movq	%rcx, 16(%rbp)
.LBB7:
	.loc 4 425 10
	movq	16(%rbp), %rax
	movq	%rax, %rcx
	call	_ZN22wxScopedCharTypeBufferIwED1Ev
.LBE7:
	nop
	addq	$32, %rsp
	popq	%rbp
	.cfi_restore 6
	.cfi_def_cfa 7, 8
	ret
	.cfi_endproc
.LFE1714:
	.seh_endproc
	.section	.text$_ZN8wxString7ImplStrEPKcRK8wxMBConv,"x"
	.linkonce discard
	.globl	_ZN8wxString7ImplStrEPKcRK8wxMBConv
	.def	_ZN8wxString7ImplStrEPKcRK8wxMBConv;	.scl	2;	.type	32;	.endef
	.seh_proc	_ZN8wxString7ImplStrEPKcRK8wxMBConv
_ZN8wxString7ImplStrEPKcRK8wxMBConv:
.LFB1711:
	.loc 4 475 30
	.cfi_startproc
	pushq	%rbp
	.seh_pushreg	%rbp
	.cfi_def_cfa_offset 16
	.cfi_offset 6, -16
	pushq	%rbx
	.seh_pushreg	%rbx
	.cfi_def_cfa_offset 24
	.cfi_offset 3, -24
	subq	$56, %rsp
	.seh_stackalloc	56
	.cfi_def_cfa_offset 80
	leaq	128(%rsp), %rbp
	.seh_setframe	%rbp, 128
	.cfi_def_cfa 6, -48
	.seh_endprologue
	movq	%rcx, -48(%rbp)
	movq	%rdx, -40(%rbp)
	movq	%r8, -32(%rbp)
	.loc 4 477 24
	movq	.refptr._ZN8wxString4nposE(%rip), %rax
	movq	(%rax), %rcx
	leaq	-96(%rbp), %rax
	movq	-32(%rbp), %r8
	movq	-40(%rbp), %rdx
	movq	%r8, %r9
	movq	%rcx, %r8
	movq	%rax, %rcx
.LEHB0:
	call	_ZN8wxString10ConvertStrEPKcyRK8wxMBConv
.LEHE0:
	.loc 4 477 42
	leaq	-96(%rbp), %rax
	movq	%rax, %rdx
	movq	-48(%rbp), %rcx
.LEHB1:
	call	_ZN22wxScopedCharTypeBufferIwEC1ERKS0_
.LEHE1:
	nop
	.loc 4 477 24
	leaq	-96(%rbp), %rax
	movq	%rax, %rcx
	call	_ZN8wxString17SubstrBufFromTypeI22wxScopedCharTypeBufferIwEED1Ev
	.loc 4 477 42
	jmp	.L24
.L23:
	movq	%rax, %rbx
	.loc 4 477 24
	leaq	-96(%rbp), %rax
	movq	%rax, %rcx
	call	_ZN8wxString17SubstrBufFromTypeI22wxScopedCharTypeBufferIwEED1Ev
	movq	%rbx, %rax
	movq	%rax, %rcx
.LEHB2:
	call	_Unwind_Resume
.LEHE2:
.L24:
	.loc 4 477 48
	movq	-48(%rbp), %rax
	addq	$56, %rsp
	popq	%rbx
	.cfi_restore 3
	popq	%rbp
	.cfi_restore 6
	.cfi_def_cfa 7, -40
	ret
	.cfi_endproc
.LFE1711:
	.def	__gxx_personality_seh0;	.scl	2;	.type	32;	.endef
	.seh_handler	__gxx_personality_seh0, @unwind, @except
	.seh_handlerdata
.LLSDA1711:
	.byte	0xff
	.byte	0xff
	.byte	0x1
	.uleb128 .LLSDACSE1711-.LLSDACSB1711
.LLSDACSB1711:
	.uleb128 .LEHB0-.LFB1711
	.uleb128 .LEHE0-.LEHB0
	.uleb128 0
	.uleb128 0
	.uleb128 .LEHB1-.LFB1711
	.uleb128 .LEHE1-.LEHB1
	.uleb128 .L23-.LFB1711
	.uleb128 0
	.uleb128 .LEHB2-.LFB1711
	.uleb128 .LEHE2-.LEHB2
	.uleb128 0
	.uleb128 0
.LLSDACSE1711:
	.section	.text$_ZN8wxString7ImplStrEPKcRK8wxMBConv,"x"
	.linkonce discard
	.seh_endproc
	.section	.text$_ZN8wxString7ImplStrEPKcyRK8wxMBConv,"x"
	.linkonce discard
	.globl	_ZN8wxString7ImplStrEPKcyRK8wxMBConv
	.def	_ZN8wxString7ImplStrEPKcyRK8wxMBConv;	.scl	2;	.type	32;	.endef
	.seh_proc	_ZN8wxString7ImplStrEPKcyRK8wxMBConv
_ZN8wxString7ImplStrEPKcyRK8wxMBConv:
.LFB1715:
	.loc 4 478 26
	.cfi_startproc
	pushq	%rbp
	.seh_pushreg	%rbp
	.cfi_def_cfa_offset 16
	.cfi_offset 6, -16
	movq	%rsp, %rbp
	.seh_setframe	%rbp, 0
	.cfi_def_cfa_register 6
	subq	$32, %rsp
	.seh_stackalloc	32
	.seh_endprologue
	movq	%rcx, 16(%rbp)
	movq	%rdx, 24(%rbp)
	movq	%r8, 32(%rbp)
	movq	%r9, 40(%rbp)
	.loc 4 480 37
	movq	16(%rbp), %rax
	movq	40(%rbp), %r8
	movq	32(%rbp), %rcx
	movq	24(%rbp), %rdx
	movq	%r8, %r9
	movq	%rcx, %r8
	movq	%rax, %rcx
	call	_ZN8wxString10ConvertStrEPKcyRK8wxMBConv
	.loc 4 480 40
	movq	16(%rbp), %rax
	addq	$32, %rsp
	popq	%rbp
	.cfi_restore 6
	.cfi_def_cfa 7, 8
	ret
	.cfi_endproc
.LFE1715:
	.seh_endproc
	.section	.text$_ZN8wxStringD1Ev,"x"
	.linkonce discard
	.align 2
	.globl	_ZN8wxStringD1Ev
	.def	_ZN8wxStringD1Ev;	.scl	2;	.type	32;	.endef
	.seh_proc	_ZN8wxStringD1Ev
_ZN8wxStringD1Ev:
.LFB1791:
	.loc 4 393 7
	.cfi_startproc
	pushq	%rbp
	.seh_pushreg	%rbp
	.cfi_def_cfa_offset 16
	.cfi_offset 6, -16
	movq	%rsp, %rbp
	.seh_setframe	%rbp, 0
	.cfi_def_cfa_register 6
	subq	$32, %rsp
	.seh_stackalloc	32
	.seh_endprologue
	movq	%rcx, 16(%rbp)
.LBB8:
	.loc 4 393 7
	movq	16(%rbp), %rax
	addq	$32, %rax
	movq	%rax, %rcx
	call	_ZN8wxString15ConvertedBufferIcED1Ev
	movq	16(%rbp), %rax
	movq	%rax, %rcx
	call	_ZNSt7__cxx1112basic_stringIwSt11char_traitsIwESaIwEED1Ev
.LBE8:
	nop
	addq	$32, %rsp
	popq	%rbp
	.cfi_restore 6
	.cfi_def_cfa 7, 8
	ret
	.cfi_endproc
.LFE1791:
	.seh_endproc
	.section	.text$_ZN8wxStringC1Ev,"x"
	.linkonce discard
	.align 2
	.globl	_ZN8wxStringC1Ev
	.def	_ZN8wxStringC1Ev;	.scl	2;	.type	32;	.endef
	.seh_proc	_ZN8wxStringC1Ev
_ZN8wxStringC1Ev:
.LFB1817:
	.loc 4 1217 3
	.cfi_startproc
	pushq	%rbp
	.seh_pushreg	%rbp
	.cfi_def_cfa_offset 16
	.cfi_offset 6, -16
	movq	%rsp, %rbp
	.seh_setframe	%rbp, 0
	.cfi_def_cfa_register 6
	subq	$32, %rsp
	.seh_stackalloc	32
	.seh_endprologue
	movq	%rcx, 16(%rbp)
.LBB9:
	.loc 4 1217 14
	movq	16(%rbp), %rax
	movq	%rax, %rcx
	call	_ZNSt7__cxx1112basic_stringIwSt11char_traitsIwESaIwEEC1Ev
	movq	16(%rbp), %rax
	addq	$32, %rax
	movq	%rax, %rcx
	call	_ZN8wxString15ConvertedBufferIcEC1Ev
.LBE9:
	.loc 4 1217 15
	nop
	addq	$32, %rsp
	popq	%rbp
	.cfi_restore 6
	.cfi_def_cfa 7, 8
	ret
	.cfi_endproc
.LFE1817:
	.seh_endproc
	.section	.text$_ZN8wxStringC1ERKS_,"x"
	.linkonce discard
	.align 2
	.globl	_ZN8wxStringC1ERKS_
	.def	_ZN8wxStringC1ERKS_;	.scl	2;	.type	32;	.endef
	.seh_proc	_ZN8wxStringC1ERKS_
_ZN8wxStringC1ERKS_:
.LFB1820:
	.loc 4 1220 3
	.cfi_startproc
	pushq	%rbp
	.seh_pushreg	%rbp
	.cfi_def_cfa_offset 16
	.cfi_offset 6, -16
	movq	%rsp, %rbp
	.seh_setframe	%rbp, 0
	.cfi_def_cfa_register 6
	subq	$32, %rsp
	.seh_stackalloc	32
	.seh_endprologue
	movq	%rcx, 16(%rbp)
	movq	%rdx, 24(%rbp)
.LBB10:
	.loc 4 1220 64
	movq	16(%rbp), %rax
	.loc 4 1220 58
	movq	24(%rbp), %rdx
	.loc 4 1220 64
	movq	%rax, %rcx
	call	_ZNSt7__cxx1112basic_stringIwSt11char_traitsIwESaIwEEC1ERKS4_
	movq	16(%rbp), %rax
	addq	$32, %rax
	movq	%rax, %rcx
	call	_ZN8wxString15ConvertedBufferIcEC1Ev
.LBE10:
	.loc 4 1220 68
	nop
	addq	$32, %rsp
	popq	%rbp
	.cfi_restore 6
	.cfi_def_cfa 7, 8
	ret
	.cfi_endproc
.LFE1820:
	.seh_endproc
	.section	.text$_ZN8wxStringC1EPKc,"x"
	.linkonce discard
	.align 2
	.globl	_ZN8wxStringC1EPKc
	.def	_ZN8wxStringC1EPKc;	.scl	2;	.type	32;	.endef
	.seh_proc	_ZN8wxStringC1EPKc
_ZN8wxStringC1EPKc:
.LFB1847:
	.loc 4 1241 3
	.cfi_startproc
	pushq	%rbp
	.seh_pushreg	%rbp
	.cfi_def_cfa_offset 16
	.cfi_offset 6, -16
	pushq	%rbx
	.seh_pushreg	%rbx
	.cfi_def_cfa_offset 24
	.cfi_offset 3, -24
	subq	$56, %rsp
	.seh_stackalloc	56
	.cfi_def_cfa_offset 80
	leaq	128(%rsp), %rbp
	.seh_setframe	%rbp, 128
	.cfi_def_cfa 6, -48
	.seh_endprologue
	movq	%rcx, -48(%rbp)
	movq	%rdx, -40(%rbp)
.LBB11:
	.loc 4 1242 26
	movq	-48(%rbp), %rbx
	leaq	-89(%rbp), %rax
	movq	%rax, %rcx
	call	_ZNSaIwEC1Ev
.LEHB3:
	.loc 4 1242 25
	call	_Z16wxGet_wxConvLibcv
	movq	%rax, %rcx
	.loc 4 1242 21
	leaq	-88(%rbp), %rax
	movq	-40(%rbp), %rdx
	movq	%rcx, %r8
	movq	%rax, %rcx
	call	_ZN8wxString7ImplStrEPKcRK8wxMBConv
.LEHE3:
	.loc 4 1242 26 discriminator 4
	leaq	-88(%rbp), %rax
	movq	%rax, %rcx
.LEHB4:
	call	_ZNK22wxScopedCharTypeBufferIwEcvPKwEv
	movq	%rax, %rdx
	leaq	-89(%rbp), %rax
	movq	%rax, %r8
	movq	%rbx, %rcx
	call	_ZNSt7__cxx1112basic_stringIwSt11char_traitsIwESaIwEEC1EPKwRKS3_
.LEHE4:
	.loc 4 1242 21 discriminator 8
	leaq	-88(%rbp), %rax
	movq	%rax, %rcx
	call	_ZN22wxScopedCharTypeBufferIwED1Ev
	.loc 4 1242 26 discriminator 8
	leaq	-89(%rbp), %rax
	movq	%rax, %rcx
	call	_ZNSaIwED1Ev
	movq	-48(%rbp), %rax
	addq	$32, %rax
	movq	%rax, %rcx
	call	_ZN8wxString15ConvertedBufferIcEC1Ev
.LBE11:
	.loc 4 1242 29 discriminator 8
	jmp	.L35
.L34:
	movq	%rax, %rbx
.LBB12:
	.loc 4 1242 21
	leaq	-88(%rbp), %rax
	movq	%rax, %rcx
	call	_ZN22wxScopedCharTypeBufferIwED1Ev
	jmp	.L32
.L33:
	movq	%rax, %rbx
.L32:
	.loc 4 1242 26 discriminator 3
	leaq	-89(%rbp), %rax
	movq	%rax, %rcx
	call	_ZNSaIwED1Ev
	movq	%rbx, %rax
	movq	%rax, %rcx
.LEHB5:
	call	_Unwind_Resume
	nop
.LEHE5:
.L35:
.LBE12:
	.loc 4 1242 29
	addq	$56, %rsp
	popq	%rbx
	.cfi_restore 3
	popq	%rbp
	.cfi_restore 6
	.cfi_def_cfa 7, -40
	ret
	.cfi_endproc
.LFE1847:
	.seh_handler	__gxx_personality_seh0, @unwind, @except
	.seh_handlerdata
.LLSDA1847:
	.byte	0xff
	.byte	0xff
	.byte	0x1
	.uleb128 .LLSDACSE1847-.LLSDACSB1847
.LLSDACSB1847:
	.uleb128 .LEHB3-.LFB1847
	.uleb128 .LEHE3-.LEHB3
	.uleb128 .L33-.LFB1847
	.uleb128 0
	.uleb128 .LEHB4-.LFB1847
	.uleb128 .LEHE4-.LEHB4
	.uleb128 .L34-.LFB1847
	.uleb128 0
	.uleb128 .LEHB5-.LFB1847
	.uleb128 .LEHE5-.LEHB5
	.uleb128 0
	.uleb128 0
.LLSDACSE1847:
	.section	.text$_ZN8wxStringC1EPKc,"x"
	.linkonce discard
	.seh_endproc
	.section	.text$_ZN8wxStringC1EPKcRK8wxMBConvy,"x"
	.linkonce discard
	.align 2
	.globl	_ZN8wxStringC1EPKcRK8wxMBConvy
	.def	_ZN8wxStringC1EPKcRK8wxMBConvy;	.scl	2;	.type	32;	.endef
	.seh_proc	_ZN8wxStringC1EPKcRK8wxMBConvy
_ZN8wxStringC1EPKcRK8wxMBConvy:
.LFB1856:
	.loc 4 1247 3
	.cfi_startproc
	pushq	%rbp
	.seh_pushreg	%rbp
	.cfi_def_cfa_offset 16
	.cfi_offset 6, -16
	pushq	%rsi
	.seh_pushreg	%rsi
	.cfi_def_cfa_offset 24
	.cfi_offset 4, -24
	pushq	%rbx
	.seh_pushreg	%rbx
	.cfi_def_cfa_offset 32
	.cfi_offset 3, -32
	movq	%rsp, %rbp
	.seh_setframe	%rbp, 0
	.cfi_def_cfa_register 6
	subq	$48, %rsp
	.seh_stackalloc	48
	.seh_endprologue
	movq	%rcx, 32(%rbp)
	movq	%rdx, 40(%rbp)
	movq	%r8, 48(%rbp)
	movq	%r9, 56(%rbp)
.LBB13:
	.loc 4 1248 3
	movq	32(%rbp), %rax
	movq	%rax, %rcx
	call	_ZNSt7__cxx1112basic_stringIwSt11char_traitsIwESaIwEEC1Ev
	movq	32(%rbp), %rax
	addq	$32, %rax
	movq	%rax, %rcx
	call	_ZN8wxString15ConvertedBufferIcEC1Ev
.LBB14:
	.loc 4 1249 52
	leaq	-16(%rbp), %rax
	movq	48(%rbp), %r8
	movq	56(%rbp), %rcx
	movq	40(%rbp), %rdx
	movq	%r8, %r9
	movq	%rcx, %r8
	movq	%rax, %rcx
.LEHB6:
	call	_ZN8wxString7ImplStrEPKcyRK8wxMBConv
.LEHE6:
	.loc 4 1250 36
	movq	32(%rbp), %rbx
	movq	-8(%rbp), %rsi
	leaq	-16(%rbp), %rax
	movq	%rax, %rcx
.LEHB7:
	call	_ZNK22wxScopedCharTypeBufferIwEcvPKwEv
	movq	%rsi, %r8
	movq	%rax, %rdx
	movq	%rbx, %rcx
	call	_ZNSt7__cxx1112basic_stringIwSt11char_traitsIwESaIwEE6assignEPKwy
.LEHE7:
	.loc 4 1249 52
	leaq	-16(%rbp), %rax
	movq	%rax, %rcx
	call	_ZN8wxString17SubstrBufFromTypeI22wxScopedCharTypeBufferIwEED1Ev
.LBE14:
.LBE13:
	.loc 4 1251 3
	jmp	.L41
.L40:
	movq	%rax, %rbx
.LBB16:
.LBB15:
	.loc 4 1249 52
	leaq	-16(%rbp), %rax
	movq	%rax, %rcx
	call	_ZN8wxString17SubstrBufFromTypeI22wxScopedCharTypeBufferIwEED1Ev
	jmp	.L38
.L39:
	movq	%rax, %rbx
.L38:
.LBE15:
	.loc 4 1248 3
	movq	32(%rbp), %rax
	addq	$32, %rax
	movq	%rax, %rcx
	call	_ZN8wxString15ConvertedBufferIcED1Ev
	movq	32(%rbp), %rax
	movq	%rax, %rcx
	call	_ZNSt7__cxx1112basic_stringIwSt11char_traitsIwESaIwEED1Ev
	movq	%rbx, %rax
	movq	%rax, %rcx
.LEHB8:
	call	_Unwind_Resume
	nop
.LEHE8:
.L41:
.LBE16:
	.loc 4 1251 3
	addq	$48, %rsp
	popq	%rbx
	.cfi_restore 3
	popq	%rsi
	.cfi_restore 4
	popq	%rbp
	.cfi_restore 6
	.cfi_def_cfa 7, 24
	ret
	.cfi_endproc
.LFE1856:
	.seh_handler	__gxx_personality_seh0, @unwind, @except
	.seh_handlerdata
.LLSDA1856:
	.byte	0xff
	.byte	0xff
	.byte	0x1
	.uleb128 .LLSDACSE1856-.LLSDACSB1856
.LLSDACSB1856:
	.uleb128 .LEHB6-.LFB1856
	.uleb128 .LEHE6-.LEHB6
	.uleb128 .L39-.LFB1856
	.uleb128 0
	.uleb128 .LEHB7-.LFB1856
	.uleb128 .LEHE7-.LEHB7
	.uleb128 .L40-.LFB1856
	.uleb128 0
	.uleb128 .LEHB8-.LFB1856
	.uleb128 .LEHE8-.LEHB8
	.uleb128 0
	.uleb128 0
.LLSDACSE1856:
	.section	.text$_ZN8wxStringC1EPKcRK8wxMBConvy,"x"
	.linkonce discard
	.seh_endproc
	.section	.text$_ZN8wxStringC1EPKw,"x"
	.linkonce discard
	.align 2
	.globl	_ZN8wxStringC1EPKw
	.def	_ZN8wxStringC1EPKw;	.scl	2;	.type	32;	.endef
	.seh_proc	_ZN8wxStringC1EPKw
_ZN8wxStringC1EPKw:
.LFB1871:
	.loc 4 1267 3
	.cfi_startproc
	pushq	%rbp
	.seh_pushreg	%rbp
	.cfi_def_cfa_offset 16
	.cfi_offset 6, -16
	pushq	%rbx
	.seh_pushreg	%rbx
	.cfi_def_cfa_offset 24
	.cfi_offset 3, -24
	subq	$56, %rsp
	.seh_stackalloc	56
	.cfi_def_cfa_offset 80
	leaq	128(%rsp), %rbp
	.seh_setframe	%rbp, 128
	.cfi_def_cfa 6, -48
	.seh_endprologue
	movq	%rcx, -48(%rbp)
	movq	%rdx, -40(%rbp)
.LBB17:
	.loc 4 1268 26
	movq	-48(%rbp), %rbx
	leaq	-81(%rbp), %rax
	movq	%rax, %rcx
	call	_ZNSaIwEC1Ev
	movq	-40(%rbp), %rax
	movq	%rax, %rcx
	call	_ZN8wxString7ImplStrEPKw
	movq	%rax, %rdx
	leaq	-81(%rbp), %rax
	movq	%rax, %r8
	movq	%rbx, %rcx
.LEHB9:
	call	_ZNSt7__cxx1112basic_stringIwSt11char_traitsIwESaIwEEC1EPKwRKS3_
.LEHE9:
	.loc 4 1268 26 is_stmt 0 discriminator 2
	leaq	-81(%rbp), %rax
	movq	%rax, %rcx
	call	_ZNSaIwED1Ev
	movq	-48(%rbp), %rax
	addq	$32, %rax
	movq	%rax, %rcx
	call	_ZN8wxString15ConvertedBufferIcEC1Ev
.LBE17:
	.loc 4 1268 29 is_stmt 1 discriminator 2
	jmp	.L45
.L44:
	movq	%rax, %rbx
.LBB18:
	.loc 4 1268 26
	leaq	-81(%rbp), %rax
	movq	%rax, %rcx
	call	_ZNSaIwED1Ev
	movq	%rbx, %rax
	movq	%rax, %rcx
.LEHB10:
	call	_Unwind_Resume
	nop
.LEHE10:
.L45:
.LBE18:
	.loc 4 1268 29
	addq	$56, %rsp
	popq	%rbx
	.cfi_restore 3
	popq	%rbp
	.cfi_restore 6
	.cfi_def_cfa 7, -40
	ret
	.cfi_endproc
.LFE1871:
	.seh_handler	__gxx_personality_seh0, @unwind, @except
	.seh_handlerdata
.LLSDA1871:
	.byte	0xff
	.byte	0xff
	.byte	0x1
	.uleb128 .LLSDACSE1871-.LLSDACSB1871
.LLSDACSB1871:
	.uleb128 .LEHB9-.LFB1871
	.uleb128 .LEHE9-.LEHB9
	.uleb128 .L44-.LFB1871
	.uleb128 0
	.uleb128 .LEHB10-.LFB1871
	.uleb128 .LEHE10-.LEHB10
	.uleb128 0
	.uleb128 0
.LLSDACSE1871:
	.section	.text$_ZN8wxStringC1EPKw,"x"
	.linkonce discard
	.seh_endproc
	.section	.text$_ZN8wxString8FromUTF8EPKcy,"x"
	.linkonce discard
	.globl	_ZN8wxString8FromUTF8EPKcy
	.def	_ZN8wxString8FromUTF8EPKcy;	.scl	2;	.type	32;	.endef
	.seh_proc	_ZN8wxString8FromUTF8EPKcy
_ZN8wxString8FromUTF8EPKcy:
.LFB1966:
	.loc 4 1742 21
	.cfi_startproc
	pushq	%rbp
	.seh_pushreg	%rbp
	.cfi_def_cfa_offset 16
	.cfi_offset 6, -16
	pushq	%rbx
	.seh_pushreg	%rbx
	.cfi_def_cfa_offset 24
	.cfi_offset 3, -24
	subq	$56, %rsp
	.seh_stackalloc	56
	.cfi_def_cfa_offset 80
	leaq	128(%rsp), %rbp
	.seh_setframe	%rbp, 128
	.cfi_def_cfa 6, -48
	.seh_endprologue
	movq	%rcx, -48(%rbp)
	movq	%rdx, -40(%rbp)
	movq	%r8, -32(%rbp)
	.loc 4 1743 31
	leaq	-96(%rbp), %rax
	movl	$0, %edx
	movq	%rax, %rcx
	call	_ZN12wxMBConvUTF8C1Ei
	.loc 4 1743 50
	movq	-32(%rbp), %rcx
	leaq	-96(%rbp), %rdx
	movq	-40(%rbp), %rax
	movq	%rcx, %r9
	movq	%rdx, %r8
	movq	%rax, %rdx
	movq	-48(%rbp), %rcx
.LEHB11:
	call	_ZN8wxStringC1EPKcRK8wxMBConvy
.LEHE11:
	nop
	.loc 4 1743 31
	leaq	-96(%rbp), %rax
	movq	%rax, %rcx
	call	_ZN12wxMBConvUTF8D1Ev
	.loc 4 1743 50
	jmp	.L50
.L49:
	movq	%rax, %rbx
	.loc 4 1743 31
	leaq	-96(%rbp), %rax
	movq	%rax, %rcx
	call	_ZN12wxMBConvUTF8D1Ev
	movq	%rbx, %rax
	movq	%rax, %rcx
.LEHB12:
	call	_Unwind_Resume
.LEHE12:
.L50:
	.loc 4 1743 53
	movq	-48(%rbp), %rax
	addq	$56, %rsp
	popq	%rbx
	.cfi_restore 3
	popq	%rbp
	.cfi_restore 6
	.cfi_def_cfa 7, -40
	ret
	.cfi_endproc
.LFE1966:
	.seh_handler	__gxx_personality_seh0, @unwind, @except
	.seh_handlerdata
.LLSDA1966:
	.byte	0xff
	.byte	0xff
	.byte	0x1
	.uleb128 .LLSDACSE1966-.LLSDACSB1966
.LLSDACSB1966:
	.uleb128 .LEHB11-.LFB1966
	.uleb128 .LEHE11-.LEHB11
	.uleb128 .L49-.LFB1966
	.uleb128 0
	.uleb128 .LEHB12-.LFB1966
	.uleb128 .LEHE12-.LEHB12
	.uleb128 0
	.uleb128 0
.LLSDACSE1966:
	.section	.text$_ZN8wxString8FromUTF8EPKcy,"x"
	.linkonce discard
	.seh_endproc
	.section	.text$_ZN8wxStringaSERKS_,"x"
	.linkonce discard
	.align 2
	.globl	_ZN8wxStringaSERKS_
	.def	_ZN8wxStringaSERKS_;	.scl	2;	.type	32;	.endef
	.seh_proc	_ZN8wxStringaSERKS_
_ZN8wxStringaSERKS_:
.LFB1982:
	.loc 4 1877 13
	.cfi_startproc
	pushq	%rbp
	.seh_pushreg	%rbp
	.cfi_def_cfa_offset 16
	.cfi_offset 6, -16
	movq	%rsp, %rbp
	.seh_setframe	%rbp, 0
	.cfi_def_cfa_register 6
	subq	$32, %rsp
	.seh_stackalloc	32
	.seh_endprologue
	movq	%rcx, 16(%rbp)
	movq	%rdx, 24(%rbp)
	.loc 4 1879 5
	movq	16(%rbp), %rax
	cmpq	24(%rbp), %rax
	je	.L52
	.loc 4 1883 28
	movq	24(%rbp), %rdx
	movq	16(%rbp), %rax
	movq	%rax, %rcx
	call	_ZNSt7__cxx1112basic_stringIwSt11char_traitsIwESaIwEEaSERKS4_
.L52:
	.loc 4 1886 13
	movq	16(%rbp), %rax
	.loc 4 1887 3
	addq	$32, %rsp
	popq	%rbp
	.cfi_restore 6
	.cfi_def_cfa 7, 8
	ret
	.cfi_endproc
.LFE1982:
	.seh_endproc
	.section	.text$_ZN8wxObjectC2Ev,"x"
	.linkonce discard
	.align 2
	.globl	_ZN8wxObjectC2Ev
	.def	_ZN8wxObjectC2Ev;	.scl	2;	.type	32;	.endef
	.seh_proc	_ZN8wxObjectC2Ev
_ZN8wxObjectC2Ev:
.LFB3705:
	.file 5 "../wxMSW-3.0.5_gcc810_x64_Dev/include/wx/object.h"
	.loc 5 360 5
	.cfi_startproc
	pushq	%rbp
	.seh_pushreg	%rbp
	.cfi_def_cfa_offset 16
	.cfi_offset 6, -16
	movq	%rsp, %rbp
	.seh_setframe	%rbp, 0
	.cfi_def_cfa_register 6
	.seh_endprologue
	movq	%rcx, 16(%rbp)
.LBB19:
	.loc 5 360 16
	movq	.refptr._ZTV8wxObject(%rip), %rax
	leaq	16(%rax), %rdx
	movq	16(%rbp), %rax
	movq	%rdx, (%rax)
	.loc 5 360 28
	movq	16(%rbp), %rax
	movq	$0, 8(%rax)
.LBE19:
	.loc 5 360 35
	nop
	popq	%rbp
	.cfi_restore 6
	.cfi_def_cfa 7, 8
	ret
	.cfi_endproc
.LFE3705:
	.seh_endproc
	.section	.text$_ZN8wxObjectaSERKS_,"x"
	.linkonce discard
	.align 2
	.globl	_ZN8wxObjectaSERKS_
	.def	_ZN8wxObjectaSERKS_;	.scl	2;	.type	32;	.endef
	.seh_proc	_ZN8wxObjectaSERKS_
_ZN8wxObjectaSERKS_:
.LFB3714:
	.loc 5 370 15
	.cfi_startproc
	pushq	%rbp
	.seh_pushreg	%rbp
	.cfi_def_cfa_offset 16
	.cfi_offset 6, -16
	movq	%rsp, %rbp
	.seh_setframe	%rbp, 0
	.cfi_def_cfa_register 6
	subq	$32, %rsp
	.seh_stackalloc	32
	.seh_endprologue
	movq	%rcx, 16(%rbp)
	movq	%rdx, 24(%rbp)
	.loc 5 372 9
	movq	16(%rbp), %rax
	cmpq	24(%rbp), %rax
	je	.L56
	.loc 5 374 16
	movq	24(%rbp), %rax
	movq	%rax, %rdx
	movq	16(%rbp), %rcx
	call	_ZN8wxObject3RefERKS_
.L56:
	.loc 5 376 17
	movq	16(%rbp), %rax
	.loc 5 377 5
	addq	$32, %rsp
	popq	%rbp
	.cfi_restore 6
	.cfi_def_cfa 7, 8
	ret
	.cfi_endproc
.LFE3714:
	.seh_endproc
	.section	.text$_ZN6wxSizeC1Ev,"x"
	.linkonce discard
	.align 2
	.globl	_ZN6wxSizeC1Ev
	.def	_ZN6wxSizeC1Ev;	.scl	2;	.type	32;	.endef
	.seh_proc	_ZN6wxSizeC1Ev
_ZN6wxSizeC1Ev:
.LFB4792:
	.file 6 "../wxMSW-3.0.5_gcc810_x64_Dev/include/wx/gdicmn.h"
	.loc 6 257 5
	.cfi_startproc
	pushq	%rbp
	.seh_pushreg	%rbp
	.cfi_def_cfa_offset 16
	.cfi_offset 6, -16
	movq	%rsp, %rbp
	.seh_setframe	%rbp, 0
	.cfi_def_cfa_register 6
	.seh_endprologue
	movq	%rcx, 16(%rbp)
.LBB20:
	.loc 6 257 25
	movq	16(%rbp), %rax
	movl	$0, (%rax)
	movq	16(%rbp), %rax
	movl	$0, 4(%rax)
.LBE20:
	.loc 6 257 29
	nop
	popq	%rbp
	.cfi_restore 6
	.cfi_def_cfa 7, 8
	ret
	.cfi_endproc
.LFE4792:
	.seh_endproc
	.section	.text$_ZN6wxSizeC1Eii,"x"
	.linkonce discard
	.align 2
	.globl	_ZN6wxSizeC1Eii
	.def	_ZN6wxSizeC1Eii;	.scl	2;	.type	32;	.endef
	.seh_proc	_ZN6wxSizeC1Eii
_ZN6wxSizeC1Eii:
.LFB4795:
	.loc 6 258 5
	.cfi_startproc
	pushq	%rbp
	.seh_pushreg	%rbp
	.cfi_def_cfa_offset 16
	.cfi_offset 6, -16
	movq	%rsp, %rbp
	.seh_setframe	%rbp, 0
	.cfi_def_cfa_register 6
	.seh_endprologue
	movq	%rcx, 16(%rbp)
	movl	%edx, 24(%rbp)
	movl	%r8d, 32(%rbp)
.LBB21:
	.loc 6 258 41
	movq	16(%rbp), %rax
	movl	24(%rbp), %edx
	movl	%edx, (%rax)
	movq	16(%rbp), %rax
	movl	32(%rbp), %edx
	movl	%edx, 4(%rax)
.LBE21:
	.loc 6 258 45
	nop
	popq	%rbp
	.cfi_restore 6
	.cfi_def_cfa 7, 8
	ret
	.cfi_endproc
.LFE4795:
	.seh_endproc
	.section	.text$_ZN7wxPointC1Ev,"x"
	.linkonce discard
	.align 2
	.globl	_ZN7wxPointC1Ev
	.def	_ZN7wxPointC1Ev;	.scl	2;	.type	32;	.endef
	.seh_proc	_ZN7wxPointC1Ev
_ZN7wxPointC1Ev:
.LFB4875:
	.loc 6 545 5
	.cfi_startproc
	pushq	%rbp
	.seh_pushreg	%rbp
	.cfi_def_cfa_offset 16
	.cfi_offset 6, -16
	movq	%rsp, %rbp
	.seh_setframe	%rbp, 0
	.cfi_def_cfa_register 6
	.seh_endprologue
	movq	%rcx, 16(%rbp)
.LBB22:
	.loc 6 545 26
	movq	16(%rbp), %rax
	movl	$0, (%rax)
	movq	16(%rbp), %rax
	movl	$0, 4(%rax)
.LBE22:
	.loc 6 545 30
	nop
	popq	%rbp
	.cfi_restore 6
	.cfi_def_cfa 7, 8
	ret
	.cfi_endproc
.LFE4875:
	.seh_endproc
	.section	.text$_ZN7wxPointC1Eii,"x"
	.linkonce discard
	.align 2
	.globl	_ZN7wxPointC1Eii
	.def	_ZN7wxPointC1Eii;	.scl	2;	.type	32;	.endef
	.seh_proc	_ZN7wxPointC1Eii
_ZN7wxPointC1Eii:
.LFB4878:
	.loc 6 546 5
	.cfi_startproc
	pushq	%rbp
	.seh_pushreg	%rbp
	.cfi_def_cfa_offset 16
	.cfi_offset 6, -16
	movq	%rsp, %rbp
	.seh_setframe	%rbp, 0
	.cfi_def_cfa_register 6
	.seh_endprologue
	movq	%rcx, 16(%rbp)
	movl	%edx, 24(%rbp)
	movl	%r8d, 32(%rbp)
.LBB23:
	.loc 6 546 42
	movq	16(%rbp), %rax
	movl	24(%rbp), %edx
	movl	%edx, (%rax)
	movq	16(%rbp), %rax
	movl	32(%rbp), %edx
	movl	%edx, 4(%rax)
.LBE23:
	.loc 6 546 46
	nop
	popq	%rbp
	.cfi_restore 6
	.cfi_def_cfa 7, 8
	ret
	.cfi_endproc
.LFE4878:
	.seh_endproc
	.section .rdata,"dr"
_ZL19wxALPHA_TRANSPARENT:
	.space 1
_ZL14wxALPHA_OPAQUE:
	.byte	-1
	.section	.text$_ZN16wxLongLongNativeC1Ev,"x"
	.linkonce discard
	.align 2
	.globl	_ZN16wxLongLongNativeC1Ev
	.def	_ZN16wxLongLongNativeC1Ev;	.scl	2;	.type	32;	.endef
	.seh_proc	_ZN16wxLongLongNativeC1Ev
_ZN16wxLongLongNativeC1Ev:
.LFB5885:
	.file 7 "../wxMSW-3.0.5_gcc810_x64_Dev/include/wx/longlong.h"
	.loc 7 111 5
	.cfi_startproc
	pushq	%rbp
	.seh_pushreg	%rbp
	.cfi_def_cfa_offset 16
	.cfi_offset 6, -16
	movq	%rsp, %rbp
	.seh_setframe	%rbp, 0
	.cfi_def_cfa_register 6
	.seh_endprologue
	movq	%rcx, 16(%rbp)
.LBB24:
	.loc 7 111 32
	movq	16(%rbp), %rax
	movq	$0, (%rax)
.LBE24:
	.loc 7 111 36
	nop
	popq	%rbp
	.cfi_restore 6
	.cfi_def_cfa 7, 8
	ret
	.cfi_endproc
.LFE5885:
	.seh_endproc
	.section	.text$_ZN10wxArrayIntD1Ev,"x"
	.linkonce discard
	.align 2
	.globl	_ZN10wxArrayIntD1Ev
	.def	_ZN10wxArrayIntD1Ev;	.scl	2;	.type	32;	.endef
	.seh_proc	_ZN10wxArrayIntD1Ev
_ZN10wxArrayIntD1Ev:
.LFB6489:
	.file 8 "../wxMSW-3.0.5_gcc810_x64_Dev/include/wx/dynarray.h"
	.loc 8 1022 348
	.cfi_startproc
	pushq	%rbp
	.seh_pushreg	%rbp
	.cfi_def_cfa_offset 16
	.cfi_offset 6, -16
	movq	%rsp, %rbp
	.seh_setframe	%rbp, 0
	.cfi_def_cfa_register 6
	subq	$32, %rsp
	.seh_stackalloc	32
	.seh_endprologue
	movq	%rcx, 16(%rbp)
.LBB25:
	.loc 8 1022 362
	movq	16(%rbp), %rax
	movq	%rax, %rcx
	call	_ZN14wxBaseArrayIntD2Ev
.LBE25:
	.loc 8 1022 364
	nop
	addq	$32, %rsp
	popq	%rbp
	.cfi_restore 6
	.cfi_def_cfa 7, 8
	ret
	.cfi_endproc
.LFE6489:
	.seh_endproc
	.section	.text$_ZN11wxArrayLongC1Ev,"x"
	.linkonce discard
	.align 2
	.globl	_ZN11wxArrayLongC1Ev
	.def	_ZN11wxArrayLongC1Ev;	.scl	2;	.type	32;	.endef
	.seh_proc	_ZN11wxArrayLongC1Ev
_ZN11wxArrayLongC1Ev:
.LFB6666:
	.loc 8 1024 342
	.cfi_startproc
	pushq	%rbp
	.seh_pushreg	%rbp
	.cfi_def_cfa_offset 16
	.cfi_offset 6, -16
	movq	%rsp, %rbp
	.seh_setframe	%rbp, 0
	.cfi_def_cfa_register 6
	subq	$32, %rsp
	.seh_stackalloc	32
	.seh_endprologue
	movq	%rcx, 16(%rbp)
.LBB26:
	.loc 8 1024 356
	movq	16(%rbp), %rax
	movq	%rax, %rcx
	call	_ZN15wxBaseArrayLongC2Ev
.LBE26:
	.loc 8 1024 358
	nop
	addq	$32, %rsp
	popq	%rbp
	.cfi_restore 6
	.cfi_def_cfa 7, 8
	ret
	.cfi_endproc
.LFE6666:
	.seh_endproc
	.section	.text$_ZN11wxArrayLongD1Ev,"x"
	.linkonce discard
	.align 2
	.globl	_ZN11wxArrayLongD1Ev
	.def	_ZN11wxArrayLongD1Ev;	.scl	2;	.type	32;	.endef
	.seh_proc	_ZN11wxArrayLongD1Ev
_ZN11wxArrayLongD1Ev:
.LFB6669:
	.loc 8 1024 360
	.cfi_startproc
	pushq	%rbp
	.seh_pushreg	%rbp
	.cfi_def_cfa_offset 16
	.cfi_offset 6, -16
	movq	%rsp, %rbp
	.seh_setframe	%rbp, 0
	.cfi_def_cfa_register 6
	subq	$32, %rsp
	.seh_stackalloc	32
	.seh_endprologue
	movq	%rcx, 16(%rbp)
.LBB27:
	.loc 8 1024 375
	movq	16(%rbp), %rax
	movq	%rax, %rcx
	call	_ZN15wxBaseArrayLongD2Ev
.LBE27:
	.loc 8 1024 377
	nop
	addq	$32, %rsp
	popq	%rbp
	.cfi_restore 6
	.cfi_def_cfa 7, 8
	ret
	.cfi_endproc
.LFE6669:
	.seh_endproc
	.section	.text$_ZN16wxTypeIdentifierC1EPKc,"x"
	.linkonce discard
	.align 2
	.globl	_ZN16wxTypeIdentifierC1EPKc
	.def	_ZN16wxTypeIdentifierC1EPKc;	.scl	2;	.type	32;	.endef
	.seh_proc	_ZN16wxTypeIdentifierC1EPKc
_ZN16wxTypeIdentifierC1EPKc:
.LFB7378:
	.file 9 "../wxMSW-3.0.5_gcc810_x64_Dev/include/wx/typeinfo.h"
	.loc 9 66 5
	.cfi_startproc
	pushq	%rbp
	.seh_pushreg	%rbp
	.cfi_def_cfa_offset 16
	.cfi_offset 6, -16
	movq	%rsp, %rbp
	.seh_setframe	%rbp, 0
	.cfi_def_cfa_register 6
	.seh_endprologue
	movq	%rcx, 16(%rbp)
	movq	%rdx, 24(%rbp)
.LBB28:
	.loc 9 68 21
	movq	16(%rbp), %rax
	movq	24(%rbp), %rdx
	movq	%rdx, (%rax)
.LBE28:
	.loc 9 69 5
	nop
	popq	%rbp
	.cfi_restore 6
	.cfi_def_cfa 7, 8
	ret
	.cfi_endproc
.LFE7378:
	.seh_endproc
	.section	.text$_ZN16wxTypeIdentifiereqERKS_,"x"
	.linkonce discard
	.align 2
	.globl	_ZN16wxTypeIdentifiereqERKS_
	.def	_ZN16wxTypeIdentifiereqERKS_;	.scl	2;	.type	32;	.endef
	.seh_proc	_ZN16wxTypeIdentifiereqERKS_
_ZN16wxTypeIdentifiereqERKS_:
.LFB7379:
	.loc 9 71 10
	.cfi_startproc
	pushq	%rbp
	.seh_pushreg	%rbp
	.cfi_def_cfa_offset 16
	.cfi_offset 6, -16
	movq	%rsp, %rbp
	.seh_setframe	%rbp, 0
	.cfi_def_cfa_register 6
	subq	$32, %rsp
	.seh_stackalloc	32
	.seh_endprologue
	movq	%rcx, 16(%rbp)
	movq	%rdx, 24(%rbp)
	.loc 9 73 42
	movq	24(%rbp), %rax
	movq	(%rax), %rdx
	.loc 9 73 22
	movq	16(%rbp), %rax
	movq	(%rax), %rax
	movq	%rax, %rcx
	call	strcmp
	.loc 9 73 58
	testl	%eax, %eax
	sete	%al
	.loc 9 74 5
	addq	$32, %rsp
	popq	%rbp
	.cfi_restore 6
	.cfi_def_cfa 7, 8
	ret
	.cfi_endproc
.LFE7379:
	.seh_endproc
	.section .rdata,"dr"
	.align 4
_ZL15wxInvalidOffset:
	.long	-1
	.align 4
_ZL5wxEOF:
	.long	-1
_ZL25wxIMAGE_ALPHA_TRANSPARENT:
	.space 1
_ZL23wxIMAGE_ALPHA_THRESHOLD:
	.byte	-128
_ZL20wxIMAGE_ALPHA_OPAQUE:
	.byte	-1
	.section	.text$_ZN11wxGDIObjectC2Ev,"x"
	.linkonce discard
	.align 2
	.globl	_ZN11wxGDIObjectC2Ev
	.def	_ZN11wxGDIObjectC2Ev;	.scl	2;	.type	32;	.endef
	.seh_proc	_ZN11wxGDIObjectC2Ev
_ZN11wxGDIObjectC2Ev:
.LFB8415:
	.file 10 "../wxMSW-3.0.5_gcc810_x64_Dev/include/wx/gdiobj.h"
	.loc 10 41 7
	.cfi_startproc
	pushq	%rbp
	.seh_pushreg	%rbp
	.cfi_def_cfa_offset 16
	.cfi_offset 6, -16
	movq	%rsp, %rbp
	.seh_setframe	%rbp, 0
	.cfi_def_cfa_register 6
	subq	$32, %rsp
	.seh_stackalloc	32
	.seh_endprologue
	movq	%rcx, 16(%rbp)
.LBB29:
	.loc 10 41 7
	movq	16(%rbp), %rax
	movq	%rax, %rcx
	call	_ZN8wxObjectC2Ev
	movq	.refptr._ZTV11wxGDIObject(%rip), %rax
	leaq	16(%rax), %rdx
	movq	16(%rbp), %rax
	movq	%rdx, (%rax)
.LBE29:
	nop
	addq	$32, %rsp
	popq	%rbp
	.cfi_restore 6
	.cfi_def_cfa 7, 8
	ret
	.cfi_endproc
.LFE8415:
	.seh_endproc
	.section	.text$_ZN10wxGDIImageC2Ev,"x"
	.linkonce discard
	.align 2
	.globl	_ZN10wxGDIImageC2Ev
	.def	_ZN10wxGDIImageC2Ev;	.scl	2;	.type	32;	.endef
	.seh_proc	_ZN10wxGDIImageC2Ev
_ZN10wxGDIImageC2Ev:
.LFB8426:
	.file 11 "../wxMSW-3.0.5_gcc810_x64_Dev/include/wx/msw/gdiimage.h"
	.loc 11 84 7
	.cfi_startproc
	pushq	%rbp
	.seh_pushreg	%rbp
	.cfi_def_cfa_offset 16
	.cfi_offset 6, -16
	movq	%rsp, %rbp
	.seh_setframe	%rbp, 0
	.cfi_def_cfa_register 6
	subq	$32, %rsp
	.seh_stackalloc	32
	.seh_endprologue
	movq	%rcx, 16(%rbp)
.LBB30:
	.loc 11 84 7
	movq	16(%rbp), %rax
	movq	%rax, %rcx
	call	_ZN11wxGDIObjectC2Ev
	movq	.refptr._ZTV10wxGDIImage(%rip), %rax
	leaq	16(%rax), %rdx
	movq	16(%rbp), %rax
	movq	%rdx, (%rax)
.LBE30:
	nop
	addq	$32, %rsp
	popq	%rbp
	.cfi_restore 6
	.cfi_def_cfa 7, 8
	ret
	.cfi_endproc
.LFE8426:
	.seh_endproc
	.section	.text$_ZN8wxBitmapC1Ev,"x"
	.linkonce discard
	.align 2
	.globl	_ZN8wxBitmapC1Ev
	.def	_ZN8wxBitmapC1Ev;	.scl	2;	.type	32;	.endef
	.seh_proc	_ZN8wxBitmapC1Ev
_ZN8wxBitmapC1Ev:
.LFB8433:
	.file 12 "../wxMSW-3.0.5_gcc810_x64_Dev/include/wx/msw/bitmap.h"
	.loc 12 51 5
	.cfi_startproc
	pushq	%rbp
	.seh_pushreg	%rbp
	.cfi_def_cfa_offset 16
	.cfi_offset 6, -16
	movq	%rsp, %rbp
	.seh_setframe	%rbp, 0
	.cfi_def_cfa_register 6
	subq	$32, %rsp
	.seh_stackalloc	32
	.seh_endprologue
	movq	%rcx, 16(%rbp)
.LBB31:
	.loc 12 51 16
	movq	16(%rbp), %rax
	movq	%rax, %rcx
	call	_ZN10wxGDIImageC2Ev
	movq	.refptr._ZTV8wxBitmap(%rip), %rax
	leaq	16(%rax), %rdx
	movq	16(%rbp), %rax
	movq	%rdx, (%rax)
.LBE31:
	.loc 12 51 18
	nop
	addq	$32, %rsp
	popq	%rbp
	.cfi_restore 6
	.cfi_def_cfa 7, 8
	ret
	.cfi_endproc
.LFE8433:
	.seh_endproc
	.section	.text$_ZN23wxCriticalSectionLockerC1ER17wxCriticalSection,"x"
	.linkonce discard
	.align 2
	.globl	_ZN23wxCriticalSectionLockerC1ER17wxCriticalSection
	.def	_ZN23wxCriticalSectionLockerC1ER17wxCriticalSection;	.scl	2;	.type	32;	.endef
	.seh_proc	_ZN23wxCriticalSectionLockerC1ER17wxCriticalSection
_ZN23wxCriticalSectionLockerC1ER17wxCriticalSection:
.LFB8880:
	.file 13 "../wxMSW-3.0.5_gcc810_x64_Dev/include/wx/thread.h"
	.loc 13 304 5
	.cfi_startproc
	pushq	%rbp
	.seh_pushreg	%rbp
	.cfi_def_cfa_offset 16
	.cfi_offset 6, -16
	movq	%rsp, %rbp
	.seh_setframe	%rbp, 0
	.cfi_def_cfa_register 6
	subq	$32, %rsp
	.seh_stackalloc	32
	.seh_endprologue
	movq	%rcx, 16(%rbp)
	movq	%rdx, 24(%rbp)
.LBB32:
	.loc 13 305 24
	movq	16(%rbp), %rax
	movq	24(%rbp), %rdx
	movq	%rdx, (%rax)
	.loc 13 307 9
	movq	16(%rbp), %rax
	movq	(%rax), %rax
	.loc 13 307 25
	movq	%rax, %rcx
	call	_ZN17wxCriticalSection5EnterEv
.LBE32:
	.loc 13 308 5
	nop
	addq	$32, %rsp
	popq	%rbp
	.cfi_restore 6
	.cfi_def_cfa 7, 8
	ret
	.cfi_endproc
.LFE8880:
	.seh_endproc
	.section	.text$_ZN23wxCriticalSectionLockerD1Ev,"x"
	.linkonce discard
	.align 2
	.globl	_ZN23wxCriticalSectionLockerD1Ev
	.def	_ZN23wxCriticalSectionLockerD1Ev;	.scl	2;	.type	32;	.endef
	.seh_proc	_ZN23wxCriticalSectionLockerD1Ev
_ZN23wxCriticalSectionLockerD1Ev:
.LFB8883:
	.loc 13 310 5
	.cfi_startproc
	pushq	%rbp
	.seh_pushreg	%rbp
	.cfi_def_cfa_offset 16
	.cfi_offset 6, -16
	movq	%rsp, %rbp
	.seh_setframe	%rbp, 0
	.cfi_def_cfa_register 6
	subq	$32, %rsp
	.seh_stackalloc	32
	.seh_endprologue
	movq	%rcx, 16(%rbp)
.LBB33:
	.loc 13 312 9
	movq	16(%rbp), %rax
	movq	(%rax), %rax
	.loc 13 312 25
	movq	%rax, %rcx
	call	_ZN17wxCriticalSection5LeaveEv
.LBE33:
	.loc 13 313 5
	nop
	addq	$32, %rsp
	popq	%rbp
	.cfi_restore 6
	.cfi_def_cfa 7, 8
	ret
	.cfi_endproc
.LFE8883:
	.seh_handler	__gxx_personality_seh0, @unwind, @except
	.seh_handlerdata
.LLSDA8883:
	.byte	0xff
	.byte	0xff
	.byte	0x1
	.uleb128 .LLSDACSE8883-.LLSDACSB8883
.LLSDACSB8883:
.LLSDACSE8883:
	.section	.text$_ZN23wxCriticalSectionLockerD1Ev,"x"
	.linkonce discard
	.seh_endproc
	.section	.text$_ZN8wxThread8OnDeleteEv,"x"
	.linkonce discard
	.align 2
	.globl	_ZN8wxThread8OnDeleteEv
	.def	_ZN8wxThread8OnDeleteEv;	.scl	2;	.type	32;	.endef
	.seh_proc	_ZN8wxThread8OnDeleteEv
_ZN8wxThread8OnDeleteEv:
.LFB8889:
	.loc 13 627 18
	.cfi_startproc
	pushq	%rbp
	.seh_pushreg	%rbp
	.cfi_def_cfa_offset 16
	.cfi_offset 6, -16
	movq	%rsp, %rbp
	.seh_setframe	%rbp, 0
	.cfi_def_cfa_register 6
	.seh_endprologue
	movq	%rcx, 16(%rbp)
	.loc 13 627 30
	nop
	popq	%rbp
	.cfi_restore 6
	.cfi_def_cfa 7, 8
	ret
	.cfi_endproc
.LFE8889:
	.seh_endproc
	.section	.text$_ZN8wxThread6OnKillEv,"x"
	.linkonce discard
	.align 2
	.globl	_ZN8wxThread6OnKillEv
	.def	_ZN8wxThread6OnKillEv;	.scl	2;	.type	32;	.endef
	.seh_proc	_ZN8wxThread6OnKillEv
_ZN8wxThread6OnKillEv:
.LFB8890:
	.loc 13 631 18
	.cfi_startproc
	pushq	%rbp
	.seh_pushreg	%rbp
	.cfi_def_cfa_offset 16
	.cfi_offset 6, -16
	movq	%rsp, %rbp
	.seh_setframe	%rbp, 0
	.cfi_def_cfa_register 6
	.seh_endprologue
	movq	%rcx, 16(%rbp)
	.loc 13 631 28
	nop
	popq	%rbp
	.cfi_restore 6
	.cfi_def_cfa 7, 8
	ret
	.cfi_endproc
.LFE8890:
	.seh_endproc
	.section	.text$_ZN8wxThread6OnExitEv,"x"
	.linkonce discard
	.align 2
	.globl	_ZN8wxThread6OnExitEv
	.def	_ZN8wxThread6OnExitEv;	.scl	2;	.type	32;	.endef
	.seh_proc	_ZN8wxThread6OnExitEv
_ZN8wxThread6OnExitEv:
.LFB8891:
	.loc 13 641 18
	.cfi_startproc
	pushq	%rbp
	.seh_pushreg	%rbp
	.cfi_def_cfa_offset 16
	.cfi_offset 6, -16
	movq	%rsp, %rbp
	.seh_setframe	%rbp, 0
	.cfi_def_cfa_register 6
	.seh_endprologue
	movq	%rcx, 16(%rbp)
	.loc 13 641 29
	nop
	popq	%rbp
	.cfi_restore 6
	.cfi_def_cfa 7, 8
	ret
	.cfi_endproc
.LFE8891:
	.seh_endproc
	.section	.text$_ZN20wxThreadHelperThread5EntryEv,"x"
	.linkonce discard
	.align 2
	.globl	_ZN20wxThreadHelperThread5EntryEv
	.def	_ZN20wxThreadHelperThread5EntryEv;	.scl	2;	.type	32;	.endef
	.seh_proc	_ZN20wxThreadHelperThread5EntryEv
_ZN20wxThreadHelperThread5EntryEv:
.LFB8906:
	.loc 13 767 1
	.cfi_startproc
	pushq	%rbp
	.seh_pushreg	%rbp
	.cfi_def_cfa_offset 16
	.cfi_offset 6, -16
	pushq	%rbx
	.seh_pushreg	%rbx
	.cfi_def_cfa_offset 24
	.cfi_offset 3, -24
	subq	$56, %rsp
	.seh_stackalloc	56
	.cfi_def_cfa_offset 80
	leaq	128(%rsp), %rbp
	.seh_setframe	%rbp, 128
	.cfi_def_cfa 6, -48
	.seh_endprologue
	movq	%rcx, -48(%rbp)
	.loc 13 768 27
	movq	-48(%rbp), %rax
	movq	64(%rax), %rdx
	movq	-48(%rbp), %rax
	movq	64(%rax), %rax
	.loc 13 768 41
	movq	(%rax), %rax
	addq	$16, %rax
	movq	(%rax), %rax
	.loc 13 768 40
	movq	%rdx, %rcx
	call	*%rax
.LVL0:
	movq	%rax, -88(%rbp)
	.loc 13 770 36
	movq	-48(%rbp), %rax
	movq	64(%rax), %rax
	.loc 13 770 44
	leaq	24(%rax), %rdx
	.loc 13 770 57
	leaq	-96(%rbp), %rax
	movq	%rax, %rcx
	call	_ZN23wxCriticalSectionLockerC1ER17wxCriticalSection
	.loc 13 776 10
	movq	-48(%rbp), %rax
	movq	64(%rax), %rax
	.loc 13 776 18
	movl	16(%rax), %eax
	.loc 13 776 5
	testl	%eax, %eax
	jne	.L78
	.loc 13 777 9
	movq	-48(%rbp), %rax
	movq	64(%rax), %rax
	.loc 13 777 26
	movq	$0, 8(%rax)
.L78:
	.loc 13 779 12
	movq	-88(%rbp), %rbx
	.loc 13 770 57
	leaq	-96(%rbp), %rax
	movq	%rax, %rcx
	call	_ZN23wxCriticalSectionLockerD1Ev
	.loc 13 779 12
	movq	%rbx, %rax
	.loc 13 780 1
	addq	$56, %rsp
	popq	%rbx
	.cfi_restore 3
	popq	%rbp
	.cfi_restore 6
	.cfi_def_cfa 7, -40
	ret
	.cfi_endproc
.LFE8906:
	.seh_endproc
	.section	.text$_ZN14wxEventFunctorC2Ev,"x"
	.linkonce discard
	.align 2
	.globl	_ZN14wxEventFunctorC2Ev
	.def	_ZN14wxEventFunctorC2Ev;	.scl	2;	.type	32;	.endef
	.seh_proc	_ZN14wxEventFunctorC2Ev
_ZN14wxEventFunctorC2Ev:
.LFB8942:
	.file 14 "../wxMSW-3.0.5_gcc810_x64_Dev/include/wx/event.h"
	.loc 14 211 7
	.cfi_startproc
	pushq	%rbp
	.seh_pushreg	%rbp
	.cfi_def_cfa_offset 16
	.cfi_offset 6, -16
	movq	%rsp, %rbp
	.seh_setframe	%rbp, 0
	.cfi_def_cfa_register 6
	.seh_endprologue
	movq	%rcx, 16(%rbp)
.LBB34:
	.loc 14 211 7
	movq	.refptr._ZTV14wxEventFunctor(%rip), %rax
	leaq	16(%rax), %rdx
	movq	16(%rbp), %rax
	movq	%rdx, (%rax)
.LBE34:
	nop
	popq	%rbp
	.cfi_restore 6
	.cfi_def_cfa 7, 8
	ret
	.cfi_endproc
.LFE8942:
	.seh_endproc
	.section	.text$_ZN20wxObjectEventFunctorC1EM12wxEvtHandlerFvR7wxEventEPS0_,"x"
	.linkonce discard
	.align 2
	.globl	_ZN20wxObjectEventFunctorC1EM12wxEvtHandlerFvR7wxEventEPS0_
	.def	_ZN20wxObjectEventFunctorC1EM12wxEvtHandlerFvR7wxEventEPS0_;	.scl	2;	.type	32;	.endef
	.seh_proc	_ZN20wxObjectEventFunctorC1EM12wxEvtHandlerFvR7wxEventEPS0_
_ZN20wxObjectEventFunctorC1EM12wxEvtHandlerFvR7wxEventEPS0_:
.LFB8945:
	.loc 14 243 5
	.cfi_startproc
	pushq	%rbp
	.seh_pushreg	%rbp
	.cfi_def_cfa_offset 16
	.cfi_offset 6, -16
	pushq	%rbx
	.seh_pushreg	%rbx
	.cfi_def_cfa_offset 24
	.cfi_offset 3, -24
	subq	$56, %rsp
	.seh_stackalloc	56
	.cfi_def_cfa_offset 80
	leaq	128(%rsp), %rbp
	.seh_setframe	%rbp, 128
	.cfi_def_cfa 6, -48
	.seh_endprologue
	movq	%rcx, -48(%rbp)
	movq	%rdx, %rbx
	movq	(%rbx), %rax
	movq	8(%rbx), %rdx
	movq	%rax, -96(%rbp)
	movq	%rdx, -88(%rbp)
	movq	%r8, -32(%rbp)
.LBB35:
	.loc 14 244 50
	movq	-48(%rbp), %rax
	movq	%rax, %rcx
	call	_ZN14wxEventFunctorC2Ev
	leaq	16+_ZTV20wxObjectEventFunctor(%rip), %rdx
	movq	-48(%rbp), %rax
	movq	%rdx, (%rax)
	movq	-48(%rbp), %rax
	movq	-32(%rbp), %rdx
	movq	%rdx, 8(%rax)
	movq	-48(%rbp), %rcx
	movq	-96(%rbp), %rax
	movq	-88(%rbp), %rdx
	movq	%rax, 16(%rcx)
	movq	%rdx, 24(%rcx)
.LBE35:
	.loc 14 245 11
	nop
	addq	$56, %rsp
	popq	%rbx
	.cfi_restore 3
	popq	%rbp
	.cfi_restore 6
	.cfi_def_cfa 7, -40
	ret
	.cfi_endproc
.LFE8945:
	.seh_endproc
	.section	.text$_ZNK20wxObjectEventFunctor10IsMatchingERK14wxEventFunctor,"x"
	.linkonce discard
	.align 2
	.globl	_ZNK20wxObjectEventFunctor10IsMatchingERK14wxEventFunctor
	.def	_ZNK20wxObjectEventFunctor10IsMatchingERK14wxEventFunctor;	.scl	2;	.type	32;	.endef
	.seh_proc	_ZNK20wxObjectEventFunctor10IsMatchingERK14wxEventFunctor
_ZNK20wxObjectEventFunctor10IsMatchingERK14wxEventFunctor:
.LFB8946:
	.loc 14 249 18
	.cfi_startproc
	pushq	%rbp
	.seh_pushreg	%rbp
	.cfi_def_cfa_offset 16
	.cfi_offset 6, -16
	movq	%rsp, %rbp
	.seh_setframe	%rbp, 0
	.cfi_def_cfa_register 6
	subq	$64, %rsp
	.seh_stackalloc	64
	.seh_endprologue
	movq	%rcx, 16(%rbp)
	movq	%rdx, 24(%rbp)
.LBB36:
	.loc 14 251 83
	movq	16(%rbp), %rax
	movq	(%rax), %rax
	subq	$8, %rax
	.loc 14 251 58
	movq	(%rax), %rax
	movq	%rax, %rcx
	call	_ZNKSt9type_info4nameEv
	movq	%rax, %rdx
	leaq	-24(%rbp), %rax
	movq	%rax, %rcx
	call	_ZN16wxTypeIdentifierC1EPKc
	.loc 14 251 38
	movq	24(%rbp), %rax
	movq	(%rax), %rax
	subq	$8, %rax
	.loc 14 251 14
	movq	(%rax), %rax
	movq	%rax, %rcx
	call	_ZNKSt9type_info4nameEv
	movq	%rax, %rdx
	leaq	-16(%rbp), %rax
	movq	%rax, %rcx
	call	_ZN16wxTypeIdentifierC1EPKc
	.loc 14 251 55
	leaq	-24(%rbp), %rdx
	leaq	-16(%rbp), %rax
	movq	%rax, %rcx
	call	_ZN16wxTypeIdentifiereqERKS_
	.loc 14 251 9
	testb	%al, %al
	je	.L83
.LBB37:
	.loc 14 253 41
	movq	24(%rbp), %rax
	movq	%rax, -8(%rbp)
	.loc 14 262 40
	movq	16(%rbp), %rax
	movq	16(%rax), %rdx
	movq	-8(%rbp), %rax
	movq	16(%rax), %rax
	.loc 14 262 74
	cmpq	%rax, %rdx
	jne	.L84
	.loc 14 262 40 discriminator 1
	movq	16(%rbp), %rax
	movq	24(%rax), %rdx
	movq	-8(%rbp), %rax
	movq	24(%rax), %rax
	.loc 14 262 31 discriminator 1
	cmpq	%rax, %rdx
	je	.L85
	.loc 14 262 40 discriminator 4
	movq	16(%rbp), %rax
	movq	16(%rax), %rax
	.loc 14 262 31 discriminator 4
	testq	%rax, %rax
	je	.L85
.L84:
	.loc 14 262 70 discriminator 6
	movq	-8(%rbp), %rax
	movq	16(%rax), %rax
	.loc 14 262 49 discriminator 6
	testq	%rax, %rax
	jne	.L86
.L85:
	.loc 14 263 22 discriminator 7
	movq	16(%rbp), %rax
	movq	8(%rax), %rdx
	.loc 14 263 41 discriminator 7
	movq	-8(%rbp), %rax
	movq	8(%rax), %rax
	.loc 14 262 74 discriminator 7
	cmpq	%rax, %rdx
	je	.L87
	.loc 14 263 60
	movq	-8(%rbp), %rax
	movq	8(%rax), %rax
	.loc 14 263 51
	testq	%rax, %rax
	jne	.L86
.L87:
	.loc 14 262 74 discriminator 9
	movl	$1, %eax
	.loc 14 263 77 discriminator 9
	jmp	.L89
.L86:
	.loc 14 262 74 discriminator 8
	movl	$0, %eax
	.loc 14 263 77 discriminator 8
	jmp	.L89
.L83:
.LBE37:
	.loc 14 266 20
	movl	$0, %eax
.L89:
.LBE36:
	.loc 14 267 5
	addq	$64, %rsp
	popq	%rbp
	.cfi_restore 6
	.cfi_def_cfa 7, 8
	ret
	.cfi_endproc
.LFE8946:
	.seh_endproc
	.section	.text$_ZNK20wxObjectEventFunctor13GetEvtHandlerEv,"x"
	.linkonce discard
	.align 2
	.globl	_ZNK20wxObjectEventFunctor13GetEvtHandlerEv
	.def	_ZNK20wxObjectEventFunctor13GetEvtHandlerEv;	.scl	2;	.type	32;	.endef
	.seh_proc	_ZNK20wxObjectEventFunctor13GetEvtHandlerEv
_ZNK20wxObjectEventFunctor13GetEvtHandlerEv:
.LFB8947:
	.loc 14 269 27
	.cfi_startproc
	pushq	%rbp
	.seh_pushreg	%rbp
	.cfi_def_cfa_offset 16
	.cfi_offset 6, -16
	movq	%rsp, %rbp
	.seh_setframe	%rbp, 0
	.cfi_def_cfa_register 6
	.seh_endprologue
	movq	%rcx, 16(%rbp)
	.loc 14 270 18
	movq	16(%rbp), %rax
	movq	8(%rax), %rax
	.loc 14 270 29
	popq	%rbp
	.cfi_restore 6
	.cfi_def_cfa 7, 8
	ret
	.cfi_endproc
.LFE8947:
	.seh_endproc
	.section	.text$_ZNK20wxObjectEventFunctor12GetEvtMethodEv,"x"
	.linkonce discard
	.align 2
	.globl	_ZNK20wxObjectEventFunctor12GetEvtMethodEv
	.def	_ZNK20wxObjectEventFunctor12GetEvtMethodEv;	.scl	2;	.type	32;	.endef
	.seh_proc	_ZNK20wxObjectEventFunctor12GetEvtMethodEv
_ZNK20wxObjectEventFunctor12GetEvtMethodEv:
.LFB8948:
	.loc 14 272 29
	.cfi_startproc
	pushq	%rbp
	.seh_pushreg	%rbp
	.cfi_def_cfa_offset 16
	.cfi_offset 6, -16
	movq	%rsp, %rbp
	.seh_setframe	%rbp, 0
	.cfi_def_cfa_register 6
	.seh_endprologue
	movq	%rcx, 16(%rbp)
	movq	%rdx, 24(%rbp)
	.loc 14 273 18
	movq	16(%rbp), %rcx
	movq	24(%rbp), %rax
	movq	24(%rax), %rdx
	movq	16(%rax), %rax
	movq	%rax, (%rcx)
	movq	%rdx, 8(%rcx)
	.loc 14 273 28
	movq	16(%rbp), %rax
	popq	%rbp
	.cfi_restore 6
	.cfi_def_cfa 7, 8
	ret
	.cfi_endproc
.LFE8948:
	.seh_endproc
	.section	.text$_Z17wxNewEventFunctorRKiM12wxEvtHandlerFvR7wxEventEPS1_,"x"
	.linkonce discard
	.globl	_Z17wxNewEventFunctorRKiM12wxEvtHandlerFvR7wxEventEPS1_
	.def	_Z17wxNewEventFunctorRKiM12wxEvtHandlerFvR7wxEventEPS1_;	.scl	2;	.type	32;	.endef
	.seh_proc	_Z17wxNewEventFunctorRKiM12wxEvtHandlerFvR7wxEventEPS1_
_Z17wxNewEventFunctorRKiM12wxEvtHandlerFvR7wxEventEPS1_:
.LFB8952:
	.loc 14 290 1
	.cfi_startproc
	pushq	%rbp
	.seh_pushreg	%rbp
	.cfi_def_cfa_offset 16
	.cfi_offset 6, -16
	pushq	%rbx
	.seh_pushreg	%rbx
	.cfi_def_cfa_offset 24
	.cfi_offset 3, -24
	subq	$72, %rsp
	.seh_stackalloc	72
	.cfi_def_cfa_offset 96
	leaq	128(%rsp), %rbp
	.seh_setframe	%rbp, 128
	.cfi_def_cfa 6, -32
	.seh_endprologue
	movq	%rcx, -32(%rbp)
	movq	%rdx, %rbx
	movq	(%rbx), %rax
	movq	8(%rbx), %rdx
	movq	%rax, -80(%rbp)
	movq	%rdx, -72(%rbp)
	movq	%r8, -16(%rbp)
	.loc 14 291 52
	movl	$32, %ecx
	call	_Znwy
	movq	%rax, %rbx
	movq	-80(%rbp), %rax
	movq	-72(%rbp), %rdx
	movq	%rax, -96(%rbp)
	movq	%rdx, -88(%rbp)
	movq	-16(%rbp), %rdx
	leaq	-96(%rbp), %rax
	movq	%rdx, %r8
	movq	%rax, %rdx
	movq	%rbx, %rcx
	call	_ZN20wxObjectEventFunctorC1EM12wxEvtHandlerFvR7wxEventEPS0_
	movq	%rbx, %rax
	.loc 14 292 1
	addq	$72, %rsp
	popq	%rbx
	.cfi_restore 3
	popq	%rbp
	.cfi_restore 6
	.cfi_def_cfa 7, -56
	ret
	.cfi_endproc
.LFE8952:
	.seh_endproc
	.section	.text$_ZNK7wxEvent14GetEventObjectEv,"x"
	.linkonce discard
	.align 2
	.globl	_ZNK7wxEvent14GetEventObjectEv
	.def	_ZNK7wxEvent14GetEventObjectEv;	.scl	2;	.type	32;	.endef
	.seh_proc	_ZNK7wxEvent14GetEventObjectEv
_ZNK7wxEvent14GetEventObjectEv:
.LFB8994:
	.loc 14 954 15
	.cfi_startproc
	pushq	%rbp
	.seh_pushreg	%rbp
	.cfi_def_cfa_offset 16
	.cfi_offset 6, -16
	movq	%rsp, %rbp
	.seh_setframe	%rbp, 0
	.cfi_def_cfa_register 6
	.seh_endprologue
	movq	%rcx, 16(%rbp)
	.loc 14 954 47
	movq	16(%rbp), %rax
	movq	16(%rax), %rax
	.loc 14 954 62
	popq	%rbp
	.cfi_restore 6
	.cfi_def_cfa 7, 8
	ret
	.cfi_endproc
.LFE8994:
	.seh_endproc
	.section	.text$_ZN7wxEvent4SkipEb,"x"
	.linkonce discard
	.align 2
	.globl	_ZN7wxEvent4SkipEb
	.def	_ZN7wxEvent4SkipEb;	.scl	2;	.type	32;	.endef
	.seh_proc	_ZN7wxEvent4SkipEb
_ZN7wxEvent4SkipEb:
.LFB9001:
	.loc 14 971 10
	.cfi_startproc
	pushq	%rbp
	.seh_pushreg	%rbp
	.cfi_def_cfa_offset 16
	.cfi_offset 6, -16
	movq	%rsp, %rbp
	.seh_setframe	%rbp, 0
	.cfi_def_cfa_register 6
	.seh_endprologue
	movq	%rcx, 16(%rbp)
	movl	%edx, %eax
	movb	%al, 24(%rbp)
	.loc 14 971 45
	movq	16(%rbp), %rdx
	movzbl	24(%rbp), %eax
	movb	%al, 72(%rdx)
	.loc 14 971 53
	nop
	popq	%rbp
	.cfi_restore 6
	.cfi_def_cfa 7, 8
	ret
	.cfi_endproc
.LFE9001:
	.seh_endproc
	.section	.text$_ZNK17wxChildFocusEvent9GetWindowEv,"x"
	.linkonce discard
	.align 2
	.globl	_ZNK17wxChildFocusEvent9GetWindowEv
	.def	_ZNK17wxChildFocusEvent9GetWindowEv;	.scl	2;	.type	32;	.endef
	.seh_proc	_ZNK17wxChildFocusEvent9GetWindowEv
_ZNK17wxChildFocusEvent9GetWindowEv:
.LFB9279:
	.loc 14 2281 15
	.cfi_startproc
	pushq	%rbp
	.seh_pushreg	%rbp
	.cfi_def_cfa_offset 16
	.cfi_offset 6, -16
	movq	%rsp, %rbp
	.seh_setframe	%rbp, 0
	.cfi_def_cfa_register 6
	subq	$32, %rsp
	.seh_stackalloc	32
	.seh_endprologue
	movq	%rcx, 16(%rbp)
	.loc 14 2281 68
	movq	16(%rbp), %rax
	movq	%rax, %rcx
	call	_ZNK7wxEvent14GetEventObjectEv
	.loc 14 2281 72
	addq	$32, %rsp
	popq	%rbp
	.cfi_restore 6
	.cfi_def_cfa 7, 8
	ret
	.cfi_endproc
.LFE9279:
	.seh_endproc
	.section .rdata,"dr"
	.align 8
.LC1:
	.ascii "idLast == wxID_ANY || winid <= idLast\0"
	.align 8
.LC2:
	.ascii "..\\wxMSW-3.0.5_gcc810_x64_Dev\\include/wx/event.h\0"
	.align 8
.LC3:
	.ascii "invalid IDs range: lower bound > upper bound\0"
	.section	.text$_ZN21wxEventTableEntryBaseC2EiiP14wxEventFunctorP8wxObject,"x"
	.linkonce discard
	.align 2
	.globl	_ZN21wxEventTableEntryBaseC2EiiP14wxEventFunctorP8wxObject
	.def	_ZN21wxEventTableEntryBaseC2EiiP14wxEventFunctorP8wxObject;	.scl	2;	.type	32;	.endef
	.seh_proc	_ZN21wxEventTableEntryBaseC2EiiP14wxEventFunctorP8wxObject
_ZN21wxEventTableEntryBaseC2EiiP14wxEventFunctorP8wxObject:
.LFB9514:
	.loc 14 3170 5
	.cfi_startproc
	pushq	%rbp
	.seh_pushreg	%rbp
	.cfi_def_cfa_offset 16
	.cfi_offset 6, -16
	movq	%rsp, %rbp
	.seh_setframe	%rbp, 0
	.cfi_def_cfa_register 6
	subq	$48, %rsp
	.seh_stackalloc	48
	.seh_endprologue
	movq	%rcx, 16(%rbp)
	movl	%edx, 24(%rbp)
	movl	%r8d, 32(%rbp)
	movq	%r9, 40(%rbp)
.LBB38:
	.loc 14 3175 34
	movq	16(%rbp), %rax
	movl	24(%rbp), %edx
	movl	%edx, (%rax)
	movq	16(%rbp), %rax
	movl	32(%rbp), %edx
	movl	%edx, 4(%rax)
	movq	16(%rbp), %rax
	movq	40(%rbp), %rdx
	movq	%rdx, 8(%rax)
	movq	16(%rbp), %rax
	movq	48(%rbp), %rdx
	movq	%rdx, 16(%rax)
	.loc 14 3177 80
	movq	.refptr.wxTheAssertHandler(%rip), %rax
	movq	(%rax), %rax
	.loc 14 3177 82
	testq	%rax, %rax
	je	.L102
	.loc 14 3177 38 discriminator 1
	cmpl	$-1, 32(%rbp)
	je	.L102
	.loc 14 3177 41 discriminator 3
	movl	24(%rbp), %eax
	cmpl	32(%rbp), %eax
	jle	.L102
	.loc 14 3177 96 discriminator 5
	leaq	.LC3(%rip), %rax
	movq	%rax, 32(%rsp)
	leaq	.LC1(%rip), %r9
	leaq	_ZZN21wxEventTableEntryBaseC4EiiP14wxEventFunctorP8wxObjectE12__FUNCTION__(%rip), %r8
	movl	$3178, %edx
	leaq	.LC2(%rip), %rcx
	call	_Z10wxOnAssertPKciS0_S0_S0_
	.loc 14 3177 82 discriminator 5
	movq	.refptr.wxTrapInAssert(%rip), %rax
	movzbl	(%rax), %eax
	testb	%al, %al
	je	.L102
	.loc 14 3177 82 is_stmt 0 discriminator 7
	movl	$1, %eax
	jmp	.L103
.L102:
	.loc 14 3177 82 discriminator 8
	movl	$0, %eax
.L103:
	.loc 14 3177 14 is_stmt 1 discriminator 10
	testb	%al, %al
	je	.L105
	.loc 14 3177 150 discriminator 11
	movq	.refptr.wxTrapInAssert(%rip), %rax
	movb	$0, (%rax)
	.loc 14 3177 165 discriminator 11
	call	_Z6wxTrapv
.L105:
.LBE38:
	.loc 14 3179 5
	nop
	addq	$48, %rsp
	popq	%rbp
	.cfi_restore 6
	.cfi_def_cfa 7, 8
	ret
	.cfi_endproc
.LFE9514:
	.seh_endproc
	.section	.text$_ZN21wxEventTableEntryBaseD2Ev,"x"
	.linkonce discard
	.align 2
	.globl	_ZN21wxEventTableEntryBaseD2Ev
	.def	_ZN21wxEventTableEntryBaseD2Ev;	.scl	2;	.type	32;	.endef
	.seh_proc	_ZN21wxEventTableEntryBaseD2Ev
_ZN21wxEventTableEntryBaseD2Ev:
.LFB9520:
	.loc 14 3196 5
	.cfi_startproc
	pushq	%rbp
	.seh_pushreg	%rbp
	.cfi_def_cfa_offset 16
	.cfi_offset 6, -16
	movq	%rsp, %rbp
	.seh_setframe	%rbp, 0
	.cfi_def_cfa_register 6
	subq	$32, %rsp
	.seh_stackalloc	32
	.seh_endprologue
	movq	%rcx, 16(%rbp)
.LBB39:
	.loc 14 3198 16
	movq	16(%rbp), %rax
	movq	8(%rax), %rax
	.loc 14 3198 20
	testq	%rax, %rax
	je	.L108
	.loc 14 3198 16 discriminator 1
	movq	16(%rbp), %rax
	movq	8(%rax), %rdx
	movq	16(%rbp), %rax
	movq	8(%rax), %rax
	movq	(%rax), %rax
	addq	$8, %rax
	movq	(%rax), %rax
	movq	%rdx, %rcx
	call	*%rax
.LVL1:
.L108:
.LBE39:
	.loc 14 3199 5
	nop
	addq	$32, %rsp
	popq	%rbp
	.cfi_restore 6
	.cfi_def_cfa 7, 8
	ret
	.cfi_endproc
.LFE9520:
	.seh_endproc
	.section	.text$_ZN17wxEventTableEntryC1ERKiiiP14wxEventFunctorP8wxObject,"x"
	.linkonce discard
	.align 2
	.globl	_ZN17wxEventTableEntryC1ERKiiiP14wxEventFunctorP8wxObject
	.def	_ZN17wxEventTableEntryC1ERKiiiP14wxEventFunctorP8wxObject;	.scl	2;	.type	32;	.endef
	.seh_proc	_ZN17wxEventTableEntryC1ERKiiiP14wxEventFunctorP8wxObject
_ZN17wxEventTableEntryC1ERKiiiP14wxEventFunctorP8wxObject:
.LFB9524:
	.loc 14 3219 5
	.cfi_startproc
	pushq	%rbp
	.seh_pushreg	%rbp
	.cfi_def_cfa_offset 16
	.cfi_offset 6, -16
	movq	%rsp, %rbp
	.seh_setframe	%rbp, 0
	.cfi_def_cfa_register 6
	subq	$48, %rsp
	.seh_stackalloc	48
	.seh_endprologue
	movq	%rcx, 16(%rbp)
	movq	%rdx, 24(%rbp)
	movl	%r8d, 32(%rbp)
	movl	%r9d, 40(%rbp)
.LBB40:
	.loc 14 3222 27
	movq	16(%rbp), %rax
	movq	48(%rbp), %r9
	movl	40(%rbp), %r8d
	movl	32(%rbp), %edx
	movq	56(%rbp), %rcx
	movq	%rcx, 32(%rsp)
	movq	%rax, %rcx
	call	_ZN21wxEventTableEntryBaseC2EiiP14wxEventFunctorP8wxObject
	movq	16(%rbp), %rax
	movq	24(%rbp), %rdx
	movq	%rdx, 24(%rax)
.LBE40:
	.loc 14 3223 7
	nop
	addq	$48, %rsp
	popq	%rbp
	.cfi_restore 6
	.cfi_def_cfa 7, 8
	ret
	.cfi_endproc
.LFE9524:
	.seh_endproc
	.section	.text$_ZN12wxEvtHandler15AddPendingEventERK7wxEvent,"x"
	.linkonce discard
	.align 2
	.globl	_ZN12wxEvtHandler15AddPendingEventERK7wxEvent
	.def	_ZN12wxEvtHandler15AddPendingEventERK7wxEvent;	.scl	2;	.type	32;	.endef
	.seh_proc	_ZN12wxEvtHandler15AddPendingEventERK7wxEvent
_ZN12wxEvtHandler15AddPendingEventERK7wxEvent:
.LFB9624:
	.loc 14 3408 18
	.cfi_startproc
	pushq	%rbp
	.seh_pushreg	%rbp
	.cfi_def_cfa_offset 16
	.cfi_offset 6, -16
	pushq	%rbx
	.seh_pushreg	%rbx
	.cfi_def_cfa_offset 24
	.cfi_offset 3, -24
	subq	$40, %rsp
	.seh_stackalloc	40
	.cfi_def_cfa_offset 64
	leaq	128(%rsp), %rbp
	.seh_setframe	%rbp, 128
	.cfi_def_cfa 6, -64
	.seh_endprologue
	movq	%rcx, -64(%rbp)
	movq	%rdx, -56(%rbp)
	.loc 14 3416 33
	movq	-64(%rbp), %rax
	movq	(%rax), %rax
	addq	$64, %rax
	movq	(%rax), %rbx
	.loc 14 3416 32
	movq	-56(%rbp), %rax
	movq	(%rax), %rax
	addq	$40, %rax
	movq	(%rax), %rax
	.loc 14 3416 19
	movq	-56(%rbp), %rdx
	movq	%rdx, %rcx
	call	*%rax
.LVL2:
	movq	%rax, %rdx
	movq	-64(%rbp), %rcx
	call	*%rbx
.LVL3:
	.loc 14 3417 5
	nop
	addq	$40, %rsp
	popq	%rbx
	.cfi_restore 3
	popq	%rbp
	.cfi_restore 6
	.cfi_def_cfa 7, -24
	ret
	.cfi_endproc
.LFE9624:
	.seh_endproc
	.section	.text$_ZN12wxEvtHandler7ConnectEiiiMS_FvR7wxEventEP8wxObjectPS_,"x"
	.linkonce discard
	.align 2
	.globl	_ZN12wxEvtHandler7ConnectEiiiMS_FvR7wxEventEP8wxObjectPS_
	.def	_ZN12wxEvtHandler7ConnectEiiiMS_FvR7wxEventEP8wxObjectPS_;	.scl	2;	.type	32;	.endef
	.seh_proc	_ZN12wxEvtHandler7ConnectEiiiMS_FvR7wxEventEP8wxObjectPS_
_ZN12wxEvtHandler7ConnectEiiiMS_FvR7wxEventEP8wxObjectPS_:
.LFB9629:
	.loc 14 3490 10
	.cfi_startproc
	pushq	%rbp
	.seh_pushreg	%rbp
	.cfi_def_cfa_offset 16
	.cfi_offset 6, -16
	pushq	%rbx
	.seh_pushreg	%rbx
	.cfi_def_cfa_offset 24
	.cfi_offset 3, -24
	subq	$88, %rsp
	.seh_stackalloc	88
	.cfi_def_cfa_offset 112
	leaq	128(%rsp), %rbp
	.seh_setframe	%rbp, 128
	.cfi_def_cfa 6, -16
	.seh_endprologue
	movq	%rcx, -16(%rbp)
	movl	%edx, -8(%rbp)
	movl	%r8d, 0(%rbp)
	movl	%r9d, 8(%rbp)
	movq	16(%rbp), %rbx
	movq	(%rbx), %rax
	movq	8(%rbx), %rdx
	movq	%rax, -64(%rbp)
	movq	%rdx, -56(%rbp)
	.loc 14 3498 36
	movq	-64(%rbp), %rax
	movq	-56(%rbp), %rdx
	movq	%rax, -80(%rbp)
	movq	%rdx, -72(%rbp)
	movq	32(%rbp), %rcx
	leaq	-80(%rbp), %rdx
	leaq	8(%rbp), %rax
	movq	%rcx, %r8
	movq	%rax, %rcx
	call	_Z17wxNewEventFunctorRKiM12wxEvtHandlerFvR7wxEventEPS1_
	movq	%rax, %r9
	.loc 14 3497 15
	movl	8(%rbp), %r8d
	movl	0(%rbp), %ecx
	movl	-8(%rbp), %eax
	movq	24(%rbp), %rdx
	movq	%rdx, 40(%rsp)
	movq	%r9, 32(%rsp)
	movl	%r8d, %r9d
	movl	%ecx, %r8d
	movl	%eax, %edx
	movq	-16(%rbp), %rcx
	call	_ZN12wxEvtHandler6DoBindEiiiP14wxEventFunctorP8wxObject
	.loc 14 3500 5
	nop
	addq	$88, %rsp
	popq	%rbx
	.cfi_restore 3
	popq	%rbp
	.cfi_restore 6
	.cfi_def_cfa 7, -72
	ret
	.cfi_endproc
.LFE9629:
	.seh_endproc
	.section	.text$_ZN12wxEvtHandler7ConnectEiiMS_FvR7wxEventEP8wxObjectPS_,"x"
	.linkonce discard
	.align 2
	.globl	_ZN12wxEvtHandler7ConnectEiiMS_FvR7wxEventEP8wxObjectPS_
	.def	_ZN12wxEvtHandler7ConnectEiiMS_FvR7wxEventEP8wxObjectPS_;	.scl	2;	.type	32;	.endef
	.seh_proc	_ZN12wxEvtHandler7ConnectEiiMS_FvR7wxEventEP8wxObjectPS_
_ZN12wxEvtHandler7ConnectEiiMS_FvR7wxEventEP8wxObjectPS_:
.LFB9630:
	.loc 14 3503 10
	.cfi_startproc
	pushq	%rbp
	.seh_pushreg	%rbp
	.cfi_def_cfa_offset 16
	.cfi_offset 6, -16
	pushq	%rbx
	.seh_pushreg	%rbx
	.cfi_def_cfa_offset 24
	.cfi_offset 3, -24
	subq	$104, %rsp
	.seh_stackalloc	104
	.cfi_def_cfa_offset 128
	leaq	128(%rsp), %rbp
	.seh_setframe	%rbp, 128
	.cfi_def_cfa 6, 0
	.seh_endprologue
	movq	%rcx, 0(%rbp)
	movl	%edx, 8(%rbp)
	movl	%r8d, 16(%rbp)
	movq	%r9, %rbx
	movq	(%rbx), %rax
	movq	8(%rbx), %rdx
	movq	%rax, -48(%rbp)
	movq	%rdx, -40(%rbp)
	.loc 14 3508 18
	movq	-48(%rbp), %rax
	movq	-40(%rbp), %rdx
	movq	%rax, -64(%rbp)
	movq	%rdx, -56(%rbp)
	movl	16(%rbp), %ecx
	movl	8(%rbp), %edx
	movq	40(%rbp), %rax
	movq	%rax, 48(%rsp)
	movq	32(%rbp), %rax
	movq	%rax, 40(%rsp)
	leaq	-64(%rbp), %rax
	movq	%rax, 32(%rsp)
	movl	%ecx, %r9d
	movl	$-1, %r8d
	movq	0(%rbp), %rcx
	call	_ZN12wxEvtHandler7ConnectEiiiMS_FvR7wxEventEP8wxObjectPS_
	.loc 14 3508 75
	nop
	addq	$104, %rsp
	popq	%rbx
	.cfi_restore 3
	popq	%rbp
	.cfi_restore 6
	.cfi_def_cfa 7, -88
	ret
	.cfi_endproc
.LFE9630:
	.seh_endproc
	.section	.text$_ZN12wxEvtHandler7ConnectEiMS_FvR7wxEventEP8wxObjectPS_,"x"
	.linkonce discard
	.align 2
	.globl	_ZN12wxEvtHandler7ConnectEiMS_FvR7wxEventEP8wxObjectPS_
	.def	_ZN12wxEvtHandler7ConnectEiMS_FvR7wxEventEP8wxObjectPS_;	.scl	2;	.type	32;	.endef
	.seh_proc	_ZN12wxEvtHandler7ConnectEiMS_FvR7wxEventEP8wxObjectPS_
_ZN12wxEvtHandler7ConnectEiMS_FvR7wxEventEP8wxObjectPS_:
.LFB9631:
	.loc 14 3511 10
	.cfi_startproc
	pushq	%rbp
	.seh_pushreg	%rbp
	.cfi_def_cfa_offset 16
	.cfi_offset 6, -16
	pushq	%rbx
	.seh_pushreg	%rbx
	.cfi_def_cfa_offset 24
	.cfi_offset 3, -24
	subq	$104, %rsp
	.seh_stackalloc	104
	.cfi_def_cfa_offset 128
	leaq	128(%rsp), %rbp
	.seh_setframe	%rbp, 128
	.cfi_def_cfa 6, 0
	.seh_endprologue
	movq	%rcx, 0(%rbp)
	movl	%edx, 8(%rbp)
	movq	%r8, %rbx
	movq	(%rbx), %rax
	movq	8(%rbx), %rdx
	movq	%rax, -48(%rbp)
	movq	%rdx, -40(%rbp)
	movq	%r9, 24(%rbp)
	.loc 14 3515 18
	movq	-48(%rbp), %rax
	movq	-40(%rbp), %rdx
	movq	%rax, -64(%rbp)
	movq	%rdx, -56(%rbp)
	movl	8(%rbp), %edx
	movq	32(%rbp), %rax
	movq	%rax, 48(%rsp)
	movq	24(%rbp), %rax
	movq	%rax, 40(%rsp)
	leaq	-64(%rbp), %rax
	movq	%rax, 32(%rsp)
	movl	%edx, %r9d
	movl	$-1, %r8d
	movl	$-1, %edx
	movq	0(%rbp), %rcx
	call	_ZN12wxEvtHandler7ConnectEiiiMS_FvR7wxEventEP8wxObjectPS_
	.loc 14 3515 78
	nop
	addq	$104, %rsp
	popq	%rbx
	.cfi_restore 3
	popq	%rbp
	.cfi_restore 6
	.cfi_def_cfa 7, -88
	ret
	.cfi_endproc
.LFE9631:
	.seh_endproc
	.section	.text$_ZN12wxEvtHandler12TryValidatorER7wxEvent,"x"
	.linkonce discard
	.align 2
	.globl	_ZN12wxEvtHandler12TryValidatorER7wxEvent
	.def	_ZN12wxEvtHandler12TryValidatorER7wxEvent;	.scl	2;	.type	32;	.endef
	.seh_proc	_ZN12wxEvtHandler12TryValidatorER7wxEvent
_ZN12wxEvtHandler12TryValidatorER7wxEvent:
.LFB9648:
	.loc 14 3703 46
	.cfi_startproc
	pushq	%rbp
	.seh_pushreg	%rbp
	.cfi_def_cfa_offset 16
	.cfi_offset 6, -16
	movq	%rsp, %rbp
	.seh_setframe	%rbp, 0
	.cfi_def_cfa_register 6
	.seh_endprologue
	movq	%rcx, 16(%rbp)
	movq	%rdx, 24(%rbp)
	.loc 14 3703 79
	movl	$0, %eax
	.loc 14 3703 86
	popq	%rbp
	.cfi_restore 6
	.cfi_def_cfa 7, 8
	ret
	.cfi_endproc
.LFE9648:
	.seh_endproc
	.section	.text$_ZN12wxEvtHandler9TryParentER7wxEvent,"x"
	.linkonce discard
	.align 2
	.globl	_ZN12wxEvtHandler9TryParentER7wxEvent
	.def	_ZN12wxEvtHandler9TryParentER7wxEvent;	.scl	2;	.type	32;	.endef
	.seh_proc	_ZN12wxEvtHandler9TryParentER7wxEvent
_ZN12wxEvtHandler9TryParentER7wxEvent:
.LFB9649:
	.loc 14 3706 46
	.cfi_startproc
	pushq	%rbp
	.seh_pushreg	%rbp
	.cfi_def_cfa_offset 16
	.cfi_offset 6, -16
	movq	%rsp, %rbp
	.seh_setframe	%rbp, 0
	.cfi_def_cfa_register 6
	subq	$32, %rsp
	.seh_stackalloc	32
	.seh_endprologue
	movq	%rcx, 16(%rbp)
	movq	%rdx, 24(%rbp)
	.loc 14 3706 89
	movq	24(%rbp), %rax
	movq	%rax, %rdx
	movq	16(%rbp), %rcx
	call	_ZN12wxEvtHandler8DoTryAppER7wxEvent
	.loc 14 3706 98
	addq	$32, %rsp
	popq	%rbp
	.cfi_restore 6
	.cfi_def_cfa 7, 8
	ret
	.cfi_endproc
.LFE9649:
	.seh_endproc
	.section	.text$_ZN20wxObjectEventFunctorclEP12wxEvtHandlerR7wxEvent,"x"
	.linkonce discard
	.align 2
	.globl	_ZN20wxObjectEventFunctorclEP12wxEvtHandlerR7wxEvent
	.def	_ZN20wxObjectEventFunctorclEP12wxEvtHandlerR7wxEvent;	.scl	2;	.type	32;	.endef
	.seh_proc	_ZN20wxObjectEventFunctorclEP12wxEvtHandlerR7wxEvent
_ZN20wxObjectEventFunctorclEP12wxEvtHandlerR7wxEvent:
.LFB9740:
	.loc 14 3775 1
	.cfi_startproc
	pushq	%rbp
	.seh_pushreg	%rbp
	.cfi_def_cfa_offset 16
	.cfi_offset 6, -16
	movq	%rsp, %rbp
	.seh_setframe	%rbp, 0
	.cfi_def_cfa_register 6
	subq	$48, %rsp
	.seh_stackalloc	48
	.seh_endprologue
	movq	%rcx, 16(%rbp)
	movq	%rdx, 24(%rbp)
	movq	%r8, 32(%rbp)
	.loc 14 3776 40
	movq	16(%rbp), %rax
	movq	8(%rax), %rax
	.loc 14 3776 50
	testq	%rax, %rax
	je	.L119
	.loc 14 3776 50 is_stmt 0 discriminator 1
	movq	16(%rbp), %rax
	movq	8(%rax), %rax
	jmp	.L120
.L119:
	.loc 14 3776 50 discriminator 2
	movq	24(%rbp), %rax
.L120:
	.loc 14 3776 26 is_stmt 1 discriminator 4
	movq	%rax, -8(%rbp)
	.loc 14 3778 35 discriminator 4
	movq	16(%rbp), %rax
	movq	24(%rax), %rax
	.loc 14 3778 29 discriminator 4
	movq	%rax, %rdx
	movq	-8(%rbp), %rax
	leaq	(%rdx,%rax), %rcx
	.loc 14 3778 35 discriminator 4
	movq	16(%rbp), %rax
	movq	16(%rax), %rax
	andl	$1, %eax
	testq	%rax, %rax
	je	.L121
	.loc 14 3778 35 is_stmt 0 discriminator 1
	movq	16(%rbp), %rax
	movq	24(%rax), %rax
	movq	%rax, %rdx
	movq	-8(%rbp), %rax
	addq	%rdx, %rax
	movq	(%rax), %rdx
	movq	16(%rbp), %rax
	movq	16(%rax), %rax
	subq	$1, %rax
	addq	%rdx, %rax
	movq	(%rax), %rax
	jmp	.L122
.L121:
	.loc 14 3778 35 discriminator 2
	movq	16(%rbp), %rax
	movq	16(%rax), %rax
.L122:
	.loc 14 3778 29 is_stmt 1 discriminator 4
	movq	32(%rbp), %rdx
	call	*%rax
.LVL4:
	.loc 14 3779 1 discriminator 4
	nop
	addq	$48, %rsp
	popq	%rbp
	.cfi_restore 6
	.cfi_def_cfa 7, 8
	ret
	.cfi_endproc
.LFE9740:
	.seh_endproc
	.section	.text$_ZN10wxFontBaseC2Ev,"x"
	.linkonce discard
	.align 2
	.globl	_ZN10wxFontBaseC2Ev
	.def	_ZN10wxFontBaseC2Ev;	.scl	2;	.type	32;	.endef
	.seh_proc	_ZN10wxFontBaseC2Ev
_ZN10wxFontBaseC2Ev:
.LFB9804:
	.file 15 "../wxMSW-3.0.5_gcc810_x64_Dev/include/wx/font.h"
	.loc 15 258 7
	.cfi_startproc
	pushq	%rbp
	.seh_pushreg	%rbp
	.cfi_def_cfa_offset 16
	.cfi_offset 6, -16
	movq	%rsp, %rbp
	.seh_setframe	%rbp, 0
	.cfi_def_cfa_register 6
	subq	$32, %rsp
	.seh_stackalloc	32
	.seh_endprologue
	movq	%rcx, 16(%rbp)
.LBB41:
	.loc 15 258 7
	movq	16(%rbp), %rax
	movq	%rax, %rcx
	call	_ZN11wxGDIObjectC2Ev
	movq	.refptr._ZTV10wxFontBase(%rip), %rax
	leaq	16(%rax), %rdx
	movq	16(%rbp), %rax
	movq	%rdx, (%rax)
.LBE41:
	nop
	addq	$32, %rsp
	popq	%rbp
	.cfi_restore 6
	.cfi_def_cfa 7, 8
	ret
	.cfi_endproc
.LFE9804:
	.seh_endproc
	.section	.text$_ZN6wxFontC1Ei12wxFontFamily11wxFontStyle12wxFontWeightbRK8wxString14wxFontEncoding,"x"
	.linkonce discard
	.align 2
	.globl	_ZN6wxFontC1Ei12wxFontFamily11wxFontStyle12wxFontWeightbRK8wxString14wxFontEncoding
	.def	_ZN6wxFontC1Ei12wxFontFamily11wxFontStyle12wxFontWeightbRK8wxString14wxFontEncoding;	.scl	2;	.type	32;	.endef
	.seh_proc	_ZN6wxFontC1Ei12wxFontFamily11wxFontStyle12wxFontWeightbRK8wxString14wxFontEncoding
_ZN6wxFontC1Ei12wxFontFamily11wxFontStyle12wxFontWeightbRK8wxString14wxFontEncoding:
.LFB9813:
	.file 16 "../wxMSW-3.0.5_gcc810_x64_Dev/include/wx/msw/font.h"
	.loc 16 41 5
	.cfi_startproc
	pushq	%rbp
	.seh_pushreg	%rbp
	.cfi_def_cfa_offset 16
	.cfi_offset 6, -16
	pushq	%rbx
	.seh_pushreg	%rbx
	.cfi_def_cfa_offset 24
	.cfi_offset 3, -24
	subq	$88, %rsp
	.seh_stackalloc	88
	.cfi_def_cfa_offset 112
	leaq	128(%rsp), %rbp
	.seh_setframe	%rbp, 128
	.cfi_def_cfa 6, -16
	.seh_endprologue
	movq	%rcx, -16(%rbp)
	movl	%edx, -8(%rbp)
	movl	%r8d, 0(%rbp)
	movl	%r9d, 8(%rbp)
	movl	24(%rbp), %eax
	movb	%al, -52(%rbp)
.LBB42:
	.loc 16 48 5
	movq	-16(%rbp), %rax
	movq	%rax, %rcx
	call	_ZN10wxFontBaseC2Ev
	movq	.refptr._ZTV6wxFont(%rip), %rax
	leaq	16(%rax), %rdx
	movq	-16(%rbp), %rax
	movq	%rdx, (%rax)
	.loc 16 49 15
	movzbl	-52(%rbp), %eax
	movl	8(%rbp), %r9d
	movl	0(%rbp), %r8d
	movl	-8(%rbp), %edx
	movl	40(%rbp), %ecx
	movl	%ecx, 56(%rsp)
	movq	32(%rbp), %rcx
	movq	%rcx, 48(%rsp)
	movl	%eax, 40(%rsp)
	movl	16(%rbp), %eax
	movl	%eax, 32(%rsp)
	movq	-16(%rbp), %rcx
.LEHB13:
	call	_ZN6wxFont6CreateEi12wxFontFamily11wxFontStyle12wxFontWeightbRK8wxString14wxFontEncoding
.LEHE13:
.LBE42:
	.loc 16 50 5
	jmp	.L127
.L126:
	movq	%rax, %rbx
.LBB43:
	.loc 16 48 5
	movq	-16(%rbp), %rax
	movq	%rax, %rcx
	call	_ZN10wxFontBaseD2Ev
	movq	%rbx, %rax
	movq	%rax, %rcx
.LEHB14:
	call	_Unwind_Resume
	nop
.LEHE14:
.L127:
.LBE43:
	.loc 16 50 5
	addq	$88, %rsp
	popq	%rbx
	.cfi_restore 3
	popq	%rbp
	.cfi_restore 6
	.cfi_def_cfa 7, -72
	ret
	.cfi_endproc
.LFE9813:
	.seh_handler	__gxx_personality_seh0, @unwind, @except
	.seh_handlerdata
.LLSDA9813:
	.byte	0xff
	.byte	0xff
	.byte	0x1
	.uleb128 .LLSDACSE9813-.LLSDACSB9813
.LLSDACSB9813:
	.uleb128 .LEHB13-.LFB9813
	.uleb128 .LEHE13-.LEHB13
	.uleb128 .L126-.LFB9813
	.uleb128 0
	.uleb128 .LEHB14-.LFB9813
	.uleb128 .LEHE14-.LEHB14
	.uleb128 0
	.uleb128 0
.LLSDACSE9813:
	.section	.text$_ZN6wxFontC1Ei12wxFontFamily11wxFontStyle12wxFontWeightbRK8wxString14wxFontEncoding,"x"
	.linkonce discard
	.seh_endproc
	.section	.text$_ZN6wxFont6CreateEi12wxFontFamily11wxFontStyle12wxFontWeightbRK8wxString14wxFontEncoding,"x"
	.linkonce discard
	.align 2
	.globl	_ZN6wxFont6CreateEi12wxFontFamily11wxFontStyle12wxFontWeightbRK8wxString14wxFontEncoding
	.def	_ZN6wxFont6CreateEi12wxFontFamily11wxFontStyle12wxFontWeightbRK8wxString14wxFontEncoding;	.scl	2;	.type	32;	.endef
	.seh_proc	_ZN6wxFont6CreateEi12wxFontFamily11wxFontStyle12wxFontWeightbRK8wxString14wxFontEncoding
_ZN6wxFont6CreateEi12wxFontFamily11wxFontStyle12wxFontWeightbRK8wxString14wxFontEncoding:
.LFB9814:
	.loc 16 52 10
	.cfi_startproc
	pushq	%rbp
	.seh_pushreg	%rbp
	.cfi_def_cfa_offset 16
	.cfi_offset 6, -16
	movq	%rsp, %rbp
	.seh_setframe	%rbp, 0
	.cfi_def_cfa_register 6
	subq	$96, %rsp
	.seh_stackalloc	96
	.seh_endprologue
	movq	%rcx, 16(%rbp)
	movl	%edx, 24(%rbp)
	movl	%r8d, 32(%rbp)
	movl	%r9d, 40(%rbp)
	movl	56(%rbp), %eax
	movb	%al, -4(%rbp)
	.loc 16 60 24
	movzbl	-4(%rbp), %eax
	movl	24(%rbp), %edx
	movl	72(%rbp), %ecx
	movl	%ecx, 72(%rsp)
	movq	64(%rbp), %rcx
	movq	%rcx, 64(%rsp)
	movl	%eax, 56(%rsp)
	movl	48(%rbp), %eax
	movl	%eax, 48(%rsp)
	movl	40(%rbp), %eax
	movl	%eax, 40(%rsp)
	movl	32(%rbp), %eax
	movl	%eax, 32(%rsp)
	movl	$0, %r9d
	movq	.refptr.wxDefaultSize(%rip), %r8
	movq	16(%rbp), %rcx
	call	_ZN6wxFont8DoCreateEiRK6wxSizeb12wxFontFamily11wxFontStyle12wxFontWeightbRK8wxString14wxFontEncoding
	.loc 16 62 5
	addq	$96, %rsp
	popq	%rbp
	.cfi_restore 6
	.cfi_def_cfa 7, 8
	ret
	.cfi_endproc
.LFE9814:
	.seh_endproc
	.section	.text$_Z16wxGetTranslationRK8wxStringS1_,"x"
	.linkonce discard
	.globl	_Z16wxGetTranslationRK8wxStringS1_
	.def	_Z16wxGetTranslationRK8wxStringS1_;	.scl	2;	.type	32;	.endef
	.seh_proc	_Z16wxGetTranslationRK8wxStringS1_
_Z16wxGetTranslationRK8wxStringS1_:
.LFB9939:
	.file 17 "../wxMSW-3.0.5_gcc810_x64_Dev/include/wx/translation.h"
	.loc 17 245 1
	.cfi_startproc
	pushq	%rbp
	.seh_pushreg	%rbp
	.cfi_def_cfa_offset 16
	.cfi_offset 6, -16
	movq	%rsp, %rbp
	.seh_setframe	%rbp, 0
	.cfi_def_cfa_register 6
	subq	$48, %rsp
	.seh_stackalloc	48
	.seh_endprologue
	movq	%rcx, 16(%rbp)
	movq	%rdx, 24(%rbp)
	.loc 17 246 48
	call	_ZN14wxTranslations3GetEv
	movq	%rax, -8(%rbp)
	.loc 17 247 38
	cmpq	$0, -8(%rbp)
	je	.L131
	.loc 17 247 66 discriminator 1
	movq	24(%rbp), %rdx
	movq	-8(%rbp), %rax
	movq	%rdx, %r8
	movq	16(%rbp), %rdx
	movq	%rax, %rcx
	call	_ZNK14wxTranslations19GetTranslatedStringERK8wxStringS2_
	jmp	.L132
.L131:
	.loc 17 247 38 discriminator 2
	movl	$0, %eax
.L132:
	.loc 17 248 39
	movq	%rax, -16(%rbp)
	.loc 17 249 5
	cmpq	$0, -16(%rbp)
	je	.L133
	.loc 17 250 17
	movq	-16(%rbp), %rax
	jmp	.L134
.L133:
	.loc 17 254 57
	movq	16(%rbp), %rcx
	call	_ZN14wxTranslations21GetUntranslatedStringERK8wxString
.L134:
	.loc 17 255 1
	addq	$48, %rsp
	popq	%rbp
	.cfi_restore 6
	.cfi_def_cfa 7, 8
	ret
	.cfi_endproc
.LFE9939:
	.seh_endproc
	.section	.text$_ZN12wxWindowBase7SetNameERK8wxString,"x"
	.linkonce discard
	.align 2
	.globl	_ZN12wxWindowBase7SetNameERK8wxString
	.def	_ZN12wxWindowBase7SetNameERK8wxString;	.scl	2;	.type	32;	.endef
	.seh_proc	_ZN12wxWindowBase7SetNameERK8wxString
_ZN12wxWindowBase7SetNameERK8wxString:
.LFB10133:
	.file 18 "../wxMSW-3.0.5_gcc810_x64_Dev/include/wx/window.h"
	.loc 18 215 18
	.cfi_startproc
	pushq	%rbp
	.seh_pushreg	%rbp
	.cfi_def_cfa_offset 16
	.cfi_offset 6, -16
	movq	%rsp, %rbp
	.seh_setframe	%rbp, 0
	.cfi_def_cfa_register 6
	subq	$32, %rsp
	.seh_stackalloc	32
	.seh_endprologue
	movq	%rcx, 16(%rbp)
	movq	%rdx, 24(%rbp)
	.loc 18 215 67
	movq	16(%rbp), %rax
	addq	$408, %rax
	movq	24(%rbp), %rdx
	movq	%rax, %rcx
	call	_ZN8wxStringaSERKS_
	.loc 18 215 73
	nop
	addq	$32, %rsp
	popq	%rbp
	.cfi_restore 6
	.cfi_def_cfa 7, 8
	ret
	.cfi_endproc
.LFE10133:
	.seh_endproc
	.section	.text$_ZNK12wxWindowBase7GetNameEv,"x"
	.linkonce discard
	.align 2
	.globl	_ZNK12wxWindowBase7GetNameEv
	.def	_ZNK12wxWindowBase7GetNameEv;	.scl	2;	.type	32;	.endef
	.seh_proc	_ZNK12wxWindowBase7GetNameEv
_ZNK12wxWindowBase7GetNameEv:
.LFB10134:
	.loc 18 216 22
	.cfi_startproc
	pushq	%rbp
	.seh_pushreg	%rbp
	.cfi_def_cfa_offset 16
	.cfi_offset 6, -16
	movq	%rsp, %rbp
	.seh_setframe	%rbp, 0
	.cfi_def_cfa_register 6
	subq	$32, %rsp
	.seh_stackalloc	32
	.seh_endprologue
	movq	%rcx, 16(%rbp)
	movq	%rdx, 24(%rbp)
	.loc 18 216 47
	movq	24(%rbp), %rax
	addq	$408, %rax
	movq	%rax, %rdx
	movq	16(%rbp), %rcx
	call	_ZN8wxStringC1ERKS_
	.loc 18 216 61
	movq	16(%rbp), %rax
	addq	$32, %rsp
	popq	%rbp
	.cfi_restore 6
	.cfi_def_cfa 7, 8
	ret
	.cfi_endproc
.LFE10134:
	.seh_endproc
	.section	.text$_ZNK12wxWindowBase16GetWindowVariantEv,"x"
	.linkonce discard
	.align 2
	.globl	_ZNK12wxWindowBase16GetWindowVariantEv
	.def	_ZNK12wxWindowBase16GetWindowVariantEv;	.scl	2;	.type	32;	.endef
	.seh_proc	_ZNK12wxWindowBase16GetWindowVariantEv
_ZNK12wxWindowBase16GetWindowVariantEv:
.LFB10135:
	.loc 18 221 21
	.cfi_startproc
	pushq	%rbp
	.seh_pushreg	%rbp
	.cfi_def_cfa_offset 16
	.cfi_offset 6, -16
	movq	%rsp, %rbp
	.seh_setframe	%rbp, 0
	.cfi_def_cfa_register 6
	.seh_endprologue
	movq	%rcx, 16(%rbp)
	.loc 18 221 55
	movq	16(%rbp), %rax
	movl	504(%rax), %eax
	.loc 18 221 72
	popq	%rbp
	.cfi_restore 6
	.cfi_def_cfa 7, 8
	ret
	.cfi_endproc
.LFE10135:
	.seh_endproc
	.section	.text$_ZN12wxWindowBase13SetClientSizeERK6wxSize,"x"
	.linkonce discard
	.align 2
	.globl	_ZN12wxWindowBase13SetClientSizeERK6wxSize
	.def	_ZN12wxWindowBase13SetClientSizeERK6wxSize;	.scl	2;	.type	32;	.endef
	.seh_proc	_ZN12wxWindowBase13SetClientSizeERK6wxSize
_ZN12wxWindowBase13SetClientSizeERK6wxSize:
.LFB10150:
	.loc 18 293 10
	.cfi_startproc
	pushq	%rbp
	.seh_pushreg	%rbp
	.cfi_def_cfa_offset 16
	.cfi_offset 6, -16
	movq	%rsp, %rbp
	.seh_setframe	%rbp, 0
	.cfi_def_cfa_register 6
	subq	$32, %rsp
	.seh_stackalloc	32
	.seh_endprologue
	movq	%rcx, 16(%rbp)
	movq	%rdx, 24(%rbp)
	.loc 18 294 41
	movq	16(%rbp), %rax
	movq	(%rax), %rax
	addq	$1376, %rax
	movq	(%rax), %rax
	.loc 18 294 40
	movq	24(%rbp), %rdx
	movl	4(%rdx), %ecx
	.loc 18 294 32
	movq	24(%rbp), %rdx
	movl	(%rdx), %edx
	.loc 18 294 26
	movl	%ecx, %r8d
	movq	16(%rbp), %rcx
	call	*%rax
.LVL5:
	.loc 18 294 44
	nop
	addq	$32, %rsp
	popq	%rbp
	.cfi_restore 6
	.cfi_def_cfa 7, 8
	ret
	.cfi_endproc
.LFE10150:
	.seh_endproc
	.section	.text$_ZNK12wxWindowBase13GetClientSizeEv,"x"
	.linkonce discard
	.align 2
	.globl	_ZNK12wxWindowBase13GetClientSizeEv
	.def	_ZNK12wxWindowBase13GetClientSizeEv;	.scl	2;	.type	32;	.endef
	.seh_proc	_ZNK12wxWindowBase13GetClientSizeEv
_ZNK12wxWindowBase13GetClientSizeEv:
.LFB10159:
	.loc 18 332 12
	.cfi_startproc
	pushq	%rbp
	.seh_pushreg	%rbp
	.cfi_def_cfa_offset 16
	.cfi_offset 6, -16
	movq	%rsp, %rbp
	.seh_setframe	%rbp, 0
	.cfi_def_cfa_register 6
	subq	$48, %rsp
	.seh_stackalloc	48
	.seh_endprologue
	movq	%rcx, 16(%rbp)
	.loc 18 335 31
	movq	16(%rbp), %rax
	movq	(%rax), %rax
	addq	$1328, %rax
	movq	(%rax), %r9
	.loc 18 335 24
	leaq	-16(%rbp), %rdx
	leaq	-12(%rbp), %rax
	movq	%rdx, %r8
	movq	%rax, %rdx
	movq	16(%rbp), %rcx
	call	*%r9
.LVL6:
	.loc 18 337 16
	movl	-16(%rbp), %ecx
	movl	-12(%rbp), %edx
	leaq	-8(%rbp), %rax
	movl	%ecx, %r8d
	movq	%rax, %rcx
	call	_ZN6wxSizeC1Eii
	.loc 18 337 27
	movq	-8(%rbp), %rax
	.loc 18 338 5
	addq	$48, %rsp
	popq	%rbp
	.cfi_restore 6
	.cfi_def_cfa 7, 8
	ret
	.cfi_endproc
.LFE10159:
	.seh_endproc
	.section	.text$_ZN12wxWindowBase12SetSizeHintsEiiiiii,"x"
	.linkonce discard
	.align 2
	.globl	_ZN12wxWindowBase12SetSizeHintsEiiiiii
	.def	_ZN12wxWindowBase12SetSizeHintsEiiiiii;	.scl	2;	.type	32;	.endef
	.seh_proc	_ZN12wxWindowBase12SetSizeHintsEiiiiii
_ZN12wxWindowBase12SetSizeHintsEiiiiii:
.LFB10171:
	.loc 18 446 18
	.cfi_startproc
	pushq	%rbp
	.seh_pushreg	%rbp
	.cfi_def_cfa_offset 16
	.cfi_offset 6, -16
	movq	%rsp, %rbp
	.seh_setframe	%rbp, 0
	.cfi_def_cfa_register 6
	subq	$64, %rsp
	.seh_stackalloc	64
	.seh_endprologue
	movq	%rcx, 16(%rbp)
	movl	%edx, 24(%rbp)
	movl	%r8d, 32(%rbp)
	movl	%r9d, 40(%rbp)
	.loc 18 449 56
	movq	16(%rbp), %rax
	movq	(%rax), %rax
	addq	$1384, %rax
	movq	(%rax), %rax
	.loc 18 449 21
	movl	40(%rbp), %r9d
	movl	32(%rbp), %r8d
	movl	24(%rbp), %edx
	movl	64(%rbp), %ecx
	movl	%ecx, 48(%rsp)
	movl	56(%rbp), %ecx
	movl	%ecx, 40(%rsp)
	movl	48(%rbp), %ecx
	movl	%ecx, 32(%rsp)
	movq	16(%rbp), %rcx
	call	*%rax
.LVL7:
	.loc 18 449 59
	nop
	addq	$64, %rsp
	popq	%rbp
	.cfi_restore 6
	.cfi_def_cfa 7, 8
	ret
	.cfi_endproc
.LFE10171:
	.seh_endproc
	.section	.text$_ZN12wxWindowBase16SetMinClientSizeERK6wxSize,"x"
	.linkonce discard
	.align 2
	.globl	_ZN12wxWindowBase16SetMinClientSizeERK6wxSize
	.def	_ZN12wxWindowBase16SetMinClientSizeERK6wxSize;	.scl	2;	.type	32;	.endef
	.seh_proc	_ZN12wxWindowBase16SetMinClientSizeERK6wxSize
_ZN12wxWindowBase16SetMinClientSizeERK6wxSize:
.LFB10173:
	.loc 18 473 18
	.cfi_startproc
	pushq	%rbp
	.seh_pushreg	%rbp
	.cfi_def_cfa_offset 16
	.cfi_offset 6, -16
	pushq	%rbx
	.seh_pushreg	%rbx
	.cfi_def_cfa_offset 24
	.cfi_offset 3, -24
	subq	$56, %rsp
	.seh_stackalloc	56
	.cfi_def_cfa_offset 80
	leaq	128(%rsp), %rbp
	.seh_setframe	%rbp, 128
	.cfi_def_cfa 6, -48
	.seh_endprologue
	movq	%rcx, -48(%rbp)
	movq	%rdx, -40(%rbp)
	.loc 18 474 46
	movq	-48(%rbp), %rax
	movq	(%rax), %rax
	addq	$312, %rax
	movq	(%rax), %rbx
	.loc 18 474 45
	movq	-48(%rbp), %rax
	movq	(%rax), %rax
	addq	$256, %rax
	movq	(%rax), %rax
	movq	-40(%rbp), %rdx
	movq	-48(%rbp), %rcx
	call	*%rax
.LVL8:
	movq	%rax, -88(%rbp)
	.loc 18 474 21
	leaq	-88(%rbp), %rax
	movq	%rax, %rdx
	movq	-48(%rbp), %rcx
	call	*%rbx
.LVL9:
	.loc 18 474 49
	nop
	addq	$56, %rsp
	popq	%rbx
	.cfi_restore 3
	popq	%rbp
	.cfi_restore 6
	.cfi_def_cfa 7, -40
	ret
	.cfi_endproc
.LFE10173:
	.seh_endproc
	.section	.text$_ZN12wxWindowBase16SetMaxClientSizeERK6wxSize,"x"
	.linkonce discard
	.align 2
	.globl	_ZN12wxWindowBase16SetMaxClientSizeERK6wxSize
	.def	_ZN12wxWindowBase16SetMaxClientSizeERK6wxSize;	.scl	2;	.type	32;	.endef
	.seh_proc	_ZN12wxWindowBase16SetMaxClientSizeERK6wxSize
_ZN12wxWindowBase16SetMaxClientSizeERK6wxSize:
.LFB10174:
	.loc 18 475 18
	.cfi_startproc
	pushq	%rbp
	.seh_pushreg	%rbp
	.cfi_def_cfa_offset 16
	.cfi_offset 6, -16
	pushq	%rbx
	.seh_pushreg	%rbx
	.cfi_def_cfa_offset 24
	.cfi_offset 3, -24
	subq	$56, %rsp
	.seh_stackalloc	56
	.cfi_def_cfa_offset 80
	leaq	128(%rsp), %rbp
	.seh_setframe	%rbp, 128
	.cfi_def_cfa 6, -48
	.seh_endprologue
	movq	%rcx, -48(%rbp)
	movq	%rdx, -40(%rbp)
	.loc 18 476 46
	movq	-48(%rbp), %rax
	movq	(%rax), %rax
	addq	$320, %rax
	movq	(%rax), %rbx
	.loc 18 476 45
	movq	-48(%rbp), %rax
	movq	(%rax), %rax
	addq	$256, %rax
	movq	(%rax), %rax
	movq	-40(%rbp), %rdx
	movq	-48(%rbp), %rcx
	call	*%rax
.LVL10:
	movq	%rax, -88(%rbp)
	.loc 18 476 21
	leaq	-88(%rbp), %rax
	movq	%rax, %rdx
	movq	-48(%rbp), %rcx
	call	*%rbx
.LVL11:
	.loc 18 476 49
	nop
	addq	$56, %rsp
	popq	%rbx
	.cfi_restore 3
	popq	%rbp
	.cfi_restore 6
	.cfi_def_cfa 7, -40
	ret
	.cfi_endproc
.LFE10174:
	.seh_endproc
	.section	.text$_ZNK12wxWindowBase10GetMinSizeEv,"x"
	.linkonce discard
	.align 2
	.globl	_ZNK12wxWindowBase10GetMinSizeEv
	.def	_ZNK12wxWindowBase10GetMinSizeEv;	.scl	2;	.type	32;	.endef
	.seh_proc	_ZNK12wxWindowBase10GetMinSizeEv
_ZNK12wxWindowBase10GetMinSizeEv:
.LFB10175:
	.loc 18 481 20
	.cfi_startproc
	pushq	%rbp
	.seh_pushreg	%rbp
	.cfi_def_cfa_offset 16
	.cfi_offset 6, -16
	movq	%rsp, %rbp
	.seh_setframe	%rbp, 0
	.cfi_def_cfa_register 6
	subq	$48, %rsp
	.seh_stackalloc	48
	.seh_endprologue
	movq	%rcx, 16(%rbp)
	.loc 18 481 67
	movq	16(%rbp), %rax
	movl	180(%rax), %ecx
	.loc 18 481 55
	movq	16(%rbp), %rax
	movl	176(%rax), %edx
	.loc 18 481 48
	leaq	-8(%rbp), %rax
	movl	%ecx, %r8d
	movq	%rax, %rcx
	call	_ZN6wxSizeC1Eii
	.loc 18 481 78
	movq	-8(%rbp), %rax
	.loc 18 481 81
	addq	$48, %rsp
	popq	%rbp
	.cfi_restore 6
	.cfi_def_cfa 7, 8
	ret
	.cfi_endproc
.LFE10175:
	.seh_endproc
	.section	.text$_ZNK12wxWindowBase10GetMaxSizeEv,"x"
	.linkonce discard
	.align 2
	.globl	_ZNK12wxWindowBase10GetMaxSizeEv
	.def	_ZNK12wxWindowBase10GetMaxSizeEv;	.scl	2;	.type	32;	.endef
	.seh_proc	_ZNK12wxWindowBase10GetMaxSizeEv
_ZNK12wxWindowBase10GetMaxSizeEv:
.LFB10176:
	.loc 18 482 20
	.cfi_startproc
	pushq	%rbp
	.seh_pushreg	%rbp
	.cfi_def_cfa_offset 16
	.cfi_offset 6, -16
	movq	%rsp, %rbp
	.seh_setframe	%rbp, 0
	.cfi_def_cfa_register 6
	subq	$48, %rsp
	.seh_stackalloc	48
	.seh_endprologue
	movq	%rcx, 16(%rbp)
	.loc 18 482 67
	movq	16(%rbp), %rax
	movl	188(%rax), %ecx
	.loc 18 482 55
	movq	16(%rbp), %rax
	movl	184(%rax), %edx
	.loc 18 482 48
	leaq	-8(%rbp), %rax
	movl	%ecx, %r8d
	movq	%rax, %rcx
	call	_ZN6wxSizeC1Eii
	.loc 18 482 78
	movq	-8(%rbp), %rax
	.loc 18 482 81
	addq	$48, %rsp
	popq	%rbp
	.cfi_restore 6
	.cfi_def_cfa 7, 8
	ret
	.cfi_endproc
.LFE10176:
	.seh_endproc
	.section	.text$_ZNK12wxWindowBase16GetMinClientSizeEv,"x"
	.linkonce discard
	.align 2
	.globl	_ZNK12wxWindowBase16GetMinClientSizeEv
	.def	_ZNK12wxWindowBase16GetMinClientSizeEv;	.scl	2;	.type	32;	.endef
	.seh_proc	_ZNK12wxWindowBase16GetMinClientSizeEv
_ZNK12wxWindowBase16GetMinClientSizeEv:
.LFB10177:
	.loc 18 485 20
	.cfi_startproc
	pushq	%rbp
	.seh_pushreg	%rbp
	.cfi_def_cfa_offset 16
	.cfi_offset 6, -16
	pushq	%rbx
	.seh_pushreg	%rbx
	.cfi_def_cfa_offset 24
	.cfi_offset 3, -24
	subq	$56, %rsp
	.seh_stackalloc	56
	.cfi_def_cfa_offset 80
	leaq	128(%rsp), %rbp
	.seh_setframe	%rbp, 128
	.cfi_def_cfa 6, -48
	.seh_endprologue
	movq	%rcx, -48(%rbp)
	.loc 18 486 49
	movq	-48(%rbp), %rax
	movq	(%rax), %rax
	addq	$264, %rax
	movq	(%rax), %rbx
	.loc 18 486 48
	movq	-48(%rbp), %rax
	movq	(%rax), %rax
	addq	$344, %rax
	movq	(%rax), %rax
	movq	-48(%rbp), %rcx
	call	*%rax
.LVL12:
	movq	%rax, -88(%rbp)
	.loc 18 486 49
	leaq	-88(%rbp), %rax
	movq	%rax, %rdx
	movq	-48(%rbp), %rcx
	call	*%rbx
.LVL13:
	.loc 18 486 52
	addq	$56, %rsp
	popq	%rbx
	.cfi_restore 3
	popq	%rbp
	.cfi_restore 6
	.cfi_def_cfa 7, -40
	ret
	.cfi_endproc
.LFE10177:
	.seh_endproc
	.section	.text$_ZNK12wxWindowBase16GetMaxClientSizeEv,"x"
	.linkonce discard
	.align 2
	.globl	_ZNK12wxWindowBase16GetMaxClientSizeEv
	.def	_ZNK12wxWindowBase16GetMaxClientSizeEv;	.scl	2;	.type	32;	.endef
	.seh_proc	_ZNK12wxWindowBase16GetMaxClientSizeEv
_ZNK12wxWindowBase16GetMaxClientSizeEv:
.LFB10178:
	.loc 18 487 20
	.cfi_startproc
	pushq	%rbp
	.seh_pushreg	%rbp
	.cfi_def_cfa_offset 16
	.cfi_offset 6, -16
	pushq	%rbx
	.seh_pushreg	%rbx
	.cfi_def_cfa_offset 24
	.cfi_offset 3, -24
	subq	$56, %rsp
	.seh_stackalloc	56
	.cfi_def_cfa_offset 80
	leaq	128(%rsp), %rbp
	.seh_setframe	%rbp, 128
	.cfi_def_cfa 6, -48
	.seh_endprologue
	movq	%rcx, -48(%rbp)
	.loc 18 488 49
	movq	-48(%rbp), %rax
	movq	(%rax), %rax
	addq	$264, %rax
	movq	(%rax), %rbx
	.loc 18 488 48
	movq	-48(%rbp), %rax
	movq	(%rax), %rax
	addq	$352, %rax
	movq	(%rax), %rax
	movq	-48(%rbp), %rcx
	call	*%rax
.LVL14:
	movq	%rax, -88(%rbp)
	.loc 18 488 49
	leaq	-88(%rbp), %rax
	movq	%rax, %rdx
	movq	-48(%rbp), %rcx
	call	*%rbx
.LVL15:
	.loc 18 488 52
	addq	$56, %rsp
	popq	%rbx
	.cfi_restore 3
	popq	%rbp
	.cfi_restore 6
	.cfi_def_cfa 7, -40
	ret
	.cfi_endproc
.LFE10178:
	.seh_endproc
	.section	.text$_ZNK12wxWindowBase18GetBestVirtualSizeEv,"x"
	.linkonce discard
	.align 2
	.globl	_ZNK12wxWindowBase18GetBestVirtualSizeEv
	.def	_ZNK12wxWindowBase18GetBestVirtualSizeEv;	.scl	2;	.type	32;	.endef
	.seh_proc	_ZNK12wxWindowBase18GetBestVirtualSizeEv
_ZNK12wxWindowBase18GetBestVirtualSizeEv:
.LFB10187:
	.loc 18 527 20
	.cfi_startproc
	pushq	%rbp
	.seh_pushreg	%rbp
	.cfi_def_cfa_offset 16
	.cfi_offset 6, -16
	pushq	%rbx
	.seh_pushreg	%rbx
	.cfi_def_cfa_offset 24
	.cfi_offset 3, -24
	subq	$72, %rsp
	.seh_stackalloc	72
	.cfi_def_cfa_offset 96
	leaq	128(%rsp), %rbp
	.seh_setframe	%rbp, 128
	.cfi_def_cfa 6, -32
	.seh_endprologue
	movq	%rcx, -32(%rbp)
	.loc 18 529 38
	movq	-32(%rbp), %rcx
	call	_ZNK12wxWindowBase13GetClientSizeEv
	movq	%rax, -80(%rbp)
	.loc 18 530 34
	movq	-32(%rbp), %rcx
	call	_ZNK12wxWindowBase11GetBestSizeEv
	movq	%rax, -88(%rbp)
	.loc 18 532 16
	movl	-84(%rbp), %edx
	movl	-76(%rbp), %eax
	movl	%eax, %ecx
	call	_Z5wxMaxIiiEN24wxImplicitConversionTypeIT_T0_E5valueES1_S2_
	movl	%eax, %ebx
	movl	-88(%rbp), %edx
	movl	-80(%rbp), %eax
	movl	%eax, %ecx
	call	_Z5wxMaxIiiEN24wxImplicitConversionTypeIT_T0_E5valueES1_S2_
	movl	%eax, %edx
	leaq	-72(%rbp), %rax
	movl	%ebx, %r8d
	movq	%rax, %rcx
	call	_ZN6wxSizeC1Eii
	.loc 18 532 77
	movq	-72(%rbp), %rax
	.loc 18 533 5
	addq	$72, %rsp
	popq	%rbx
	.cfi_restore 3
	popq	%rbp
	.cfi_restore 6
	.cfi_def_cfa 7, -56
	ret
	.cfi_endproc
.LFE10187:
	.seh_endproc
	.section	.text$_ZNK12wxWindowBase21GetContentScaleFactorEv,"x"
	.linkonce discard
	.align 2
	.globl	_ZNK12wxWindowBase21GetContentScaleFactorEv
	.def	_ZNK12wxWindowBase21GetContentScaleFactorEv;	.scl	2;	.type	32;	.endef
	.seh_proc	_ZNK12wxWindowBase21GetContentScaleFactorEv
_ZNK12wxWindowBase21GetContentScaleFactorEv:
.LFB10188:
	.loc 18 537 20
	.cfi_startproc
	pushq	%rbp
	.seh_pushreg	%rbp
	.cfi_def_cfa_offset 16
	.cfi_offset 6, -16
	movq	%rsp, %rbp
	.seh_setframe	%rbp, 0
	.cfi_def_cfa_register 6
	.seh_endprologue
	movq	%rcx, 16(%rbp)
	.loc 18 538 14
	movsd	.LC4(%rip), %xmm0
	movq	%xmm0, %rax
	.loc 18 538 19
	movq	%rax, %xmm0
	popq	%rbp
	.cfi_restore 6
	.cfi_def_cfa 7, 8
	ret
	.cfi_endproc
.LFE10188:
	.seh_endproc
	.section	.text$_ZNK12wxWindowBase7IsShownEv,"x"
	.linkonce discard
	.align 2
	.globl	_ZNK12wxWindowBase7IsShownEv
	.def	_ZNK12wxWindowBase7IsShownEv;	.scl	2;	.type	32;	.endef
	.seh_proc	_ZNK12wxWindowBase7IsShownEv
_ZNK12wxWindowBase7IsShownEv:
.LFB10203:
	.loc 18 641 18
	.cfi_startproc
	pushq	%rbp
	.seh_pushreg	%rbp
	.cfi_def_cfa_offset 16
	.cfi_offset 6, -16
	movq	%rsp, %rbp
	.seh_setframe	%rbp, 0
	.cfi_def_cfa_register 6
	.seh_endprologue
	movq	%rcx, 16(%rbp)
	.loc 18 641 43
	movq	16(%rbp), %rax
	movzbl	392(%rax), %eax
	shrb	%al
	andl	$1, %eax
	.loc 18 641 54
	popq	%rbp
	.cfi_restore 6
	.cfi_def_cfa 7, 8
	ret
	.cfi_endproc
.LFE10203:
	.seh_endproc
	.section	.text$_ZNK12wxWindowBase18GetWindowStyleFlagEv,"x"
	.linkonce discard
	.align 2
	.globl	_ZNK12wxWindowBase18GetWindowStyleFlagEv
	.def	_ZNK12wxWindowBase18GetWindowStyleFlagEv;	.scl	2;	.type	32;	.endef
	.seh_proc	_ZNK12wxWindowBase18GetWindowStyleFlagEv
_ZNK12wxWindowBase18GetWindowStyleFlagEv:
.LFB10206:
	.loc 18 665 18
	.cfi_startproc
	pushq	%rbp
	.seh_pushreg	%rbp
	.cfi_def_cfa_offset 16
	.cfi_offset 6, -16
	movq	%rsp, %rbp
	.seh_setframe	%rbp, 0
	.cfi_def_cfa_register 6
	.seh_endprologue
	movq	%rcx, 16(%rbp)
	.loc 18 665 54
	movq	16(%rbp), %rax
	movl	396(%rax), %eax
	.loc 18 665 69
	popq	%rbp
	.cfi_restore 6
	.cfi_def_cfa 7, 8
	ret
	.cfi_endproc
.LFE10206:
	.seh_endproc
	.section	.text$_ZNK12wxWindowBase7HasFlagEi,"x"
	.linkonce discard
	.align 2
	.globl	_ZNK12wxWindowBase7HasFlagEi
	.def	_ZNK12wxWindowBase7HasFlagEi;	.scl	2;	.type	32;	.endef
	.seh_proc	_ZNK12wxWindowBase7HasFlagEi
_ZNK12wxWindowBase7HasFlagEi:
.LFB10209:
	.loc 18 672 10
	.cfi_startproc
	pushq	%rbp
	.seh_pushreg	%rbp
	.cfi_def_cfa_offset 16
	.cfi_offset 6, -16
	movq	%rsp, %rbp
	.seh_setframe	%rbp, 0
	.cfi_def_cfa_register 6
	.seh_endprologue
	movq	%rcx, 16(%rbp)
	movl	%edx, 24(%rbp)
	.loc 18 672 44
	movq	16(%rbp), %rax
	movl	396(%rax), %eax
	.loc 18 672 58
	andl	24(%rbp), %eax
	.loc 18 672 69
	testl	%eax, %eax
	setne	%al
	.loc 18 672 72
	popq	%rbp
	.cfi_restore 6
	.cfi_def_cfa 7, 8
	ret
	.cfi_endproc
.LFE10209:
	.seh_endproc
	.section	.text$_ZNK12wxWindowBase10IsRetainedEv,"x"
	.linkonce discard
	.align 2
	.globl	_ZNK12wxWindowBase10IsRetainedEv
	.def	_ZNK12wxWindowBase10IsRetainedEv;	.scl	2;	.type	32;	.endef
	.seh_proc	_ZNK12wxWindowBase10IsRetainedEv
_ZNK12wxWindowBase10IsRetainedEv:
.LFB10210:
	.loc 18 673 18
	.cfi_startproc
	pushq	%rbp
	.seh_pushreg	%rbp
	.cfi_def_cfa_offset 16
	.cfi_offset 6, -16
	movq	%rsp, %rbp
	.seh_setframe	%rbp, 0
	.cfi_def_cfa_register 6
	subq	$32, %rsp
	.seh_stackalloc	32
	.seh_endprologue
	movq	%rcx, 16(%rbp)
	.loc 18 673 53
	movl	$0, %edx
	movq	16(%rbp), %rcx
	call	_ZNK12wxWindowBase7HasFlagEi
	.loc 18 673 67
	addq	$32, %rsp
	popq	%rbp
	.cfi_restore 6
	.cfi_def_cfa 7, 8
	ret
	.cfi_endproc
.LFE10210:
	.seh_endproc
	.section	.text$_ZN12wxWindowBase15SetThemeEnabledEb,"x"
	.linkonce discard
	.align 2
	.globl	_ZN12wxWindowBase15SetThemeEnabledEb
	.def	_ZN12wxWindowBase15SetThemeEnabledEb;	.scl	2;	.type	32;	.endef
	.seh_proc	_ZN12wxWindowBase15SetThemeEnabledEb
_ZN12wxWindowBase15SetThemeEnabledEb:
.LFB10214:
	.loc 18 694 18
	.cfi_startproc
	pushq	%rbp
	.seh_pushreg	%rbp
	.cfi_def_cfa_offset 16
	.cfi_offset 6, -16
	movq	%rsp, %rbp
	.seh_setframe	%rbp, 0
	.cfi_def_cfa_register 6
	.seh_endprologue
	movq	%rcx, 16(%rbp)
	movl	%edx, %eax
	movb	%al, 24(%rbp)
	.loc 18 694 69
	movq	16(%rbp), %rdx
	movzbl	24(%rbp), %eax
	movb	%al, 456(%rdx)
	.loc 18 694 84
	nop
	popq	%rbp
	.cfi_restore 6
	.cfi_def_cfa 7, 8
	ret
	.cfi_endproc
.LFE10214:
	.seh_endproc
	.section	.text$_ZNK12wxWindowBase15GetThemeEnabledEv,"x"
	.linkonce discard
	.align 2
	.globl	_ZNK12wxWindowBase15GetThemeEnabledEv
	.def	_ZNK12wxWindowBase15GetThemeEnabledEv;	.scl	2;	.type	32;	.endef
	.seh_proc	_ZNK12wxWindowBase15GetThemeEnabledEv
_ZNK12wxWindowBase15GetThemeEnabledEv:
.LFB10215:
	.loc 18 695 18
	.cfi_startproc
	pushq	%rbp
	.seh_pushreg	%rbp
	.cfi_def_cfa_offset 16
	.cfi_offset 6, -16
	movq	%rsp, %rbp
	.seh_setframe	%rbp, 0
	.cfi_def_cfa_register 6
	.seh_endprologue
	movq	%rcx, 16(%rbp)
	.loc 18 695 51
	movq	16(%rbp), %rax
	movzbl	456(%rax), %eax
	.loc 18 695 67
	popq	%rbp
	.cfi_restore 6
	.cfi_def_cfa 7, 8
	ret
	.cfi_endproc
.LFE10215:
	.seh_endproc
	.section	.text$_ZNK12wxWindowBase12AcceptsFocusEv,"x"
	.linkonce discard
	.align 2
	.globl	_ZNK12wxWindowBase12AcceptsFocusEv
	.def	_ZNK12wxWindowBase12AcceptsFocusEv;	.scl	2;	.type	32;	.endef
	.seh_proc	_ZNK12wxWindowBase12AcceptsFocusEv
_ZNK12wxWindowBase12AcceptsFocusEv:
.LFB10217:
	.loc 18 724 18
	.cfi_startproc
	pushq	%rbp
	.seh_pushreg	%rbp
	.cfi_def_cfa_offset 16
	.cfi_offset 6, -16
	movq	%rsp, %rbp
	.seh_setframe	%rbp, 0
	.cfi_def_cfa_register 6
	.seh_endprologue
	movq	%rcx, 16(%rbp)
	.loc 18 724 48
	movl	$1, %eax
	.loc 18 724 54
	popq	%rbp
	.cfi_restore 6
	.cfi_def_cfa 7, 8
	ret
	.cfi_endproc
.LFE10217:
	.seh_endproc
	.section	.text$_ZNK12wxWindowBase23AcceptsFocusRecursivelyEv,"x"
	.linkonce discard
	.align 2
	.globl	_ZNK12wxWindowBase23AcceptsFocusRecursivelyEv
	.def	_ZNK12wxWindowBase23AcceptsFocusRecursivelyEv;	.scl	2;	.type	32;	.endef
	.seh_proc	_ZNK12wxWindowBase23AcceptsFocusRecursivelyEv
_ZNK12wxWindowBase23AcceptsFocusRecursivelyEv:
.LFB10218:
	.loc 18 730 18
	.cfi_startproc
	pushq	%rbp
	.seh_pushreg	%rbp
	.cfi_def_cfa_offset 16
	.cfi_offset 6, -16
	movq	%rsp, %rbp
	.seh_setframe	%rbp, 0
	.cfi_def_cfa_register 6
	subq	$32, %rsp
	.seh_stackalloc	32
	.seh_endprologue
	movq	%rcx, 16(%rbp)
	.loc 18 730 72
	movq	16(%rbp), %rax
	movq	(%rax), %rax
	addq	$576, %rax
	movq	(%rax), %rax
	.loc 18 730 71
	movq	16(%rbp), %rcx
	call	*%rax
.LVL16:
	.loc 18 730 75
	addq	$32, %rsp
	popq	%rbp
	.cfi_restore 6
	.cfi_def_cfa 7, 8
	ret
	.cfi_endproc
.LFE10218:
	.seh_endproc
	.section	.text$_ZNK12wxWindowBase24AcceptsFocusFromKeyboardEv,"x"
	.linkonce discard
	.align 2
	.globl	_ZNK12wxWindowBase24AcceptsFocusFromKeyboardEv
	.def	_ZNK12wxWindowBase24AcceptsFocusFromKeyboardEv;	.scl	2;	.type	32;	.endef
	.seh_proc	_ZNK12wxWindowBase24AcceptsFocusFromKeyboardEv
_ZNK12wxWindowBase24AcceptsFocusFromKeyboardEv:
.LFB10219:
	.loc 18 735 18
	.cfi_startproc
	pushq	%rbp
	.seh_pushreg	%rbp
	.cfi_def_cfa_offset 16
	.cfi_offset 6, -16
	movq	%rsp, %rbp
	.seh_setframe	%rbp, 0
	.cfi_def_cfa_register 6
	subq	$32, %rsp
	.seh_stackalloc	32
	.seh_endprologue
	movq	%rcx, 16(%rbp)
	.loc 18 735 73
	movq	16(%rbp), %rax
	movq	(%rax), %rax
	addq	$576, %rax
	movq	(%rax), %rax
	.loc 18 735 72
	movq	16(%rbp), %rcx
	call	*%rax
.LVL17:
	.loc 18 735 76
	addq	$32, %rsp
	popq	%rbp
	.cfi_restore 6
	.cfi_def_cfa 7, 8
	ret
	.cfi_endproc
.LFE10219:
	.seh_endproc
	.section	.text$_ZNK12wxWindowBase12CanBeFocusedEv,"x"
	.linkonce discard
	.align 2
	.globl	_ZNK12wxWindowBase12CanBeFocusedEv
	.def	_ZNK12wxWindowBase12CanBeFocusedEv;	.scl	2;	.type	32;	.endef
	.seh_proc	_ZNK12wxWindowBase12CanBeFocusedEv
_ZNK12wxWindowBase12CanBeFocusedEv:
.LFB10220:
	.loc 18 744 18
	.cfi_startproc
	pushq	%rbp
	.seh_pushreg	%rbp
	.cfi_def_cfa_offset 16
	.cfi_offset 6, -16
	movq	%rsp, %rbp
	.seh_setframe	%rbp, 0
	.cfi_def_cfa_register 6
	subq	$32, %rsp
	.seh_stackalloc	32
	.seh_endprologue
	movq	%rcx, 16(%rbp)
	.loc 18 744 56
	movq	16(%rbp), %rax
	movq	(%rax), %rax
	addq	$480, %rax
	movq	(%rax), %rax
	.loc 18 744 55
	movq	16(%rbp), %rcx
	call	*%rax
.LVL18:
	.loc 18 744 58
	testb	%al, %al
	je	.L176
	.loc 18 744 70 discriminator 1
	movq	16(%rbp), %rcx
	call	_ZNK12wxWindowBase9IsEnabledEv
	.loc 18 744 58 discriminator 1
	testb	%al, %al
	je	.L176
	.loc 18 744 58 is_stmt 0 discriminator 3
	movl	$1, %eax
	jmp	.L177
.L176:
	.loc 18 744 58 discriminator 4
	movl	$0, %eax
.L177:
	.loc 18 744 74 is_stmt 1 discriminator 6
	addq	$32, %rsp
	popq	%rbp
	.cfi_restore 6
	.cfi_def_cfa 7, 8
	ret
	.cfi_endproc
.LFE10220:
	.seh_endproc
	.section	.text$_ZN12wxWindowBase11SetCanFocusEb,"x"
	.linkonce discard
	.align 2
	.globl	_ZN12wxWindowBase11SetCanFocusEb
	.def	_ZN12wxWindowBase11SetCanFocusEb;	.scl	2;	.type	32;	.endef
	.seh_proc	_ZN12wxWindowBase11SetCanFocusEb
_ZN12wxWindowBase11SetCanFocusEb:
.LFB10224:
	.loc 18 762 18
	.cfi_startproc
	pushq	%rbp
	.seh_pushreg	%rbp
	.cfi_def_cfa_offset 16
	.cfi_offset 6, -16
	movq	%rsp, %rbp
	.seh_setframe	%rbp, 0
	.cfi_def_cfa_register 6
	.seh_endprologue
	movq	%rcx, 16(%rbp)
	movl	%edx, %eax
	movb	%al, 24(%rbp)
	.loc 18 762 39
	nop
	popq	%rbp
	.cfi_restore 6
	.cfi_def_cfa 7, 8
	ret
	.cfi_endproc
.LFE10224:
	.seh_endproc
	.section	.text$_ZNK12wxWindowBase17IsClientAreaChildEPK8wxWindow,"x"
	.linkonce discard
	.align 2
	.globl	_ZNK12wxWindowBase17IsClientAreaChildEPK8wxWindow
	.def	_ZNK12wxWindowBase17IsClientAreaChildEPK8wxWindow;	.scl	2;	.type	32;	.endef
	.seh_proc	_ZNK12wxWindowBase17IsClientAreaChildEPK8wxWindow
_ZNK12wxWindowBase17IsClientAreaChildEPK8wxWindow:
.LFB10235:
	.loc 18 824 18
	.cfi_startproc
	pushq	%rbp
	.seh_pushreg	%rbp
	.cfi_def_cfa_offset 16
	.cfi_offset 6, -16
	movq	%rsp, %rbp
	.seh_setframe	%rbp, 0
	.cfi_def_cfa_register 6
	.seh_endprologue
	movq	%rcx, 16(%rbp)
	movq	%rdx, 24(%rbp)
	.loc 18 825 18
	movl	$1, %eax
	.loc 18 825 24
	popq	%rbp
	.cfi_restore 6
	.cfi_def_cfa 7, 8
	ret
	.cfi_endproc
.LFE10235:
	.seh_endproc
	.section	.text$_ZN12wxWindowBase12GetValidatorEv,"x"
	.linkonce discard
	.align 2
	.globl	_ZN12wxWindowBase12GetValidatorEv
	.def	_ZN12wxWindowBase12GetValidatorEv;	.scl	2;	.type	32;	.endef
	.seh_proc	_ZN12wxWindowBase12GetValidatorEv
_ZN12wxWindowBase12GetValidatorEv:
.LFB10239:
	.loc 18 924 26
	.cfi_startproc
	pushq	%rbp
	.seh_pushreg	%rbp
	.cfi_def_cfa_offset 16
	.cfi_offset 6, -16
	movq	%rsp, %rbp
	.seh_setframe	%rbp, 0
	.cfi_def_cfa_register 6
	.seh_endprologue
	movq	%rcx, 16(%rbp)
	.loc 18 924 50
	movq	16(%rbp), %rax
	movq	200(%rax), %rax
	.loc 18 924 69
	popq	%rbp
	.cfi_restore 6
	.cfi_def_cfa 7, 8
	ret
	.cfi_endproc
.LFE10239:
	.seh_endproc
	.section	.text$_ZN18wxAcceleratorTableaSERKS_,"x"
	.linkonce discard
	.align 2
	.globl	_ZN18wxAcceleratorTableaSERKS_
	.def	_ZN18wxAcceleratorTableaSERKS_;	.scl	2;	.type	32;	.endef
	.seh_proc	_ZN18wxAcceleratorTableaSERKS_
_ZN18wxAcceleratorTableaSERKS_:
.LFB10241:
	.file 19 "../wxMSW-3.0.5_gcc810_x64_Dev/include/wx/msw/accel.h"
	.loc 19 20 7
	.cfi_startproc
	pushq	%rbp
	.seh_pushreg	%rbp
	.cfi_def_cfa_offset 16
	.cfi_offset 6, -16
	movq	%rsp, %rbp
	.seh_setframe	%rbp, 0
	.cfi_def_cfa_register 6
	subq	$32, %rsp
	.seh_stackalloc	32
	.seh_endprologue
	movq	%rcx, 16(%rbp)
	movq	%rdx, 24(%rbp)
	.loc 19 20 7
	movq	16(%rbp), %rax
	movq	24(%rbp), %rdx
	movq	%rax, %rcx
	call	_ZN8wxObjectaSERKS_
	movq	16(%rbp), %rax
	addq	$32, %rsp
	popq	%rbp
	.cfi_restore 6
	.cfi_def_cfa 7, 8
	ret
	.cfi_endproc
.LFE10241:
	.seh_endproc
	.section	.text$_ZN12wxWindowBase19SetAcceleratorTableERK18wxAcceleratorTable,"x"
	.linkonce discard
	.align 2
	.globl	_ZN12wxWindowBase19SetAcceleratorTableERK18wxAcceleratorTable
	.def	_ZN12wxWindowBase19SetAcceleratorTableERK18wxAcceleratorTable;	.scl	2;	.type	32;	.endef
	.seh_proc	_ZN12wxWindowBase19SetAcceleratorTableERK18wxAcceleratorTable
_ZN12wxWindowBase19SetAcceleratorTableERK18wxAcceleratorTable:
.LFB10240:
	.loc 18 943 18
	.cfi_startproc
	pushq	%rbp
	.seh_pushreg	%rbp
	.cfi_def_cfa_offset 16
	.cfi_offset 6, -16
	movq	%rsp, %rbp
	.seh_setframe	%rbp, 0
	.cfi_def_cfa_register 6
	subq	$32, %rsp
	.seh_stackalloc	32
	.seh_endprologue
	movq	%rcx, 16(%rbp)
	movq	%rdx, 24(%rbp)
	.loc 18 944 32
	movq	16(%rbp), %rax
	addq	$336, %rax
	movq	24(%rbp), %rdx
	movq	%rax, %rcx
	call	_ZN18wxAcceleratorTableaSERKS_
	.loc 18 944 39
	nop
	addq	$32, %rsp
	popq	%rbp
	.cfi_restore 6
	.cfi_def_cfa 7, 8
	ret
	.cfi_endproc
.LFE10240:
	.seh_endproc
	.section	.text$_ZNK12wxWindowBase10HasCaptureEv,"x"
	.linkonce discard
	.align 2
	.globl	_ZNK12wxWindowBase10HasCaptureEv
	.def	_ZNK12wxWindowBase10HasCaptureEv;	.scl	2;	.type	32;	.endef
	.seh_proc	_ZNK12wxWindowBase10HasCaptureEv
_ZNK12wxWindowBase10HasCaptureEv:
.LFB10245:
	.loc 18 995 18
	.cfi_startproc
	pushq	%rbp
	.seh_pushreg	%rbp
	.cfi_def_cfa_offset 16
	.cfi_offset 6, -16
	movq	%rsp, %rbp
	.seh_setframe	%rbp, 0
	.cfi_def_cfa_register 6
	subq	$32, %rsp
	.seh_stackalloc	32
	.seh_endprologue
	movq	%rcx, 16(%rbp)
	.loc 18 996 48
	call	_ZN12wxWindowBase10GetCaptureEv
	.loc 18 996 49
	cmpq	%rax, 16(%rbp)
	sete	%al
	.loc 18 996 52
	addq	$32, %rsp
	popq	%rbp
	.cfi_restore 6
	.cfi_def_cfa 7, 8
	ret
	.cfi_endproc
.LFE10245:
	.seh_endproc
	.section	.text$_ZN12wxWindowBase9PrepareDCER4wxDC,"x"
	.linkonce discard
	.align 2
	.globl	_ZN12wxWindowBase9PrepareDCER4wxDC
	.def	_ZN12wxWindowBase9PrepareDCER4wxDC;	.scl	2;	.type	32;	.endef
	.seh_proc	_ZN12wxWindowBase9PrepareDCER4wxDC
_ZN12wxWindowBase9PrepareDCER4wxDC:
.LFB10249:
	.loc 18 1028 18
	.cfi_startproc
	pushq	%rbp
	.seh_pushreg	%rbp
	.cfi_def_cfa_offset 16
	.cfi_offset 6, -16
	movq	%rsp, %rbp
	.seh_setframe	%rbp, 0
	.cfi_def_cfa_register 6
	.seh_endprologue
	movq	%rcx, 16(%rbp)
	movq	%rdx, 24(%rbp)
	.loc 18 1028 40
	nop
	popq	%rbp
	.cfi_restore 6
	.cfi_def_cfa 7, 8
	ret
	.cfi_endproc
.LFE10249:
	.seh_endproc
	.section	.text$_ZNK12wxWindowBase20GetDefaultAttributesEv,"x"
	.linkonce discard
	.align 2
	.globl	_ZNK12wxWindowBase20GetDefaultAttributesEv
	.def	_ZNK12wxWindowBase20GetDefaultAttributesEv;	.scl	2;	.type	32;	.endef
	.seh_proc	_ZNK12wxWindowBase20GetDefaultAttributesEv
_ZNK12wxWindowBase20GetDefaultAttributesEv:
.LFB10257:
	.loc 18 1065 32
	.cfi_startproc
	pushq	%rbp
	.seh_pushreg	%rbp
	.cfi_def_cfa_offset 16
	.cfi_offset 6, -16
	movq	%rsp, %rbp
	.seh_setframe	%rbp, 0
	.cfi_def_cfa_register 6
	subq	$32, %rsp
	.seh_stackalloc	32
	.seh_endprologue
	movq	%rcx, 16(%rbp)
	movq	%rdx, 24(%rbp)
	.loc 18 1067 60
	movq	24(%rbp), %rax
	movq	%rax, %rcx
	call	_ZNK12wxWindowBase16GetWindowVariantEv
	movl	%eax, %edx
	movq	16(%rbp), %rax
	movq	%rax, %rcx
	call	_ZN12wxWindowBase25GetClassDefaultAttributesE15wxWindowVariant
	.loc 18 1068 5
	movq	16(%rbp), %rax
	addq	$32, %rsp
	popq	%rbp
	.cfi_restore 6
	.cfi_def_cfa 7, 8
	ret
	.cfi_endproc
.LFE10257:
	.seh_endproc
	.section	.text$_ZNK12wxWindowBase24InheritsBackgroundColourEv,"x"
	.linkonce discard
	.align 2
	.globl	_ZNK12wxWindowBase24InheritsBackgroundColourEv
	.def	_ZNK12wxWindowBase24InheritsBackgroundColourEv;	.scl	2;	.type	32;	.endef
	.seh_proc	_ZNK12wxWindowBase24InheritsBackgroundColourEv
_ZNK12wxWindowBase24InheritsBackgroundColourEv:
.LFB10271:
	.loc 18 1084 10
	.cfi_startproc
	pushq	%rbp
	.seh_pushreg	%rbp
	.cfi_def_cfa_offset 16
	.cfi_offset 6, -16
	movq	%rsp, %rbp
	.seh_setframe	%rbp, 0
	.cfi_def_cfa_register 6
	.seh_endprologue
	movq	%rcx, 16(%rbp)
	.loc 18 1086 16
	movq	16(%rbp), %rax
	movzbl	392(%rax), %eax
	shrb	$7, %al
	.loc 18 1087 5
	popq	%rbp
	.cfi_restore 6
	.cfi_def_cfa 7, 8
	ret
	.cfi_endproc
.LFE10271:
	.seh_endproc
	.section	.text$_ZN12wxWindowBase24HasTransparentBackgroundEv,"x"
	.linkonce discard
	.align 2
	.globl	_ZN12wxWindowBase24HasTransparentBackgroundEv
	.def	_ZN12wxWindowBase24HasTransparentBackgroundEv;	.scl	2;	.type	32;	.endef
	.seh_proc	_ZN12wxWindowBase24HasTransparentBackgroundEv
_ZN12wxWindowBase24HasTransparentBackgroundEv:
.LFB10275:
	.loc 18 1109 18
	.cfi_startproc
	pushq	%rbp
	.seh_pushreg	%rbp
	.cfi_def_cfa_offset 16
	.cfi_offset 6, -16
	movq	%rsp, %rbp
	.seh_setframe	%rbp, 0
	.cfi_def_cfa_register 6
	.seh_endprologue
	movq	%rcx, 16(%rbp)
	.loc 18 1109 54
	movl	$0, %eax
	.loc 18 1109 61
	popq	%rbp
	.cfi_restore 6
	.cfi_def_cfa 7, 8
	ret
	.cfi_endproc
.LFE10275:
	.seh_endproc
	.section	.text$_ZNK12wxWindowBase16HasMultiplePagesEv,"x"
	.linkonce discard
	.align 2
	.globl	_ZNK12wxWindowBase16HasMultiplePagesEv
	.def	_ZNK12wxWindowBase16HasMultiplePagesEv;	.scl	2;	.type	32;	.endef
	.seh_proc	_ZNK12wxWindowBase16HasMultiplePagesEv
_ZNK12wxWindowBase16HasMultiplePagesEv:
.LFB10291:
	.loc 18 1229 18
	.cfi_startproc
	pushq	%rbp
	.seh_pushreg	%rbp
	.cfi_def_cfa_offset 16
	.cfi_offset 6, -16
	movq	%rsp, %rbp
	.seh_setframe	%rbp, 0
	.cfi_def_cfa_register 6
	.seh_endprologue
	movq	%rcx, 16(%rbp)
	.loc 18 1229 52
	movl	$0, %eax
	.loc 18 1229 59
	popq	%rbp
	.cfi_restore 6
	.cfi_def_cfa 7, 8
	ret
	.cfi_endproc
.LFE10291:
	.seh_endproc
	.section	.text$_ZN12wxWindowBase20AlwaysShowScrollbarsEbb,"x"
	.linkonce discard
	.align 2
	.globl	_ZN12wxWindowBase20AlwaysShowScrollbarsEbb
	.def	_ZN12wxWindowBase20AlwaysShowScrollbarsEbb;	.scl	2;	.type	32;	.endef
	.seh_proc	_ZN12wxWindowBase20AlwaysShowScrollbarsEbb
_ZN12wxWindowBase20AlwaysShowScrollbarsEbb:
.LFB10298:
	.loc 18 1270 18
	.cfi_startproc
	pushq	%rbp
	.seh_pushreg	%rbp
	.cfi_def_cfa_offset 16
	.cfi_offset 6, -16
	movq	%rsp, %rbp
	.seh_setframe	%rbp, 0
	.cfi_def_cfa_register 6
	.seh_endprologue
	movq	%rcx, 16(%rbp)
	movl	%edx, %eax
	movl	%r8d, %edx
	movb	%al, 24(%rbp)
	movl	%edx, %eax
	movb	%al, 32(%rbp)
	.loc 18 1273 5
	nop
	popq	%rbp
	.cfi_restore 6
	.cfi_def_cfa 7, 8
	ret
	.cfi_endproc
.LFE10298:
	.seh_endproc
	.section	.text$_ZNK12wxWindowBase22IsScrollbarAlwaysShownEi,"x"
	.linkonce discard
	.align 2
	.globl	_ZNK12wxWindowBase22IsScrollbarAlwaysShownEi
	.def	_ZNK12wxWindowBase22IsScrollbarAlwaysShownEi;	.scl	2;	.type	32;	.endef
	.seh_proc	_ZNK12wxWindowBase22IsScrollbarAlwaysShownEi
_ZNK12wxWindowBase22IsScrollbarAlwaysShownEi:
.LFB10299:
	.loc 18 1277 18
	.cfi_startproc
	pushq	%rbp
	.seh_pushreg	%rbp
	.cfi_def_cfa_offset 16
	.cfi_offset 6, -16
	movq	%rsp, %rbp
	.seh_setframe	%rbp, 0
	.cfi_def_cfa_register 6
	.seh_endprologue
	movq	%rcx, 16(%rbp)
	movl	%edx, 24(%rbp)
	.loc 18 1279 16
	movl	$0, %eax
	.loc 18 1280 5
	popq	%rbp
	.cfi_restore 6
	.cfi_def_cfa 7, 8
	ret
	.cfi_endproc
.LFE10299:
	.seh_endproc
	.section	.text$_ZNK12wxWindowBase10GetToolTipEv,"x"
	.linkonce discard
	.align 2
	.globl	_ZNK12wxWindowBase10GetToolTipEv
	.def	_ZNK12wxWindowBase10GetToolTipEv;	.scl	2;	.type	32;	.endef
	.seh_proc	_ZNK12wxWindowBase10GetToolTipEv
_ZNK12wxWindowBase10GetToolTipEv:
.LFB10303:
	.loc 18 1327 16
	.cfi_startproc
	pushq	%rbp
	.seh_pushreg	%rbp
	.cfi_def_cfa_offset 16
	.cfi_offset 6, -16
	movq	%rsp, %rbp
	.seh_setframe	%rbp, 0
	.cfi_def_cfa_register 6
	.seh_endprologue
	movq	%rcx, 16(%rbp)
	.loc 18 1327 44
	movq	16(%rbp), %rax
	movq	352(%rax), %rax
	.loc 18 1327 55
	popq	%rbp
	.cfi_restore 6
	.cfi_def_cfa 7, 8
	ret
	.cfi_endproc
.LFE10303:
	.seh_endproc
	.section	.text$_ZNK12wxWindowBase13GetDropTargetEv,"x"
	.linkonce discard
	.align 2
	.globl	_ZNK12wxWindowBase13GetDropTargetEv
	.def	_ZNK12wxWindowBase13GetDropTargetEv;	.scl	2;	.type	32;	.endef
	.seh_proc	_ZNK12wxWindowBase13GetDropTargetEv
_ZNK12wxWindowBase13GetDropTargetEv:
.LFB10304:
	.loc 18 1351 27
	.cfi_startproc
	pushq	%rbp
	.seh_pushreg	%rbp
	.cfi_def_cfa_offset 16
	.cfi_offset 6, -16
	movq	%rsp, %rbp
	.seh_setframe	%rbp, 0
	.cfi_def_cfa_register 6
	.seh_endprologue
	movq	%rcx, 16(%rbp)
	.loc 18 1351 58
	movq	16(%rbp), %rax
	movq	208(%rax), %rax
	.loc 18 1351 72
	popq	%rbp
	.cfi_restore 6
	.cfi_def_cfa 7, 8
	ret
	.cfi_endproc
.LFE10304:
	.seh_endproc
	.section	.text$_ZN12wxWindowBase14SetTransparentEh,"x"
	.linkonce discard
	.align 2
	.globl	_ZN12wxWindowBase14SetTransparentEh
	.def	_ZN12wxWindowBase14SetTransparentEh;	.scl	2;	.type	32;	.endef
	.seh_proc	_ZN12wxWindowBase14SetTransparentEh
_ZN12wxWindowBase14SetTransparentEh:
.LFB10311:
	.loc 18 1432 18
	.cfi_startproc
	pushq	%rbp
	.seh_pushreg	%rbp
	.cfi_def_cfa_offset 16
	.cfi_offset 6, -16
	movq	%rsp, %rbp
	.seh_setframe	%rbp, 0
	.cfi_def_cfa_register 6
	.seh_endprologue
	movq	%rcx, 16(%rbp)
	movl	%edx, %eax
	movb	%al, 24(%rbp)
	.loc 18 1432 51
	movl	$0, %eax
	.loc 18 1432 58
	popq	%rbp
	.cfi_restore 6
	.cfi_def_cfa 7, 8
	ret
	.cfi_endproc
.LFE10311:
	.seh_endproc
	.section	.text$_ZN12wxWindowBase17CanSetTransparentEv,"x"
	.linkonce discard
	.align 2
	.globl	_ZN12wxWindowBase17CanSetTransparentEv
	.def	_ZN12wxWindowBase17CanSetTransparentEv;	.scl	2;	.type	32;	.endef
	.seh_proc	_ZN12wxWindowBase17CanSetTransparentEv
_ZN12wxWindowBase17CanSetTransparentEv:
.LFB10312:
	.loc 18 1433 18
	.cfi_startproc
	pushq	%rbp
	.seh_pushreg	%rbp
	.cfi_def_cfa_offset 16
	.cfi_offset 6, -16
	movq	%rsp, %rbp
	.seh_setframe	%rbp, 0
	.cfi_def_cfa_register 6
	.seh_endprologue
	movq	%rcx, 16(%rbp)
	.loc 18 1433 47
	movl	$0, %eax
	.loc 18 1433 54
	popq	%rbp
	.cfi_restore 6
	.cfi_def_cfa 7, 8
	ret
	.cfi_endproc
.LFE10312:
	.seh_endproc
	.section	.text$_ZNK12wxWindowBase20ShouldInheritColoursEv,"x"
	.linkonce discard
	.align 2
	.globl	_ZNK12wxWindowBase20ShouldInheritColoursEv
	.def	_ZNK12wxWindowBase20ShouldInheritColoursEv;	.scl	2;	.type	32;	.endef
	.seh_proc	_ZNK12wxWindowBase20ShouldInheritColoursEv
_ZNK12wxWindowBase20ShouldInheritColoursEv:
.LFB10323:
	.loc 18 1490 18
	.cfi_startproc
	pushq	%rbp
	.seh_pushreg	%rbp
	.cfi_def_cfa_offset 16
	.cfi_offset 6, -16
	movq	%rsp, %rbp
	.seh_setframe	%rbp, 0
	.cfi_def_cfa_register 6
	.seh_endprologue
	movq	%rcx, 16(%rbp)
	.loc 18 1490 56
	movl	$0, %eax
	.loc 18 1490 63
	popq	%rbp
	.cfi_restore 6
	.cfi_def_cfa 7, 8
	ret
	.cfi_endproc
.LFE10323:
	.seh_endproc
	.section	.text$_ZNK12wxWindowBase22CanBeOutsideClientAreaEv,"x"
	.linkonce discard
	.align 2
	.globl	_ZNK12wxWindowBase22CanBeOutsideClientAreaEv
	.def	_ZNK12wxWindowBase22CanBeOutsideClientAreaEv;	.scl	2;	.type	32;	.endef
	.seh_proc	_ZNK12wxWindowBase22CanBeOutsideClientAreaEv
_ZNK12wxWindowBase22CanBeOutsideClientAreaEv:
.LFB10324:
	.loc 18 1494 18
	.cfi_startproc
	pushq	%rbp
	.seh_pushreg	%rbp
	.cfi_def_cfa_offset 16
	.cfi_offset 6, -16
	movq	%rsp, %rbp
	.seh_setframe	%rbp, 0
	.cfi_def_cfa_register 6
	.seh_endprologue
	movq	%rcx, 16(%rbp)
	.loc 18 1494 58
	movl	$0, %eax
	.loc 18 1494 65
	popq	%rbp
	.cfi_restore 6
	.cfi_def_cfa 7, 8
	ret
	.cfi_endproc
.LFE10324:
	.seh_endproc
	.section	.text$_ZNK12wxWindowBase19CanApplyThemeBorderEv,"x"
	.linkonce discard
	.align 2
	.globl	_ZNK12wxWindowBase19CanApplyThemeBorderEv
	.def	_ZNK12wxWindowBase19CanApplyThemeBorderEv;	.scl	2;	.type	32;	.endef
	.seh_proc	_ZNK12wxWindowBase19CanApplyThemeBorderEv
_ZNK12wxWindowBase19CanApplyThemeBorderEv:
.LFB10325:
	.loc 18 1498 18
	.cfi_startproc
	pushq	%rbp
	.seh_pushreg	%rbp
	.cfi_def_cfa_offset 16
	.cfi_offset 6, -16
	movq	%rsp, %rbp
	.seh_setframe	%rbp, 0
	.cfi_def_cfa_register 6
	.seh_endprologue
	movq	%rcx, 16(%rbp)
	.loc 18 1498 55
	movl	$1, %eax
	.loc 18 1498 61
	popq	%rbp
	.cfi_restore 6
	.cfi_def_cfa 7, 8
	ret
	.cfi_endproc
.LFE10325:
	.seh_endproc
	.section	.text$_ZN12wxWindowBase31GetMainWindowOfCompositeControlEv,"x"
	.linkonce discard
	.align 2
	.globl	_ZN12wxWindowBase31GetMainWindowOfCompositeControlEv
	.def	_ZN12wxWindowBase31GetMainWindowOfCompositeControlEv;	.scl	2;	.type	32;	.endef
	.seh_proc	_ZN12wxWindowBase31GetMainWindowOfCompositeControlEv
_ZN12wxWindowBase31GetMainWindowOfCompositeControlEv:
.LFB10326:
	.loc 18 1503 23
	.cfi_startproc
	pushq	%rbp
	.seh_pushreg	%rbp
	.cfi_def_cfa_offset 16
	.cfi_offset 6, -16
	movq	%rsp, %rbp
	.seh_setframe	%rbp, 0
	.cfi_def_cfa_register 6
	.seh_endprologue
	movq	%rcx, 16(%rbp)
	.loc 18 1504 29
	movq	16(%rbp), %rax
	.loc 18 1504 35
	popq	%rbp
	.cfi_restore 6
	.cfi_def_cfa 7, 8
	ret
	.cfi_endproc
.LFE10326:
	.seh_endproc
	.section	.text$_ZNK12wxWindowBase21IsTopNavigationDomainEv,"x"
	.linkonce discard
	.align 2
	.globl	_ZNK12wxWindowBase21IsTopNavigationDomainEv
	.def	_ZNK12wxWindowBase21IsTopNavigationDomainEv;	.scl	2;	.type	32;	.endef
	.seh_proc	_ZNK12wxWindowBase21IsTopNavigationDomainEv
_ZNK12wxWindowBase21IsTopNavigationDomainEv:
.LFB10327:
	.loc 18 1512 18
	.cfi_startproc
	pushq	%rbp
	.seh_pushreg	%rbp
	.cfi_def_cfa_offset 16
	.cfi_offset 6, -16
	movq	%rsp, %rbp
	.seh_setframe	%rbp, 0
	.cfi_def_cfa_register 6
	.seh_endprologue
	movq	%rcx, 16(%rbp)
	.loc 18 1512 57
	movl	$0, %eax
	.loc 18 1512 64
	popq	%rbp
	.cfi_restore 6
	.cfi_def_cfa 7, 8
	ret
	.cfi_endproc
.LFE10327:
	.seh_endproc
	.section	.text$_ZNK12wxWindowBase19DoGetBestClientSizeEv,"x"
	.linkonce discard
	.align 2
	.globl	_ZNK12wxWindowBase19DoGetBestClientSizeEv
	.def	_ZNK12wxWindowBase19DoGetBestClientSizeEv;	.scl	2;	.type	32;	.endef
	.seh_proc	_ZNK12wxWindowBase19DoGetBestClientSizeEv
_ZNK12wxWindowBase19DoGetBestClientSizeEv:
.LFB10332:
	.loc 18 1746 20
	.cfi_startproc
	pushq	%rbp
	.seh_pushreg	%rbp
	.cfi_def_cfa_offset 16
	.cfi_offset 6, -16
	movq	%rsp, %rbp
	.seh_setframe	%rbp, 0
	.cfi_def_cfa_register 6
	.seh_endprologue
	movq	%rcx, 16(%rbp)
	.loc 18 1746 57
	movq	.refptr.wxDefaultSize(%rip), %rax
	movq	(%rax), %rax
	.loc 18 1746 72
	popq	%rbp
	.cfi_restore 6
	.cfi_def_cfa 7, 8
	ret
	.cfi_endproc
.LFE10332:
	.seh_endproc
	.section	.text$_ZNK12wxWindowBase21DoGetBestClientHeightEi,"x"
	.linkonce discard
	.align 2
	.globl	_ZNK12wxWindowBase21DoGetBestClientHeightEi
	.def	_ZNK12wxWindowBase21DoGetBestClientHeightEi;	.scl	2;	.type	32;	.endef
	.seh_proc	_ZNK12wxWindowBase21DoGetBestClientHeightEi
_ZNK12wxWindowBase21DoGetBestClientHeightEi:
.LFB10333:
	.loc 18 1751 17
	.cfi_startproc
	pushq	%rbp
	.seh_pushreg	%rbp
	.cfi_def_cfa_offset 16
	.cfi_offset 6, -16
	movq	%rsp, %rbp
	.seh_setframe	%rbp, 0
	.cfi_def_cfa_register 6
	.seh_endprologue
	movq	%rcx, 16(%rbp)
	movl	%edx, 24(%rbp)
	.loc 18 1752 18
	movl	$-1, %eax
	.loc 18 1752 34
	popq	%rbp
	.cfi_restore 6
	.cfi_def_cfa 7, 8
	ret
	.cfi_endproc
.LFE10333:
	.seh_endproc
	.section	.text$_ZNK12wxWindowBase20DoGetBestClientWidthEi,"x"
	.linkonce discard
	.align 2
	.globl	_ZNK12wxWindowBase20DoGetBestClientWidthEi
	.def	_ZNK12wxWindowBase20DoGetBestClientWidthEi;	.scl	2;	.type	32;	.endef
	.seh_proc	_ZNK12wxWindowBase20DoGetBestClientWidthEi
_ZNK12wxWindowBase20DoGetBestClientWidthEi:
.LFB10334:
	.loc 18 1753 17
	.cfi_startproc
	pushq	%rbp
	.seh_pushreg	%rbp
	.cfi_def_cfa_offset 16
	.cfi_offset 6, -16
	movq	%rsp, %rbp
	.seh_setframe	%rbp, 0
	.cfi_def_cfa_register 6
	.seh_endprologue
	movq	%rcx, 16(%rbp)
	movl	%edx, 24(%rbp)
	.loc 18 1754 18
	movl	$-1, %eax
	.loc 18 1754 34
	popq	%rbp
	.cfi_restore 6
	.cfi_def_cfa 7, 8
	ret
	.cfi_endproc
.LFE10334:
	.seh_endproc
	.section	.text$_ZN12wxWindowBase18SetInitialBestSizeERK6wxSize,"x"
	.linkonce discard
	.align 2
	.globl	_ZN12wxWindowBase18SetInitialBestSizeERK6wxSize
	.def	_ZN12wxWindowBase18SetInitialBestSizeERK6wxSize;	.scl	2;	.type	32;	.endef
	.seh_proc	_ZN12wxWindowBase18SetInitialBestSizeERK6wxSize
_ZN12wxWindowBase18SetInitialBestSizeERK6wxSize:
.LFB10340:
	.loc 18 1873 1
	.cfi_startproc
	pushq	%rbp
	.seh_pushreg	%rbp
	.cfi_def_cfa_offset 16
	.cfi_offset 6, -16
	movq	%rsp, %rbp
	.seh_setframe	%rbp, 0
	.cfi_def_cfa_register 6
	subq	$32, %rsp
	.seh_stackalloc	32
	.seh_endprologue
	movq	%rcx, 16(%rbp)
	movq	%rdx, 24(%rbp)
	.loc 18 1874 19
	movq	24(%rbp), %rax
	movq	%rax, %rdx
	movq	16(%rbp), %rcx
	call	_ZN12wxWindowBase14SetInitialSizeERK6wxSize
	.loc 18 1875 1
	nop
	addq	$32, %rsp
	popq	%rbp
	.cfi_restore 6
	.cfi_def_cfa 7, 8
	ret
	.cfi_endproc
.LFE10340:
	.seh_endproc
	.section	.text$_ZN8wxWindowC2Ev,"x"
	.linkonce discard
	.align 2
	.globl	_ZN8wxWindowC2Ev
	.def	_ZN8wxWindowC2Ev;	.scl	2;	.type	32;	.endef
	.seh_proc	_ZN8wxWindowC2Ev
_ZN8wxWindowC2Ev:
.LFB10342:
	.file 20 "../wxMSW-3.0.5_gcc810_x64_Dev/include/wx/msw/window.h"
	.loc 20 40 5
	.cfi_startproc
	pushq	%rbp
	.seh_pushreg	%rbp
	.cfi_def_cfa_offset 16
	.cfi_offset 6, -16
	pushq	%rbx
	.seh_pushreg	%rbx
	.cfi_def_cfa_offset 24
	.cfi_offset 3, -24
	subq	$40, %rsp
	.seh_stackalloc	40
	.cfi_def_cfa_offset 64
	leaq	128(%rsp), %rbp
	.seh_setframe	%rbp, 128
	.cfi_def_cfa 6, -64
	.seh_endprologue
	movq	%rcx, -64(%rbp)
.LBB44:
	.loc 20 40 16
	movq	-64(%rbp), %rax
	movq	%rax, %rcx
.LEHB15:
	call	_ZN12wxWindowBaseC2Ev
.LEHE15:
	movq	.refptr._ZTV8wxWindow(%rip), %rax
	leaq	16(%rax), %rdx
	movq	-64(%rbp), %rax
	movq	%rdx, (%rax)
	movq	-64(%rbp), %rax
	addq	$560, %rax
	movq	%rax, %rcx
	call	_ZN7wxPointC1Ev
	movq	-64(%rbp), %rax
	addq	$568, %rax
	movq	%rax, %rcx
	call	_ZN6wxSizeC1Ev
	.loc 20 40 22
	movq	-64(%rbp), %rcx
.LEHB16:
	call	_ZN8wxWindow4InitEv
.LEHE16:
.LBE44:
	.loc 20 40 26
	jmp	.L229
.L228:
	movq	%rax, %rbx
.LBB45:
	.loc 20 40 16
	movq	-64(%rbp), %rax
	movq	%rax, %rcx
	call	_ZN12wxWindowBaseD2Ev
	movq	%rbx, %rax
	movq	%rax, %rcx
.LEHB17:
	call	_Unwind_Resume
	nop
.LEHE17:
.L229:
.LBE45:
	.loc 20 40 26
	addq	$40, %rsp
	popq	%rbx
	.cfi_restore 3
	popq	%rbp
	.cfi_restore 6
	.cfi_def_cfa 7, -24
	ret
	.cfi_endproc
.LFE10342:
	.seh_handler	__gxx_personality_seh0, @unwind, @except
	.seh_handlerdata
.LLSDA10342:
	.byte	0xff
	.byte	0xff
	.byte	0x1
	.uleb128 .LLSDACSE10342-.LLSDACSB10342
.LLSDACSB10342:
	.uleb128 .LEHB15-.LFB10342
	.uleb128 .LEHE15-.LEHB15
	.uleb128 0
	.uleb128 0
	.uleb128 .LEHB16-.LFB10342
	.uleb128 .LEHE16-.LEHB16
	.uleb128 .L228-.LFB10342
	.uleb128 0
	.uleb128 .LEHB17-.LFB10342
	.uleb128 .LEHE17-.LEHB17
	.uleb128 0
	.uleb128 0
.LLSDACSE10342:
	.section	.text$_ZN8wxWindowC2Ev,"x"
	.linkonce discard
	.seh_endproc
	.section	.text$_ZN8wxWindow14ShowWithEffectE12wxShowEffectj,"x"
	.linkonce discard
	.align 2
	.globl	_ZN8wxWindow14ShowWithEffectE12wxShowEffectj
	.def	_ZN8wxWindow14ShowWithEffectE12wxShowEffectj;	.scl	2;	.type	32;	.endef
	.seh_proc	_ZN8wxWindow14ShowWithEffectE12wxShowEffectj
_ZN8wxWindow14ShowWithEffectE12wxShowEffectj:
.LFB10347:
	.loc 20 73 18
	.cfi_startproc
	pushq	%rbp
	.seh_pushreg	%rbp
	.cfi_def_cfa_offset 16
	.cfi_offset 6, -16
	movq	%rsp, %rbp
	.seh_setframe	%rbp, 0
	.cfi_def_cfa_register 6
	subq	$32, %rsp
	.seh_stackalloc	32
	.seh_endprologue
	movq	%rcx, 16(%rbp)
	movl	%edx, 24(%rbp)
	movl	%r8d, 32(%rbp)
	.loc 20 76 33
	movl	32(%rbp), %edx
	movl	24(%rbp), %eax
	movl	%edx, %r9d
	movl	%eax, %r8d
	movl	$1, %edx
	movq	16(%rbp), %rcx
	call	_ZN8wxWindow17MSWShowWithEffectEb12wxShowEffectj
	.loc 20 77 5
	addq	$32, %rsp
	popq	%rbp
	.cfi_restore 6
	.cfi_def_cfa 7, 8
	ret
	.cfi_endproc
.LFE10347:
	.seh_endproc
	.section	.text$_ZN8wxWindow14HideWithEffectE12wxShowEffectj,"x"
	.linkonce discard
	.align 2
	.globl	_ZN8wxWindow14HideWithEffectE12wxShowEffectj
	.def	_ZN8wxWindow14HideWithEffectE12wxShowEffectj;	.scl	2;	.type	32;	.endef
	.seh_proc	_ZN8wxWindow14HideWithEffectE12wxShowEffectj
_ZN8wxWindow14HideWithEffectE12wxShowEffectj:
.LFB10348:
	.loc 20 78 18
	.cfi_startproc
	pushq	%rbp
	.seh_pushreg	%rbp
	.cfi_def_cfa_offset 16
	.cfi_offset 6, -16
	movq	%rsp, %rbp
	.seh_setframe	%rbp, 0
	.cfi_def_cfa_register 6
	subq	$32, %rsp
	.seh_stackalloc	32
	.seh_endprologue
	movq	%rcx, 16(%rbp)
	movl	%edx, 24(%rbp)
	movl	%r8d, 32(%rbp)
	.loc 20 81 33
	movl	32(%rbp), %edx
	movl	24(%rbp), %eax
	movl	%edx, %r9d
	movl	%eax, %r8d
	movl	$0, %edx
	movq	16(%rbp), %rcx
	call	_ZN8wxWindow17MSWShowWithEffectEb12wxShowEffectj
	.loc 20 82 5
	addq	$32, %rsp
	popq	%rbp
	.cfi_restore 6
	.cfi_def_cfa 7, 8
	ret
	.cfi_endproc
.LFE10348:
	.seh_endproc
	.section	.text$_ZNK8wxWindow7GetHWNDEv,"x"
	.linkonce discard
	.align 2
	.globl	_ZNK8wxWindow7GetHWNDEv
	.def	_ZNK8wxWindow7GetHWNDEv;	.scl	2;	.type	32;	.endef
	.seh_proc	_ZNK8wxWindow7GetHWNDEv
_ZNK8wxWindow7GetHWNDEv:
.LFB10349:
	.loc 20 151 12
	.cfi_startproc
	pushq	%rbp
	.seh_pushreg	%rbp
	.cfi_def_cfa_offset 16
	.cfi_offset 6, -16
	movq	%rsp, %rbp
	.seh_setframe	%rbp, 0
	.cfi_def_cfa_register 6
	.seh_endprologue
	movq	%rcx, 16(%rbp)
	.loc 20 151 37
	movq	16(%rbp), %rax
	movq	520(%rax), %rax
	.loc 20 151 45
	popq	%rbp
	.cfi_restore 6
	.cfi_def_cfa 7, 8
	ret
	.cfi_endproc
.LFE10349:
	.seh_endproc
	.section	.text$_ZNK8wxWindow9GetHandleEv,"x"
	.linkonce discard
	.align 2
	.globl	_ZNK8wxWindow9GetHandleEv
	.def	_ZNK8wxWindow9GetHandleEv;	.scl	2;	.type	32;	.endef
	.seh_proc	_ZNK8wxWindow9GetHandleEv
_ZNK8wxWindow9GetHandleEv:
.LFB10351:
	.loc 20 153 22
	.cfi_startproc
	pushq	%rbp
	.seh_pushreg	%rbp
	.cfi_def_cfa_offset 16
	.cfi_offset 6, -16
	movq	%rsp, %rbp
	.seh_setframe	%rbp, 0
	.cfi_def_cfa_register 6
	subq	$32, %rsp
	.seh_stackalloc	32
	.seh_endprologue
	movq	%rcx, 16(%rbp)
	.loc 20 153 56
	movq	16(%rbp), %rcx
	call	_ZNK8wxWindow7GetHWNDEv
	.loc 20 153 60
	addq	$32, %rsp
	popq	%rbp
	.cfi_restore 6
	.cfi_def_cfa 7, 8
	ret
	.cfi_endproc
.LFE10351:
	.seh_endproc
	.section	.text$_ZNK8wxWindow12ContainsHWNDEP6HWND__,"x"
	.linkonce discard
	.align 2
	.globl	_ZNK8wxWindow12ContainsHWNDEP6HWND__
	.def	_ZNK8wxWindow12ContainsHWNDEP6HWND__;	.scl	2;	.type	32;	.endef
	.seh_proc	_ZNK8wxWindow12ContainsHWNDEP6HWND__
_ZNK8wxWindow12ContainsHWNDEP6HWND__:
.LFB10355:
	.loc 20 213 18
	.cfi_startproc
	pushq	%rbp
	.seh_pushreg	%rbp
	.cfi_def_cfa_offset 16
	.cfi_offset 6, -16
	movq	%rsp, %rbp
	.seh_setframe	%rbp, 0
	.cfi_def_cfa_register 6
	.seh_endprologue
	movq	%rcx, 16(%rbp)
	movq	%rdx, 24(%rbp)
	.loc 20 213 55
	movl	$0, %eax
	.loc 20 213 62
	popq	%rbp
	.cfi_restore 6
	.cfi_def_cfa 7, 8
	ret
	.cfi_endproc
.LFE10355:
	.seh_endproc
	.section	.text$_ZNK8wxWindow11HasToolTipsEv,"x"
	.linkonce discard
	.align 2
	.globl	_ZNK8wxWindow11HasToolTipsEv
	.def	_ZNK8wxWindow11HasToolTipsEv;	.scl	2;	.type	32;	.endef
	.seh_proc	_ZNK8wxWindow11HasToolTipsEv
_ZNK8wxWindow11HasToolTipsEv:
.LFB10356:
	.loc 20 217 18
	.cfi_startproc
	pushq	%rbp
	.seh_pushreg	%rbp
	.cfi_def_cfa_offset 16
	.cfi_offset 6, -16
	movq	%rsp, %rbp
	.seh_setframe	%rbp, 0
	.cfi_def_cfa_register 6
	subq	$32, %rsp
	.seh_stackalloc	32
	.seh_endprologue
	movq	%rcx, 16(%rbp)
	.loc 20 217 57
	movq	16(%rbp), %rax
	movq	%rax, %rcx
	call	_ZNK12wxWindowBase10GetToolTipEv
	.loc 20 217 62
	testq	%rax, %rax
	setne	%al
	.loc 20 217 68
	addq	$32, %rsp
	popq	%rbp
	.cfi_restore 6
	.cfi_def_cfa 7, 8
	ret
	.cfi_endproc
.LFE10356:
	.seh_endproc
	.section	.text$_ZNK8wxWindow17MSWAdjustBrushOrgEPiS0_,"x"
	.linkonce discard
	.align 2
	.globl	_ZNK8wxWindow17MSWAdjustBrushOrgEPiS0_
	.def	_ZNK8wxWindow17MSWAdjustBrushOrgEPiS0_;	.scl	2;	.type	32;	.endef
	.seh_proc	_ZNK8wxWindow17MSWAdjustBrushOrgEPiS0_
_ZNK8wxWindow17MSWAdjustBrushOrgEPiS0_:
.LFB10358:
	.loc 20 421 18
	.cfi_startproc
	pushq	%rbp
	.seh_pushreg	%rbp
	.cfi_def_cfa_offset 16
	.cfi_offset 6, -16
	movq	%rsp, %rbp
	.seh_setframe	%rbp, 0
	.cfi_def_cfa_register 6
	.seh_endprologue
	movq	%rcx, 16(%rbp)
	movq	%rdx, 24(%rbp)
	movq	%r8, 32(%rbp)
	.loc 20 424 5
	nop
	popq	%rbp
	.cfi_restore 6
	.cfi_def_cfa 7, 8
	ret
	.cfi_endproc
.LFE10358:
	.seh_endproc
	.section	.text$_ZN8wxWindow19MSWGetCustomBgBrushEv,"x"
	.linkonce discard
	.align 2
	.globl	_ZN8wxWindow19MSWGetCustomBgBrushEv
	.def	_ZN8wxWindow19MSWGetCustomBgBrushEv;	.scl	2;	.type	32;	.endef
	.seh_proc	_ZN8wxWindow19MSWGetCustomBgBrushEv
_ZN8wxWindow19MSWGetCustomBgBrushEv:
.LFB10359:
	.loc 20 429 22
	.cfi_startproc
	pushq	%rbp
	.seh_pushreg	%rbp
	.cfi_def_cfa_offset 16
	.cfi_offset 6, -16
	movq	%rsp, %rbp
	.seh_setframe	%rbp, 0
	.cfi_def_cfa_register 6
	.seh_endprologue
	movq	%rcx, 16(%rbp)
	.loc 20 429 53
	movl	$0, %eax
	.loc 20 429 56
	popq	%rbp
	.cfi_restore 6
	.cfi_def_cfa 7, 8
	ret
	.cfi_endproc
.LFE10359:
	.seh_endproc
	.section	.text$_ZN8wxWindow13MSWPrintChildEP5HDC__PS_,"x"
	.linkonce discard
	.align 2
	.globl	_ZN8wxWindow13MSWPrintChildEP5HDC__PS_
	.def	_ZN8wxWindow13MSWPrintChildEP5HDC__PS_;	.scl	2;	.type	32;	.endef
	.seh_proc	_ZN8wxWindow13MSWPrintChildEP5HDC__PS_
_ZN8wxWindow13MSWPrintChildEP5HDC__PS_:
.LFB10360:
	.loc 20 468 18
	.cfi_startproc
	pushq	%rbp
	.seh_pushreg	%rbp
	.cfi_def_cfa_offset 16
	.cfi_offset 6, -16
	movq	%rsp, %rbp
	.seh_setframe	%rbp, 0
	.cfi_def_cfa_register 6
	.seh_endprologue
	movq	%rcx, 16(%rbp)
	movq	%rdx, 24(%rbp)
	movq	%r8, 32(%rbp)
	.loc 20 470 16
	movl	$0, %eax
	.loc 20 471 5
	popq	%rbp
	.cfi_restore 6
	.cfi_def_cfa 7, 8
	ret
	.cfi_endproc
.LFE10360:
	.seh_endproc
	.section	.text$_ZN8wxWindow28MSWShouldPropagatePrintChildEv,"x"
	.linkonce discard
	.align 2
	.globl	_ZN8wxWindow28MSWShouldPropagatePrintChildEv
	.def	_ZN8wxWindow28MSWShouldPropagatePrintChildEv;	.scl	2;	.type	32;	.endef
	.seh_proc	_ZN8wxWindow28MSWShouldPropagatePrintChildEv
_ZN8wxWindow28MSWShouldPropagatePrintChildEv:
.LFB10361:
	.loc 20 476 18
	.cfi_startproc
	pushq	%rbp
	.seh_pushreg	%rbp
	.cfi_def_cfa_offset 16
	.cfi_offset 6, -16
	movq	%rsp, %rbp
	.seh_setframe	%rbp, 0
	.cfi_def_cfa_register 6
	.seh_endprologue
	movq	%rcx, 16(%rbp)
	.loc 20 478 16
	movl	$1, %eax
	.loc 20 479 5
	popq	%rbp
	.cfi_restore 6
	.cfi_def_cfa 7, 8
	ret
	.cfi_endproc
.LFE10361:
	.seh_endproc
	.section	.text$_ZNK8wxWindow27MSWHasInheritableBackgroundEv,"x"
	.linkonce discard
	.align 2
	.globl	_ZNK8wxWindow27MSWHasInheritableBackgroundEv
	.def	_ZNK8wxWindow27MSWHasInheritableBackgroundEv;	.scl	2;	.type	32;	.endef
	.seh_proc	_ZNK8wxWindow27MSWHasInheritableBackgroundEv
_ZNK8wxWindow27MSWHasInheritableBackgroundEv:
.LFB10362:
	.loc 20 487 18
	.cfi_startproc
	pushq	%rbp
	.seh_pushreg	%rbp
	.cfi_def_cfa_offset 16
	.cfi_offset 6, -16
	movq	%rsp, %rbp
	.seh_setframe	%rbp, 0
	.cfi_def_cfa_register 6
	subq	$32, %rsp
	.seh_stackalloc	32
	.seh_endprologue
	movq	%rcx, 16(%rbp)
	.loc 20 489 40
	movq	16(%rbp), %rax
	movq	%rax, %rcx
	call	_ZNK12wxWindowBase24InheritsBackgroundColourEv
	.loc 20 490 5
	addq	$32, %rsp
	popq	%rbp
	.cfi_restore 6
	.cfi_def_cfa 7, 8
	ret
	.cfi_endproc
.LFE10362:
	.seh_endproc
	.section	.text$_ZN8wxWindow14MSWEraseBgHookEP5HDC__,"x"
	.linkonce discard
	.align 2
	.globl	_ZN8wxWindow14MSWEraseBgHookEP5HDC__
	.def	_ZN8wxWindow14MSWEraseBgHookEP5HDC__;	.scl	2;	.type	32;	.endef
	.seh_proc	_ZN8wxWindow14MSWEraseBgHookEP5HDC__
_ZN8wxWindow14MSWEraseBgHookEP5HDC__:
.LFB10363:
	.loc 20 510 18
	.cfi_startproc
	pushq	%rbp
	.seh_pushreg	%rbp
	.cfi_def_cfa_offset 16
	.cfi_offset 6, -16
	movq	%rsp, %rbp
	.seh_setframe	%rbp, 0
	.cfi_def_cfa_register 6
	.seh_endprologue
	movq	%rcx, 16(%rbp)
	movq	%rdx, 24(%rbp)
	.loc 20 510 50
	movl	$0, %eax
	.loc 20 510 57
	popq	%rbp
	.cfi_restore 6
	.cfi_def_cfa 7, 8
	ret
	.cfi_endproc
.LFE10363:
	.seh_endproc
	.section	.text$_ZNK8wxWindow11MSWFindItemElP6HWND__,"x"
	.linkonce discard
	.align 2
	.globl	_ZNK8wxWindow11MSWFindItemElP6HWND__
	.def	_ZNK8wxWindow11MSWFindItemElP6HWND__;	.scl	2;	.type	32;	.endef
	.seh_proc	_ZNK8wxWindow11MSWFindItemElP6HWND__
_ZNK8wxWindow11MSWFindItemElP6HWND__:
.LFB10364:
	.loc 20 670 23
	.cfi_startproc
	pushq	%rbp
	.seh_pushreg	%rbp
	.cfi_def_cfa_offset 16
	.cfi_offset 6, -16
	movq	%rsp, %rbp
	.seh_setframe	%rbp, 0
	.cfi_def_cfa_register 6
	.seh_endprologue
	movq	%rcx, 16(%rbp)
	movl	%edx, 24(%rbp)
	movq	%r8, 32(%rbp)
	.loc 20 672 15
	movl	$0, %eax
	.loc 20 673 5
	popq	%rbp
	.cfi_restore 6
	.cfi_def_cfa 7, 8
	ret
	.cfi_endproc
.LFE10364:
	.seh_endproc
	.section	.text$_ZN8wxWindow20MSWEndDeferWindowPosEv,"x"
	.linkonce discard
	.align 2
	.globl	_ZN8wxWindow20MSWEndDeferWindowPosEv
	.def	_ZN8wxWindow20MSWEndDeferWindowPosEv;	.scl	2;	.type	32;	.endef
	.seh_proc	_ZN8wxWindow20MSWEndDeferWindowPosEv
_ZN8wxWindow20MSWEndDeferWindowPosEv:
.LFB10365:
	.loc 20 695 18
	.cfi_startproc
	pushq	%rbp
	.seh_pushreg	%rbp
	.cfi_def_cfa_offset 16
	.cfi_offset 6, -16
	movq	%rsp, %rbp
	.seh_setframe	%rbp, 0
	.cfi_def_cfa_register 6
	.seh_endprologue
	movq	%rcx, 16(%rbp)
	.loc 20 697 27
	movq	16(%rbp), %rax
	movq	.refptr.wxDefaultPosition(%rip), %rdx
	movq	(%rdx), %rdx
	movq	%rdx, 560(%rax)
	.loc 20 698 23
	movq	16(%rbp), %rax
	movq	.refptr.wxDefaultSize(%rip), %rdx
	movq	(%rdx), %rdx
	movq	%rdx, 568(%rax)
	.loc 20 699 5
	nop
	popq	%rbp
	.cfi_restore 6
	.cfi_def_cfa 7, 8
	ret
	.cfi_endproc
.LFE10365:
	.seh_endproc
	.section	.text$_ZN13wxControlBaseC2Ev,"x"
	.linkonce discard
	.align 2
	.globl	_ZN13wxControlBaseC2Ev
	.def	_ZN13wxControlBaseC2Ev;	.scl	2;	.type	32;	.endef
	.seh_proc	_ZN13wxControlBaseC2Ev
_ZN13wxControlBaseC2Ev:
.LFB10368:
	.file 21 "../wxMSW-3.0.5_gcc810_x64_Dev/include/wx/control.h"
	.loc 21 58 5
	.cfi_startproc
	pushq	%rbp
	.seh_pushreg	%rbp
	.cfi_def_cfa_offset 16
	.cfi_offset 6, -16
	movq	%rsp, %rbp
	.seh_setframe	%rbp, 0
	.cfi_def_cfa_register 6
	subq	$32, %rsp
	.seh_stackalloc	32
	.seh_endprologue
	movq	%rcx, 16(%rbp)
.LBB46:
	.loc 21 58 21
	movq	16(%rbp), %rax
	movq	%rax, %rcx
	call	_ZN8wxWindowC2Ev
	movq	.refptr._ZTV13wxControlBase(%rip), %rax
	leaq	16(%rax), %rdx
	movq	16(%rbp), %rax
	movq	%rdx, (%rax)
	movq	16(%rbp), %rax
	addq	$576, %rax
	movq	%rax, %rcx
	call	_ZN8wxStringC1Ev
.LBE46:
	.loc 21 58 23
	nop
	addq	$32, %rsp
	popq	%rbp
	.cfi_restore 6
	.cfi_def_cfa 7, 8
	ret
	.cfi_endproc
.LFE10368:
	.seh_endproc
	.section	.text$_ZN13wxControlBase8SetLabelERK8wxString,"x"
	.linkonce discard
	.align 2
	.globl	_ZN13wxControlBase8SetLabelERK8wxString
	.def	_ZN13wxControlBase8SetLabelERK8wxString;	.scl	2;	.type	32;	.endef
	.seh_proc	_ZN13wxControlBase8SetLabelERK8wxString
_ZN13wxControlBase8SetLabelERK8wxString:
.LFB10371:
	.loc 21 74 18
	.cfi_startproc
	pushq	%rbp
	.seh_pushreg	%rbp
	.cfi_def_cfa_offset 16
	.cfi_offset 6, -16
	movq	%rsp, %rbp
	.seh_setframe	%rbp, 0
	.cfi_def_cfa_register 6
	subq	$32, %rsp
	.seh_stackalloc	32
	.seh_endprologue
	movq	%rcx, 16(%rbp)
	movq	%rdx, 24(%rbp)
	.loc 21 76 23
	movq	16(%rbp), %rax
	addq	$576, %rax
	movq	24(%rbp), %rdx
	movq	%rax, %rcx
	call	_ZN8wxStringaSERKS_
	.loc 21 78 27
	movq	16(%rbp), %rax
	movq	%rax, %rcx
	call	_ZN12wxWindowBase18InvalidateBestSizeEv
	.loc 21 80 27
	movq	16(%rbp), %rax
	movq	24(%rbp), %rdx
	movq	%rax, %rcx
	call	_ZN8wxWindow8SetLabelERK8wxString
	.loc 21 81 5
	nop
	addq	$32, %rsp
	popq	%rbp
	.cfi_restore 6
	.cfi_def_cfa 7, 8
	ret
	.cfi_endproc
.LFE10371:
	.seh_endproc
	.section	.text$_ZNK13wxControlBase8GetLabelEv,"x"
	.linkonce discard
	.align 2
	.globl	_ZNK13wxControlBase8GetLabelEv
	.def	_ZNK13wxControlBase8GetLabelEv;	.scl	2;	.type	32;	.endef
	.seh_proc	_ZNK13wxControlBase8GetLabelEv
_ZNK13wxControlBase8GetLabelEv:
.LFB10372:
	.loc 21 85 22
	.cfi_startproc
	pushq	%rbp
	.seh_pushreg	%rbp
	.cfi_def_cfa_offset 16
	.cfi_offset 6, -16
	movq	%rsp, %rbp
	.seh_setframe	%rbp, 0
	.cfi_def_cfa_register 6
	subq	$32, %rsp
	.seh_stackalloc	32
	.seh_endprologue
	movq	%rcx, 16(%rbp)
	movq	%rdx, 24(%rbp)
	.loc 21 85 48
	movq	24(%rbp), %rax
	addq	$576, %rax
	movq	%rax, %rdx
	movq	16(%rbp), %rcx
	call	_ZN8wxStringC1ERKS_
	.loc 21 85 61
	movq	16(%rbp), %rax
	addq	$32, %rsp
	popq	%rbp
	.cfi_restore 6
	.cfi_def_cfa 7, 8
	ret
	.cfi_endproc
.LFE10372:
	.seh_endproc
	.section	.text$_ZN13wxControlBase12SetLabelTextERK8wxString,"x"
	.linkonce discard
	.align 2
	.globl	_ZN13wxControlBase12SetLabelTextERK8wxString
	.def	_ZN13wxControlBase12SetLabelTextERK8wxString;	.scl	2;	.type	32;	.endef
	.seh_proc	_ZN13wxControlBase12SetLabelTextERK8wxString
_ZN13wxControlBase12SetLabelTextERK8wxString:
.LFB10373:
	.loc 21 88 18
	.cfi_startproc
	pushq	%rbp
	.seh_pushreg	%rbp
	.cfi_def_cfa_offset 16
	.cfi_offset 6, -16
	pushq	%rbx
	.seh_pushreg	%rbx
	.cfi_def_cfa_offset 24
	.cfi_offset 3, -24
	subq	$88, %rsp
	.seh_stackalloc	88
	.cfi_def_cfa_offset 112
	leaq	128(%rsp), %rbp
	.seh_setframe	%rbp, 128
	.cfi_def_cfa 6, -16
	.seh_endprologue
	movq	%rcx, -16(%rbp)
	movq	%rdx, -8(%rbp)
	.loc 21 90 39
	movq	-16(%rbp), %rax
	movq	(%rax), %rax
	addq	$176, %rax
	movq	(%rax), %rbx
	.loc 21 90 33
	leaq	-96(%rbp), %rax
	movq	-8(%rbp), %rdx
	movq	%rax, %rcx
.LEHB18:
	call	_ZN13wxControlBase15EscapeMnemonicsERK8wxString
.LEHE18:
	.loc 21 90 17
	leaq	-96(%rbp), %rax
	movq	%rax, %rdx
	movq	-16(%rbp), %rcx
.LEHB19:
	call	*%rbx
.LVL19:
.LEHE19:
	.loc 21 90 33 discriminator 2
	leaq	-96(%rbp), %rax
	movq	%rax, %rcx
	call	_ZN8wxStringD1Ev
	.loc 21 91 5 discriminator 2
	jmp	.L263
.L262:
	movq	%rax, %rbx
	.loc 21 90 33
	leaq	-96(%rbp), %rax
	movq	%rax, %rcx
	call	_ZN8wxStringD1Ev
	movq	%rbx, %rax
	movq	%rax, %rcx
.LEHB20:
	call	_Unwind_Resume
	nop
.LEHE20:
.L263:
	.loc 21 91 5
	addq	$88, %rsp
	popq	%rbx
	.cfi_restore 3
	popq	%rbp
	.cfi_restore 6
	.cfi_def_cfa 7, -72
	ret
	.cfi_endproc
.LFE10373:
	.seh_handler	__gxx_personality_seh0, @unwind, @except
	.seh_handlerdata
.LLSDA10373:
	.byte	0xff
	.byte	0xff
	.byte	0x1
	.uleb128 .LLSDACSE10373-.LLSDACSB10373
.LLSDACSB10373:
	.uleb128 .LEHB18-.LFB10373
	.uleb128 .LEHE18-.LEHB18
	.uleb128 0
	.uleb128 0
	.uleb128 .LEHB19-.LFB10373
	.uleb128 .LEHE19-.LEHB19
	.uleb128 .L262-.LFB10373
	.uleb128 0
	.uleb128 .LEHB20-.LFB10373
	.uleb128 .LEHE20-.LEHB20
	.uleb128 0
	.uleb128 0
.LLSDACSE10373:
	.section	.text$_ZN13wxControlBase12SetLabelTextERK8wxString,"x"
	.linkonce discard
	.seh_endproc
	.section	.text$_ZNK13wxControlBase12GetLabelTextEv,"x"
	.linkonce discard
	.align 2
	.globl	_ZNK13wxControlBase12GetLabelTextEv
	.def	_ZNK13wxControlBase12GetLabelTextEv;	.scl	2;	.type	32;	.endef
	.seh_proc	_ZNK13wxControlBase12GetLabelTextEv
_ZNK13wxControlBase12GetLabelTextEv:
.LFB10374:
	.loc 21 94 22
	.cfi_startproc
	pushq	%rbp
	.seh_pushreg	%rbp
	.cfi_def_cfa_offset 16
	.cfi_offset 6, -16
	pushq	%rbx
	.seh_pushreg	%rbx
	.cfi_def_cfa_offset 24
	.cfi_offset 3, -24
	subq	$88, %rsp
	.seh_stackalloc	88
	.cfi_def_cfa_offset 112
	leaq	128(%rsp), %rbp
	.seh_setframe	%rbp, 128
	.cfi_def_cfa 6, -16
	.seh_endprologue
	movq	%rcx, -16(%rbp)
	movq	%rdx, -8(%rbp)
	.loc 21 94 74
	movq	-8(%rbp), %rax
	movq	(%rax), %rax
	addq	$184, %rax
	movq	(%rax), %r8
	.loc 21 94 73
	leaq	-96(%rbp), %rax
	movq	-8(%rbp), %rdx
	movq	%rax, %rcx
.LEHB21:
	call	*%r8
.LVL20:
.LEHE21:
	.loc 21 94 75
	movq	-16(%rbp), %rcx
	leaq	-96(%rbp), %rax
	movq	%rax, %rdx
.LEHB22:
	call	_ZN13wxControlBase12GetLabelTextERK8wxString
.LEHE22:
	nop
	.loc 21 94 73
	leaq	-96(%rbp), %rax
	movq	%rax, %rcx
	call	_ZN8wxStringD1Ev
	.loc 21 94 75
	jmp	.L268
.L267:
	movq	%rax, %rbx
	.loc 21 94 73
	leaq	-96(%rbp), %rax
	movq	%rax, %rcx
	call	_ZN8wxStringD1Ev
	movq	%rbx, %rax
	movq	%rax, %rcx
.LEHB23:
	call	_Unwind_Resume
.LEHE23:
.L268:
	.loc 21 94 78
	movq	-16(%rbp), %rax
	addq	$88, %rsp
	popq	%rbx
	.cfi_restore 3
	popq	%rbp
	.cfi_restore 6
	.cfi_def_cfa 7, -72
	ret
	.cfi_endproc
.LFE10374:
	.seh_handler	__gxx_personality_seh0, @unwind, @except
	.seh_handlerdata
.LLSDA10374:
	.byte	0xff
	.byte	0xff
	.byte	0x1
	.uleb128 .LLSDACSE10374-.LLSDACSB10374
.LLSDACSB10374:
	.uleb128 .LEHB21-.LFB10374
	.uleb128 .LEHE21-.LEHB21
	.uleb128 0
	.uleb128 0
	.uleb128 .LEHB22-.LFB10374
	.uleb128 .LEHE22-.LEHB22
	.uleb128 .L267-.LFB10374
	.uleb128 0
	.uleb128 .LEHB23-.LFB10374
	.uleb128 .LEHE23-.LEHB23
	.uleb128 0
	.uleb128 0
.LLSDACSE10374:
	.section	.text$_ZNK13wxControlBase12GetLabelTextEv,"x"
	.linkonce discard
	.seh_endproc
	.section	.text$_ZN9wxControlC2Ev,"x"
	.linkonce discard
	.align 2
	.globl	_ZN9wxControlC2Ev
	.def	_ZN9wxControlC2Ev;	.scl	2;	.type	32;	.endef
	.seh_proc	_ZN9wxControlC2Ev
_ZN9wxControlC2Ev:
.LFB10380:
	.file 22 "../wxMSW-3.0.5_gcc810_x64_Dev/include/wx/msw/control.h"
	.loc 22 20 5
	.cfi_startproc
	pushq	%rbp
	.seh_pushreg	%rbp
	.cfi_def_cfa_offset 16
	.cfi_offset 6, -16
	pushq	%rbx
	.seh_pushreg	%rbx
	.cfi_def_cfa_offset 24
	.cfi_offset 3, -24
	subq	$40, %rsp
	.seh_stackalloc	40
	.cfi_def_cfa_offset 64
	leaq	128(%rsp), %rbp
	.seh_setframe	%rbp, 128
	.cfi_def_cfa 6, -64
	.seh_endprologue
	movq	%rcx, -64(%rbp)
.LBB47:
	.loc 22 20 17
	movq	-64(%rbp), %rax
	movq	%rax, %rcx
.LEHB24:
	call	_ZN13wxControlBaseC2Ev
.LEHE24:
	movq	.refptr._ZTV9wxControl(%rip), %rax
	leaq	16(%rax), %rdx
	movq	-64(%rbp), %rax
	movq	%rdx, (%rax)
	movq	-64(%rbp), %rax
	addq	$624, %rax
	movq	%rax, %rcx
.LEHB25:
	call	_ZN11wxArrayLongC1Ev
.LEHE25:
.LBE47:
	.loc 22 20 19
	jmp	.L272
.L271:
	movq	%rax, %rbx
.LBB48:
	.loc 22 20 17
	movq	-64(%rbp), %rax
	movq	%rax, %rcx
	call	_ZN13wxControlBaseD2Ev
	movq	%rbx, %rax
	movq	%rax, %rcx
.LEHB26:
	call	_Unwind_Resume
	nop
.LEHE26:
.L272:
.LBE48:
	.loc 22 20 19
	addq	$40, %rsp
	popq	%rbx
	.cfi_restore 3
	popq	%rbp
	.cfi_restore 6
	.cfi_def_cfa 7, -24
	ret
	.cfi_endproc
.LFE10380:
	.seh_handler	__gxx_personality_seh0, @unwind, @except
	.seh_handlerdata
.LLSDA10380:
	.byte	0xff
	.byte	0xff
	.byte	0x1
	.uleb128 .LLSDACSE10380-.LLSDACSB10380
.LLSDACSB10380:
	.uleb128 .LEHB24-.LFB10380
	.uleb128 .LEHE24-.LEHB24
	.uleb128 0
	.uleb128 0
	.uleb128 .LEHB25-.LFB10380
	.uleb128 .LEHE25-.LEHB25
	.uleb128 .L271-.LFB10380
	.uleb128 0
	.uleb128 .LEHB26-.LFB10380
	.uleb128 .LEHE26-.LEHB26
	.uleb128 0
	.uleb128 0
.LLSDACSE10380:
	.section	.text$_ZN9wxControlC2Ev,"x"
	.linkonce discard
	.seh_endproc
	.section	.text$_ZN9wxControl7CommandER14wxCommandEvent,"x"
	.linkonce discard
	.align 2
	.globl	_ZN9wxControl7CommandER14wxCommandEvent
	.def	_ZN9wxControl7CommandER14wxCommandEvent;	.scl	2;	.type	32;	.endef
	.seh_proc	_ZN9wxControl7CommandER14wxCommandEvent
_ZN9wxControl7CommandER14wxCommandEvent:
.LFB10385:
	.loc 22 39 18
	.cfi_startproc
	pushq	%rbp
	.seh_pushreg	%rbp
	.cfi_def_cfa_offset 16
	.cfi_offset 6, -16
	movq	%rsp, %rbp
	.seh_setframe	%rbp, 0
	.cfi_def_cfa_register 6
	subq	$32, %rsp
	.seh_stackalloc	32
	.seh_endprologue
	movq	%rcx, 16(%rbp)
	movq	%rdx, 24(%rbp)
	.loc 22 39 65
	movq	24(%rbp), %rax
	movq	%rax, %rdx
	movq	16(%rbp), %rcx
	call	_ZN9wxControl14ProcessCommandER14wxCommandEvent
	.loc 22 39 74
	nop
	addq	$32, %rsp
	popq	%rbp
	.cfi_restore 6
	.cfi_def_cfa 7, 8
	ret
	.cfi_endproc
.LFE10385:
	.seh_endproc
	.section	.text$_ZNK9wxControl20GetDefaultAttributesEv,"x"
	.linkonce discard
	.align 2
	.globl	_ZNK9wxControl20GetDefaultAttributesEv
	.def	_ZNK9wxControl20GetDefaultAttributesEv;	.scl	2;	.type	32;	.endef
	.seh_proc	_ZNK9wxControl20GetDefaultAttributesEv
_ZNK9wxControl20GetDefaultAttributesEv:
.LFB10386:
	.loc 22 45 32
	.cfi_startproc
	pushq	%rbp
	.seh_pushreg	%rbp
	.cfi_def_cfa_offset 16
	.cfi_offset 6, -16
	movq	%rsp, %rbp
	.seh_setframe	%rbp, 0
	.cfi_def_cfa_register 6
	subq	$32, %rsp
	.seh_stackalloc	32
	.seh_endprologue
	movq	%rcx, 16(%rbp)
	movq	%rdx, 24(%rbp)
	.loc 22 47 60
	movq	24(%rbp), %rax
	movq	%rax, %rcx
	call	_ZNK12wxWindowBase16GetWindowVariantEv
	movl	%eax, %edx
	movq	16(%rbp), %rax
	movq	%rax, %rcx
	call	_ZN9wxControl25GetClassDefaultAttributesE15wxWindowVariant
	.loc 22 48 5
	movq	16(%rbp), %rax
	addq	$32, %rsp
	popq	%rbp
	.cfi_restore 6
	.cfi_def_cfa 7, 8
	ret
	.cfi_endproc
.LFE10386:
	.seh_endproc
	.section	.text$_ZN9wxControl9MSWOnDrawEPPv,"x"
	.linkonce discard
	.align 2
	.globl	_ZN9wxControl9MSWOnDrawEPPv
	.def	_ZN9wxControl9MSWOnDrawEPPv;	.scl	2;	.type	32;	.endef
	.seh_proc	_ZN9wxControl9MSWOnDrawEPPv
_ZN9wxControl9MSWOnDrawEPPv:
.LFB10387:
	.loc 22 60 18
	.cfi_startproc
	pushq	%rbp
	.seh_pushreg	%rbp
	.cfi_def_cfa_offset 16
	.cfi_offset 6, -16
	movq	%rsp, %rbp
	.seh_setframe	%rbp, 0
	.cfi_def_cfa_register 6
	.seh_endprologue
	movq	%rcx, 16(%rbp)
	movq	%rdx, 24(%rbp)
	.loc 22 60 57
	movl	$0, %eax
	.loc 22 60 64
	popq	%rbp
	.cfi_restore 6
	.cfi_def_cfa 7, 8
	ret
	.cfi_endproc
.LFE10387:
	.seh_endproc
	.section	.text$_ZN9wxControl12MSWOnMeasureEPPv,"x"
	.linkonce discard
	.align 2
	.globl	_ZN9wxControl12MSWOnMeasureEPPv
	.def	_ZN9wxControl12MSWOnMeasureEPPv;	.scl	2;	.type	32;	.endef
	.seh_proc	_ZN9wxControl12MSWOnMeasureEPPv
_ZN9wxControl12MSWOnMeasureEPPv:
.LFB10388:
	.loc 22 61 18
	.cfi_startproc
	pushq	%rbp
	.seh_pushreg	%rbp
	.cfi_def_cfa_offset 16
	.cfi_offset 6, -16
	movq	%rsp, %rbp
	.seh_setframe	%rbp, 0
	.cfi_def_cfa_register 6
	.seh_endprologue
	movq	%rcx, 16(%rbp)
	movq	%rdx, 24(%rbp)
	.loc 22 61 63
	movl	$0, %eax
	.loc 22 61 70
	popq	%rbp
	.cfi_restore 6
	.cfi_def_cfa 7, 8
	ret
	.cfi_endproc
.LFE10388:
	.seh_endproc
	.section	.text$_ZN9wxControlD2Ev,"x"
	.linkonce discard
	.align 2
	.globl	_ZN9wxControlD2Ev
	.def	_ZN9wxControlD2Ev;	.scl	2;	.type	32;	.endef
	.seh_proc	_ZN9wxControlD2Ev
_ZN9wxControlD2Ev:
.LFB10392:
	.loc 22 17 7
	.cfi_startproc
	pushq	%rbp
	.seh_pushreg	%rbp
	.cfi_def_cfa_offset 16
	.cfi_offset 6, -16
	movq	%rsp, %rbp
	.seh_setframe	%rbp, 0
	.cfi_def_cfa_register 6
	subq	$32, %rsp
	.seh_stackalloc	32
	.seh_endprologue
	movq	%rcx, 16(%rbp)
.LBB49:
	.loc 22 17 7
	movq	.refptr._ZTV9wxControl(%rip), %rax
	leaq	16(%rax), %rdx
	movq	16(%rbp), %rax
	movq	%rdx, (%rax)
	movq	16(%rbp), %rax
	addq	$624, %rax
	movq	%rax, %rcx
	call	_ZN11wxArrayLongD1Ev
	movq	16(%rbp), %rax
	movq	%rax, %rcx
	call	_ZN13wxControlBaseD2Ev
.LBE49:
	nop
	addq	$32, %rsp
	popq	%rbp
	.cfi_restore 6
	.cfi_def_cfa 7, 8
	ret
	.cfi_endproc
.LFE10392:
	.seh_endproc
	.section	.text$_ZN15wxAnyButtonBaseC2Ev,"x"
	.linkonce discard
	.align 2
	.globl	_ZN15wxAnyButtonBaseC2Ev
	.def	_ZN15wxAnyButtonBaseC2Ev;	.scl	2;	.type	32;	.endef
	.seh_proc	_ZN15wxAnyButtonBaseC2Ev
_ZN15wxAnyButtonBaseC2Ev:
.LFB10395:
	.file 23 "../wxMSW-3.0.5_gcc810_x64_Dev/include/wx/anybutton.h"
	.loc 23 54 5
	.cfi_startproc
	pushq	%rbp
	.seh_pushreg	%rbp
	.cfi_def_cfa_offset 16
	.cfi_offset 6, -16
	movq	%rsp, %rbp
	.seh_setframe	%rbp, 0
	.cfi_def_cfa_register 6
	subq	$32, %rsp
	.seh_stackalloc	32
	.seh_endprologue
	movq	%rcx, 16(%rbp)
.LBB50:
	.loc 23 54 23
	movq	16(%rbp), %rax
	movq	%rax, %rcx
	call	_ZN9wxControlC2Ev
	leaq	16+_ZTV15wxAnyButtonBase(%rip), %rdx
	movq	16(%rbp), %rax
	movq	%rdx, (%rax)
.LBE50:
	.loc 23 54 25
	nop
	addq	$32, %rsp
	popq	%rbp
	.cfi_restore 6
	.cfi_def_cfa 7, 8
	ret
	.cfi_endproc
.LFE10395:
	.seh_endproc
	.section	.text$_ZNK15wxAnyButtonBase20ShouldInheritColoursEv,"x"
	.linkonce discard
	.align 2
	.globl	_ZNK15wxAnyButtonBase20ShouldInheritColoursEv
	.def	_ZNK15wxAnyButtonBase20ShouldInheritColoursEv;	.scl	2;	.type	32;	.endef
	.seh_proc	_ZNK15wxAnyButtonBase20ShouldInheritColoursEv
_ZNK15wxAnyButtonBase20ShouldInheritColoursEv:
.LFB10412:
	.loc 23 105 18
	.cfi_startproc
	pushq	%rbp
	.seh_pushreg	%rbp
	.cfi_def_cfa_offset 16
	.cfi_offset 6, -16
	movq	%rsp, %rbp
	.seh_setframe	%rbp, 0
	.cfi_def_cfa_register 6
	.seh_endprologue
	movq	%rcx, 16(%rbp)
	.loc 23 105 56
	movl	$0, %eax
	.loc 23 105 63
	popq	%rbp
	.cfi_restore 6
	.cfi_def_cfa 7, 8
	ret
	.cfi_endproc
.LFE10412:
	.seh_endproc
	.section	.text$_ZNK15wxAnyButtonBase16GetDefaultBorderEv,"x"
	.linkonce discard
	.align 2
	.globl	_ZNK15wxAnyButtonBase16GetDefaultBorderEv
	.def	_ZNK15wxAnyButtonBase16GetDefaultBorderEv;	.scl	2;	.type	32;	.endef
	.seh_proc	_ZNK15wxAnyButtonBase16GetDefaultBorderEv
_ZNK15wxAnyButtonBase16GetDefaultBorderEv:
.LFB10421:
	.loc 23 153 22
	.cfi_startproc
	pushq	%rbp
	.seh_pushreg	%rbp
	.cfi_def_cfa_offset 16
	.cfi_offset 6, -16
	movq	%rsp, %rbp
	.seh_setframe	%rbp, 0
	.cfi_def_cfa_register 6
	.seh_endprologue
	movq	%rcx, 16(%rbp)
	.loc 23 153 56
	movl	$2097152, %eax
	.loc 23 153 71
	popq	%rbp
	.cfi_restore 6
	.cfi_def_cfa 7, 8
	ret
	.cfi_endproc
.LFE10421:
	.seh_endproc
	.section	.text$_ZNK15wxAnyButtonBase11DoGetBitmapENS_5StateE,"x"
	.linkonce discard
	.align 2
	.globl	_ZNK15wxAnyButtonBase11DoGetBitmapENS_5StateE
	.def	_ZNK15wxAnyButtonBase11DoGetBitmapENS_5StateE;	.scl	2;	.type	32;	.endef
	.seh_proc	_ZNK15wxAnyButtonBase11DoGetBitmapENS_5StateE
_ZNK15wxAnyButtonBase11DoGetBitmapENS_5StateE:
.LFB10422:
	.loc 23 155 22
	.cfi_startproc
	pushq	%rbp
	.seh_pushreg	%rbp
	.cfi_def_cfa_offset 16
	.cfi_offset 6, -16
	movq	%rsp, %rbp
	.seh_setframe	%rbp, 0
	.cfi_def_cfa_register 6
	subq	$32, %rsp
	.seh_stackalloc	32
	.seh_endprologue
	movq	%rcx, 16(%rbp)
	movq	%rdx, 24(%rbp)
	movl	%r8d, 32(%rbp)
	.loc 23 156 27
	movq	16(%rbp), %rcx
	call	_ZN8wxBitmapC1Ev
	.loc 23 156 30
	movq	16(%rbp), %rax
	addq	$32, %rsp
	popq	%rbp
	.cfi_restore 6
	.cfi_def_cfa 7, 8
	ret
	.cfi_endproc
.LFE10422:
	.seh_endproc
	.section	.text$_ZN15wxAnyButtonBase11DoSetBitmapERK8wxBitmapNS_5StateE,"x"
	.linkonce discard
	.align 2
	.globl	_ZN15wxAnyButtonBase11DoSetBitmapERK8wxBitmapNS_5StateE
	.def	_ZN15wxAnyButtonBase11DoSetBitmapERK8wxBitmapNS_5StateE;	.scl	2;	.type	32;	.endef
	.seh_proc	_ZN15wxAnyButtonBase11DoSetBitmapERK8wxBitmapNS_5StateE
_ZN15wxAnyButtonBase11DoSetBitmapERK8wxBitmapNS_5StateE:
.LFB10423:
	.loc 23 157 18
	.cfi_startproc
	pushq	%rbp
	.seh_pushreg	%rbp
	.cfi_def_cfa_offset 16
	.cfi_offset 6, -16
	movq	%rsp, %rbp
	.seh_setframe	%rbp, 0
	.cfi_def_cfa_register 6
	.seh_endprologue
	movq	%rcx, 16(%rbp)
	movq	%rdx, 24(%rbp)
	movl	%r8d, 32(%rbp)
	.loc 23 159 11
	nop
	popq	%rbp
	.cfi_restore 6
	.cfi_def_cfa 7, 8
	ret
	.cfi_endproc
.LFE10423:
	.seh_endproc
	.section	.text$_ZNK15wxAnyButtonBase18DoGetBitmapMarginsEv,"x"
	.linkonce discard
	.align 2
	.globl	_ZNK15wxAnyButtonBase18DoGetBitmapMarginsEv
	.def	_ZNK15wxAnyButtonBase18DoGetBitmapMarginsEv;	.scl	2;	.type	32;	.endef
	.seh_proc	_ZNK15wxAnyButtonBase18DoGetBitmapMarginsEv
_ZNK15wxAnyButtonBase18DoGetBitmapMarginsEv:
.LFB10424:
	.loc 23 161 20
	.cfi_startproc
	pushq	%rbp
	.seh_pushreg	%rbp
	.cfi_def_cfa_offset 16
	.cfi_offset 6, -16
	movq	%rsp, %rbp
	.seh_setframe	%rbp, 0
	.cfi_def_cfa_register 6
	subq	$48, %rsp
	.seh_stackalloc	48
	.seh_endprologue
	movq	%rcx, 16(%rbp)
	.loc 23 162 18
	leaq	-8(%rbp), %rax
	movl	$0, %r8d
	movl	$0, %edx
	movq	%rax, %rcx
	call	_ZN6wxSizeC1Eii
	.loc 23 162 29
	movq	-8(%rbp), %rax
	.loc 23 162 32
	addq	$48, %rsp
	popq	%rbp
	.cfi_restore 6
	.cfi_def_cfa 7, 8
	ret
	.cfi_endproc
.LFE10424:
	.seh_endproc
	.section	.text$_ZN15wxAnyButtonBase18DoSetBitmapMarginsEii,"x"
	.linkonce discard
	.align 2
	.globl	_ZN15wxAnyButtonBase18DoSetBitmapMarginsEii
	.def	_ZN15wxAnyButtonBase18DoSetBitmapMarginsEii;	.scl	2;	.type	32;	.endef
	.seh_proc	_ZN15wxAnyButtonBase18DoSetBitmapMarginsEii
_ZN15wxAnyButtonBase18DoSetBitmapMarginsEii:
.LFB10425:
	.loc 23 164 18
	.cfi_startproc
	pushq	%rbp
	.seh_pushreg	%rbp
	.cfi_def_cfa_offset 16
	.cfi_offset 6, -16
	movq	%rsp, %rbp
	.seh_setframe	%rbp, 0
	.cfi_def_cfa_register 6
	.seh_endprologue
	movq	%rcx, 16(%rbp)
	movl	%edx, 24(%rbp)
	movl	%r8d, 32(%rbp)
	.loc 23 165 11
	nop
	popq	%rbp
	.cfi_restore 6
	.cfi_def_cfa 7, 8
	ret
	.cfi_endproc
.LFE10425:
	.seh_endproc
	.section	.text$_ZN15wxAnyButtonBase19DoSetBitmapPositionE11wxDirection,"x"
	.linkonce discard
	.align 2
	.globl	_ZN15wxAnyButtonBase19DoSetBitmapPositionE11wxDirection
	.def	_ZN15wxAnyButtonBase19DoSetBitmapPositionE11wxDirection;	.scl	2;	.type	32;	.endef
	.seh_proc	_ZN15wxAnyButtonBase19DoSetBitmapPositionE11wxDirection
_ZN15wxAnyButtonBase19DoSetBitmapPositionE11wxDirection:
.LFB10426:
	.loc 23 167 18
	.cfi_startproc
	pushq	%rbp
	.seh_pushreg	%rbp
	.cfi_def_cfa_offset 16
	.cfi_offset 6, -16
	movq	%rsp, %rbp
	.seh_setframe	%rbp, 0
	.cfi_def_cfa_register 6
	.seh_endprologue
	movq	%rcx, 16(%rbp)
	movl	%edx, 24(%rbp)
	.loc 23 168 11
	nop
	popq	%rbp
	.cfi_restore 6
	.cfi_def_cfa 7, 8
	ret
	.cfi_endproc
.LFE10426:
	.seh_endproc
	.section	.text$_ZNK15wxAnyButtonBase15DoGetAuthNeededEv,"x"
	.linkonce discard
	.align 2
	.globl	_ZNK15wxAnyButtonBase15DoGetAuthNeededEv
	.def	_ZNK15wxAnyButtonBase15DoGetAuthNeededEv;	.scl	2;	.type	32;	.endef
	.seh_proc	_ZNK15wxAnyButtonBase15DoGetAuthNeededEv
_ZNK15wxAnyButtonBase15DoGetAuthNeededEv:
.LFB10427:
	.loc 23 170 18
	.cfi_startproc
	pushq	%rbp
	.seh_pushreg	%rbp
	.cfi_def_cfa_offset 16
	.cfi_offset 6, -16
	movq	%rsp, %rbp
	.seh_setframe	%rbp, 0
	.cfi_def_cfa_register 6
	.seh_endprologue
	movq	%rcx, 16(%rbp)
	.loc 23 170 51
	movl	$0, %eax
	.loc 23 170 58
	popq	%rbp
	.cfi_restore 6
	.cfi_def_cfa 7, 8
	ret
	.cfi_endproc
.LFE10427:
	.seh_endproc
	.section	.text$_ZN15wxAnyButtonBase15DoSetAuthNeededEb,"x"
	.linkonce discard
	.align 2
	.globl	_ZN15wxAnyButtonBase15DoSetAuthNeededEb
	.def	_ZN15wxAnyButtonBase15DoSetAuthNeededEb;	.scl	2;	.type	32;	.endef
	.seh_proc	_ZN15wxAnyButtonBase15DoSetAuthNeededEb
_ZN15wxAnyButtonBase15DoSetAuthNeededEb:
.LFB10428:
	.loc 23 171 18
	.cfi_startproc
	pushq	%rbp
	.seh_pushreg	%rbp
	.cfi_def_cfa_offset 16
	.cfi_offset 6, -16
	movq	%rsp, %rbp
	.seh_setframe	%rbp, 0
	.cfi_def_cfa_register 6
	.seh_endprologue
	movq	%rcx, 16(%rbp)
	movl	%edx, %eax
	movb	%al, 24(%rbp)
	.loc 23 171 43
	nop
	popq	%rbp
	.cfi_restore 6
	.cfi_def_cfa 7, 8
	ret
	.cfi_endproc
.LFE10428:
	.seh_endproc
	.section	.text$_ZN15wxAnyButtonBaseD1Ev,"x"
	.linkonce discard
	.align 2
	.globl	_ZN15wxAnyButtonBaseD1Ev
	.def	_ZN15wxAnyButtonBaseD1Ev;	.scl	2;	.type	32;	.endef
	.seh_proc	_ZN15wxAnyButtonBaseD1Ev
_ZN15wxAnyButtonBaseD1Ev:
.LFB10432:
	.loc 23 51 7
	.cfi_startproc
	pushq	%rbp
	.seh_pushreg	%rbp
	.cfi_def_cfa_offset 16
	.cfi_offset 6, -16
	movq	%rsp, %rbp
	.seh_setframe	%rbp, 0
	.cfi_def_cfa_register 6
	subq	$32, %rsp
	.seh_stackalloc	32
	.seh_endprologue
	movq	%rcx, 16(%rbp)
.LBB51:
	.loc 23 51 7
	leaq	16+_ZTV15wxAnyButtonBase(%rip), %rdx
	movq	16(%rbp), %rax
	movq	%rdx, (%rax)
	movq	16(%rbp), %rax
	movq	%rax, %rcx
	call	_ZN9wxControlD2Ev
.LBE51:
	nop
	addq	$32, %rsp
	popq	%rbp
	.cfi_restore 6
	.cfi_def_cfa 7, 8
	ret
	.cfi_endproc
.LFE10432:
	.seh_endproc
	.section	.text$_ZN15wxAnyButtonBaseD0Ev,"x"
	.linkonce discard
	.align 2
	.globl	_ZN15wxAnyButtonBaseD0Ev
	.def	_ZN15wxAnyButtonBaseD0Ev;	.scl	2;	.type	32;	.endef
	.seh_proc	_ZN15wxAnyButtonBaseD0Ev
_ZN15wxAnyButtonBaseD0Ev:
.LFB10433:
	.loc 23 51 7
	.cfi_startproc
	pushq	%rbp
	.seh_pushreg	%rbp
	.cfi_def_cfa_offset 16
	.cfi_offset 6, -16
	movq	%rsp, %rbp
	.seh_setframe	%rbp, 0
	.cfi_def_cfa_register 6
	subq	$32, %rsp
	.seh_stackalloc	32
	.seh_endprologue
	movq	%rcx, 16(%rbp)
	.loc 23 51 7
	movq	16(%rbp), %rcx
	call	_ZN15wxAnyButtonBaseD1Ev
	movq	16(%rbp), %rcx
	call	_ZdlPv
	nop
	addq	$32, %rsp
	popq	%rbp
	.cfi_restore 6
	.cfi_def_cfa 7, 8
	ret
	.cfi_endproc
.LFE10433:
	.seh_endproc
	.section	.text$_ZN11wxAnyButtonC2Ev,"x"
	.linkonce discard
	.align 2
	.globl	_ZN11wxAnyButtonC2Ev
	.def	_ZN11wxAnyButtonC2Ev;	.scl	2;	.type	32;	.endef
	.seh_proc	_ZN11wxAnyButtonC2Ev
_ZN11wxAnyButtonC2Ev:
.LFB10434:
	.file 24 "../wxMSW-3.0.5_gcc810_x64_Dev/include/wx/msw/anybutton.h"
	.loc 24 20 5
	.cfi_startproc
	pushq	%rbp
	.seh_pushreg	%rbp
	.cfi_def_cfa_offset 16
	.cfi_offset 6, -16
	movq	%rsp, %rbp
	.seh_setframe	%rbp, 0
	.cfi_def_cfa_register 6
	subq	$32, %rsp
	.seh_stackalloc	32
	.seh_endprologue
	movq	%rcx, 16(%rbp)
.LBB52:
	.loc 24 21 5
	movq	16(%rbp), %rax
	movq	%rax, %rcx
	call	_ZN15wxAnyButtonBaseC2Ev
	movq	.refptr._ZTV11wxAnyButton(%rip), %rax
	leaq	16(%rax), %rdx
	movq	16(%rbp), %rax
	movq	%rdx, (%rax)
	.loc 24 22 21
	movq	16(%rbp), %rax
	movq	$0, 648(%rax)
	.loc 24 24 22
	movq	16(%rbp), %rax
	movq	$0, 656(%rax)
.LBE52:
	.loc 24 26 5
	nop
	addq	$32, %rsp
	popq	%rbp
	.cfi_restore 6
	.cfi_def_cfa 7, 8
	ret
	.cfi_endproc
.LFE10434:
	.seh_endproc
	.section	.text$_ZN12wxButtonBaseC2Ev,"x"
	.linkonce discard
	.align 2
	.globl	_ZN12wxButtonBaseC2Ev
	.def	_ZN12wxButtonBaseC2Ev;	.scl	2;	.type	32;	.endef
	.seh_proc	_ZN12wxButtonBaseC2Ev
_ZN12wxButtonBaseC2Ev:
.LFB10439:
	.file 25 "../wxMSW-3.0.5_gcc810_x64_Dev/include/wx/button.h"
	.loc 25 29 5
	.cfi_startproc
	pushq	%rbp
	.seh_pushreg	%rbp
	.cfi_def_cfa_offset 16
	.cfi_offset 6, -16
	movq	%rsp, %rbp
	.seh_setframe	%rbp, 0
	.cfi_def_cfa_register 6
	subq	$32, %rsp
	.seh_stackalloc	32
	.seh_endprologue
	movq	%rcx, 16(%rbp)
.LBB53:
	.loc 25 29 20
	movq	16(%rbp), %rax
	movq	%rax, %rcx
	call	_ZN11wxAnyButtonC2Ev
	movq	.refptr._ZTV12wxButtonBase(%rip), %rax
	leaq	16(%rax), %rdx
	movq	16(%rbp), %rax
	movq	%rdx, (%rax)
.LBE53:
	.loc 25 29 22
	nop
	addq	$32, %rsp
	popq	%rbp
	.cfi_restore 6
	.cfi_def_cfa 7, 8
	ret
	.cfi_endproc
.LFE10439:
	.seh_endproc
	.section	.text$_ZN12wxButtonBaseD2Ev,"x"
	.linkonce discard
	.align 2
	.globl	_ZN12wxButtonBaseD2Ev
	.def	_ZN12wxButtonBaseD2Ev;	.scl	2;	.type	32;	.endef
	.seh_proc	_ZN12wxButtonBaseD2Ev
_ZN12wxButtonBaseD2Ev:
.LFB10445:
	.loc 25 26 7
	.cfi_startproc
	pushq	%rbp
	.seh_pushreg	%rbp
	.cfi_def_cfa_offset 16
	.cfi_offset 6, -16
	movq	%rsp, %rbp
	.seh_setframe	%rbp, 0
	.cfi_def_cfa_register 6
	subq	$32, %rsp
	.seh_stackalloc	32
	.seh_endprologue
	movq	%rcx, 16(%rbp)
.LBB54:
	.loc 25 26 7
	movq	.refptr._ZTV12wxButtonBase(%rip), %rax
	leaq	16(%rax), %rdx
	movq	16(%rbp), %rax
	movq	%rdx, (%rax)
	movq	16(%rbp), %rax
	movq	%rax, %rcx
	call	_ZN11wxAnyButtonD2Ev
.LBE54:
	nop
	addq	$32, %rsp
	popq	%rbp
	.cfi_restore 6
	.cfi_def_cfa 7, 8
	ret
	.cfi_endproc
.LFE10445:
	.seh_endproc
	.section	.text$_ZN8wxButtonC1EP8wxWindowiRK8wxStringRK7wxPointRK6wxSizelRK11wxValidatorS4_,"x"
	.linkonce discard
	.align 2
	.globl	_ZN8wxButtonC1EP8wxWindowiRK8wxStringRK7wxPointRK6wxSizelRK11wxValidatorS4_
	.def	_ZN8wxButtonC1EP8wxWindowiRK8wxStringRK7wxPointRK6wxSizelRK11wxValidatorS4_;	.scl	2;	.type	32;	.endef
	.seh_proc	_ZN8wxButtonC1EP8wxWindowiRK8wxStringRK7wxPointRK6wxSizelRK11wxValidatorS4_
_ZN8wxButtonC1EP8wxWindowiRK8wxStringRK7wxPointRK6wxSizelRK11wxValidatorS4_:
.LFB10452:
	.file 26 "../wxMSW-3.0.5_gcc810_x64_Dev/include/wx/msw/button.h"
	.loc 26 22 5
	.cfi_startproc
	pushq	%rbp
	.seh_pushreg	%rbp
	.cfi_def_cfa_offset 16
	.cfi_offset 6, -16
	pushq	%rbx
	.seh_pushreg	%rbx
	.cfi_def_cfa_offset 24
	.cfi_offset 3, -24
	subq	$88, %rsp
	.seh_stackalloc	88
	.cfi_def_cfa_offset 112
	leaq	128(%rsp), %rbp
	.seh_setframe	%rbp, 128
	.cfi_def_cfa 6, -16
	.seh_endprologue
	movq	%rcx, -16(%rbp)
	movq	%rdx, -8(%rbp)
	movl	%r8d, 0(%rbp)
	movq	%r9, 8(%rbp)
.LBB55:
	.loc 26 30 5
	movq	-16(%rbp), %rax
	movq	%rax, %rcx
.LEHB27:
	call	_ZN12wxButtonBaseC2Ev
.LEHE27:
	movq	.refptr._ZTV8wxButton(%rip), %rax
	leaq	16(%rax), %rdx
	movq	-16(%rbp), %rax
	movq	%rdx, (%rax)
	.loc 26 31 13
	movq	-16(%rbp), %rcx
	call	_ZN8wxButton4InitEv
	.loc 26 33 15
	movq	8(%rbp), %r8
	movl	0(%rbp), %ecx
	movq	-8(%rbp), %rax
	movq	48(%rbp), %rdx
	movq	%rdx, 64(%rsp)
	movq	40(%rbp), %rdx
	movq	%rdx, 56(%rsp)
	movl	32(%rbp), %edx
	movl	%edx, 48(%rsp)
	movq	24(%rbp), %rdx
	movq	%rdx, 40(%rsp)
	movq	16(%rbp), %rdx
	movq	%rdx, 32(%rsp)
	movq	%r8, %r9
	movl	%ecx, %r8d
	movq	%rax, %rdx
	movq	-16(%rbp), %rcx
.LEHB28:
	call	_ZN8wxButton6CreateEP8wxWindowiRK8wxStringRK7wxPointRK6wxSizelRK11wxValidatorS4_
.LEHE28:
.LBE55:
	.loc 26 34 5
	jmp	.L304
.L303:
	movq	%rax, %rbx
.LBB56:
	.loc 26 30 5
	movq	-16(%rbp), %rax
	movq	%rax, %rcx
	call	_ZN12wxButtonBaseD2Ev
	movq	%rbx, %rax
	movq	%rax, %rcx
.LEHB29:
	call	_Unwind_Resume
	nop
.LEHE29:
.L304:
.LBE56:
	.loc 26 34 5
	addq	$88, %rsp
	popq	%rbx
	.cfi_restore 3
	popq	%rbp
	.cfi_restore 6
	.cfi_def_cfa 7, -72
	ret
	.cfi_endproc
.LFE10452:
	.seh_handler	__gxx_personality_seh0, @unwind, @except
	.seh_handlerdata
.LLSDA10452:
	.byte	0xff
	.byte	0xff
	.byte	0x1
	.uleb128 .LLSDACSE10452-.LLSDACSB10452
.LLSDACSB10452:
	.uleb128 .LEHB27-.LFB10452
	.uleb128 .LEHE27-.LEHB27
	.uleb128 0
	.uleb128 0
	.uleb128 .LEHB28-.LFB10452
	.uleb128 .LEHE28-.LEHB28
	.uleb128 .L303-.LFB10452
	.uleb128 0
	.uleb128 .LEHB29-.LFB10452
	.uleb128 .LEHE29-.LEHB29
	.uleb128 0
	.uleb128 0
.LLSDACSE10452:
	.section	.text$_ZN8wxButtonC1EP8wxWindowiRK8wxStringRK7wxPointRK6wxSizelRK11wxValidatorS4_,"x"
	.linkonce discard
	.seh_endproc
	.section	.text$_ZN8wxButton4InitEv,"x"
	.linkonce discard
	.align 2
	.globl	_ZN8wxButton4InitEv
	.def	_ZN8wxButton4InitEv;	.scl	2;	.type	32;	.endef
	.seh_proc	_ZN8wxButton4InitEv
_ZN8wxButton4InitEv:
.LFB10453:
	.loc 26 74 10
	.cfi_startproc
	pushq	%rbp
	.seh_pushreg	%rbp
	.cfi_def_cfa_offset 16
	.cfi_offset 6, -16
	movq	%rsp, %rbp
	.seh_setframe	%rbp, 0
	.cfi_def_cfa_register 6
	.seh_endprologue
	movq	%rcx, 16(%rbp)
	.loc 26 76 22
	movq	16(%rbp), %rax
	movb	$0, 664(%rax)
	.loc 26 77 5
	nop
	popq	%rbp
	.cfi_restore 6
	.cfi_def_cfa 7, 8
	ret
	.cfi_endproc
.LFE10453:
	.seh_endproc
	.section	.text$_ZNK20wxNonOwnedWindowBase27AdjustForParentClientOriginERiS0_i,"x"
	.linkonce discard
	.align 2
	.globl	_ZNK20wxNonOwnedWindowBase27AdjustForParentClientOriginERiS0_i
	.def	_ZNK20wxNonOwnedWindowBase27AdjustForParentClientOriginERiS0_i;	.scl	2;	.type	32;	.endef
	.seh_proc	_ZNK20wxNonOwnedWindowBase27AdjustForParentClientOriginERiS0_i
_ZNK20wxNonOwnedWindowBase27AdjustForParentClientOriginERiS0_i:
.LFB10455:
	.file 27 "../wxMSW-3.0.5_gcc810_x64_Dev/include/wx/nonownedwnd.h"
	.loc 27 64 18
	.cfi_startproc
	pushq	%rbp
	.seh_pushreg	%rbp
	.cfi_def_cfa_offset 16
	.cfi_offset 6, -16
	movq	%rsp, %rbp
	.seh_setframe	%rbp, 0
	.cfi_def_cfa_register 6
	.seh_endprologue
	movq	%rcx, 16(%rbp)
	movq	%rdx, 24(%rbp)
	movq	%r8, 32(%rbp)
	movl	%r9d, 40(%rbp)
	.loc 27 69 5
	nop
	popq	%rbp
	.cfi_restore 6
	.cfi_def_cfa 7, 8
	ret
	.cfi_endproc
.LFE10455:
	.seh_endproc
	.section	.text$_ZN20wxNonOwnedWindowBase17InheritAttributesEv,"x"
	.linkonce discard
	.align 2
	.globl	_ZN20wxNonOwnedWindowBase17InheritAttributesEv
	.def	_ZN20wxNonOwnedWindowBase17InheritAttributesEv;	.scl	2;	.type	32;	.endef
	.seh_proc	_ZN20wxNonOwnedWindowBase17InheritAttributesEv
_ZN20wxNonOwnedWindowBase17InheritAttributesEv:
.LFB10456:
	.loc 27 71 18
	.cfi_startproc
	pushq	%rbp
	.seh_pushreg	%rbp
	.cfi_def_cfa_offset 16
	.cfi_offset 6, -16
	movq	%rsp, %rbp
	.seh_setframe	%rbp, 0
	.cfi_def_cfa_register 6
	.seh_endprologue
	movq	%rcx, 16(%rbp)
	.loc 27 76 5
	nop
	popq	%rbp
	.cfi_restore 6
	.cfi_def_cfa 7, 8
	ret
	.cfi_endproc
.LFE10456:
	.seh_endproc
	.section	.text$_ZN20wxTopLevelWindowBase8IsActiveEv,"x"
	.linkonce discard
	.align 2
	.globl	_ZN20wxTopLevelWindowBase8IsActiveEv
	.def	_ZN20wxTopLevelWindowBase8IsActiveEv;	.scl	2;	.type	32;	.endef
	.seh_proc	_ZN20wxTopLevelWindowBase8IsActiveEv
_ZN20wxTopLevelWindowBase8IsActiveEv:
.LFB10567:
	.file 28 "../wxMSW-3.0.5_gcc810_x64_Dev/include/wx/toplevel.h"
	.loc 28 226 18
	.cfi_startproc
	pushq	%rbp
	.seh_pushreg	%rbp
	.cfi_def_cfa_offset 16
	.cfi_offset 6, -16
	pushq	%rbx
	.seh_pushreg	%rbx
	.cfi_def_cfa_offset 24
	.cfi_offset 3, -24
	subq	$40, %rsp
	.seh_stackalloc	40
	.cfi_def_cfa_offset 64
	leaq	128(%rsp), %rbp
	.seh_setframe	%rbp, 128
	.cfi_def_cfa 6, -64
	.seh_endprologue
	movq	%rcx, -64(%rbp)
	.loc 28 226 50
	movq	-64(%rbp), %rbx
	.loc 28 226 60
	call	_ZN12wxWindowBase9FindFocusEv
	.loc 28 226 50
	movq	%rax, %rdx
	movq	%rbx, %rcx
	call	_ZNK12wxWindowBase12IsDescendantEPS_
	.loc 28 226 65
	addq	$40, %rsp
	popq	%rbx
	.cfi_restore 3
	popq	%rbp
	.cfi_restore 6
	.cfi_def_cfa 7, -24
	ret
	.cfi_endproc
.LFE10567:
	.seh_endproc
	.section	.text$_ZNK20wxTopLevelWindowBase20ShouldPreventAppExitEv,"x"
	.linkonce discard
	.align 2
	.globl	_ZNK20wxTopLevelWindowBase20ShouldPreventAppExitEv
	.def	_ZNK20wxTopLevelWindowBase20ShouldPreventAppExitEv;	.scl	2;	.type	32;	.endef
	.seh_proc	_ZNK20wxTopLevelWindowBase20ShouldPreventAppExitEv
_ZNK20wxTopLevelWindowBase20ShouldPreventAppExitEv:
.LFB10568:
	.loc 28 233 18
	.cfi_startproc
	pushq	%rbp
	.seh_pushreg	%rbp
	.cfi_def_cfa_offset 16
	.cfi_offset 6, -16
	movq	%rsp, %rbp
	.seh_setframe	%rbp, 0
	.cfi_def_cfa_register 6
	.seh_endprologue
	movq	%rcx, 16(%rbp)
	.loc 28 233 56
	movl	$1, %eax
	.loc 28 233 62
	popq	%rbp
	.cfi_restore 6
	.cfi_def_cfa 7, 8
	ret
	.cfi_endproc
.LFE10568:
	.seh_endproc
	.section	.text$_ZNK20wxTopLevelWindowBase10IsTopLevelEv,"x"
	.linkonce discard
	.align 2
	.globl	_ZNK20wxTopLevelWindowBase10IsTopLevelEv
	.def	_ZNK20wxTopLevelWindowBase10IsTopLevelEv;	.scl	2;	.type	32;	.endef
	.seh_proc	_ZNK20wxTopLevelWindowBase10IsTopLevelEv
_ZNK20wxTopLevelWindowBase10IsTopLevelEv:
.LFB10575:
	.loc 28 277 18
	.cfi_startproc
	pushq	%rbp
	.seh_pushreg	%rbp
	.cfi_def_cfa_offset 16
	.cfi_offset 6, -16
	movq	%rsp, %rbp
	.seh_setframe	%rbp, 0
	.cfi_def_cfa_register 6
	.seh_endprologue
	movq	%rcx, 16(%rbp)
	.loc 28 277 46
	movl	$1, %eax
	.loc 28 277 52
	popq	%rbp
	.cfi_restore 6
	.cfi_def_cfa 7, 8
	ret
	.cfi_endproc
.LFE10575:
	.seh_endproc
	.section	.text$_ZNK20wxTopLevelWindowBase21IsTopNavigationDomainEv,"x"
	.linkonce discard
	.align 2
	.globl	_ZNK20wxTopLevelWindowBase21IsTopNavigationDomainEv
	.def	_ZNK20wxTopLevelWindowBase21IsTopNavigationDomainEv;	.scl	2;	.type	32;	.endef
	.seh_proc	_ZNK20wxTopLevelWindowBase21IsTopNavigationDomainEv
_ZNK20wxTopLevelWindowBase21IsTopNavigationDomainEv:
.LFB10576:
	.loc 28 278 18
	.cfi_startproc
	pushq	%rbp
	.seh_pushreg	%rbp
	.cfi_def_cfa_offset 16
	.cfi_offset 6, -16
	movq	%rsp, %rbp
	.seh_setframe	%rbp, 0
	.cfi_def_cfa_register 6
	.seh_endprologue
	movq	%rcx, 16(%rbp)
	.loc 28 278 57
	movl	$1, %eax
	.loc 28 278 63
	popq	%rbp
	.cfi_restore 6
	.cfi_def_cfa 7, 8
	ret
	.cfi_endproc
.LFE10576:
	.seh_endproc
	.section	.text$_ZNK20wxTopLevelWindowBase9IsVisibleEv,"x"
	.linkonce discard
	.align 2
	.globl	_ZNK20wxTopLevelWindowBase9IsVisibleEv
	.def	_ZNK20wxTopLevelWindowBase9IsVisibleEv;	.scl	2;	.type	32;	.endef
	.seh_proc	_ZNK20wxTopLevelWindowBase9IsVisibleEv
_ZNK20wxTopLevelWindowBase9IsVisibleEv:
.LFB10577:
	.loc 28 279 18
	.cfi_startproc
	pushq	%rbp
	.seh_pushreg	%rbp
	.cfi_def_cfa_offset 16
	.cfi_offset 6, -16
	movq	%rsp, %rbp
	.seh_setframe	%rbp, 0
	.cfi_def_cfa_register 6
	subq	$32, %rsp
	.seh_stackalloc	32
	.seh_endprologue
	movq	%rcx, 16(%rbp)
	.loc 28 279 52
	movq	16(%rbp), %rdx
	.loc 28 279 53
	movq	16(%rbp), %rax
	movq	(%rax), %rax
	addq	$480, %rax
	movq	(%rax), %rax
	.loc 28 279 52
	movq	%rdx, %rcx
	call	*%rax
.LVL21:
	.loc 28 279 56
	addq	$32, %rsp
	popq	%rbp
	.cfi_restore 6
	.cfi_def_cfa 7, 8
	ret
	.cfi_endproc
.LFE10577:
	.seh_endproc
	.section	.text$_ZN20wxTopLevelWindowBase14OSXSetModifiedEb,"x"
	.linkonce discard
	.align 2
	.globl	_ZN20wxTopLevelWindowBase14OSXSetModifiedEb
	.def	_ZN20wxTopLevelWindowBase14OSXSetModifiedEb;	.scl	2;	.type	32;	.endef
	.seh_proc	_ZN20wxTopLevelWindowBase14OSXSetModifiedEb
_ZN20wxTopLevelWindowBase14OSXSetModifiedEb:
.LFB10580:
	.loc 28 299 18
	.cfi_startproc
	pushq	%rbp
	.seh_pushreg	%rbp
	.cfi_def_cfa_offset 16
	.cfi_offset 6, -16
	movq	%rsp, %rbp
	.seh_setframe	%rbp, 0
	.cfi_def_cfa_register 6
	.seh_endprologue
	movq	%rcx, 16(%rbp)
	movl	%edx, %eax
	movb	%al, 24(%rbp)
	.loc 28 299 61
	movq	16(%rbp), %rdx
	movzbl	24(%rbp), %eax
	movb	%al, 640(%rdx)
	.loc 28 299 73
	nop
	popq	%rbp
	.cfi_restore 6
	.cfi_def_cfa 7, 8
	ret
	.cfi_endproc
.LFE10580:
	.seh_endproc
	.section	.text$_ZNK20wxTopLevelWindowBase13OSXIsModifiedEv,"x"
	.linkonce discard
	.align 2
	.globl	_ZNK20wxTopLevelWindowBase13OSXIsModifiedEv
	.def	_ZNK20wxTopLevelWindowBase13OSXIsModifiedEv;	.scl	2;	.type	32;	.endef
	.seh_proc	_ZNK20wxTopLevelWindowBase13OSXIsModifiedEv
_ZNK20wxTopLevelWindowBase13OSXIsModifiedEv:
.LFB10581:
	.loc 28 300 18
	.cfi_startproc
	pushq	%rbp
	.seh_pushreg	%rbp
	.cfi_def_cfa_offset 16
	.cfi_offset 6, -16
	movq	%rsp, %rbp
	.seh_setframe	%rbp, 0
	.cfi_def_cfa_register 6
	.seh_endprologue
	movq	%rcx, 16(%rbp)
	.loc 28 300 49
	movq	16(%rbp), %rax
	movzbl	640(%rax), %eax
	.loc 28 300 61
	popq	%rbp
	.cfi_restore 6
	.cfi_def_cfa 7, 8
	ret
	.cfi_endproc
.LFE10581:
	.seh_endproc
	.section	.text$_ZN20wxTopLevelWindowBase22SetRepresentedFilenameERK8wxString,"x"
	.linkonce discard
	.align 2
	.globl	_ZN20wxTopLevelWindowBase22SetRepresentedFilenameERK8wxString
	.def	_ZN20wxTopLevelWindowBase22SetRepresentedFilenameERK8wxString;	.scl	2;	.type	32;	.endef
	.seh_proc	_ZN20wxTopLevelWindowBase22SetRepresentedFilenameERK8wxString
_ZN20wxTopLevelWindowBase22SetRepresentedFilenameERK8wxString:
.LFB10582:
	.loc 28 302 18
	.cfi_startproc
	pushq	%rbp
	.seh_pushreg	%rbp
	.cfi_def_cfa_offset 16
	.cfi_offset 6, -16
	movq	%rsp, %rbp
	.seh_setframe	%rbp, 0
	.cfi_def_cfa_register 6
	.seh_endprologue
	movq	%rcx, 16(%rbp)
	movq	%rdx, 24(%rbp)
	.loc 28 302 61
	nop
	popq	%rbp
	.cfi_restore 6
	.cfi_def_cfa 7, 8
	ret
	.cfi_endproc
.LFE10582:
	.seh_endproc
	.section	.text$_ZN20wxTopLevelWindowBase10DoGiveHelpERK8wxStringb,"x"
	.linkonce discard
	.align 2
	.globl	_ZN20wxTopLevelWindowBase10DoGiveHelpERK8wxStringb
	.def	_ZN20wxTopLevelWindowBase10DoGiveHelpERK8wxStringb;	.scl	2;	.type	32;	.endef
	.seh_proc	_ZN20wxTopLevelWindowBase10DoGiveHelpERK8wxStringb
_ZN20wxTopLevelWindowBase10DoGiveHelpERK8wxStringb:
.LFB10583:
	.loc 28 308 18
	.cfi_startproc
	pushq	%rbp
	.seh_pushreg	%rbp
	.cfi_def_cfa_offset 16
	.cfi_offset 6, -16
	movq	%rsp, %rbp
	.seh_setframe	%rbp, 0
	.cfi_def_cfa_register 6
	.seh_endprologue
	movq	%rcx, 16(%rbp)
	movq	%rdx, 24(%rbp)
	movl	%r8d, %eax
	movb	%al, 32(%rbp)
	.loc 28 308 55
	nop
	popq	%rbp
	.cfi_restore 6
	.cfi_def_cfa 7, 8
	ret
	.cfi_endproc
.LFE10583:
	.seh_endproc
	.section	.text$_ZNK20wxTopLevelWindowBase19DoGetScreenPositionEPiS0_,"x"
	.linkonce discard
	.align 2
	.globl	_ZNK20wxTopLevelWindowBase19DoGetScreenPositionEPiS0_
	.def	_ZNK20wxTopLevelWindowBase19DoGetScreenPositionEPiS0_;	.scl	2;	.type	32;	.endef
	.seh_proc	_ZNK20wxTopLevelWindowBase19DoGetScreenPositionEPiS0_
_ZNK20wxTopLevelWindowBase19DoGetScreenPositionEPiS0_:
.LFB10584:
	.loc 28 322 18
	.cfi_startproc
	pushq	%rbp
	.seh_pushreg	%rbp
	.cfi_def_cfa_offset 16
	.cfi_offset 6, -16
	movq	%rsp, %rbp
	.seh_setframe	%rbp, 0
	.cfi_def_cfa_register 6
	subq	$32, %rsp
	.seh_stackalloc	32
	.seh_endprologue
	movq	%rcx, 16(%rbp)
	movq	%rdx, 24(%rbp)
	movq	%r8, 32(%rbp)
	.loc 28 324 22
	movq	16(%rbp), %rcx
	.loc 28 324 27
	movq	16(%rbp), %rax
	movq	(%rax), %rax
	addq	$1304, %rax
	movq	(%rax), %rax
	.loc 28 324 22
	movq	32(%rbp), %r8
	movq	24(%rbp), %rdx
	call	*%rax
.LVL22:
	.loc 28 325 5
	nop
	addq	$32, %rsp
	popq	%rbp
	.cfi_restore 6
	.cfi_def_cfa 7, 8
	ret
	.cfi_endproc
.LFE10584:
	.seh_endproc
	.section	.text$_ZNK20wxTopLevelWindowBase11IsOneOfBarsEPK8wxWindow,"x"
	.linkonce discard
	.align 2
	.globl	_ZNK20wxTopLevelWindowBase11IsOneOfBarsEPK8wxWindow
	.def	_ZNK20wxTopLevelWindowBase11IsOneOfBarsEPK8wxWindow;	.scl	2;	.type	32;	.endef
	.seh_proc	_ZNK20wxTopLevelWindowBase11IsOneOfBarsEPK8wxWindow
_ZNK20wxTopLevelWindowBase11IsOneOfBarsEPK8wxWindow:
.LFB10585:
	.loc 28 329 18
	.cfi_startproc
	pushq	%rbp
	.seh_pushreg	%rbp
	.cfi_def_cfa_offset 16
	.cfi_offset 6, -16
	movq	%rsp, %rbp
	.seh_setframe	%rbp, 0
	.cfi_def_cfa_register 6
	.seh_endprologue
	movq	%rcx, 16(%rbp)
	movq	%rdx, 24(%rbp)
	.loc 28 330 18
	movl	$0, %eax
	.loc 28 330 25
	popq	%rbp
	.cfi_restore 6
	.cfi_def_cfa 7, 8
	ret
	.cfi_endproc
.LFE10585:
	.seh_endproc
	.section	.text$_ZNK19wxTopLevelWindowMSW12IsFullScreenEv,"x"
	.linkonce discard
	.align 2
	.globl	_ZNK19wxTopLevelWindowMSW12IsFullScreenEv
	.def	_ZNK19wxTopLevelWindowMSW12IsFullScreenEv;	.scl	2;	.type	32;	.endef
	.seh_proc	_ZNK19wxTopLevelWindowMSW12IsFullScreenEv
_ZNK19wxTopLevelWindowMSW12IsFullScreenEv:
.LFB10594:
	.file 29 "../wxMSW-3.0.5_gcc810_x64_Dev/include/wx/msw/toplevel.h"
	.loc 29 66 18
	.cfi_startproc
	pushq	%rbp
	.seh_pushreg	%rbp
	.cfi_def_cfa_offset 16
	.cfi_offset 6, -16
	movq	%rsp, %rbp
	.seh_setframe	%rbp, 0
	.cfi_def_cfa_register 6
	.seh_endprologue
	movq	%rcx, 16(%rbp)
	.loc 29 66 48
	movq	16(%rbp), %rax
	movzbl	669(%rax), %eax
	.loc 29 66 63
	popq	%rbp
	.cfi_restore 6
	.cfi_def_cfa 7, 8
	ret
	.cfi_endproc
.LFE10594:
	.seh_endproc
	.section	.text$_ZNK19wxTopLevelWindowMSW19CanApplyThemeBorderEv,"x"
	.linkonce discard
	.align 2
	.globl	_ZNK19wxTopLevelWindowMSW19CanApplyThemeBorderEv
	.def	_ZNK19wxTopLevelWindowMSW19CanApplyThemeBorderEv;	.scl	2;	.type	32;	.endef
	.seh_proc	_ZNK19wxTopLevelWindowMSW19CanApplyThemeBorderEv
_ZNK19wxTopLevelWindowMSW19CanApplyThemeBorderEv:
.LFB10597:
	.loc 29 122 18
	.cfi_startproc
	pushq	%rbp
	.seh_pushreg	%rbp
	.cfi_def_cfa_offset 16
	.cfi_offset 6, -16
	movq	%rsp, %rbp
	.seh_setframe	%rbp, 0
	.cfi_def_cfa_register 6
	.seh_endprologue
	movq	%rcx, 16(%rbp)
	.loc 29 122 55
	movl	$0, %eax
	.loc 29 122 62
	popq	%rbp
	.cfi_restore 6
	.cfi_def_cfa 7, 8
	ret
	.cfi_endproc
.LFE10597:
	.seh_endproc
	.section	.text$_ZN22wxControlContainerBaseD2Ev,"x"
	.linkonce discard
	.align 2
	.globl	_ZN22wxControlContainerBaseD2Ev
	.def	_ZN22wxControlContainerBaseD2Ev;	.scl	2;	.type	32;	.endef
	.seh_proc	_ZN22wxControlContainerBaseD2Ev
_ZN22wxControlContainerBaseD2Ev:
.LFB10608:
	.file 30 "../wxMSW-3.0.5_gcc810_x64_Dev/include/wx/containr.h"
	.loc 30 53 13
	.cfi_startproc
	pushq	%rbp
	.seh_pushreg	%rbp
	.cfi_def_cfa_offset 16
	.cfi_offset 6, -16
	movq	%rsp, %rbp
	.seh_setframe	%rbp, 0
	.cfi_def_cfa_register 6
	.seh_endprologue
	movq	%rcx, 16(%rbp)
.LBB57:
	.loc 30 53 39
	movq	.refptr._ZTV22wxControlContainerBase(%rip), %rax
	leaq	16(%rax), %rdx
	movq	16(%rbp), %rax
	movq	%rdx, (%rax)
.LBE57:
	.loc 30 53 40
	nop
	popq	%rbp
	.cfi_restore 6
	.cfi_def_cfa 7, 8
	ret
	.cfi_endproc
.LFE10608:
	.seh_endproc
	.section .rdata,"dr"
.LC5:
	.ascii "!m_winParent\0"
	.align 8
.LC6:
	.ascii "..\\wxMSW-3.0.5_gcc810_x64_Dev\\include/wx/containr.h\0"
	.align 8
.LC7:
	.ascii "s\0h\0o\0u\0l\0d\0n\0'\0t\0 \0b\0e\0 \0c\0a\0l\0l\0e\0d\0 \0t\0w\0i\0c\0e\0\0\0"
	.section	.text$_ZN22wxControlContainerBase18SetContainerWindowEP8wxWindow,"x"
	.linkonce discard
	.align 2
	.globl	_ZN22wxControlContainerBase18SetContainerWindowEP8wxWindow
	.def	_ZN22wxControlContainerBase18SetContainerWindowEP8wxWindow;	.scl	2;	.type	32;	.endef
	.seh_proc	_ZN22wxControlContainerBase18SetContainerWindowEP8wxWindow
_ZN22wxControlContainerBase18SetContainerWindowEP8wxWindow:
.LFB10611:
	.loc 30 55 10
	.cfi_startproc
	pushq	%rbp
	.seh_pushreg	%rbp
	.cfi_def_cfa_offset 16
	.cfi_offset 6, -16
	movq	%rsp, %rbp
	.seh_setframe	%rbp, 0
	.cfi_def_cfa_register 6
	subq	$48, %rsp
	.seh_stackalloc	48
	.seh_endprologue
	movq	%rcx, 16(%rbp)
	movq	%rdx, 24(%rbp)
	.loc 30 57 55
	movq	.refptr.wxTheAssertHandler(%rip), %rax
	movq	(%rax), %rax
	.loc 30 57 57
	testq	%rax, %rax
	je	.L332
	.loc 30 57 44 discriminator 1
	movq	16(%rbp), %rax
	movq	8(%rax), %rax
	.loc 30 57 38 discriminator 1
	testq	%rax, %rax
	je	.L332
	.loc 30 57 71 discriminator 3
	leaq	.LC7(%rip), %rax
	movq	%rax, 32(%rsp)
	leaq	.LC5(%rip), %r9
	leaq	_ZZN22wxControlContainerBase18SetContainerWindowEP8wxWindowE12__FUNCTION__(%rip), %r8
	movl	$57, %edx
	leaq	.LC6(%rip), %rcx
	call	_Z10wxOnAssertPKciS0_S0_PKw
	.loc 30 57 57 discriminator 3
	movq	.refptr.wxTrapInAssert(%rip), %rax
	movzbl	(%rax), %eax
	testb	%al, %al
	je	.L332
	.loc 30 57 57 is_stmt 0 discriminator 5
	movl	$1, %eax
	jmp	.L333
.L332:
	.loc 30 57 57 discriminator 6
	movl	$0, %eax
.L333:
	.loc 30 57 14 is_stmt 1 discriminator 8
	testb	%al, %al
	je	.L334
	.loc 30 57 229 discriminator 9
	movq	.refptr.wxTrapInAssert(%rip), %rax
	movb	$0, (%rax)
	.loc 30 57 244 discriminator 9
	call	_Z6wxTrapv
.L334:
	.loc 30 59 21
	movq	16(%rbp), %rax
	movq	24(%rbp), %rdx
	movq	%rdx, 8(%rax)
	.loc 30 60 5
	nop
	addq	$48, %rsp
	popq	%rbp
	.cfi_restore 6
	.cfi_def_cfa 7, 8
	ret
	.cfi_endproc
.LFE10611:
	.seh_endproc
	.section	.text$_ZNK22wxControlContainerBase23AcceptsFocusRecursivelyEv,"x"
	.linkonce discard
	.align 2
	.globl	_ZNK22wxControlContainerBase23AcceptsFocusRecursivelyEv
	.def	_ZNK22wxControlContainerBase23AcceptsFocusRecursivelyEv;	.scl	2;	.type	32;	.endef
	.seh_proc	_ZNK22wxControlContainerBase23AcceptsFocusRecursivelyEv
_ZNK22wxControlContainerBase23AcceptsFocusRecursivelyEv:
.LFB10614:
	.loc 30 81 10
	.cfi_startproc
	pushq	%rbp
	.seh_pushreg	%rbp
	.cfi_def_cfa_offset 16
	.cfi_offset 6, -16
	movq	%rsp, %rbp
	.seh_setframe	%rbp, 0
	.cfi_def_cfa_register 6
	subq	$32, %rsp
	.seh_stackalloc	32
	.seh_endprologue
	movq	%rcx, 16(%rbp)
	.loc 30 82 30
	movq	16(%rbp), %rcx
	call	_ZNK22wxControlContainerBase12AcceptsFocusEv
	.loc 30 82 33
	testb	%al, %al
	jne	.L336
	.loc 30 83 14 discriminator 2
	movq	16(%rbp), %rax
	movzbl	25(%rax), %eax
	.loc 30 82 33 discriminator 2
	testb	%al, %al
	je	.L337
	.loc 30 83 68
	movq	16(%rbp), %rcx
	call	_ZNK22wxControlContainerBase28HasAnyChildrenAcceptingFocusEv
	.loc 30 83 37
	testb	%al, %al
	je	.L337
.L336:
	.loc 30 82 33 discriminator 1
	movl	$1, %eax
	jmp	.L338
.L337:
	.loc 30 82 33 is_stmt 0 discriminator 3
	movl	$0, %eax
.L338:
	.loc 30 83 73 is_stmt 1
	addq	$32, %rsp
	popq	%rbp
	.cfi_restore 6
	.cfi_def_cfa 7, 8
	ret
	.cfi_endproc
.LFE10614:
	.seh_endproc
	.section	.text$_ZNK22wxControlContainerBase24AcceptsFocusFromKeyboardEv,"x"
	.linkonce discard
	.align 2
	.globl	_ZNK22wxControlContainerBase24AcceptsFocusFromKeyboardEv
	.def	_ZNK22wxControlContainerBase24AcceptsFocusFromKeyboardEv;	.scl	2;	.type	32;	.endef
	.seh_proc	_ZNK22wxControlContainerBase24AcceptsFocusFromKeyboardEv
_ZNK22wxControlContainerBase24AcceptsFocusFromKeyboardEv:
.LFB10615:
	.loc 30 86 10
	.cfi_startproc
	pushq	%rbp
	.seh_pushreg	%rbp
	.cfi_def_cfa_offset 16
	.cfi_offset 6, -16
	movq	%rsp, %rbp
	.seh_setframe	%rbp, 0
	.cfi_def_cfa_register 6
	subq	$32, %rsp
	.seh_stackalloc	32
	.seh_endprologue
	movq	%rcx, 16(%rbp)
	.loc 30 86 75
	movq	16(%rbp), %rcx
	call	_ZNK22wxControlContainerBase23AcceptsFocusRecursivelyEv
	.loc 30 86 79
	addq	$32, %rsp
	popq	%rbp
	.cfi_restore 6
	.cfi_def_cfa 7, 8
	ret
	.cfi_endproc
.LFE10615:
	.seh_endproc
	.section	.text$_ZN16wxTopLevelWindowD2Ev,"x"
	.linkonce discard
	.align 2
	.globl	_ZN16wxTopLevelWindowD2Ev
	.def	_ZN16wxTopLevelWindowD2Ev;	.scl	2;	.type	32;	.endef
	.seh_proc	_ZN16wxTopLevelWindowD2Ev
_ZN16wxTopLevelWindowD2Ev:
.LFB15360:
	.loc 28 395 11
	.cfi_startproc
	pushq	%rbp
	.seh_pushreg	%rbp
	.cfi_def_cfa_offset 16
	.cfi_offset 6, -16
	movq	%rsp, %rbp
	.seh_setframe	%rbp, 0
	.cfi_def_cfa_register 6
	subq	$32, %rsp
	.seh_stackalloc	32
	.seh_endprologue
	movq	%rcx, 16(%rbp)
.LBB58:
	.loc 28 395 11
	movq	.refptr._ZTV16wxTopLevelWindow(%rip), %rax
	leaq	16(%rax), %rdx
	movq	16(%rbp), %rax
	movq	%rdx, (%rax)
	movq	16(%rbp), %rax
	movq	%rax, %rcx
	call	_ZN19wxTopLevelWindowMSWD2Ev
.LBE58:
	nop
	addq	$32, %rsp
	popq	%rbp
	.cfi_restore 6
	.cfi_def_cfa 7, 8
	ret
	.cfi_endproc
.LFE15360:
	.seh_endproc
	.section	.text$_ZN19wxNavigationEnabledI16wxTopLevelWindowED2Ev,"x"
	.linkonce discard
	.align 2
	.globl	_ZN19wxNavigationEnabledI16wxTopLevelWindowED2Ev
	.def	_ZN19wxNavigationEnabledI16wxTopLevelWindowED2Ev;	.scl	2;	.type	32;	.endef
	.seh_proc	_ZN19wxNavigationEnabledI16wxTopLevelWindowED2Ev
_ZN19wxNavigationEnabledI16wxTopLevelWindowED2Ev:
.LFB15363:
	.loc 30 182 7
	.cfi_startproc
	pushq	%rbp
	.seh_pushreg	%rbp
	.cfi_def_cfa_offset 16
	.cfi_offset 6, -16
	movq	%rsp, %rbp
	.seh_setframe	%rbp, 0
	.cfi_def_cfa_register 6
	subq	$32, %rsp
	.seh_stackalloc	32
	.seh_endprologue
	movq	%rcx, 16(%rbp)
.LBB59:
	.loc 30 182 7
	leaq	16+_ZTV19wxNavigationEnabledI16wxTopLevelWindowE(%rip), %rdx
	movq	16(%rbp), %rax
	movq	%rdx, (%rax)
	movq	16(%rbp), %rax
	addq	$696, %rax
	movq	%rax, %rcx
	call	_ZN18wxControlContainerD1Ev
	movq	16(%rbp), %rax
	movq	%rax, %rcx
	call	_ZN16wxTopLevelWindowD2Ev
.LBE59:
	nop
	addq	$32, %rsp
	popq	%rbp
	.cfi_restore 6
	.cfi_def_cfa 7, 8
	ret
	.cfi_endproc
.LFE15363:
	.seh_endproc
	.section	.text$_ZN19wxNavigationEnabledI16wxTopLevelWindowED1Ev,"x"
	.linkonce discard
	.align 2
	.globl	_ZN19wxNavigationEnabledI16wxTopLevelWindowED1Ev
	.def	_ZN19wxNavigationEnabledI16wxTopLevelWindowED1Ev;	.scl	2;	.type	32;	.endef
	.seh_proc	_ZN19wxNavigationEnabledI16wxTopLevelWindowED1Ev
_ZN19wxNavigationEnabledI16wxTopLevelWindowED1Ev:
.LFB15364:
	.loc 30 182 7
	.cfi_startproc
	pushq	%rbp
	.seh_pushreg	%rbp
	.cfi_def_cfa_offset 16
	.cfi_offset 6, -16
	movq	%rsp, %rbp
	.seh_setframe	%rbp, 0
	.cfi_def_cfa_register 6
	subq	$32, %rsp
	.seh_stackalloc	32
	.seh_endprologue
	movq	%rcx, 16(%rbp)
.LBB60:
	.loc 30 182 7
	leaq	16+_ZTV19wxNavigationEnabledI16wxTopLevelWindowE(%rip), %rdx
	movq	16(%rbp), %rax
	movq	%rdx, (%rax)
	movq	16(%rbp), %rax
	addq	$696, %rax
	movq	%rax, %rcx
	call	_ZN18wxControlContainerD1Ev
	movq	16(%rbp), %rax
	movq	%rax, %rcx
	call	_ZN16wxTopLevelWindowD2Ev
.LBE60:
	nop
	addq	$32, %rsp
	popq	%rbp
	.cfi_restore 6
	.cfi_def_cfa 7, 8
	ret
	.cfi_endproc
.LFE15364:
	.seh_endproc
	.section	.text$_ZN19wxNavigationEnabledI16wxTopLevelWindowED0Ev,"x"
	.linkonce discard
	.align 2
	.globl	_ZN19wxNavigationEnabledI16wxTopLevelWindowED0Ev
	.def	_ZN19wxNavigationEnabledI16wxTopLevelWindowED0Ev;	.scl	2;	.type	32;	.endef
	.seh_proc	_ZN19wxNavigationEnabledI16wxTopLevelWindowED0Ev
_ZN19wxNavigationEnabledI16wxTopLevelWindowED0Ev:
.LFB15365:
	.loc 30 182 7
	.cfi_startproc
	pushq	%rbp
	.seh_pushreg	%rbp
	.cfi_def_cfa_offset 16
	.cfi_offset 6, -16
	movq	%rsp, %rbp
	.seh_setframe	%rbp, 0
	.cfi_def_cfa_register 6
	subq	$32, %rsp
	.seh_stackalloc	32
	.seh_endprologue
	movq	%rcx, 16(%rbp)
	.loc 30 182 7
	movq	16(%rbp), %rcx
	call	_ZN19wxNavigationEnabledI16wxTopLevelWindowED1Ev
	movq	16(%rbp), %rcx
	call	_ZdlPv
	nop
	addq	$32, %rsp
	popq	%rbp
	.cfi_restore 6
	.cfi_def_cfa 7, 8
	ret
	.cfi_endproc
.LFE15365:
	.seh_endproc
	.section	.text$_ZN12wxDialogBaseD2Ev,"x"
	.linkonce discard
	.align 2
	.globl	_ZN12wxDialogBaseD2Ev
	.def	_ZN12wxDialogBaseD2Ev;	.scl	2;	.type	32;	.endef
	.seh_proc	_ZN12wxDialogBaseD2Ev
_ZN12wxDialogBaseD2Ev:
.LFB15366:
	.file 31 "../wxMSW-3.0.5_gcc810_x64_Dev/include/wx/dialog.h"
	.loc 31 72 13
	.cfi_startproc
	pushq	%rbp
	.seh_pushreg	%rbp
	.cfi_def_cfa_offset 16
	.cfi_offset 6, -16
	movq	%rsp, %rbp
	.seh_setframe	%rbp, 0
	.cfi_def_cfa_register 6
	subq	$32, %rsp
	.seh_stackalloc	32
	.seh_endprologue
	movq	%rcx, 16(%rbp)
.LBB61:
	.loc 31 72 29
	movq	.refptr._ZTV12wxDialogBase(%rip), %rax
	leaq	16(%rax), %rdx
	movq	16(%rbp), %rax
	movq	%rdx, (%rax)
	movq	16(%rbp), %rax
	addq	$744, %rax
	movq	%rax, %rcx
	call	_ZN10wxArrayIntD1Ev
	movq	16(%rbp), %rax
	movq	%rax, %rcx
	call	_ZN19wxNavigationEnabledI16wxTopLevelWindowED2Ev
.LBE61:
	.loc 31 72 31
	nop
	addq	$32, %rsp
	popq	%rbp
	.cfi_restore 6
	.cfi_def_cfa 7, 8
	ret
	.cfi_endproc
.LFE15366:
	.seh_endproc
	.section	.text$_ZNK12wxDialogBase16GetContentWindowEv,"x"
	.linkonce discard
	.align 2
	.globl	_ZNK12wxDialogBase16GetContentWindowEv
	.def	_ZNK12wxDialogBase16GetContentWindowEv;	.scl	2;	.type	32;	.endef
	.seh_proc	_ZNK12wxDialogBase16GetContentWindowEv
_ZNK12wxDialogBase16GetContentWindowEv:
.LFB15374:
	.loc 31 165 23
	.cfi_startproc
	pushq	%rbp
	.seh_pushreg	%rbp
	.cfi_def_cfa_offset 16
	.cfi_offset 6, -16
	movq	%rsp, %rbp
	.seh_setframe	%rbp, 0
	.cfi_def_cfa_register 6
	.seh_endprologue
	movq	%rcx, 16(%rbp)
	.loc 31 165 56
	movl	$0, %eax
	.loc 31 165 62
	popq	%rbp
	.cfi_restore 6
	.cfi_def_cfa 7, 8
	ret
	.cfi_endproc
.LFE15374:
	.seh_endproc
	.section	.text$_ZN19wxNavigationEnabledI8wxWindowED2Ev,"x"
	.linkonce discard
	.align 2
	.globl	_ZN19wxNavigationEnabledI8wxWindowED2Ev
	.def	_ZN19wxNavigationEnabledI8wxWindowED2Ev;	.scl	2;	.type	32;	.endef
	.seh_proc	_ZN19wxNavigationEnabledI8wxWindowED2Ev
_ZN19wxNavigationEnabledI8wxWindowED2Ev:
.LFB15399:
	.loc 30 182 7
	.cfi_startproc
	pushq	%rbp
	.seh_pushreg	%rbp
	.cfi_def_cfa_offset 16
	.cfi_offset 6, -16
	movq	%rsp, %rbp
	.seh_setframe	%rbp, 0
	.cfi_def_cfa_register 6
	subq	$32, %rsp
	.seh_stackalloc	32
	.seh_endprologue
	movq	%rcx, 16(%rbp)
.LBB62:
	.loc 30 182 7
	leaq	16+_ZTV19wxNavigationEnabledI8wxWindowE(%rip), %rdx
	movq	16(%rbp), %rax
	movq	%rdx, (%rax)
	movq	16(%rbp), %rax
	addq	$576, %rax
	movq	%rax, %rcx
	call	_ZN18wxControlContainerD1Ev
	movq	16(%rbp), %rax
	movq	%rax, %rcx
	call	_ZN8wxWindowD2Ev
.LBE62:
	nop
	addq	$32, %rsp
	popq	%rbp
	.cfi_restore 6
	.cfi_def_cfa 7, 8
	ret
	.cfi_endproc
.LFE15399:
	.seh_endproc
	.section	.text$_ZN19wxNavigationEnabledI8wxWindowED1Ev,"x"
	.linkonce discard
	.align 2
	.globl	_ZN19wxNavigationEnabledI8wxWindowED1Ev
	.def	_ZN19wxNavigationEnabledI8wxWindowED1Ev;	.scl	2;	.type	32;	.endef
	.seh_proc	_ZN19wxNavigationEnabledI8wxWindowED1Ev
_ZN19wxNavigationEnabledI8wxWindowED1Ev:
.LFB15400:
	.loc 30 182 7
	.cfi_startproc
	pushq	%rbp
	.seh_pushreg	%rbp
	.cfi_def_cfa_offset 16
	.cfi_offset 6, -16
	movq	%rsp, %rbp
	.seh_setframe	%rbp, 0
	.cfi_def_cfa_register 6
	subq	$32, %rsp
	.seh_stackalloc	32
	.seh_endprologue
	movq	%rcx, 16(%rbp)
.LBB63:
	.loc 30 182 7
	leaq	16+_ZTV19wxNavigationEnabledI8wxWindowE(%rip), %rdx
	movq	16(%rbp), %rax
	movq	%rdx, (%rax)
	movq	16(%rbp), %rax
	addq	$576, %rax
	movq	%rax, %rcx
	call	_ZN18wxControlContainerD1Ev
	movq	16(%rbp), %rax
	movq	%rax, %rcx
	call	_ZN8wxWindowD2Ev
.LBE63:
	nop
	addq	$32, %rsp
	popq	%rbp
	.cfi_restore 6
	.cfi_def_cfa 7, 8
	ret
	.cfi_endproc
.LFE15400:
	.seh_endproc
	.section	.text$_ZN19wxNavigationEnabledI8wxWindowED0Ev,"x"
	.linkonce discard
	.align 2
	.globl	_ZN19wxNavigationEnabledI8wxWindowED0Ev
	.def	_ZN19wxNavigationEnabledI8wxWindowED0Ev;	.scl	2;	.type	32;	.endef
	.seh_proc	_ZN19wxNavigationEnabledI8wxWindowED0Ev
_ZN19wxNavigationEnabledI8wxWindowED0Ev:
.LFB15401:
	.loc 30 182 7
	.cfi_startproc
	pushq	%rbp
	.seh_pushreg	%rbp
	.cfi_def_cfa_offset 16
	.cfi_offset 6, -16
	movq	%rsp, %rbp
	.seh_setframe	%rbp, 0
	.cfi_def_cfa_register 6
	subq	$32, %rsp
	.seh_stackalloc	32
	.seh_endprologue
	movq	%rcx, 16(%rbp)
	.loc 30 182 7
	movq	16(%rbp), %rcx
	call	_ZN19wxNavigationEnabledI8wxWindowED1Ev
	movq	16(%rbp), %rcx
	call	_ZdlPv
	nop
	addq	$32, %rsp
	popq	%rbp
	.cfi_restore 6
	.cfi_def_cfa 7, 8
	ret
	.cfi_endproc
.LFE15401:
	.seh_endproc
	.section	.text$_ZN11wxPanelBaseC2Ev,"x"
	.linkonce discard
	.align 2
	.globl	_ZN11wxPanelBaseC2Ev
	.def	_ZN11wxPanelBaseC2Ev;	.scl	2;	.type	32;	.endef
	.seh_proc	_ZN11wxPanelBaseC2Ev
_ZN11wxPanelBaseC2Ev:
.LFB15402:
	.file 32 "../wxMSW-3.0.5_gcc810_x64_Dev/include/wx/panel.h"
	.loc 32 33 5
	.cfi_startproc
	pushq	%rbp
	.seh_pushreg	%rbp
	.cfi_def_cfa_offset 16
	.cfi_offset 6, -16
	movq	%rsp, %rbp
	.seh_setframe	%rbp, 0
	.cfi_def_cfa_register 6
	subq	$32, %rsp
	.seh_stackalloc	32
	.seh_endprologue
	movq	%rcx, 16(%rbp)
.LBB64:
	.loc 32 33 19
	movq	16(%rbp), %rax
	movq	%rax, %rcx
	call	_ZN19wxNavigationEnabledI8wxWindowEC2Ev
	movq	.refptr._ZTV11wxPanelBase(%rip), %rax
	leaq	16(%rax), %rdx
	movq	16(%rbp), %rax
	movq	%rdx, (%rax)
.LBE64:
	.loc 32 33 21
	nop
	addq	$32, %rsp
	popq	%rbp
	.cfi_restore 6
	.cfi_def_cfa 7, 8
	ret
	.cfi_endproc
.LFE15402:
	.seh_endproc
	.section	.text$_ZN11wxPanelBaseD2Ev,"x"
	.linkonce discard
	.align 2
	.globl	_ZN11wxPanelBaseD2Ev
	.def	_ZN11wxPanelBaseD2Ev;	.scl	2;	.type	32;	.endef
	.seh_proc	_ZN11wxPanelBaseD2Ev
_ZN11wxPanelBaseD2Ev:
.LFB15406:
	.loc 32 30 7
	.cfi_startproc
	pushq	%rbp
	.seh_pushreg	%rbp
	.cfi_def_cfa_offset 16
	.cfi_offset 6, -16
	movq	%rsp, %rbp
	.seh_setframe	%rbp, 0
	.cfi_def_cfa_register 6
	subq	$32, %rsp
	.seh_stackalloc	32
	.seh_endprologue
	movq	%rcx, 16(%rbp)
.LBB65:
	.loc 32 30 7
	movq	.refptr._ZTV11wxPanelBase(%rip), %rax
	leaq	16(%rax), %rdx
	movq	16(%rbp), %rax
	movq	%rdx, (%rax)
	movq	16(%rbp), %rax
	movq	%rax, %rcx
	call	_ZN19wxNavigationEnabledI8wxWindowED2Ev
.LBE65:
	nop
	addq	$32, %rsp
	popq	%rbp
	.cfi_restore 6
	.cfi_def_cfa 7, 8
	ret
	.cfi_endproc
.LFE15406:
	.seh_endproc
	.section	.text$_ZN7wxPanelC2Ev,"x"
	.linkonce discard
	.align 2
	.globl	_ZN7wxPanelC2Ev
	.def	_ZN7wxPanelC2Ev;	.scl	2;	.type	32;	.endef
	.seh_proc	_ZN7wxPanelC2Ev
_ZN7wxPanelC2Ev:
.LFB15409:
	.file 33 "../wxMSW-3.0.5_gcc810_x64_Dev/include/wx/msw/panel.h"
	.loc 33 22 5
	.cfi_startproc
	pushq	%rbp
	.seh_pushreg	%rbp
	.cfi_def_cfa_offset 16
	.cfi_offset 6, -16
	movq	%rsp, %rbp
	.seh_setframe	%rbp, 0
	.cfi_def_cfa_register 6
	subq	$32, %rsp
	.seh_stackalloc	32
	.seh_endprologue
	movq	%rcx, 16(%rbp)
.LBB66:
	.loc 33 22 15
	movq	16(%rbp), %rax
	movq	%rax, %rcx
	call	_ZN11wxPanelBaseC2Ev
	movq	.refptr._ZTV7wxPanel(%rip), %rax
	leaq	16(%rax), %rdx
	movq	16(%rbp), %rax
	movq	%rdx, (%rax)
.LBE66:
	.loc 33 22 17
	nop
	addq	$32, %rsp
	popq	%rbp
	.cfi_restore 6
	.cfi_def_cfa 7, 8
	ret
	.cfi_endproc
.LFE15409:
	.seh_endproc
	.section	.text$_ZN8wxDialogC2Ev,"x"
	.linkonce discard
	.align 2
	.globl	_ZN8wxDialogC2Ev
	.def	_ZN8wxDialogC2Ev;	.scl	2;	.type	32;	.endef
	.seh_proc	_ZN8wxDialogC2Ev
_ZN8wxDialogC2Ev:
.LFB15418:
	.file 34 "../wxMSW-3.0.5_gcc810_x64_Dev/include/wx/msw/dialog.h"
	.loc 34 38 5
	.cfi_startproc
	pushq	%rbp
	.seh_pushreg	%rbp
	.cfi_def_cfa_offset 16
	.cfi_offset 6, -16
	pushq	%rbx
	.seh_pushreg	%rbx
	.cfi_def_cfa_offset 24
	.cfi_offset 3, -24
	subq	$40, %rsp
	.seh_stackalloc	40
	.cfi_def_cfa_offset 64
	leaq	128(%rsp), %rbp
	.seh_setframe	%rbp, 128
	.cfi_def_cfa 6, -64
	.seh_endprologue
	movq	%rcx, -64(%rbp)
.LBB67:
	.loc 34 38 16
	movq	-64(%rbp), %rax
	movq	%rax, %rcx
.LEHB30:
	call	_ZN12wxDialogBaseC2Ev
.LEHE30:
	movq	.refptr._ZTV8wxDialog(%rip), %rax
	leaq	16(%rax), %rdx
	movq	-64(%rbp), %rax
	movq	%rdx, (%rax)
	.loc 34 38 22
	movq	-64(%rbp), %rcx
.LEHB31:
	call	_ZN8wxDialog4InitEv
.LEHE31:
.LBE67:
	.loc 34 38 26
	jmp	.L358
.L357:
	movq	%rax, %rbx
.LBB68:
	.loc 34 38 16
	movq	-64(%rbp), %rax
	movq	%rax, %rcx
	call	_ZN12wxDialogBaseD2Ev
	movq	%rbx, %rax
	movq	%rax, %rcx
.LEHB32:
	call	_Unwind_Resume
	nop
.LEHE32:
.L358:
.LBE68:
	.loc 34 38 26
	addq	$40, %rsp
	popq	%rbx
	.cfi_restore 3
	popq	%rbp
	.cfi_restore 6
	.cfi_def_cfa 7, -24
	ret
	.cfi_endproc
.LFE15418:
	.seh_handler	__gxx_personality_seh0, @unwind, @except
	.seh_handlerdata
.LLSDA15418:
	.byte	0xff
	.byte	0xff
	.byte	0x1
	.uleb128 .LLSDACSE15418-.LLSDACSB15418
.LLSDACSB15418:
	.uleb128 .LEHB30-.LFB15418
	.uleb128 .LEHE30-.LEHB30
	.uleb128 0
	.uleb128 0
	.uleb128 .LEHB31-.LFB15418
	.uleb128 .LEHE31-.LEHB31
	.uleb128 .L357-.LFB15418
	.uleb128 0
	.uleb128 .LEHB32-.LFB15418
	.uleb128 .LEHE32-.LEHB32
	.uleb128 0
	.uleb128 0
.LLSDACSE15418:
	.section	.text$_ZN8wxDialogC2Ev,"x"
	.linkonce discard
	.seh_endproc
	.section	.text$_ZNK8wxDialog7IsModalEv,"x"
	.linkonce discard
	.align 2
	.globl	_ZNK8wxDialog7IsModalEv
	.def	_ZNK8wxDialog7IsModalEv;	.scl	2;	.type	32;	.endef
	.seh_proc	_ZNK8wxDialog7IsModalEv
_ZNK8wxDialog7IsModalEv:
.LFB15423:
	.loc 34 63 18
	.cfi_startproc
	pushq	%rbp
	.seh_pushreg	%rbp
	.cfi_def_cfa_offset 16
	.cfi_offset 6, -16
	movq	%rsp, %rbp
	.seh_setframe	%rbp, 0
	.cfi_def_cfa_register 6
	.seh_endprologue
	movq	%rcx, 16(%rbp)
	.loc 34 63 43
	movq	16(%rbp), %rax
	movq	784(%rax), %rax
	.loc 34 63 57
	testq	%rax, %rax
	setne	%al
	.loc 34 63 63
	popq	%rbp
	.cfi_restore 6
	.cfi_def_cfa 7, 8
	ret
	.cfi_endproc
.LFE15423:
	.seh_endproc
	.section	.text$_ZN21wxAnyScrollHelperBase6OnDrawER4wxDC,"x"
	.linkonce discard
	.align 2
	.globl	_ZN21wxAnyScrollHelperBase6OnDrawER4wxDC
	.def	_ZN21wxAnyScrollHelperBase6OnDrawER4wxDC;	.scl	2;	.type	32;	.endef
	.seh_proc	_ZN21wxAnyScrollHelperBase6OnDrawER4wxDC
_ZN21wxAnyScrollHelperBase6OnDrawER4wxDC:
.LFB15441:
	.file 35 "../wxMSW-3.0.5_gcc810_x64_Dev/include/wx/scrolwin.h"
	.loc 35 82 18
	.cfi_startproc
	pushq	%rbp
	.seh_pushreg	%rbp
	.cfi_def_cfa_offset 16
	.cfi_offset 6, -16
	movq	%rsp, %rbp
	.seh_setframe	%rbp, 0
	.cfi_def_cfa_register 6
	.seh_endprologue
	movq	%rcx, 16(%rbp)
	movq	%rdx, 24(%rbp)
	.loc 35 82 35
	nop
	popq	%rbp
	.cfi_restore 6
	.cfi_def_cfa 7, 8
	ret
	.cfi_endproc
.LFE15441:
	.seh_endproc
	.section	.text$_ZN18wxScrollHelperBase6ScrollEii,"x"
	.linkonce discard
	.align 2
	.globl	_ZN18wxScrollHelperBase6ScrollEii
	.def	_ZN18wxScrollHelperBase6ScrollEii;	.scl	2;	.type	32;	.endef
	.seh_proc	_ZN18wxScrollHelperBase6ScrollEii
_ZN18wxScrollHelperBase6ScrollEii:
.LFB15443:
	.loc 35 124 18
	.cfi_startproc
	pushq	%rbp
	.seh_pushreg	%rbp
	.cfi_def_cfa_offset 16
	.cfi_offset 6, -16
	movq	%rsp, %rbp
	.seh_setframe	%rbp, 0
	.cfi_def_cfa_register 6
	subq	$32, %rsp
	.seh_stackalloc	32
	.seh_endprologue
	movq	%rcx, 16(%rbp)
	movl	%edx, 24(%rbp)
	movl	%r8d, 32(%rbp)
	.loc 35 124 54
	movq	16(%rbp), %rax
	movq	(%rax), %rax
	addq	$96, %rax
	movq	(%rax), %rax
	.loc 35 124 49
	movl	32(%rbp), %ecx
	movl	24(%rbp), %edx
	movl	%ecx, %r8d
	movq	16(%rbp), %rcx
	call	*%rax
.LVL23:
	.loc 35 124 57
	nop
	addq	$32, %rsp
	popq	%rbp
	.cfi_restore 6
	.cfi_def_cfa 7, 8
	ret
	.cfi_endproc
.LFE15443:
	.seh_endproc
	.section	.text$_ZN18wxScrollHelperBase6ScrollERK7wxPoint,"x"
	.linkonce discard
	.align 2
	.globl	_ZN18wxScrollHelperBase6ScrollERK7wxPoint
	.def	_ZN18wxScrollHelperBase6ScrollERK7wxPoint;	.scl	2;	.type	32;	.endef
	.seh_proc	_ZN18wxScrollHelperBase6ScrollERK7wxPoint
_ZN18wxScrollHelperBase6ScrollERK7wxPoint:
.LFB15444:
	.loc 35 125 18
	.cfi_startproc
	pushq	%rbp
	.seh_pushreg	%rbp
	.cfi_def_cfa_offset 16
	.cfi_offset 6, -16
	movq	%rsp, %rbp
	.seh_setframe	%rbp, 0
	.cfi_def_cfa_register 6
	subq	$32, %rsp
	.seh_stackalloc	32
	.seh_endprologue
	movq	%rcx, 16(%rbp)
	movq	%rdx, 24(%rbp)
	.loc 35 125 65
	movq	16(%rbp), %rax
	movq	(%rax), %rax
	addq	$96, %rax
	movq	(%rax), %rax
	.loc 35 125 64
	movq	24(%rbp), %rdx
	movl	4(%rdx), %ecx
	.loc 35 125 58
	movq	24(%rbp), %rdx
	movl	(%rdx), %edx
	.loc 35 125 54
	movl	%ecx, %r8d
	movq	16(%rbp), %rcx
	call	*%rax
.LVL24:
	.loc 35 125 68
	nop
	addq	$32, %rsp
	popq	%rbp
	.cfi_restore 6
	.cfi_def_cfa 7, 8
	ret
	.cfi_endproc
.LFE15444:
	.seh_endproc
	.section	.text$_ZNK18wxScrollHelperBase22CalcUnscrolledPositionEiiPiS0_,"x"
	.linkonce discard
	.align 2
	.globl	_ZNK18wxScrollHelperBase22CalcUnscrolledPositionEiiPiS0_
	.def	_ZNK18wxScrollHelperBase22CalcUnscrolledPositionEiiPiS0_;	.scl	2;	.type	32;	.endef
	.seh_proc	_ZNK18wxScrollHelperBase22CalcUnscrolledPositionEiiPiS0_
_ZNK18wxScrollHelperBase22CalcUnscrolledPositionEiiPiS0_:
.LFB15453:
	.loc 35 190 10
	.cfi_startproc
	pushq	%rbp
	.seh_pushreg	%rbp
	.cfi_def_cfa_offset 16
	.cfi_offset 6, -16
	movq	%rsp, %rbp
	.seh_setframe	%rbp, 0
	.cfi_def_cfa_register 6
	subq	$48, %rsp
	.seh_stackalloc	48
	.seh_endprologue
	movq	%rcx, 16(%rbp)
	movl	%edx, 24(%rbp)
	movl	%r8d, 32(%rbp)
	movq	%r9, 40(%rbp)
	.loc 35 191 35
	movq	40(%rbp), %r8
	movl	32(%rbp), %ecx
	movl	24(%rbp), %eax
	movq	48(%rbp), %rdx
	movq	%rdx, 32(%rsp)
	movq	%r8, %r9
	movl	%ecx, %r8d
	movl	%eax, %edx
	movq	16(%rbp), %rcx
	call	_ZNK18wxScrollHelperBase24DoCalcUnscrolledPositionEiiPiS0_
	.loc 35 191 51
	nop
	addq	$48, %rsp
	popq	%rbp
	.cfi_restore 6
	.cfi_def_cfa 7, 8
	ret
	.cfi_endproc
.LFE15453:
	.seh_endproc
	.section	.text$_ZN18wxScrollHelperBase31GetSizeAvailableForScrollTargetERK6wxSize,"x"
	.linkonce discard
	.align 2
	.globl	_ZN18wxScrollHelperBase31GetSizeAvailableForScrollTargetERK6wxSize
	.def	_ZN18wxScrollHelperBase31GetSizeAvailableForScrollTargetERK6wxSize;	.scl	2;	.type	32;	.endef
	.seh_proc	_ZN18wxScrollHelperBase31GetSizeAvailableForScrollTargetERK6wxSize
_ZN18wxScrollHelperBase31GetSizeAvailableForScrollTargetERK6wxSize:
.LFB15462:
	.loc 35 296 20
	.cfi_startproc
	pushq	%rbp
	.seh_pushreg	%rbp
	.cfi_def_cfa_offset 16
	.cfi_offset 6, -16
	movq	%rsp, %rbp
	.seh_setframe	%rbp, 0
	.cfi_def_cfa_register 6
	.seh_endprologue
	movq	%rcx, 16(%rbp)
	movq	%rdx, 24(%rbp)
	.loc 35 304 16
	movq	24(%rbp), %rax
	movq	(%rax), %rax
	.loc 35 305 5
	popq	%rbp
	.cfi_restore 6
	.cfi_def_cfa 7, 8
	ret
	.cfi_endproc
.LFE15462:
	.seh_endproc
	.section	.text$_ZN7wxPanelD2Ev,"x"
	.linkonce discard
	.align 2
	.globl	_ZN7wxPanelD2Ev
	.def	_ZN7wxPanelD2Ev;	.scl	2;	.type	32;	.endef
	.seh_proc	_ZN7wxPanelD2Ev
_ZN7wxPanelD2Ev:
.LFB15477:
	.loc 33 19 7
	.cfi_startproc
	pushq	%rbp
	.seh_pushreg	%rbp
	.cfi_def_cfa_offset 16
	.cfi_offset 6, -16
	movq	%rsp, %rbp
	.seh_setframe	%rbp, 0
	.cfi_def_cfa_register 6
	subq	$32, %rsp
	.seh_stackalloc	32
	.seh_endprologue
	movq	%rcx, 16(%rbp)
.LBB69:
	.loc 33 19 7
	movq	.refptr._ZTV7wxPanel(%rip), %rax
	leaq	16(%rax), %rdx
	movq	16(%rbp), %rax
	movq	%rdx, (%rax)
	movq	16(%rbp), %rax
	movq	%rax, %rcx
	call	_ZN11wxPanelBaseD2Ev
.LBE69:
	nop
	addq	$32, %rsp
	popq	%rbp
	.cfi_restore 6
	.cfi_def_cfa 7, 8
	ret
	.cfi_endproc
.LFE15477:
	.seh_endproc
	.section	.text$_ZN14wxScrollHelperD2Ev,"x"
	.linkonce discard
	.align 2
	.globl	_ZN14wxScrollHelperD2Ev
	.def	_ZN14wxScrollHelperD2Ev;	.scl	2;	.type	32;	.endef
	.seh_proc	_ZN14wxScrollHelperD2Ev
_ZN14wxScrollHelperD2Ev:
.LFB15481:
	.file 36 "../wxMSW-3.0.5_gcc810_x64_Dev/include/wx/generic/scrolwin.h"
	.loc 36 17 7
	.cfi_startproc
	pushq	%rbp
	.seh_pushreg	%rbp
	.cfi_def_cfa_offset 16
	.cfi_offset 6, -16
	movq	%rsp, %rbp
	.seh_setframe	%rbp, 0
	.cfi_def_cfa_register 6
	subq	$32, %rsp
	.seh_stackalloc	32
	.seh_endprologue
	movq	%rcx, 16(%rbp)
.LBB70:
	.loc 36 17 7
	movq	.refptr._ZTV14wxScrollHelper(%rip), %rax
	leaq	16(%rax), %rdx
	movq	16(%rbp), %rax
	movq	%rdx, (%rax)
	movq	16(%rbp), %rax
	movq	%rax, %rcx
	call	_ZN18wxScrollHelperBaseD2Ev
.LBE70:
	nop
	addq	$32, %rsp
	popq	%rbp
	.cfi_restore 6
	.cfi_def_cfa 7, 8
	ret
	.cfi_endproc
.LFE15481:
	.seh_endproc
	.section	.text$_ZN10wxScrolledI7wxPanelED2Ev,"x"
	.linkonce discard
	.align 2
	.globl	_ZN10wxScrolledI7wxPanelED2Ev
	.def	_ZN10wxScrolledI7wxPanelED2Ev;	.scl	2;	.type	32;	.endef
	.seh_proc	_ZN10wxScrolledI7wxPanelED2Ev
_ZN10wxScrolledI7wxPanelED2Ev:
.LFB15484:
	.loc 35 382 7
	.cfi_startproc
	pushq	%rbp
	.seh_pushreg	%rbp
	.cfi_def_cfa_offset 16
	.cfi_offset 6, -16
	movq	%rsp, %rbp
	.seh_setframe	%rbp, 0
	.cfi_def_cfa_register 6
	subq	$32, %rsp
	.seh_stackalloc	32
	.seh_endprologue
	movq	%rcx, 16(%rbp)
.LBB71:
	.loc 35 382 7
	leaq	16+_ZTV10wxScrolledI7wxPanelE(%rip), %rdx
	movq	16(%rbp), %rax
	movq	%rdx, (%rax)
	leaq	1760+_ZTV10wxScrolledI7wxPanelE(%rip), %rdx
	movq	16(%rbp), %rax
	movq	%rdx, 608(%rax)
	movq	16(%rbp), %rax
	addq	$608, %rax
	movq	%rax, %rcx
	call	_ZN14wxScrollHelperD2Ev
	movq	16(%rbp), %rax
	movq	%rax, %rcx
	call	_ZN7wxPanelD2Ev
.LBE71:
	nop
	addq	$32, %rsp
	popq	%rbp
	.cfi_restore 6
	.cfi_def_cfa 7, 8
	ret
	.cfi_endproc
.LFE15484:
	.seh_endproc
	.section	.text$_ZN10wxScrolledI7wxPanelED1Ev,"x"
	.linkonce discard
	.align 2
	.globl	_ZN10wxScrolledI7wxPanelED1Ev
	.def	_ZN10wxScrolledI7wxPanelED1Ev;	.scl	2;	.type	32;	.endef
	.seh_proc	_ZN10wxScrolledI7wxPanelED1Ev
_ZN10wxScrolledI7wxPanelED1Ev:
.LFB15485:
	.loc 35 382 7
	.cfi_startproc
	pushq	%rbp
	.seh_pushreg	%rbp
	.cfi_def_cfa_offset 16
	.cfi_offset 6, -16
	movq	%rsp, %rbp
	.seh_setframe	%rbp, 0
	.cfi_def_cfa_register 6
	subq	$32, %rsp
	.seh_stackalloc	32
	.seh_endprologue
	movq	%rcx, 16(%rbp)
.LBB72:
	.loc 35 382 7
	leaq	16+_ZTV10wxScrolledI7wxPanelE(%rip), %rdx
	movq	16(%rbp), %rax
	movq	%rdx, (%rax)
	leaq	1760+_ZTV10wxScrolledI7wxPanelE(%rip), %rdx
	movq	16(%rbp), %rax
	movq	%rdx, 608(%rax)
	movq	16(%rbp), %rax
	addq	$608, %rax
	movq	%rax, %rcx
	call	_ZN14wxScrollHelperD2Ev
	movq	16(%rbp), %rax
	movq	%rax, %rcx
	call	_ZN7wxPanelD2Ev
.LBE72:
	nop
	addq	$32, %rsp
	popq	%rbp
	.cfi_restore 6
	.cfi_def_cfa 7, 8
	ret
	.cfi_endproc
.LFE15485:
	.seh_endproc
	.section	.text$_ZThn608_N10wxScrolledI7wxPanelED1Ev,"x"
	.linkonce discard
	.globl	_ZThn608_N10wxScrolledI7wxPanelED1Ev
	.def	_ZThn608_N10wxScrolledI7wxPanelED1Ev;	.scl	2;	.type	32;	.endef
_ZThn608_N10wxScrolledI7wxPanelED1Ev:
.LFB17744:
	.loc 35 382 7
	.cfi_startproc
	subq	$608, %rcx
	jmp	_ZN10wxScrolledI7wxPanelED1Ev
	.cfi_endproc
.LFE17744:
	.section	.text$_ZN10wxScrolledI7wxPanelED0Ev,"x"
	.linkonce discard
	.align 2
	.globl	_ZN10wxScrolledI7wxPanelED0Ev
	.def	_ZN10wxScrolledI7wxPanelED0Ev;	.scl	2;	.type	32;	.endef
	.seh_proc	_ZN10wxScrolledI7wxPanelED0Ev
_ZN10wxScrolledI7wxPanelED0Ev:
.LFB15486:
	.loc 35 382 7
	.cfi_startproc
	pushq	%rbp
	.seh_pushreg	%rbp
	.cfi_def_cfa_offset 16
	.cfi_offset 6, -16
	movq	%rsp, %rbp
	.seh_setframe	%rbp, 0
	.cfi_def_cfa_register 6
	subq	$32, %rsp
	.seh_stackalloc	32
	.seh_endprologue
	movq	%rcx, 16(%rbp)
	.loc 35 382 7
	movq	16(%rbp), %rcx
	call	_ZN10wxScrolledI7wxPanelED1Ev
	movq	16(%rbp), %rcx
	call	_ZdlPv
	nop
	addq	$32, %rsp
	popq	%rbp
	.cfi_restore 6
	.cfi_def_cfa 7, 8
	ret
	.cfi_endproc
.LFE15486:
	.seh_endproc
	.section	.text$_ZThn608_N10wxScrolledI7wxPanelED0Ev,"x"
	.linkonce discard
	.globl	_ZThn608_N10wxScrolledI7wxPanelED0Ev
	.def	_ZThn608_N10wxScrolledI7wxPanelED0Ev;	.scl	2;	.type	32;	.endef
_ZThn608_N10wxScrolledI7wxPanelED0Ev:
.LFB17745:
	.loc 35 382 7
	.cfi_startproc
	subq	$608, %rcx
	jmp	_ZN10wxScrolledI7wxPanelED0Ev
	.cfi_endproc
.LFE17745:
	.section	.text$_ZN16wxScrolledWindowC2Ev,"x"
	.linkonce discard
	.align 2
	.globl	_ZN16wxScrolledWindowC2Ev
	.def	_ZN16wxScrolledWindowC2Ev;	.scl	2;	.type	32;	.endef
	.seh_proc	_ZN16wxScrolledWindowC2Ev
_ZN16wxScrolledWindowC2Ev:
.LFB15487:
	.loc 35 476 5
	.cfi_startproc
	pushq	%rbp
	.seh_pushreg	%rbp
	.cfi_def_cfa_offset 16
	.cfi_offset 6, -16
	movq	%rsp, %rbp
	.seh_setframe	%rbp, 0
	.cfi_def_cfa_register 6
	subq	$32, %rsp
	.seh_stackalloc	32
	.seh_endprologue
	movq	%rcx, 16(%rbp)
.LBB73:
	.loc 35 476 46
	movq	16(%rbp), %rax
	movq	%rax, %rcx
	call	_ZN10wxScrolledI7wxPanelEC2Ev
	movq	.refptr._ZTV16wxScrolledWindow(%rip), %rax
	leaq	16(%rax), %rdx
	movq	16(%rbp), %rax
	movq	%rdx, (%rax)
	movq	.refptr._ZTV16wxScrolledWindow(%rip), %rax
	leaq	1760(%rax), %rdx
	movq	16(%rbp), %rax
	movq	%rdx, 608(%rax)
.LBE73:
	.loc 35 476 49
	nop
	addq	$32, %rsp
	popq	%rbp
	.cfi_restore 6
	.cfi_def_cfa 7, 8
	ret
	.cfi_endproc
.LFE15487:
	.seh_endproc
	.section	.text$_ZN21wxHtmlWindowInterfaceC2Ev,"x"
	.linkonce discard
	.align 2
	.globl	_ZN21wxHtmlWindowInterfaceC2Ev
	.def	_ZN21wxHtmlWindowInterfaceC2Ev;	.scl	2;	.type	32;	.endef
	.seh_proc	_ZN21wxHtmlWindowInterfaceC2Ev
_ZN21wxHtmlWindowInterfaceC2Ev:
.LFB16521:
	.file 37 "../wxMSW-3.0.5_gcc810_x64_Dev/include/wx/html/htmlwin.h"
	.loc 37 62 5
	.cfi_startproc
	pushq	%rbp
	.seh_pushreg	%rbp
	.cfi_def_cfa_offset 16
	.cfi_offset 6, -16
	movq	%rsp, %rbp
	.seh_setframe	%rbp, 0
	.cfi_def_cfa_register 6
	.seh_endprologue
	movq	%rcx, 16(%rbp)
.LBB74:
	.loc 37 62 29
	leaq	16+_ZTV21wxHtmlWindowInterface(%rip), %rdx
	movq	16(%rbp), %rax
	movq	%rdx, (%rax)
.LBE74:
	.loc 37 62 30
	nop
	popq	%rbp
	.cfi_restore 6
	.cfi_def_cfa 7, 8
	ret
	.cfi_endproc
.LFE16521:
	.seh_endproc
	.section	.text$_ZN21wxHtmlWindowInterfaceD2Ev,"x"
	.linkonce discard
	.align 2
	.globl	_ZN21wxHtmlWindowInterfaceD2Ev
	.def	_ZN21wxHtmlWindowInterfaceD2Ev;	.scl	2;	.type	32;	.endef
	.seh_proc	_ZN21wxHtmlWindowInterfaceD2Ev
_ZN21wxHtmlWindowInterfaceD2Ev:
.LFB16524:
	.loc 37 63 13
	.cfi_startproc
	pushq	%rbp
	.seh_pushreg	%rbp
	.cfi_def_cfa_offset 16
	.cfi_offset 6, -16
	movq	%rsp, %rbp
	.seh_setframe	%rbp, 0
	.cfi_def_cfa_register 6
	.seh_endprologue
	movq	%rcx, 16(%rbp)
.LBB75:
	.loc 37 63 38
	leaq	16+_ZTV21wxHtmlWindowInterface(%rip), %rdx
	movq	16(%rbp), %rax
	movq	%rdx, (%rax)
.LBE75:
	.loc 37 63 39
	nop
	popq	%rbp
	.cfi_restore 6
	.cfi_def_cfa 7, 8
	ret
	.cfi_endproc
.LFE16524:
	.seh_endproc
	.section	.text$_ZN23wxHtmlWindowMouseHelperD2Ev,"x"
	.linkonce discard
	.align 2
	.globl	_ZN23wxHtmlWindowMouseHelperD2Ev
	.def	_ZN23wxHtmlWindowMouseHelperD2Ev;	.scl	2;	.type	32;	.endef
	.seh_proc	_ZN23wxHtmlWindowMouseHelperD2Ev
_ZN23wxHtmlWindowMouseHelperD2Ev:
.LFB16528:
	.loc 37 152 13
	.cfi_startproc
	pushq	%rbp
	.seh_pushreg	%rbp
	.cfi_def_cfa_offset 16
	.cfi_offset 6, -16
	movq	%rsp, %rbp
	.seh_setframe	%rbp, 0
	.cfi_def_cfa_register 6
	.seh_endprologue
	movq	%rcx, 16(%rbp)
.LBB76:
	.loc 37 152 40
	movq	.refptr._ZTV23wxHtmlWindowMouseHelper(%rip), %rax
	leaq	16(%rax), %rdx
	movq	16(%rbp), %rax
	movq	%rdx, (%rax)
.LBE76:
	.loc 37 152 42
	nop
	popq	%rbp
	.cfi_restore 6
	.cfi_def_cfa 7, 8
	ret
	.cfi_endproc
.LFE16528:
	.seh_endproc
	.section	.text$_ZN16wxScrolledWindowD2Ev,"x"
	.linkonce discard
	.align 2
	.globl	_ZN16wxScrolledWindowD2Ev
	.def	_ZN16wxScrolledWindowD2Ev;	.scl	2;	.type	32;	.endef
	.seh_proc	_ZN16wxScrolledWindowD2Ev
_ZN16wxScrolledWindowD2Ev:
.LFB16534:
	.loc 35 473 7
	.cfi_startproc
	pushq	%rbp
	.seh_pushreg	%rbp
	.cfi_def_cfa_offset 16
	.cfi_offset 6, -16
	movq	%rsp, %rbp
	.seh_setframe	%rbp, 0
	.cfi_def_cfa_register 6
	subq	$32, %rsp
	.seh_stackalloc	32
	.seh_endprologue
	movq	%rcx, 16(%rbp)
.LBB77:
	.loc 35 473 7
	movq	.refptr._ZTV16wxScrolledWindow(%rip), %rax
	leaq	16(%rax), %rdx
	movq	16(%rbp), %rax
	movq	%rdx, (%rax)
	movq	.refptr._ZTV16wxScrolledWindow(%rip), %rax
	leaq	1760(%rax), %rdx
	movq	16(%rbp), %rax
	movq	%rdx, 608(%rax)
	movq	16(%rbp), %rax
	movq	%rax, %rcx
	call	_ZN10wxScrolledI7wxPanelED2Ev
.LBE77:
	nop
	addq	$32, %rsp
	popq	%rbp
	.cfi_restore 6
	.cfi_def_cfa 7, 8
	ret
	.cfi_endproc
.LFE16534:
	.seh_endproc
	.section	.text$_ZN12wxHtmlWindowC1EP8wxWindowiRK7wxPointRK6wxSizelRK8wxString,"x"
	.linkonce discard
	.align 2
	.globl	_ZN12wxHtmlWindowC1EP8wxWindowiRK7wxPointRK6wxSizelRK8wxString
	.def	_ZN12wxHtmlWindowC1EP8wxWindowiRK7wxPointRK6wxSizelRK8wxString;	.scl	2;	.type	32;	.endef
	.seh_proc	_ZN12wxHtmlWindowC1EP8wxWindowiRK7wxPointRK6wxSizelRK8wxString
_ZN12wxHtmlWindowC1EP8wxWindowiRK7wxPointRK6wxSizelRK8wxString:
.LFB16541:
	.loc 37 243 5
	.cfi_startproc
	pushq	%rbp
	.seh_pushreg	%rbp
	.cfi_def_cfa_offset 16
	.cfi_offset 6, -16
	pushq	%rbx
	.seh_pushreg	%rbx
	.cfi_def_cfa_offset 24
	.cfi_offset 3, -24
	subq	$72, %rsp
	.seh_stackalloc	72
	.cfi_def_cfa_offset 96
	leaq	128(%rsp), %rbp
	.seh_setframe	%rbp, 128
	.cfi_def_cfa 6, -32
	.seh_endprologue
	movq	%rcx, -32(%rbp)
	movq	%rdx, -24(%rbp)
	movl	%r8d, -16(%rbp)
	movq	%r9, -8(%rbp)
.LBB78:
	.loc 37 248 39
	movq	-32(%rbp), %rax
	movq	%rax, %rcx
.LEHB33:
	call	_ZN16wxScrolledWindowC2Ev
.LEHE33:
	movq	-32(%rbp), %rax
	addq	$736, %rax
	movq	%rax, %rcx
	call	_ZN21wxHtmlWindowInterfaceC2Ev
	movq	-32(%rbp), %rax
	addq	$744, %rax
	movq	-32(%rbp), %rdx
	addq	$736, %rdx
	movq	%rax, %rcx
.LEHB34:
	call	_ZN23wxHtmlWindowMouseHelperC2EP21wxHtmlWindowInterface
.LEHE34:
	.loc 37 248 39 is_stmt 0 discriminator 2
	movq	.refptr._ZTV12wxHtmlWindow(%rip), %rax
	leaq	16(%rax), %rdx
	movq	-32(%rbp), %rax
	movq	%rdx, (%rax)
	movq	.refptr._ZTV12wxHtmlWindow(%rip), %rax
	leaq	1904(%rax), %rdx
	movq	-32(%rbp), %rax
	movq	%rdx, 608(%rax)
	movq	.refptr._ZTV12wxHtmlWindow(%rip), %rax
	leaq	2040(%rax), %rdx
	movq	-32(%rbp), %rax
	movq	%rdx, 736(%rax)
	movq	.refptr._ZTV12wxHtmlWindow(%rip), %rax
	leaq	2152(%rax), %rdx
	movq	-32(%rbp), %rax
	movq	%rdx, 744(%rax)
	movq	-32(%rbp), %rax
	addq	$800, %rax
	movq	%rax, %rcx
	call	_ZN8wxStringC1Ev
	movq	-32(%rbp), %rax
	addq	$848, %rax
	movq	%rax, %rcx
	call	_ZN8wxStringC1Ev
	movq	-32(%rbp), %rax
	addq	$896, %rax
	movq	%rax, %rcx
	call	_ZN8wxStringC1Ev
	movq	-32(%rbp), %rax
	addq	$976, %rax
	movq	%rax, %rcx
	call	_ZN8wxStringC1Ev
	movq	-32(%rbp), %rax
	addq	$1048, %rax
	movq	%rax, %rcx
	call	_ZN16wxLongLongNativeC1Ev
	movq	-32(%rbp), %rax
	addq	$1064, %rax
	movq	%rax, %rcx
	call	_ZN8wxBitmapC1Ev
	movq	-32(%rbp), %rax
	addq	$1080, %rax
	movq	%rax, %rcx
	call	_ZN8wxBitmapC1Ev
	movq	-32(%rbp), %rax
	addq	$1096, %rax
	movq	%rax, %rcx
	call	_ZN7wxPointC1Ev
	.loc 37 250 13 is_stmt 1 discriminator 2
	movq	-32(%rbp), %rcx
.LEHB35:
	call	_ZN12wxHtmlWindow4InitEv
	.loc 37 251 15
	movq	-8(%rbp), %r8
	movl	-16(%rbp), %ecx
	movq	-24(%rbp), %rax
	movq	16(%rbp), %rdx
	movq	%rdx, 48(%rsp)
	movl	8(%rbp), %edx
	movl	%edx, 40(%rsp)
	movq	0(%rbp), %rdx
	movq	%rdx, 32(%rsp)
	movq	%r8, %r9
	movl	%ecx, %r8d
	movq	%rax, %rdx
	movq	-32(%rbp), %rcx
	call	_ZN12wxHtmlWindow6CreateEP8wxWindowiRK7wxPointRK6wxSizelRK8wxString
.LEHE35:
.LBE78:
	.loc 37 252 5
	jmp	.L382
.L381:
	movq	%rax, %rbx
.LBB79:
	.loc 37 248 39
	movq	-32(%rbp), %rax
	addq	$1080, %rax
	movq	%rax, %rcx
	call	_ZN8wxBitmapD1Ev
	movq	-32(%rbp), %rax
	addq	$1064, %rax
	movq	%rax, %rcx
	call	_ZN8wxBitmapD1Ev
	movq	-32(%rbp), %rax
	addq	$976, %rax
	movq	%rax, %rcx
	call	_ZN8wxStringD1Ev
	movq	-32(%rbp), %rax
	addq	$896, %rax
	movq	%rax, %rcx
	call	_ZN8wxStringD1Ev
	movq	-32(%rbp), %rax
	addq	$848, %rax
	movq	%rax, %rcx
	call	_ZN8wxStringD1Ev
	movq	-32(%rbp), %rax
	addq	$800, %rax
	movq	%rax, %rcx
	call	_ZN8wxStringD1Ev
	movq	-32(%rbp), %rax
	addq	$744, %rax
	movq	%rax, %rcx
	call	_ZN23wxHtmlWindowMouseHelperD2Ev
	jmp	.L379
.L380:
	movq	%rax, %rbx
.L379:
	.loc 37 248 39 is_stmt 0 discriminator 1
	movq	-32(%rbp), %rax
	addq	$736, %rax
	movq	%rax, %rcx
	call	_ZN21wxHtmlWindowInterfaceD2Ev
	movq	-32(%rbp), %rax
	movq	%rax, %rcx
	call	_ZN16wxScrolledWindowD2Ev
	movq	%rbx, %rax
	movq	%rax, %rcx
.LEHB36:
	call	_Unwind_Resume
	nop
.LEHE36:
.L382:
.LBE79:
	.loc 37 252 5 is_stmt 1
	addq	$72, %rsp
	popq	%rbx
	.cfi_restore 3
	popq	%rbp
	.cfi_restore 6
	.cfi_def_cfa 7, -56
	ret
	.cfi_endproc
.LFE16541:
	.seh_handler	__gxx_personality_seh0, @unwind, @except
	.seh_handlerdata
.LLSDA16541:
	.byte	0xff
	.byte	0xff
	.byte	0x1
	.uleb128 .LLSDACSE16541-.LLSDACSB16541
.LLSDACSB16541:
	.uleb128 .LEHB33-.LFB16541
	.uleb128 .LEHE33-.LEHB33
	.uleb128 0
	.uleb128 0
	.uleb128 .LEHB34-.LFB16541
	.uleb128 .LEHE34-.LEHB34
	.uleb128 .L380-.LFB16541
	.uleb128 0
	.uleb128 .LEHB35-.LFB16541
	.uleb128 .LEHE35-.LEHB35
	.uleb128 .L381-.LFB16541
	.uleb128 0
	.uleb128 .LEHB36-.LFB16541
	.uleb128 .LEHE36-.LEHB36
	.uleb128 0
	.uleb128 0
.LLSDACSE16541:
	.section	.text$_ZN12wxHtmlWindowC1EP8wxWindowiRK7wxPointRK6wxSizelRK8wxString,"x"
	.linkonce discard
	.seh_endproc
	.globl	_ZN16InformacaoDialog14ID_HTMLWINDOW1E
	.bss
	.align 4
_ZN16InformacaoDialog14ID_HTMLWINDOW1E:
	.space 4
	.globl	_ZN16InformacaoDialog16ID_BUTTON_FECHARE
	.align 4
_ZN16InformacaoDialog16ID_BUTTON_FECHARE:
	.space 4
	.globl	_ZN16InformacaoDialog19ID_BUTTON_NAVEGADORE
	.align 4
_ZN16InformacaoDialog19ID_BUTTON_NAVEGADORE:
	.space 4
	.globl	_ZN16InformacaoDialog13sm_eventTableE
	.section .rdata,"dr"
	.align 16
_ZN16InformacaoDialog13sm_eventTableE:
	.quad	_ZN12wxDialogBase13sm_eventTableE
	.quad	_ZN16InformacaoDialog20sm_eventTableEntriesE
	.text
	.align 2
	.globl	_ZNK16InformacaoDialog13GetEventTableEv
	.def	_ZNK16InformacaoDialog13GetEventTableEv;	.scl	2;	.type	32;	.endef
	.seh_proc	_ZNK16InformacaoDialog13GetEventTableEv
_ZNK16InformacaoDialog13GetEventTableEv:
.LFB16648:
	.file 38 "C:/temp/ballisticKernelCpp/interfaceGrafica/calculadorBalisiticaGraficoWindows/informacaoDialog.cpp"
	.loc 38 15 188
	.cfi_startproc
	pushq	%rbp
	.seh_pushreg	%rbp
	.cfi_def_cfa_offset 16
	.cfi_offset 6, -16
	movq	%rsp, %rbp
	.seh_setframe	%rbp, 0
	.cfi_def_cfa_register 6
	.seh_endprologue
	movq	%rcx, 16(%rbp)
	.loc 38 15 216
	leaq	_ZN16InformacaoDialog13sm_eventTableE(%rip), %rax
	.loc 38 15 231
	popq	%rbp
	.cfi_restore 6
	.cfi_def_cfa 7, 8
	ret
	.cfi_endproc
.LFE16648:
	.seh_endproc
	.globl	_ZN16InformacaoDialog17sm_eventHashTableE
	.bss
	.align 32
_ZN16InformacaoDialog17sm_eventHashTableE:
	.space 48
	.text
	.align 2
	.globl	_ZNK16InformacaoDialog17GetEventHashTableEv
	.def	_ZNK16InformacaoDialog17GetEventHashTableEv;	.scl	2;	.type	32;	.endef
	.seh_proc	_ZNK16InformacaoDialog17GetEventHashTableEv
_ZNK16InformacaoDialog17GetEventHashTableEv:
.LFB16649:
	.loc 38 15 382
	.cfi_startproc
	pushq	%rbp
	.seh_pushreg	%rbp
	.cfi_def_cfa_offset 16
	.cfi_offset 6, -16
	movq	%rsp, %rbp
	.seh_setframe	%rbp, 0
	.cfi_def_cfa_register 6
	.seh_endprologue
	movq	%rcx, 16(%rbp)
	.loc 38 15 409
	leaq	_ZN16InformacaoDialog17sm_eventHashTableE(%rip), %rax
	.loc 38 15 428
	popq	%rbp
	.cfi_restore 6
	.cfi_def_cfa 7, 8
	ret
	.cfi_endproc
.LFE16649:
	.seh_endproc
	.section	.text$_ZN17wxEventTableEntryD1Ev,"x"
	.linkonce discard
	.align 2
	.globl	_ZN17wxEventTableEntryD1Ev
	.def	_ZN17wxEventTableEntryD1Ev;	.scl	2;	.type	32;	.endef
	.seh_proc	_ZN17wxEventTableEntryD1Ev
_ZN17wxEventTableEntryD1Ev:
.LFB16652:
	.loc 14 3217 8
	.cfi_startproc
	pushq	%rbp
	.seh_pushreg	%rbp
	.cfi_def_cfa_offset 16
	.cfi_offset 6, -16
	movq	%rsp, %rbp
	.seh_setframe	%rbp, 0
	.cfi_def_cfa_register 6
	subq	$32, %rsp
	.seh_stackalloc	32
	.seh_endprologue
	movq	%rcx, 16(%rbp)
.LBB80:
	.loc 14 3217 8
	movq	16(%rbp), %rax
	movq	%rax, %rcx
	call	_ZN21wxEventTableEntryBaseD2Ev
.LBE80:
	nop
	addq	$32, %rsp
	popq	%rbp
	.cfi_restore 6
	.cfi_def_cfa 7, 8
	ret
	.cfi_endproc
.LFE16652:
	.seh_endproc
	.globl	_ZN16InformacaoDialog20sm_eventTableEntriesE
	.bss
	.align 32
_ZN16InformacaoDialog20sm_eventTableEntriesE:
	.space 32
	.section .rdata,"dr"
	.align 2
.LC8:
	.ascii "w\0x\0I\0D\0_\0A\0N\0Y\0\0\0"
.LC9:
	.ascii "Info\0"
	.align 2
.LC10:
	.ascii "I\0D\0_\0H\0T\0M\0L\0W\0I\0N\0D\0O\0W\0"
	.ascii "1\0\0\0"
.LC11:
	.ascii "Fechar\0"
	.align 8
.LC12:
	.ascii "I\0D\0_\0B\0U\0T\0T\0O\0N\0_\0F\0E\0C\0H\0A\0R\0\0\0"
	.align 2
.LC13:
	.ascii "A\0r\0i\0a\0l\0\0\0"
.LC14:
	.ascii "Navegador\0"
	.align 8
.LC15:
	.ascii "I\0D\0_\0B\0U\0T\0T\0O\0N\0_\0N\0A\0V\0E\0G\0A\0D\0O\0R\0\0\0"
.LC16:
	.ascii ".\\resource\\info.html\0"
	.text
	.align 2
	.globl	_ZN16InformacaoDialogC2EP8wxWindowiRK7wxPointRK6wxSize
	.def	_ZN16InformacaoDialogC2EP8wxWindowiRK7wxPointRK6wxSize;	.scl	2;	.type	32;	.endef
	.seh_proc	_ZN16InformacaoDialogC2EP8wxWindowiRK7wxPointRK6wxSize
_ZN16InformacaoDialogC2EP8wxWindowiRK7wxPointRK6wxSize:
.LFB16657:
	.loc 38 20 1
	.cfi_startproc
	pushq	%rbp
	.seh_pushreg	%rbp
	.cfi_def_cfa_offset 16
	.cfi_offset 6, -16
	pushq	%r15
	.seh_pushreg	%r15
	.cfi_def_cfa_offset 24
	.cfi_offset 15, -24
	pushq	%r14
	.seh_pushreg	%r14
	.cfi_def_cfa_offset 32
	.cfi_offset 14, -32
	pushq	%r13
	.seh_pushreg	%r13
	.cfi_def_cfa_offset 40
	.cfi_offset 13, -40
	pushq	%r12
	.seh_pushreg	%r12
	.cfi_def_cfa_offset 48
	.cfi_offset 12, -48
	pushq	%rdi
	.seh_pushreg	%rdi
	.cfi_def_cfa_offset 56
	.cfi_offset 5, -56
	pushq	%rsi
	.seh_pushreg	%rsi
	.cfi_def_cfa_offset 64
	.cfi_offset 4, -64
	pushq	%rbx
	.seh_pushreg	%rbx
	.cfi_def_cfa_offset 72
	.cfi_offset 3, -72
	subq	$888, %rsp
	.seh_stackalloc	888
	.cfi_def_cfa_offset 960
	leaq	128(%rsp), %rbp
	.seh_setframe	%rbp, 128
	.cfi_def_cfa 6, 832
	.seh_endprologue
	movq	%rcx, 832(%rbp)
	movq	%rdx, 840(%rbp)
	movl	%r8d, 848(%rbp)
	movq	%r9, 856(%rbp)
.LBB81:
	.loc 38 20 104
	movq	832(%rbp), %rax
	movq	%rax, %rcx
.LEHB37:
	call	_ZN8wxDialogC2Ev
.LEHE37:
	leaq	16+_ZTV16InformacaoDialog(%rip), %rdx
	movq	832(%rbp), %rax
	movq	%rdx, (%rax)
.LBB82:
	.loc 38 23 8
	movq	832(%rbp), %rdi
	leaq	16(%rbp), %rax
	leaq	.LC8(%rip), %rdx
	movq	%rax, %rcx
.LEHB38:
	call	_ZN8wxStringC1EPKw
.LEHE38:
	.loc 38 23 8 is_stmt 0 discriminator 1
	leaq	64(%rbp), %rax
	movq	%rax, %rcx
	call	_ZN8wxStringC1Ev
	leaq	112(%rbp), %rax
	leaq	.LC9(%rip), %rdx
	movq	%rax, %rcx
.LEHB39:
	call	_ZN8wxStringC1EPKc
.LEHE39:
	.loc 38 23 8 discriminator 5
	leaq	64(%rbp), %rdx
	leaq	112(%rbp), %rax
	movq	%rax, %rcx
.LEHB40:
	call	_Z16wxGetTranslationRK8wxStringS1_
	movq	%rax, %rcx
	movq	840(%rbp), %rdx
	leaq	16(%rbp), %rax
	movq	%rax, 56(%rsp)
	movl	$536877056, 48(%rsp)
	movq	.refptr.wxDefaultSize(%rip), %rax
	movq	%rax, 40(%rsp)
	movq	.refptr.wxDefaultPosition(%rip), %rax
	movq	%rax, 32(%rsp)
	movq	%rcx, %r9
	movl	$-1, %r8d
	movq	%rdi, %rcx
	call	_ZN8wxDialog6CreateEP8wxWindowiRK8wxStringRK7wxPointRK6wxSizelS4_
.LEHE40:
	.loc 38 23 8 discriminator 9
	leaq	112(%rbp), %rax
	movq	%rax, %rcx
	call	_ZN8wxStringD1Ev
	leaq	64(%rbp), %rax
	movq	%rax, %rcx
	call	_ZN8wxStringD1Ev
	leaq	16(%rbp), %rax
	movq	%rax, %rcx
	call	_ZN8wxStringD1Ev
	.loc 38 24 15 is_stmt 1 discriminator 9
	movq	832(%rbp), %rdi
	.loc 38 24 16 discriminator 9
	leaq	168(%rbp), %rax
	movl	$492, %r8d
	movl	$934, %edx
	movq	%rax, %rcx
	call	_ZN6wxSizeC1Eii
	.loc 38 24 15 discriminator 9
	leaq	168(%rbp), %rax
	movq	%rax, %rdx
	movq	%rdi, %rcx
.LEHB41:
	call	_ZN12wxWindowBase13SetClientSizeERK6wxSize
.LEHE41:
	.loc 38 25 59 discriminator 2
	leaq	176(%rbp), %rax
	movl	$16, %r8d
	movl	$32, %edx
	movq	%rax, %rcx
	call	_ZN7wxPointC1Eii
	leaq	176(%rbp), %rax
	movq	%rax, -40(%rbp)
	.loc 38 25 75 discriminator 2
	leaq	184(%rbp), %rax
	movl	$400, %r8d
	movl	$864, %edx
	movq	%rax, %rcx
	call	_ZN6wxSizeC1Eii
	leaq	184(%rbp), %r14
	.loc 38 25 18 discriminator 2
	leaq	192(%rbp), %rax
	leaq	.LC10(%rip), %rdx
	movq	%rax, %rcx
.LEHB42:
	call	_ZN8wxStringC1EPKw
.LEHE42:
	leaq	192(%rbp), %r15
	.loc 38 25 132 discriminator 2
	movl	$1144, %ecx
.LEHB43:
	call	_Znwy
.LEHE43:
	movq	%rax, %rdi
	movl	_ZN16InformacaoDialog14ID_HTMLWINDOW1E(%rip), %edx
	movq	832(%rbp), %rax
	movq	%r15, 48(%rsp)
	movl	$4, 40(%rsp)
	movq	%r14, 32(%rsp)
	movq	-40(%rbp), %r9
	movl	%edx, %r8d
	movq	%rax, %rdx
	movq	%rdi, %rcx
.LEHB44:
	call	_ZN12wxHtmlWindowC1EP8wxWindowiRK7wxPointRK6wxSizelRK8wxString
.LEHE44:
	.loc 38 25 18 discriminator 6
	movq	832(%rbp), %rax
	movq	%rdi, 808(%rax)
	leaq	192(%rbp), %rax
	movq	%rax, %rcx
	call	_ZN8wxStringD1Ev
	.loc 38 26 81 discriminator 6
	leaq	240(%rbp), %rax
	movq	%rax, %rcx
	call	_ZN8wxStringC1Ev
	leaq	288(%rbp), %rax
	leaq	.LC11(%rip), %rdx
	movq	%rax, %rcx
.LEHB45:
	call	_ZN8wxStringC1EPKc
.LEHE45:
	.loc 38 26 81 is_stmt 0 discriminator 3
	leaq	240(%rbp), %rdx
	leaq	288(%rbp), %rax
	movq	%rax, %rcx
.LEHB46:
	call	_Z16wxGetTranslationRK8wxStringS1_
.LEHE46:
	movq	%rax, -40(%rbp)
	.loc 38 26 84 is_stmt 1 discriminator 3
	leaq	336(%rbp), %rax
	movl	$432, %r8d
	movl	$528, %edx
	movq	%rax, %rcx
	call	_ZN7wxPointC1Eii
	leaq	336(%rbp), %r14
	.loc 38 26 102 discriminator 3
	leaq	344(%rbp), %rax
	movl	$32, %r8d
	movl	$104, %edx
	movq	%rax, %rcx
	call	_ZN6wxSizeC1Eii
	leaq	344(%rbp), %r15
	.loc 38 26 15 discriminator 3
	leaq	352(%rbp), %rax
	leaq	.LC12(%rip), %rdx
	movq	%rax, %rcx
.LEHB47:
	call	_ZN8wxStringC1EPKw
.LEHE47:
	.loc 38 26 15 is_stmt 0 discriminator 7
	leaq	352(%rbp), %rdi
	movq	%rdi, -48(%rbp)
	.loc 38 26 145 is_stmt 1 discriminator 7
	movl	$672, %ecx
.LEHB48:
	call	_Znwy
.LEHE48:
	movq	%rax, %rdi
	movl	_ZN16InformacaoDialog16ID_BUTTON_FECHARE(%rip), %ecx
	movq	832(%rbp), %rax
	movq	-48(%rbp), %rdx
	movq	%rdx, 64(%rsp)
	movq	.refptr.wxDefaultValidator(%rip), %rdx
	movq	%rdx, 56(%rsp)
	movl	$0, 48(%rsp)
	movq	%r15, 40(%rsp)
	movq	%r14, 32(%rsp)
	movq	-40(%rbp), %r9
	movl	%ecx, %r8d
	movq	%rax, %rdx
	movq	%rdi, %rcx
.LEHB49:
	call	_ZN8wxButtonC1EP8wxWindowiRK8wxStringRK7wxPointRK6wxSizelRK11wxValidatorS4_
.LEHE49:
	.loc 38 26 15 discriminator 11
	movq	832(%rbp), %rax
	movq	%rdi, 792(%rax)
	leaq	352(%rbp), %rax
	movq	%rax, %rcx
	call	_ZN8wxStringD1Ev
	.loc 38 26 81 discriminator 11
	leaq	288(%rbp), %rax
	movq	%rax, %rcx
	call	_ZN8wxStringD1Ev
	leaq	240(%rbp), %rax
	movq	%rax, %rcx
	call	_ZN8wxStringD1Ev
	.loc 38 27 126 discriminator 11
	leaq	400(%rbp), %rax
	leaq	.LC13(%rip), %rdx
	movq	%rax, %rcx
.LEHB50:
	call	_ZN8wxStringC1EPKw
.LEHE50:
	.loc 38 27 126 is_stmt 0 discriminator 1
	movq	%rbp, %rax
	movl	$0, 56(%rsp)
	leaq	400(%rbp), %rdx
	movq	%rdx, 48(%rsp)
	movl	$0, 40(%rsp)
	movl	$90, 32(%rsp)
	movl	$90, %r9d
	movl	$74, %r8d
	movl	$14, %edx
	movq	%rax, %rcx
.LEHB51:
	call	_ZN6wxFontC1Ei12wxFontFamily11wxFontStyle12wxFontWeightbRK8wxString14wxFontEncoding
.LEHE51:
	leaq	400(%rbp), %rax
	movq	%rax, %rcx
	call	_ZN8wxStringD1Ev
	.loc 38 28 2 is_stmt 1
	movq	832(%rbp), %rax
	movq	792(%rax), %rax
	.loc 38 28 23
	movq	%rax, %rcx
	.loc 38 28 2
	movq	832(%rbp), %rax
	movq	792(%rax), %rax
	.loc 38 28 40
	movq	(%rax), %rax
	addq	$848, %rax
	movq	(%rax), %r8
	.loc 38 28 23
	movq	%rbp, %rax
	movq	%rax, %rdx
.LEHB52:
	call	*%r8
.LVL25:
.LEHE52:
	.loc 38 29 90
	leaq	448(%rbp), %rax
	movq	%rax, %rcx
	call	_ZN8wxStringC1Ev
	leaq	496(%rbp), %rax
	leaq	.LC14(%rip), %rdx
	movq	%rax, %rcx
.LEHB53:
	call	_ZN8wxStringC1EPKc
.LEHE53:
	.loc 38 29 90 is_stmt 0 discriminator 3
	leaq	448(%rbp), %rdx
	leaq	496(%rbp), %rax
	movq	%rax, %rcx
.LEHB54:
	call	_Z16wxGetTranslationRK8wxStringS1_
.LEHE54:
	movq	%rax, -40(%rbp)
	.loc 38 29 93 is_stmt 1 discriminator 3
	leaq	544(%rbp), %rax
	movl	$432, %r8d
	movl	$312, %edx
	movq	%rax, %rcx
	call	_ZN7wxPointC1Eii
	leaq	544(%rbp), %r14
	.loc 38 29 111 discriminator 3
	leaq	552(%rbp), %rax
	movl	$32, %r8d
	movl	$107, %edx
	movq	%rax, %rcx
	call	_ZN6wxSizeC1Eii
	leaq	552(%rbp), %r15
	.loc 38 29 18 discriminator 3
	leaq	560(%rbp), %rax
	leaq	.LC15(%rip), %rdx
	movq	%rax, %rcx
.LEHB55:
	call	_ZN8wxStringC1EPKw
.LEHE55:
	.loc 38 29 18 is_stmt 0 discriminator 7
	leaq	560(%rbp), %rdi
	movq	%rdi, -48(%rbp)
	.loc 38 29 157 is_stmt 1 discriminator 7
	movl	$672, %ecx
.LEHB56:
	call	_Znwy
.LEHE56:
	movq	%rax, %rdi
	movl	_ZN16InformacaoDialog19ID_BUTTON_NAVEGADORE(%rip), %ecx
	movq	832(%rbp), %rax
	movq	-48(%rbp), %rdx
	movq	%rdx, 64(%rsp)
	movq	.refptr.wxDefaultValidator(%rip), %rdx
	movq	%rdx, 56(%rsp)
	movl	$0, 48(%rsp)
	movq	%r15, 40(%rsp)
	movq	%r14, 32(%rsp)
	movq	-40(%rbp), %r9
	movl	%ecx, %r8d
	movq	%rax, %rdx
	movq	%rdi, %rcx
.LEHB57:
	call	_ZN8wxButtonC1EP8wxWindowiRK8wxStringRK7wxPointRK6wxSizelRK11wxValidatorS4_
.LEHE57:
	.loc 38 29 18 discriminator 11
	movq	832(%rbp), %rax
	movq	%rdi, 800(%rax)
	leaq	560(%rbp), %rax
	movq	%rax, %rcx
	call	_ZN8wxStringD1Ev
	.loc 38 29 90 discriminator 11
	leaq	496(%rbp), %rax
	movq	%rax, %rcx
	call	_ZN8wxStringD1Ev
	leaq	448(%rbp), %rax
	movq	%rax, %rcx
	call	_ZN8wxStringD1Ev
	.loc 38 30 129 discriminator 11
	leaq	608(%rbp), %rax
	leaq	.LC13(%rip), %rdx
	movq	%rax, %rcx
.LEHB58:
	call	_ZN8wxStringC1EPKw
.LEHE58:
	.loc 38 30 129 is_stmt 0 discriminator 1
	leaq	-16(%rbp), %rax
	movl	$0, 56(%rsp)
	leaq	608(%rbp), %rdx
	movq	%rdx, 48(%rsp)
	movl	$0, 40(%rsp)
	movl	$90, 32(%rsp)
	movl	$90, %r9d
	movl	$74, %r8d
	movl	$14, %edx
	movq	%rax, %rcx
.LEHB59:
	call	_ZN6wxFontC1Ei12wxFontFamily11wxFontStyle12wxFontWeightbRK8wxString14wxFontEncoding
.LEHE59:
	leaq	608(%rbp), %rax
	movq	%rax, %rcx
	call	_ZN8wxStringD1Ev
	.loc 38 31 2 is_stmt 1
	movq	832(%rbp), %rax
	movq	800(%rax), %rax
	.loc 38 31 26
	movq	%rax, %rcx
	.loc 38 31 2
	movq	832(%rbp), %rax
	movq	800(%rax), %rax
	.loc 38 31 46
	movq	(%rax), %rax
	addq	$848, %rax
	movq	(%rax), %r8
	.loc 38 31 26
	leaq	-16(%rbp), %rax
	movq	%rax, %rdx
.LEHB60:
	call	*%r8
.LVL26:
	.loc 38 33 9
	movq	832(%rbp), %rdi
	leaq	_ZN16InformacaoDialog19OnfecharButtonClickER14wxCommandEvent(%rip), %r12
	movl	$0, %r13d
	.loc 38 33 101
	movq	.refptr.wxEVT_BUTTON(%rip), %rcx
	call	_ZNK14wxEventTypeTagI14wxCommandEventEcvRKiEv
	.loc 38 33 9
	movl	(%rax), %ecx
	movl	_ZN16InformacaoDialog16ID_BUTTON_FECHARE(%rip), %eax
	movq	%r12, -32(%rbp)
	movq	%r13, -24(%rbp)
	leaq	-32(%rbp), %rdx
	movq	$0, 40(%rsp)
	movq	$0, 32(%rsp)
	movq	%rdx, %r9
	movl	%ecx, %r8d
	movl	%eax, %edx
	movq	%rdi, %rcx
	call	_ZN12wxEvtHandler7ConnectEiiMS_FvR7wxEventEP8wxObjectPS_
	.loc 38 34 9
	movq	832(%rbp), %rdi
	leaq	_ZN16InformacaoDialog22OnnavegadorButtonClickER14wxCommandEvent(%rip), %rbx
	movl	$0, %esi
	.loc 38 34 107
	movq	.refptr.wxEVT_BUTTON(%rip), %rcx
	call	_ZNK14wxEventTypeTagI14wxCommandEventEcvRKiEv
	.loc 38 34 9
	movl	(%rax), %ecx
	movl	_ZN16InformacaoDialog19ID_BUTTON_NAVEGADORE(%rip), %eax
	movq	%rbx, -32(%rbp)
	movq	%rsi, -24(%rbp)
	leaq	-32(%rbp), %rdx
	movq	$0, 40(%rsp)
	movq	$0, 32(%rsp)
	movq	%rdx, %r9
	movl	%ecx, %r8d
	movl	%eax, %edx
	movq	%rdi, %rcx
	call	_ZN12wxEvtHandler7ConnectEiiMS_FvR7wxEventEP8wxObjectPS_
.LEHE60:
	.loc 38 37 2
	movq	832(%rbp), %rax
	movq	808(%rax), %rsi
	movq	832(%rbp), %rax
	movq	808(%rax), %rax
	.loc 38 37 72
	movq	(%rax), %rax
	addq	$1736, %rax
	movq	(%rax), %rbx
	.loc 38 37 27
	leaq	656(%rbp), %rax
	movq	%rax, %rcx
	call	_ZN8wxStringC1Ev
	leaq	704(%rbp), %rax
	leaq	.LC16(%rip), %rdx
	movq	%rax, %rcx
.LEHB61:
	call	_ZN8wxStringC1EPKc
.LEHE61:
	.loc 38 37 27 is_stmt 0 discriminator 3
	leaq	656(%rbp), %rdx
	leaq	704(%rbp), %rax
	movq	%rax, %rcx
.LEHB62:
	call	_Z16wxGetTranslationRK8wxStringS1_
	movq	%rax, %rdx
	movq	%rsi, %rcx
	call	*%rbx
.LVL27:
.LEHE62:
	.loc 38 37 27 discriminator 7
	leaq	704(%rbp), %rax
	movq	%rax, %rcx
	call	_ZN8wxStringD1Ev
	leaq	656(%rbp), %rax
	movq	%rax, %rcx
	call	_ZN8wxStringD1Ev
	.loc 38 30 129 is_stmt 1 discriminator 7
	leaq	-16(%rbp), %rax
	movq	%rax, %rcx
	call	_ZN6wxFontD1Ev
	.loc 38 27 126 discriminator 7
	movq	%rbp, %rax
	movq	%rax, %rcx
	call	_ZN6wxFontD1Ev
.LBE82:
.LBE81:
	.loc 38 38 1 discriminator 7
	jmp	.L433
.L413:
	movq	%rax, %rbx
.LBB84:
.LBB83:
	.loc 38 23 8
	leaq	112(%rbp), %rax
	movq	%rax, %rcx
	call	_ZN8wxStringD1Ev
	jmp	.L390
.L412:
	movq	%rax, %rbx
.L390:
	.loc 38 23 8 is_stmt 0 discriminator 4
	leaq	64(%rbp), %rax
	movq	%rax, %rcx
	call	_ZN8wxStringD1Ev
	leaq	16(%rbp), %rax
	movq	%rax, %rcx
	call	_ZN8wxStringD1Ev
	jmp	.L391
.L416:
	movq	%rax, %rbx
	.loc 38 25 132 is_stmt 1
	movq	%rdi, %rcx
	call	_ZdlPv
	jmp	.L393
.L415:
	movq	%rax, %rbx
.L393:
	.loc 38 25 18 discriminator 3
	leaq	192(%rbp), %rax
	movq	%rax, %rcx
	call	_ZN8wxStringD1Ev
	movq	%rbx, %rax
	jmp	.L394
.L414:
.L394:
	movq	%rax, %rbx
	jmp	.L391
.L421:
	movq	%rax, %rbx
	.loc 38 26 145
	movq	%rdi, %rcx
	call	_ZdlPv
	jmp	.L396
.L420:
	movq	%rax, %rbx
.L396:
	.loc 38 26 15 discriminator 8
	leaq	352(%rbp), %rax
	movq	%rax, %rcx
	call	_ZN8wxStringD1Ev
	movq	%rbx, %rax
	jmp	.L397
.L419:
.L397:
	movq	%rax, %rbx
	jmp	.L398
.L418:
	movq	%rax, %rbx
.L398:
	.loc 38 26 81 discriminator 4
	leaq	288(%rbp), %rax
	movq	%rax, %rcx
	call	_ZN8wxStringD1Ev
	jmp	.L399
.L417:
	movq	%rax, %rbx
.L399:
	.loc 38 26 81 is_stmt 0 discriminator 2
	leaq	240(%rbp), %rax
	movq	%rax, %rcx
	call	_ZN8wxStringD1Ev
	jmp	.L391
.L422:
	movq	%rax, %rbx
	leaq	400(%rbp), %rax
	movq	%rax, %rcx
	call	_ZN8wxStringD1Ev
	jmp	.L391
.L428:
	movq	%rax, %rbx
	.loc 38 29 157 is_stmt 1
	movq	%rdi, %rcx
	call	_ZdlPv
	jmp	.L402
.L427:
	movq	%rax, %rbx
.L402:
	.loc 38 29 18 discriminator 8
	leaq	560(%rbp), %rax
	movq	%rax, %rcx
	call	_ZN8wxStringD1Ev
	movq	%rbx, %rax
	jmp	.L403
.L426:
.L403:
	movq	%rax, %rbx
	jmp	.L404
.L425:
	movq	%rax, %rbx
.L404:
	.loc 38 29 90 discriminator 4
	leaq	496(%rbp), %rax
	movq	%rax, %rcx
	call	_ZN8wxStringD1Ev
	jmp	.L405
.L424:
	movq	%rax, %rbx
.L405:
	.loc 38 29 90 is_stmt 0 discriminator 2
	leaq	448(%rbp), %rax
	movq	%rax, %rcx
	call	_ZN8wxStringD1Ev
	jmp	.L406
.L429:
	movq	%rax, %rbx
	leaq	608(%rbp), %rax
	movq	%rax, %rcx
	call	_ZN8wxStringD1Ev
	jmp	.L406
.L432:
	movq	%rax, %rbx
	.loc 38 37 27 is_stmt 1
	leaq	704(%rbp), %rax
	movq	%rax, %rcx
	call	_ZN8wxStringD1Ev
	jmp	.L409
.L431:
	movq	%rax, %rbx
.L409:
	.loc 38 37 27 is_stmt 0 discriminator 2
	leaq	656(%rbp), %rax
	movq	%rax, %rcx
	call	_ZN8wxStringD1Ev
	jmp	.L410
.L430:
	movq	%rax, %rbx
.L410:
	.loc 38 30 129 is_stmt 1
	leaq	-16(%rbp), %rax
	movq	%rax, %rcx
	call	_ZN6wxFontD1Ev
	jmp	.L406
.L423:
	movq	%rax, %rbx
.L406:
	.loc 38 27 126
	movq	%rbp, %rax
	movq	%rax, %rcx
	call	_ZN6wxFontD1Ev
	jmp	.L391
.L411:
	movq	%rax, %rbx
.L391:
.LBE83:
	.loc 38 20 104
	movq	832(%rbp), %rax
	movq	%rax, %rcx
	call	_ZN8wxDialogD2Ev
	movq	%rbx, %rax
	movq	%rax, %rcx
.LEHB63:
	call	_Unwind_Resume
	nop
.LEHE63:
.L433:
.LBE84:
	.loc 38 38 1
	addq	$888, %rsp
	popq	%rbx
	.cfi_restore 3
	popq	%rsi
	.cfi_restore 4
	popq	%rdi
	.cfi_restore 5
	popq	%r12
	.cfi_restore 12
	popq	%r13
	.cfi_restore 13
	popq	%r14
	.cfi_restore 14
	popq	%r15
	.cfi_restore 15
	popq	%rbp
	.cfi_restore 6
	.cfi_def_cfa 7, -824
	ret
	.cfi_endproc
.LFE16657:
	.seh_handler	__gxx_personality_seh0, @unwind, @except
	.seh_handlerdata
.LLSDA16657:
	.byte	0xff
	.byte	0xff
	.byte	0x1
	.uleb128 .LLSDACSE16657-.LLSDACSB16657
.LLSDACSB16657:
	.uleb128 .LEHB37-.LFB16657
	.uleb128 .LEHE37-.LEHB37
	.uleb128 0
	.uleb128 0
	.uleb128 .LEHB38-.LFB16657
	.uleb128 .LEHE38-.LEHB38
	.uleb128 .L411-.LFB16657
	.uleb128 0
	.uleb128 .LEHB39-.LFB16657
	.uleb128 .LEHE39-.LEHB39
	.uleb128 .L412-.LFB16657
	.uleb128 0
	.uleb128 .LEHB40-.LFB16657
	.uleb128 .LEHE40-.LEHB40
	.uleb128 .L413-.LFB16657
	.uleb128 0
	.uleb128 .LEHB41-.LFB16657
	.uleb128 .LEHE41-.LEHB41
	.uleb128 .L411-.LFB16657
	.uleb128 0
	.uleb128 .LEHB42-.LFB16657
	.uleb128 .LEHE42-.LEHB42
	.uleb128 .L414-.LFB16657
	.uleb128 0
	.uleb128 .LEHB43-.LFB16657
	.uleb128 .LEHE43-.LEHB43
	.uleb128 .L415-.LFB16657
	.uleb128 0
	.uleb128 .LEHB44-.LFB16657
	.uleb128 .LEHE44-.LEHB44
	.uleb128 .L416-.LFB16657
	.uleb128 0
	.uleb128 .LEHB45-.LFB16657
	.uleb128 .LEHE45-.LEHB45
	.uleb128 .L417-.LFB16657
	.uleb128 0
	.uleb128 .LEHB46-.LFB16657
	.uleb128 .LEHE46-.LEHB46
	.uleb128 .L418-.LFB16657
	.uleb128 0
	.uleb128 .LEHB47-.LFB16657
	.uleb128 .LEHE47-.LEHB47
	.uleb128 .L419-.LFB16657
	.uleb128 0
	.uleb128 .LEHB48-.LFB16657
	.uleb128 .LEHE48-.LEHB48
	.uleb128 .L420-.LFB16657
	.uleb128 0
	.uleb128 .LEHB49-.LFB16657
	.uleb128 .LEHE49-.LEHB49
	.uleb128 .L421-.LFB16657
	.uleb128 0
	.uleb128 .LEHB50-.LFB16657
	.uleb128 .LEHE50-.LEHB50
	.uleb128 .L411-.LFB16657
	.uleb128 0
	.uleb128 .LEHB51-.LFB16657
	.uleb128 .LEHE51-.LEHB51
	.uleb128 .L422-.LFB16657
	.uleb128 0
	.uleb128 .LEHB52-.LFB16657
	.uleb128 .LEHE52-.LEHB52
	.uleb128 .L423-.LFB16657
	.uleb128 0
	.uleb128 .LEHB53-.LFB16657
	.uleb128 .LEHE53-.LEHB53
	.uleb128 .L424-.LFB16657
	.uleb128 0
	.uleb128 .LEHB54-.LFB16657
	.uleb128 .LEHE54-.LEHB54
	.uleb128 .L425-.LFB16657
	.uleb128 0
	.uleb128 .LEHB55-.LFB16657
	.uleb128 .LEHE55-.LEHB55
	.uleb128 .L426-.LFB16657
	.uleb128 0
	.uleb128 .LEHB56-.LFB16657
	.uleb128 .LEHE56-.LEHB56
	.uleb128 .L427-.LFB16657
	.uleb128 0
	.uleb128 .LEHB57-.LFB16657
	.uleb128 .LEHE57-.LEHB57
	.uleb128 .L428-.LFB16657
	.uleb128 0
	.uleb128 .LEHB58-.LFB16657
	.uleb128 .LEHE58-.LEHB58
	.uleb128 .L423-.LFB16657
	.uleb128 0
	.uleb128 .LEHB59-.LFB16657
	.uleb128 .LEHE59-.LEHB59
	.uleb128 .L429-.LFB16657
	.uleb128 0
	.uleb128 .LEHB60-.LFB16657
	.uleb128 .LEHE60-.LEHB60
	.uleb128 .L430-.LFB16657
	.uleb128 0
	.uleb128 .LEHB61-.LFB16657
	.uleb128 .LEHE61-.LEHB61
	.uleb128 .L431-.LFB16657
	.uleb128 0
	.uleb128 .LEHB62-.LFB16657
	.uleb128 .LEHE62-.LEHB62
	.uleb128 .L432-.LFB16657
	.uleb128 0
	.uleb128 .LEHB63-.LFB16657
	.uleb128 .LEHE63-.LEHB63
	.uleb128 0
	.uleb128 0
.LLSDACSE16657:
	.text
	.seh_endproc
	.globl	_ZN16InformacaoDialogC1EP8wxWindowiRK7wxPointRK6wxSize
	.def	_ZN16InformacaoDialogC1EP8wxWindowiRK7wxPointRK6wxSize;	.scl	2;	.type	32;	.endef
	.set	_ZN16InformacaoDialogC1EP8wxWindowiRK7wxPointRK6wxSize,_ZN16InformacaoDialogC2EP8wxWindowiRK7wxPointRK6wxSize
	.align 2
	.globl	_ZN16InformacaoDialogD2Ev
	.def	_ZN16InformacaoDialogD2Ev;	.scl	2;	.type	32;	.endef
	.seh_proc	_ZN16InformacaoDialogD2Ev
_ZN16InformacaoDialogD2Ev:
.LFB16660:
	.loc 38 40 1
	.cfi_startproc
	pushq	%rbp
	.seh_pushreg	%rbp
	.cfi_def_cfa_offset 16
	.cfi_offset 6, -16
	movq	%rsp, %rbp
	.seh_setframe	%rbp, 0
	.cfi_def_cfa_register 6
	subq	$32, %rsp
	.seh_stackalloc	32
	.seh_endprologue
	movq	%rcx, 16(%rbp)
.LBB85:
	.loc 38 40 37
	leaq	16+_ZTV16InformacaoDialog(%rip), %rdx
	movq	16(%rbp), %rax
	movq	%rdx, (%rax)
	movq	16(%rbp), %rax
	movq	%rax, %rcx
	call	_ZN8wxDialogD2Ev
.LBE85:
	.loc 38 44 1
	nop
	addq	$32, %rsp
	popq	%rbp
	.cfi_restore 6
	.cfi_def_cfa 7, 8
	ret
	.cfi_endproc
.LFE16660:
	.seh_endproc
	.globl	_ZN16InformacaoDialogD1Ev
	.def	_ZN16InformacaoDialogD1Ev;	.scl	2;	.type	32;	.endef
	.set	_ZN16InformacaoDialogD1Ev,_ZN16InformacaoDialogD2Ev
	.align 2
	.globl	_ZN16InformacaoDialogD0Ev
	.def	_ZN16InformacaoDialogD0Ev;	.scl	2;	.type	32;	.endef
	.seh_proc	_ZN16InformacaoDialogD0Ev
_ZN16InformacaoDialogD0Ev:
.LFB16662:
	.loc 38 40 1
	.cfi_startproc
	pushq	%rbp
	.seh_pushreg	%rbp
	.cfi_def_cfa_offset 16
	.cfi_offset 6, -16
	movq	%rsp, %rbp
	.seh_setframe	%rbp, 0
	.cfi_def_cfa_register 6
	subq	$32, %rsp
	.seh_stackalloc	32
	.seh_endprologue
	movq	%rcx, 16(%rbp)
	.loc 38 44 1
	movq	16(%rbp), %rcx
	call	_ZN16InformacaoDialogD1Ev
	movq	16(%rbp), %rcx
	call	_ZdlPv
	nop
	addq	$32, %rsp
	popq	%rbp
	.cfi_restore 6
	.cfi_def_cfa 7, 8
	ret
	.cfi_endproc
.LFE16662:
	.seh_endproc
	.align 2
	.globl	_ZN16InformacaoDialog19OnfecharButtonClickER14wxCommandEvent
	.def	_ZN16InformacaoDialog19OnfecharButtonClickER14wxCommandEvent;	.scl	2;	.type	32;	.endef
	.seh_proc	_ZN16InformacaoDialog19OnfecharButtonClickER14wxCommandEvent
_ZN16InformacaoDialog19OnfecharButtonClickER14wxCommandEvent:
.LFB16663:
	.loc 38 46 1
	.cfi_startproc
	pushq	%rbp
	.seh_pushreg	%rbp
	.cfi_def_cfa_offset 16
	.cfi_offset 6, -16
	movq	%rsp, %rbp
	.seh_setframe	%rbp, 0
	.cfi_def_cfa_register 6
	subq	$32, %rsp
	.seh_stackalloc	32
	.seh_endprologue
	movq	%rcx, 16(%rbp)
	movq	%rdx, 24(%rbp)
	.loc 38 47 10
	movq	16(%rbp), %rax
	movl	$0, %edx
	movq	%rax, %rcx
	call	_ZN12wxWindowBase5CloseEb
	.loc 38 48 1
	nop
	addq	$32, %rsp
	popq	%rbp
	.cfi_restore 6
	.cfi_def_cfa 7, 8
	ret
	.cfi_endproc
.LFE16663:
	.seh_endproc
	.section .rdata,"dr"
	.align 8
.LC17:
	.ascii "N\343o \351 poss\355vel abrir o navegador para este sistema!\0"
.LC18:
	.ascii "explorer resource\\info.html\0"
	.text
	.align 2
	.globl	_ZN16InformacaoDialog22OnnavegadorButtonClickER14wxCommandEvent
	.def	_ZN16InformacaoDialog22OnnavegadorButtonClickER14wxCommandEvent;	.scl	2;	.type	32;	.endef
	.seh_proc	_ZN16InformacaoDialog22OnnavegadorButtonClickER14wxCommandEvent
_ZN16InformacaoDialog22OnnavegadorButtonClickER14wxCommandEvent:
.LFB16664:
	.loc 38 55 1
	.cfi_startproc
	pushq	%rbp
	.seh_pushreg	%rbp
	.cfi_def_cfa_offset 16
	.cfi_offset 6, -16
	pushq	%rbx
	.seh_pushreg	%rbx
	.cfi_def_cfa_offset 24
	.cfi_offset 3, -24
	subq	$248, %rsp
	.seh_stackalloc	248
	.cfi_def_cfa_offset 272
	leaq	128(%rsp), %rbp
	.seh_setframe	%rbp, 128
	.cfi_def_cfa 6, 144
	.seh_endprologue
	movq	%rcx, 144(%rbp)
	movq	%rdx, 152(%rbp)
	.loc 38 57 17
	movl	$0, %ecx
.LEHB64:
	call	system
	.loc 38 57 10
	testl	%eax, %eax
	sete	%al
	.loc 38 57 6
	testb	%al, %al
	je	.L438
	.loc 38 59 21
	leaq	-80(%rbp), %rax
	movq	.refptr.wxMessageBoxCaptionStr(%rip), %rdx
	movq	%rax, %rcx
	call	_ZN8wxStringC1EPKc
.LEHE64:
	leaq	-32(%rbp), %rax
	movq	%rax, %rcx
	call	_ZN8wxStringC1Ev
	leaq	16(%rbp), %rax
	leaq	.LC17(%rip), %rdx
	movq	%rax, %rcx
.LEHB65:
	call	_ZN8wxStringC1EPKc
.LEHE65:
	.loc 38 59 21 is_stmt 0 discriminator 4
	leaq	-32(%rbp), %rdx
	leaq	16(%rbp), %rax
	movq	%rax, %rcx
.LEHB66:
	call	_Z16wxGetTranslationRK8wxStringS1_
	movq	%rax, %rcx
	leaq	-80(%rbp), %rax
	movl	$-1, 40(%rsp)
	movl	$-1, 32(%rsp)
	movl	$0, %r9d
	movl	$5, %r8d
	movq	%rax, %rdx
	call	_Z12wxMessageBoxRK8wxStringS1_lP8wxWindowii
.LEHE66:
	.loc 38 59 21 discriminator 8
	leaq	16(%rbp), %rax
	movq	%rax, %rcx
	call	_ZN8wxStringD1Ev
	leaq	-32(%rbp), %rax
	movq	%rax, %rcx
	call	_ZN8wxStringD1Ev
	leaq	-80(%rbp), %rax
	movq	%rax, %rcx
	call	_ZN8wxStringD1Ev
	.loc 38 60 9 is_stmt 1 discriminator 8
	jmp	.L437
.L438:
	.loc 38 64 36
	movq	.refptr._ZN8wxString4nposE(%rip), %rax
	movq	(%rax), %rdx
	leaq	64(%rbp), %rax
	movq	%rdx, %r8
	leaq	.LC18(%rip), %rdx
	movq	%rax, %rcx
.LEHB67:
	call	_ZN8wxString8FromUTF8EPKcy
.LEHE67:
	.loc 38 64 17
	leaq	64(%rbp), %rax
	movl	$0, %r9d
	movl	$0, %r8d
	movl	$0, %edx
	movq	%rax, %rcx
.LEHB68:
	call	_Z9wxExecuteRK8wxStringiP9wxProcessPK12wxExecuteEnv
.LEHE68:
	.loc 38 64 36 discriminator 2
	leaq	64(%rbp), %rax
	movq	%rax, %rcx
	call	_ZN8wxStringD1Ev
	jmp	.L437
.L444:
	movq	%rax, %rbx
	.loc 38 59 21
	leaq	16(%rbp), %rax
	movq	%rax, %rcx
	call	_ZN8wxStringD1Ev
	jmp	.L441
.L443:
	movq	%rax, %rbx
.L441:
	.loc 38 59 21 is_stmt 0 discriminator 3
	leaq	-32(%rbp), %rax
	movq	%rax, %rcx
	call	_ZN8wxStringD1Ev
	leaq	-80(%rbp), %rax
	movq	%rax, %rcx
	call	_ZN8wxStringD1Ev
	movq	%rbx, %rax
	movq	%rax, %rcx
.LEHB69:
	call	_Unwind_Resume
.L445:
	movq	%rax, %rbx
	.loc 38 64 36 is_stmt 1
	leaq	64(%rbp), %rax
	movq	%rax, %rcx
	call	_ZN8wxStringD1Ev
	movq	%rbx, %rax
	movq	%rax, %rcx
	call	_Unwind_Resume
	nop
.LEHE69:
.L437:
	.loc 38 66 1
	addq	$248, %rsp
	popq	%rbx
	.cfi_restore 3
	popq	%rbp
	.cfi_restore 6
	.cfi_def_cfa 7, -232
	ret
	.cfi_endproc
.LFE16664:
	.seh_handler	__gxx_personality_seh0, @unwind, @except
	.seh_handlerdata
.LLSDA16664:
	.byte	0xff
	.byte	0xff
	.byte	0x1
	.uleb128 .LLSDACSE16664-.LLSDACSB16664
.LLSDACSB16664:
	.uleb128 .LEHB64-.LFB16664
	.uleb128 .LEHE64-.LEHB64
	.uleb128 0
	.uleb128 0
	.uleb128 .LEHB65-.LFB16664
	.uleb128 .LEHE65-.LEHB65
	.uleb128 .L443-.LFB16664
	.uleb128 0
	.uleb128 .LEHB66-.LFB16664
	.uleb128 .LEHE66-.LEHB66
	.uleb128 .L444-.LFB16664
	.uleb128 0
	.uleb128 .LEHB67-.LFB16664
	.uleb128 .LEHE67-.LEHB67
	.uleb128 0
	.uleb128 0
	.uleb128 .LEHB68-.LFB16664
	.uleb128 .LEHE68-.LEHB68
	.uleb128 .L445-.LFB16664
	.uleb128 0
	.uleb128 .LEHB69-.LFB16664
	.uleb128 .LEHE69-.LEHB69
	.uleb128 0
	.uleb128 0
.LLSDACSE16664:
	.text
	.seh_endproc
	.section	.text$_ZN22wxScopedCharTypeBufferIwED1Ev,"x"
	.linkonce discard
	.align 2
	.globl	_ZN22wxScopedCharTypeBufferIwED1Ev
	.def	_ZN22wxScopedCharTypeBufferIwED1Ev;	.scl	2;	.type	32;	.endef
	.seh_proc	_ZN22wxScopedCharTypeBufferIwED1Ev
_ZN22wxScopedCharTypeBufferIwED1Ev:
.LFB16685:
	.loc 1 125 5
	.cfi_startproc
	pushq	%rbp
	.seh_pushreg	%rbp
	.cfi_def_cfa_offset 16
	.cfi_offset 6, -16
	movq	%rsp, %rbp
	.seh_setframe	%rbp, 0
	.cfi_def_cfa_register 6
	subq	$32, %rsp
	.seh_stackalloc	32
	.seh_endprologue
	movq	%rcx, 16(%rbp)
.LBB86:
	.loc 1 127 9
	movq	16(%rbp), %rcx
	call	_ZN22wxScopedCharTypeBufferIwE6DecRefEv
.LBE86:
	.loc 1 128 5
	nop
	addq	$32, %rsp
	popq	%rbp
	.cfi_restore 6
	.cfi_def_cfa 7, 8
	ret
	.cfi_endproc
.LFE16685:
	.seh_handler	__gxx_personality_seh0, @unwind, @except
	.seh_handlerdata
.LLSDA16685:
	.byte	0xff
	.byte	0xff
	.byte	0x1
	.uleb128 .LLSDACSE16685-.LLSDACSB16685
.LLSDACSB16685:
.LLSDACSE16685:
	.section	.text$_ZN22wxScopedCharTypeBufferIwED1Ev,"x"
	.linkonce discard
	.seh_endproc
	.section	.text$_ZN22wxScopedCharTypeBufferIwEC1ERKS0_,"x"
	.linkonce discard
	.align 2
	.globl	_ZN22wxScopedCharTypeBufferIwEC1ERKS0_
	.def	_ZN22wxScopedCharTypeBufferIwEC1ERKS0_;	.scl	2;	.type	32;	.endef
	.seh_proc	_ZN22wxScopedCharTypeBufferIwEC1ERKS0_
_ZN22wxScopedCharTypeBufferIwEC1ERKS0_:
.LFB16885:
	.loc 1 107 5
	.cfi_startproc
	pushq	%rbp
	.seh_pushreg	%rbp
	.cfi_def_cfa_offset 16
	.cfi_offset 6, -16
	movq	%rsp, %rbp
	.seh_setframe	%rbp, 0
	.cfi_def_cfa_register 6
	subq	$32, %rsp
	.seh_stackalloc	32
	.seh_endprologue
	movq	%rcx, 16(%rbp)
	movq	%rdx, 24(%rbp)
.LBB87:
	.loc 1 109 22
	movq	24(%rbp), %rax
	movq	(%rax), %rdx
	.loc 1 109 9
	movq	16(%rbp), %rax
	movq	%rdx, (%rax)
	.loc 1 110 9
	movq	16(%rbp), %rcx
	call	_ZN22wxScopedCharTypeBufferIwE6IncRefEv
.LBE87:
	.loc 1 111 5
	nop
	addq	$32, %rsp
	popq	%rbp
	.cfi_restore 6
	.cfi_def_cfa 7, 8
	ret
	.cfi_endproc
.LFE16885:
	.seh_endproc
	.section	.text$_ZN8wxString15ConvertedBufferIcED1Ev,"x"
	.linkonce discard
	.align 2
	.globl	_ZN8wxString15ConvertedBufferIcED1Ev
	.def	_ZN8wxString15ConvertedBufferIcED1Ev;	.scl	2;	.type	32;	.endef
	.seh_proc	_ZN8wxString15ConvertedBufferIcED1Ev
_ZN8wxString15ConvertedBufferIcED1Ev:
.LFB16954:
	.loc 4 3489 7
	.cfi_startproc
	pushq	%rbp
	.seh_pushreg	%rbp
	.cfi_def_cfa_offset 16
	.cfi_offset 6, -16
	movq	%rsp, %rbp
	.seh_setframe	%rbp, 0
	.cfi_def_cfa_register 6
	subq	$32, %rsp
	.seh_stackalloc	32
	.seh_endprologue
	movq	%rcx, 16(%rbp)
.LBB88:
	.loc 4 3490 18
	movq	16(%rbp), %rax
	movq	(%rax), %rax
	.loc 4 3490 17
	movq	%rax, %rcx
	call	free
.LBE88:
	.loc 4 3490 26
	nop
	addq	$32, %rsp
	popq	%rbp
	.cfi_restore 6
	.cfi_def_cfa 7, 8
	ret
	.cfi_endproc
.LFE16954:
	.seh_endproc
	.section	.text$_ZN8wxString15ConvertedBufferIcEC1Ev,"x"
	.linkonce discard
	.align 2
	.globl	_ZN8wxString15ConvertedBufferIcEC1Ev
	.def	_ZN8wxString15ConvertedBufferIcEC1Ev;	.scl	2;	.type	32;	.endef
	.seh_proc	_ZN8wxString15ConvertedBufferIcEC1Ev
_ZN8wxString15ConvertedBufferIcEC1Ev:
.LFB16960:
	.loc 4 3488 7
	.cfi_startproc
	pushq	%rbp
	.seh_pushreg	%rbp
	.cfi_def_cfa_offset 16
	.cfi_offset 6, -16
	movq	%rsp, %rbp
	.seh_setframe	%rbp, 0
	.cfi_def_cfa_register 6
	.seh_endprologue
	movq	%rcx, 16(%rbp)
.LBB89:
	.loc 4 3488 36
	movq	16(%rbp), %rax
	movq	$0, (%rax)
.LBE89:
	.loc 4 3488 39
	nop
	popq	%rbp
	.cfi_restore 6
	.cfi_def_cfa 7, 8
	ret
	.cfi_endproc
.LFE16960:
	.seh_endproc
	.section	.text$_ZNK22wxScopedCharTypeBufferIwEcvPKwEv,"x"
	.linkonce discard
	.align 2
	.globl	_ZNK22wxScopedCharTypeBufferIwEcvPKwEv
	.def	_ZNK22wxScopedCharTypeBufferIwEcvPKwEv;	.scl	2;	.type	32;	.endef
	.seh_proc	_ZNK22wxScopedCharTypeBufferIwEcvPKwEv
_ZNK22wxScopedCharTypeBufferIwEcvPKwEv:
.LFB16964:
	.loc 1 157 5
	.cfi_startproc
	pushq	%rbp
	.seh_pushreg	%rbp
	.cfi_def_cfa_offset 16
	.cfi_offset 6, -16
	movq	%rsp, %rbp
	.seh_setframe	%rbp, 0
	.cfi_def_cfa_register 6
	subq	$32, %rsp
	.seh_stackalloc	32
	.seh_endprologue
	movq	%rcx, 16(%rbp)
	.loc 1 157 53
	movq	16(%rbp), %rcx
	call	_ZNK22wxScopedCharTypeBufferIwE4dataEv
	.loc 1 157 56
	addq	$32, %rsp
	popq	%rbp
	.cfi_restore 6
	.cfi_def_cfa 7, 8
	ret
	.cfi_endproc
.LFE16964:
	.seh_endproc
	.section	.text$_ZNK22wxScopedCharTypeBufferIwE4dataEv,"x"
	.linkonce discard
	.align 2
	.globl	_ZNK22wxScopedCharTypeBufferIwE4dataEv
	.def	_ZNK22wxScopedCharTypeBufferIwE4dataEv;	.scl	2;	.type	32;	.endef
	.seh_proc	_ZNK22wxScopedCharTypeBufferIwE4dataEv
_ZNK22wxScopedCharTypeBufferIwE4dataEv:
.LFB16977:
	.loc 1 156 21
	.cfi_startproc
	pushq	%rbp
	.seh_pushreg	%rbp
	.cfi_def_cfa_offset 16
	.cfi_offset 6, -16
	movq	%rsp, %rbp
	.seh_setframe	%rbp, 0
	.cfi_def_cfa_register 6
	subq	$32, %rsp
	.seh_stackalloc	32
	.seh_endprologue
	movq	%rcx, 16(%rbp)
	.loc 1 156 43
	movq	16(%rbp), %rax
	movq	(%rax), %rax
	.loc 1 156 55
	movq	%rax, %rcx
	call	_ZNK22wxScopedCharTypeBufferIwE4Data3GetEv
	.loc 1 156 58
	addq	$32, %rsp
	popq	%rbp
	.cfi_restore 6
	.cfi_def_cfa 7, 8
	ret
	.cfi_endproc
.LFE16977:
	.seh_endproc
	.section	.text$_ZNK14wxEventTypeTagI20wxNavigationKeyEventEcvRKiEv,"x"
	.linkonce discard
	.align 2
	.globl	_ZNK14wxEventTypeTagI20wxNavigationKeyEventEcvRKiEv
	.def	_ZNK14wxEventTypeTagI20wxNavigationKeyEventEcvRKiEv;	.scl	2;	.type	32;	.endef
	.seh_proc	_ZNK14wxEventTypeTagI20wxNavigationKeyEventEcvRKiEv
_ZNK14wxEventTypeTagI20wxNavigationKeyEventEcvRKiEv:
.LFB17265:
	.loc 14 190 5
	.cfi_startproc
	pushq	%rbp
	.seh_pushreg	%rbp
	.cfi_def_cfa_offset 16
	.cfi_offset 6, -16
	movq	%rsp, %rbp
	.seh_setframe	%rbp, 0
	.cfi_def_cfa_register 6
	.seh_endprologue
	movq	%rcx, 16(%rbp)
	.loc 14 190 50
	movq	16(%rbp), %rax
	.loc 14 190 58
	popq	%rbp
	.cfi_restore 6
	.cfi_def_cfa 7, 8
	ret
	.cfi_endproc
.LFE17265:
	.seh_endproc
	.section	.text$_Z5wxMaxIiiEN24wxImplicitConversionTypeIT_T0_E5valueES1_S2_,"x"
	.linkonce discard
	.globl	_Z5wxMaxIiiEN24wxImplicitConversionTypeIT_T0_E5valueES1_S2_
	.def	_Z5wxMaxIiiEN24wxImplicitConversionTypeIT_T0_E5valueES1_S2_;	.scl	2;	.type	32;	.endef
	.seh_proc	_Z5wxMaxIiiEN24wxImplicitConversionTypeIT_T0_E5valueES1_S2_
_Z5wxMaxIiiEN24wxImplicitConversionTypeIT_T0_E5valueES1_S2_:
.LFB17267:
	.file 39 "../wxMSW-3.0.5_gcc810_x64_Dev/include/wx/utils.h"
	.loc 39 65 1
	.cfi_startproc
	pushq	%rbp
	.seh_pushreg	%rbp
	.cfi_def_cfa_offset 16
	.cfi_offset 6, -16
	movq	%rsp, %rbp
	.seh_setframe	%rbp, 0
	.cfi_def_cfa_register 6
	.seh_endprologue
	movl	%ecx, 16(%rbp)
	movl	%edx, 24(%rbp)
	.loc 39 71 68
	movl	16(%rbp), %eax
	cmpl	24(%rbp), %eax
	jle	.L457
	.loc 39 71 68 is_stmt 0 discriminator 1
	movl	16(%rbp), %eax
	.loc 39 71 74 is_stmt 1 discriminator 1
	jmp	.L459
.L457:
	.loc 39 71 68 discriminator 2
	movl	24(%rbp), %eax
.L459:
	.loc 39 72 1 discriminator 5
	popq	%rbp
	.cfi_restore 6
	.cfi_def_cfa 7, 8
	ret
	.cfi_endproc
.LFE17267:
	.seh_endproc
	.section	.text$_ZN19wxNavigationEnabledI8wxWindowEC2Ev,"x"
	.linkonce discard
	.align 2
	.globl	_ZN19wxNavigationEnabledI8wxWindowEC2Ev
	.def	_ZN19wxNavigationEnabledI8wxWindowEC2Ev;	.scl	2;	.type	32;	.endef
	.seh_proc	_ZN19wxNavigationEnabledI8wxWindowEC2Ev
_ZN19wxNavigationEnabledI8wxWindowEC2Ev:
.LFB17289:
	.loc 30 187 5
	.cfi_startproc
	pushq	%rbp
	.seh_pushreg	%rbp
	.cfi_def_cfa_offset 16
	.cfi_offset 6, -16
	pushq	%r15
	.seh_pushreg	%r15
	.cfi_def_cfa_offset 24
	.cfi_offset 15, -24
	pushq	%r14
	.seh_pushreg	%r14
	.cfi_def_cfa_offset 32
	.cfi_offset 14, -32
	pushq	%r13
	.seh_pushreg	%r13
	.cfi_def_cfa_offset 40
	.cfi_offset 13, -40
	pushq	%r12
	.seh_pushreg	%r12
	.cfi_def_cfa_offset 48
	.cfi_offset 12, -48
	pushq	%rdi
	.seh_pushreg	%rdi
	.cfi_def_cfa_offset 56
	.cfi_offset 5, -56
	pushq	%rsi
	.seh_pushreg	%rsi
	.cfi_def_cfa_offset 64
	.cfi_offset 4, -64
	pushq	%rbx
	.seh_pushreg	%rbx
	.cfi_def_cfa_offset 72
	.cfi_offset 3, -72
	subq	$120, %rsp
	.seh_stackalloc	120
	.cfi_def_cfa_offset 192
	leaq	128(%rsp), %rbp
	.seh_setframe	%rbp, 128
	.cfi_def_cfa 6, 64
	.seh_endprologue
	movq	%rcx, 64(%rbp)
.LBB90:
	.loc 30 188 5
	movq	64(%rbp), %rax
	movq	%rax, %rcx
.LEHB70:
	call	_ZN8wxWindowC2Ev
.LEHE70:
	leaq	16+_ZTV19wxNavigationEnabledI8wxWindowE(%rip), %rdx
	movq	64(%rbp), %rax
	movq	%rdx, (%rax)
	movq	64(%rbp), %rax
	addq	$576, %rax
	movq	%rax, %rcx
.LEHB71:
	call	_ZN18wxControlContainerC1Ev
.LEHE71:
	.loc 30 189 9
	movq	64(%rbp), %rax
	addq	$576, %rax
	movq	64(%rbp), %rdx
	movq	%rax, %rcx
.LEHB72:
	call	_ZN22wxControlContainerBase18SetContainerWindowEP8wxWindow
	.loc 30 192 33
	movq	64(%rbp), %rdi
	leaq	_ZN19wxNavigationEnabledI8wxWindowE15OnNavigationKeyER20wxNavigationKeyEvent(%rip), %rax
	movq	%rax, %r14
	movl	$0, %r15d
	leaq	-64(%rbp), %rax
	movq	%r14, -80(%rbp)
	movq	%r15, -72(%rbp)
	leaq	-80(%rbp), %rdx
	movq	%rax, %rcx
	call	_Z19wxEventFunctionCastI20wxNavigationKeyEventEM12wxEvtHandlerFvR7wxEventEMS1_FvRT_E
	movq	.refptr.wxEVT_NAVIGATION_KEY(%rip), %rcx
	call	_ZNK14wxEventTypeTagI20wxNavigationKeyEventEcvRKiEv
	movl	(%rax), %ecx
	movq	-64(%rbp), %rax
	movq	-56(%rbp), %rdx
	movq	%rax, -80(%rbp)
	movq	%rdx, -72(%rbp)
	leaq	-80(%rbp), %rax
	movq	$0, 32(%rsp)
	movl	$0, %r9d
	movq	%rax, %r8
	movl	%ecx, %edx
	movq	%rdi, %rcx
	call	_ZN12wxEvtHandler7ConnectEiMS_FvR7wxEventEP8wxObjectPS_
	.loc 30 195 33
	movq	64(%rbp), %rdi
	leaq	_ZN19wxNavigationEnabledI8wxWindowE7OnFocusER12wxFocusEvent(%rip), %rax
	movq	%rax, %r12
	movl	$0, %r13d
	leaq	-48(%rbp), %rax
	movq	%r12, -80(%rbp)
	movq	%r13, -72(%rbp)
	leaq	-80(%rbp), %rdx
	movq	%rax, %rcx
	call	_Z19wxEventFunctionCastI12wxFocusEventEM12wxEvtHandlerFvR7wxEventEMS1_FvRT_E
	movq	.refptr.wxEVT_SET_FOCUS(%rip), %rcx
	call	_ZNK14wxEventTypeTagI12wxFocusEventEcvRKiEv
	movl	(%rax), %ecx
	movq	-48(%rbp), %rax
	movq	-40(%rbp), %rdx
	movq	%rax, -80(%rbp)
	movq	%rdx, -72(%rbp)
	leaq	-80(%rbp), %rax
	movq	$0, 32(%rsp)
	movl	$0, %r9d
	movq	%rax, %r8
	movl	%ecx, %edx
	movq	%rdi, %rcx
	call	_ZN12wxEvtHandler7ConnectEiMS_FvR7wxEventEP8wxObjectPS_
	.loc 30 198 33
	movq	64(%rbp), %rdi
	leaq	_ZN19wxNavigationEnabledI8wxWindowE12OnChildFocusER17wxChildFocusEvent(%rip), %rax
	movq	%rax, %rbx
	movl	$0, %esi
	leaq	-32(%rbp), %rax
	movq	%rbx, -80(%rbp)
	movq	%rsi, -72(%rbp)
	leaq	-80(%rbp), %rdx
	movq	%rax, %rcx
	call	_Z19wxEventFunctionCastI17wxChildFocusEventEM12wxEvtHandlerFvR7wxEventEMS1_FvRT_E
	movq	.refptr.wxEVT_CHILD_FOCUS(%rip), %rcx
	call	_ZNK14wxEventTypeTagI17wxChildFocusEventEcvRKiEv
	movl	(%rax), %ecx
	movq	-32(%rbp), %rax
	movq	-24(%rbp), %rdx
	movq	%rax, -80(%rbp)
	movq	%rdx, -72(%rbp)
	leaq	-80(%rbp), %rax
	movq	$0, 32(%rsp)
	movl	$0, %r9d
	movq	%rax, %r8
	movl	%ecx, %edx
	movq	%rdi, %rcx
	call	_ZN12wxEvtHandler7ConnectEiMS_FvR7wxEventEP8wxObjectPS_
.LEHE72:
.LBE90:
	.loc 30 201 5
	jmp	.L465
.L464:
	movq	%rax, %rbx
.LBB91:
	.loc 30 188 5
	movq	64(%rbp), %rax
	addq	$576, %rax
	movq	%rax, %rcx
	call	_ZN18wxControlContainerD1Ev
	jmp	.L462
.L463:
	movq	%rax, %rbx
.L462:
	.loc 30 188 5 is_stmt 0 discriminator 1
	movq	64(%rbp), %rax
	movq	%rax, %rcx
	call	_ZN8wxWindowD2Ev
	movq	%rbx, %rax
	movq	%rax, %rcx
.LEHB73:
	call	_Unwind_Resume
	nop
.LEHE73:
.L465:
.LBE91:
	.loc 30 201 5 is_stmt 1
	addq	$120, %rsp
	popq	%rbx
	.cfi_restore 3
	popq	%rsi
	.cfi_restore 4
	popq	%rdi
	.cfi_restore 5
	popq	%r12
	.cfi_restore 12
	popq	%r13
	.cfi_restore 13
	popq	%r14
	.cfi_restore 14
	popq	%r15
	.cfi_restore 15
	popq	%rbp
	.cfi_restore 6
	.cfi_def_cfa 7, -56
	ret
	.cfi_endproc
.LFE17289:
	.seh_handler	__gxx_personality_seh0, @unwind, @except
	.seh_handlerdata
.LLSDA17289:
	.byte	0xff
	.byte	0xff
	.byte	0x1
	.uleb128 .LLSDACSE17289-.LLSDACSB17289
.LLSDACSB17289:
	.uleb128 .LEHB70-.LFB17289
	.uleb128 .LEHE70-.LEHB70
	.uleb128 0
	.uleb128 0
	.uleb128 .LEHB71-.LFB17289
	.uleb128 .LEHE71-.LEHB71
	.uleb128 .L463-.LFB17289
	.uleb128 0
	.uleb128 .LEHB72-.LFB17289
	.uleb128 .LEHE72-.LEHB72
	.uleb128 .L464-.LFB17289
	.uleb128 0
	.uleb128 .LEHB73-.LFB17289
	.uleb128 .LEHE73-.LEHB73
	.uleb128 0
	.uleb128 0
.LLSDACSE17289:
	.section	.text$_ZN19wxNavigationEnabledI8wxWindowEC2Ev,"x"
	.linkonce discard
	.seh_endproc
	.section	.text$_ZN10wxScrolledI7wxPanelEC2Ev,"x"
	.linkonce discard
	.align 2
	.globl	_ZN10wxScrolledI7wxPanelEC2Ev
	.def	_ZN10wxScrolledI7wxPanelEC2Ev;	.scl	2;	.type	32;	.endef
	.seh_proc	_ZN10wxScrolledI7wxPanelEC2Ev
_ZN10wxScrolledI7wxPanelEC2Ev:
.LFB17293:
	.loc 35 387 5
	.cfi_startproc
	pushq	%rbp
	.seh_pushreg	%rbp
	.cfi_def_cfa_offset 16
	.cfi_offset 6, -16
	pushq	%rbx
	.seh_pushreg	%rbx
	.cfi_def_cfa_offset 24
	.cfi_offset 3, -24
	subq	$40, %rsp
	.seh_stackalloc	40
	.cfi_def_cfa_offset 64
	leaq	128(%rsp), %rbp
	.seh_setframe	%rbp, 128
	.cfi_def_cfa 6, -64
	.seh_endprologue
	movq	%rcx, -64(%rbp)
.LBB92:
	.loc 35 387 39
	movq	-64(%rbp), %rax
	movq	%rax, %rcx
.LEHB74:
	call	_ZN7wxPanelC2Ev
.LEHE74:
	movq	-64(%rbp), %rax
	addq	$608, %rax
	movq	-64(%rbp), %rdx
	movq	%rax, %rcx
.LEHB75:
	call	_ZN14wxScrollHelperC2EP8wxWindow
.LEHE75:
	.loc 35 387 39 is_stmt 0 discriminator 2
	leaq	16+_ZTV10wxScrolledI7wxPanelE(%rip), %rdx
	movq	-64(%rbp), %rax
	movq	%rdx, (%rax)
	leaq	1760+_ZTV10wxScrolledI7wxPanelE(%rip), %rdx
	movq	-64(%rbp), %rax
	movq	%rdx, 608(%rax)
.LBE92:
	.loc 35 387 43 is_stmt 1 discriminator 2
	jmp	.L469
.L468:
	movq	%rax, %rbx
.LBB93:
	.loc 35 387 39
	movq	-64(%rbp), %rax
	movq	%rax, %rcx
	call	_ZN7wxPanelD2Ev
	movq	%rbx, %rax
	movq	%rax, %rcx
.LEHB76:
	call	_Unwind_Resume
	nop
.LEHE76:
.L469:
.LBE93:
	.loc 35 387 43
	addq	$40, %rsp
	popq	%rbx
	.cfi_restore 3
	popq	%rbp
	.cfi_restore 6
	.cfi_def_cfa 7, -24
	ret
	.cfi_endproc
.LFE17293:
	.seh_handler	__gxx_personality_seh0, @unwind, @except
	.seh_handlerdata
.LLSDA17293:
	.byte	0xff
	.byte	0xff
	.byte	0x1
	.uleb128 .LLSDACSE17293-.LLSDACSB17293
.LLSDACSB17293:
	.uleb128 .LEHB74-.LFB17293
	.uleb128 .LEHE74-.LEHB74
	.uleb128 0
	.uleb128 0
	.uleb128 .LEHB75-.LFB17293
	.uleb128 .LEHE75-.LEHB75
	.uleb128 .L468-.LFB17293
	.uleb128 0
	.uleb128 .LEHB76-.LFB17293
	.uleb128 .LEHE76-.LEHB76
	.uleb128 0
	.uleb128 0
.LLSDACSE17293:
	.section	.text$_ZN10wxScrolledI7wxPanelEC2Ev,"x"
	.linkonce discard
	.seh_endproc
	.section	.text$_ZNK14wxEventTypeTagI14wxCommandEventEcvRKiEv,"x"
	.linkonce discard
	.align 2
	.globl	_ZNK14wxEventTypeTagI14wxCommandEventEcvRKiEv
	.def	_ZNK14wxEventTypeTagI14wxCommandEventEcvRKiEv;	.scl	2;	.type	32;	.endef
	.seh_proc	_ZNK14wxEventTypeTagI14wxCommandEventEcvRKiEv
_ZNK14wxEventTypeTagI14wxCommandEventEcvRKiEv:
.LFB17299:
	.loc 14 190 5
	.cfi_startproc
	pushq	%rbp
	.seh_pushreg	%rbp
	.cfi_def_cfa_offset 16
	.cfi_offset 6, -16
	movq	%rsp, %rbp
	.seh_setframe	%rbp, 0
	.cfi_def_cfa_register 6
	.seh_endprologue
	movq	%rcx, 16(%rbp)
	.loc 14 190 50
	movq	16(%rbp), %rax
	.loc 14 190 58
	popq	%rbp
	.cfi_restore 6
	.cfi_def_cfa 7, 8
	ret
	.cfi_endproc
.LFE17299:
	.seh_endproc
	.section	.text$_ZN22wxScopedCharTypeBufferIwE4DataD1Ev,"x"
	.linkonce discard
	.align 2
	.globl	_ZN22wxScopedCharTypeBufferIwE4DataD1Ev
	.def	_ZN22wxScopedCharTypeBufferIwE4DataD1Ev;	.scl	2;	.type	32;	.endef
	.seh_proc	_ZN22wxScopedCharTypeBufferIwE4DataD1Ev
_ZN22wxScopedCharTypeBufferIwE4DataD1Ev:
.LFB17313:
	.loc 1 164 12
	.cfi_startproc
	pushq	%rbp
	.seh_pushreg	%rbp
	.cfi_def_cfa_offset 16
	.cfi_offset 6, -16
	movq	%rsp, %rbp
	.seh_setframe	%rbp, 0
	.cfi_def_cfa_register 6
	subq	$32, %rsp
	.seh_stackalloc	32
	.seh_endprologue
	movq	%rcx, 16(%rbp)
.LBB94:
	.loc 1 164 12
	movq	16(%rbp), %rax
	movq	%rax, %rcx
	call	_ZN9wxPrivate17UntypedBufferDataD2Ev
.LBE94:
	nop
	addq	$32, %rsp
	popq	%rbp
	.cfi_restore 6
	.cfi_def_cfa 7, 8
	ret
	.cfi_endproc
.LFE17313:
	.seh_endproc
	.section	.text$_ZN22wxScopedCharTypeBufferIwE6DecRefEv,"x"
	.linkonce discard
	.align 2
	.globl	_ZN22wxScopedCharTypeBufferIwE6DecRefEv
	.def	_ZN22wxScopedCharTypeBufferIwE6DecRefEv;	.scl	2;	.type	32;	.endef
	.seh_proc	_ZN22wxScopedCharTypeBufferIwE6DecRefEv
_ZN22wxScopedCharTypeBufferIwE6DecRefEv:
.LFB17310:
	.loc 1 192 10
	.cfi_startproc
	pushq	%rbp
	.seh_pushreg	%rbp
	.cfi_def_cfa_offset 16
	.cfi_offset 6, -16
	pushq	%rbx
	.seh_pushreg	%rbx
	.cfi_def_cfa_offset 24
	.cfi_offset 3, -24
	subq	$40, %rsp
	.seh_stackalloc	40
	.cfi_def_cfa_offset 64
	leaq	128(%rsp), %rbp
	.seh_setframe	%rbp, 128
	.cfi_def_cfa 6, -64
	.seh_endprologue
	movq	%rcx, -64(%rbp)
	.loc 1 194 14
	movq	-64(%rbp), %rax
	movq	(%rax), %rbx
	.loc 1 194 35
	call	_ZN22wxScopedCharTypeBufferIwE11GetNullDataEv
	.loc 1 194 21
	cmpq	%rax, %rbx
	sete	%al
	.loc 1 194 9
	testb	%al, %al
	jne	.L477
	.loc 1 196 16
	movq	-64(%rbp), %rax
	movq	(%rax), %rax
	.loc 1 196 24
	movzwl	16(%rax), %edx
	.loc 1 196 30
	subl	$1, %edx
	movw	%dx, 16(%rax)
	.loc 1 196 24
	movzwl	16(%rax), %eax
	.loc 1 196 30
	testw	%ax, %ax
	sete	%al
	.loc 1 196 9
	testb	%al, %al
	je	.L476
	.loc 1 197 20
	movq	-64(%rbp), %rax
	movq	(%rax), %rbx
	.loc 1 197 13
	testq	%rbx, %rbx
	je	.L476
	.loc 1 197 13 is_stmt 0 discriminator 1
	movq	%rbx, %rcx
	call	_ZN22wxScopedCharTypeBufferIwE4DataD1Ev
	movq	%rbx, %rcx
	call	_ZdlPv
.L476:
	.loc 1 198 29 is_stmt 1
	call	_ZN22wxScopedCharTypeBufferIwE11GetNullDataEv
	movq	%rax, %rdx
	.loc 1 198 9
	movq	-64(%rbp), %rax
	movq	%rdx, (%rax)
	jmp	.L473
.L477:
	.loc 1 195 13
	nop
.L473:
	.loc 1 199 5
	addq	$40, %rsp
	popq	%rbx
	.cfi_restore 3
	popq	%rbp
	.cfi_restore 6
	.cfi_def_cfa 7, -24
	ret
	.cfi_endproc
.LFE17310:
	.seh_endproc
	.section	.text$_ZN22wxScopedCharTypeBufferIwE11GetNullDataEv,"x"
	.linkonce discard
	.globl	_ZN22wxScopedCharTypeBufferIwE11GetNullDataEv
	.def	_ZN22wxScopedCharTypeBufferIwE11GetNullDataEv;	.scl	2;	.type	32;	.endef
	.seh_proc	_ZN22wxScopedCharTypeBufferIwE11GetNullDataEv
_ZN22wxScopedCharTypeBufferIwE11GetNullDataEv:
.LFB17319:
	.loc 1 180 18
	.cfi_startproc
	pushq	%rbp
	.seh_pushreg	%rbp
	.cfi_def_cfa_offset 16
	.cfi_offset 6, -16
	movq	%rsp, %rbp
	.seh_setframe	%rbp, 0
	.cfi_def_cfa_register 6
	subq	$32, %rsp
	.seh_stackalloc	32
	.seh_endprologue
	.loc 1 182 65
	call	_ZN9wxPrivate18GetUntypedNullDataEv
	.loc 1 183 5
	addq	$32, %rsp
	popq	%rbp
	.cfi_restore 6
	.cfi_def_cfa 7, 8
	ret
	.cfi_endproc
.LFE17319:
	.seh_endproc
	.section	.text$_ZN22wxScopedCharTypeBufferIwE6IncRefEv,"x"
	.linkonce discard
	.align 2
	.globl	_ZN22wxScopedCharTypeBufferIwE6IncRefEv
	.def	_ZN22wxScopedCharTypeBufferIwE6IncRefEv;	.scl	2;	.type	32;	.endef
	.seh_proc	_ZN22wxScopedCharTypeBufferIwE6IncRefEv
_ZN22wxScopedCharTypeBufferIwE6IncRefEv:
.LFB17355:
	.loc 1 185 10
	.cfi_startproc
	pushq	%rbp
	.seh_pushreg	%rbp
	.cfi_def_cfa_offset 16
	.cfi_offset 6, -16
	pushq	%rbx
	.seh_pushreg	%rbx
	.cfi_def_cfa_offset 24
	.cfi_offset 3, -24
	subq	$40, %rsp
	.seh_stackalloc	40
	.cfi_def_cfa_offset 64
	leaq	128(%rsp), %rbp
	.seh_setframe	%rbp, 128
	.cfi_def_cfa 6, -64
	.seh_endprologue
	movq	%rcx, -64(%rbp)
	.loc 1 187 14
	movq	-64(%rbp), %rax
	movq	(%rax), %rbx
	.loc 1 187 35
	call	_ZN22wxScopedCharTypeBufferIwE11GetNullDataEv
	.loc 1 187 21
	cmpq	%rax, %rbx
	sete	%al
	.loc 1 187 9
	testb	%al, %al
	jne	.L483
	.loc 1 189 9
	movq	-64(%rbp), %rax
	movq	(%rax), %rax
	.loc 1 189 17
	movzwl	16(%rax), %edx
	.loc 1 189 9
	addl	$1, %edx
	movw	%dx, 16(%rax)
	jmp	.L480
.L483:
	.loc 1 188 13
	nop
.L480:
	.loc 1 190 5
	addq	$40, %rsp
	popq	%rbx
	.cfi_restore 3
	popq	%rbp
	.cfi_restore 6
	.cfi_def_cfa 7, -24
	ret
	.cfi_endproc
.LFE17355:
	.seh_endproc
	.section	.text$_ZNK22wxScopedCharTypeBufferIwE4Data3GetEv,"x"
	.linkonce discard
	.align 2
	.globl	_ZNK22wxScopedCharTypeBufferIwE4Data3GetEv
	.def	_ZNK22wxScopedCharTypeBufferIwE4Data3GetEv;	.scl	2;	.type	32;	.endef
	.seh_proc	_ZNK22wxScopedCharTypeBufferIwE4Data3GetEv
_ZNK22wxScopedCharTypeBufferIwE4Data3GetEv:
.LFB17383:
	.loc 1 171 19
	.cfi_startproc
	pushq	%rbp
	.seh_pushreg	%rbp
	.cfi_def_cfa_offset 16
	.cfi_offset 6, -16
	movq	%rsp, %rbp
	.seh_setframe	%rbp, 0
	.cfi_def_cfa_register 6
	.seh_endprologue
	movq	%rcx, 16(%rbp)
	.loc 1 171 69
	movq	16(%rbp), %rax
	movq	(%rax), %rax
	.loc 1 171 72
	popq	%rbp
	.cfi_restore 6
	.cfi_def_cfa 7, 8
	ret
	.cfi_endproc
.LFE17383:
	.seh_endproc
	.section	.text$_ZN19wxNavigationEnabledI8wxWindowE15OnNavigationKeyER20wxNavigationKeyEvent,"x"
	.linkonce discard
	.align 2
	.globl	_ZN19wxNavigationEnabledI8wxWindowE15OnNavigationKeyER20wxNavigationKeyEvent
	.def	_ZN19wxNavigationEnabledI8wxWindowE15OnNavigationKeyER20wxNavigationKeyEvent;	.scl	2;	.type	32;	.endef
	.seh_proc	_ZN19wxNavigationEnabledI8wxWindowE15OnNavigationKeyER20wxNavigationKeyEvent
_ZN19wxNavigationEnabledI8wxWindowE15OnNavigationKeyER20wxNavigationKeyEvent:
.LFB17477:
	.loc 30 257 10
	.cfi_startproc
	pushq	%rbp
	.seh_pushreg	%rbp
	.cfi_def_cfa_offset 16
	.cfi_offset 6, -16
	movq	%rsp, %rbp
	.seh_setframe	%rbp, 0
	.cfi_def_cfa_register 6
	subq	$32, %rsp
	.seh_stackalloc	32
	.seh_endprologue
	movq	%rcx, 16(%rbp)
	movq	%rdx, 24(%rbp)
	.loc 30 259 42
	movq	16(%rbp), %rax
	addq	$576, %rax
	movq	24(%rbp), %rdx
	movq	%rax, %rcx
	call	_ZN18wxControlContainer21HandleOnNavigationKeyER20wxNavigationKeyEvent
	.loc 30 260 5
	nop
	addq	$32, %rsp
	popq	%rbp
	.cfi_restore 6
	.cfi_def_cfa 7, 8
	ret
	.cfi_endproc
.LFE17477:
	.seh_endproc
	.section	.text$_Z19wxEventFunctionCastI20wxNavigationKeyEventEM12wxEvtHandlerFvR7wxEventEMS1_FvRT_E,"x"
	.linkonce discard
	.globl	_Z19wxEventFunctionCastI20wxNavigationKeyEventEM12wxEvtHandlerFvR7wxEventEMS1_FvRT_E
	.def	_Z19wxEventFunctionCastI20wxNavigationKeyEventEM12wxEvtHandlerFvR7wxEventEMS1_FvRT_E;	.scl	2;	.type	32;	.endef
	.seh_proc	_Z19wxEventFunctionCastI20wxNavigationKeyEventEM12wxEvtHandlerFvR7wxEventEMS1_FvRT_E
_Z19wxEventFunctionCastI20wxNavigationKeyEventEM12wxEvtHandlerFvR7wxEventEMS1_FvRT_E:
.LFB17478:
	.loc 14 149 24
	.cfi_startproc
	pushq	%rbp
	.seh_pushreg	%rbp
	.cfi_def_cfa_offset 16
	.cfi_offset 6, -16
	pushq	%rbx
	.seh_pushreg	%rbx
	.cfi_def_cfa_offset 24
	.cfi_offset 3, -24
	subq	$24, %rsp
	.seh_stackalloc	24
	.cfi_def_cfa_offset 48
	leaq	128(%rsp), %rbp
	.seh_setframe	%rbp, 128
	.cfi_def_cfa 6, -80
	.seh_endprologue
	movq	%rcx, -80(%rbp)
	movq	%rdx, %rbx
	movq	(%rbx), %rax
	movq	8(%rbx), %rdx
	movq	%rax, -128(%rbp)
	movq	%rdx, -120(%rbp)
	.loc 14 161 50
	movq	-80(%rbp), %rcx
	movq	-128(%rbp), %rax
	movq	-120(%rbp), %rdx
	movq	%rax, (%rcx)
	movq	%rdx, 8(%rcx)
	.loc 14 164 1
	movq	-80(%rbp), %rax
	addq	$24, %rsp
	popq	%rbx
	.cfi_restore 3
	popq	%rbp
	.cfi_restore 6
	.cfi_def_cfa 7, -8
	ret
	.cfi_endproc
.LFE17478:
	.seh_endproc
	.section	.text$_ZN19wxNavigationEnabledI8wxWindowE7OnFocusER12wxFocusEvent,"x"
	.linkonce discard
	.align 2
	.globl	_ZN19wxNavigationEnabledI8wxWindowE7OnFocusER12wxFocusEvent
	.def	_ZN19wxNavigationEnabledI8wxWindowE7OnFocusER12wxFocusEvent;	.scl	2;	.type	32;	.endef
	.seh_proc	_ZN19wxNavigationEnabledI8wxWindowE7OnFocusER12wxFocusEvent
_ZN19wxNavigationEnabledI8wxWindowE7OnFocusER12wxFocusEvent:
.LFB17479:
	.loc 30 262 10
	.cfi_startproc
	pushq	%rbp
	.seh_pushreg	%rbp
	.cfi_def_cfa_offset 16
	.cfi_offset 6, -16
	movq	%rsp, %rbp
	.seh_setframe	%rbp, 0
	.cfi_def_cfa_register 6
	subq	$32, %rsp
	.seh_stackalloc	32
	.seh_endprologue
	movq	%rcx, 16(%rbp)
	movq	%rdx, 24(%rbp)
	.loc 30 264 34
	movq	16(%rbp), %rax
	addq	$576, %rax
	movq	24(%rbp), %rdx
	movq	%rax, %rcx
	call	_ZN18wxControlContainer13HandleOnFocusER12wxFocusEvent
	.loc 30 265 5
	nop
	addq	$32, %rsp
	popq	%rbp
	.cfi_restore 6
	.cfi_def_cfa 7, 8
	ret
	.cfi_endproc
.LFE17479:
	.seh_endproc
	.section	.text$_Z19wxEventFunctionCastI12wxFocusEventEM12wxEvtHandlerFvR7wxEventEMS1_FvRT_E,"x"
	.linkonce discard
	.globl	_Z19wxEventFunctionCastI12wxFocusEventEM12wxEvtHandlerFvR7wxEventEMS1_FvRT_E
	.def	_Z19wxEventFunctionCastI12wxFocusEventEM12wxEvtHandlerFvR7wxEventEMS1_FvRT_E;	.scl	2;	.type	32;	.endef
	.seh_proc	_Z19wxEventFunctionCastI12wxFocusEventEM12wxEvtHandlerFvR7wxEventEMS1_FvRT_E
_Z19wxEventFunctionCastI12wxFocusEventEM12wxEvtHandlerFvR7wxEventEMS1_FvRT_E:
.LFB17480:
	.loc 14 149 24
	.cfi_startproc
	pushq	%rbp
	.seh_pushreg	%rbp
	.cfi_def_cfa_offset 16
	.cfi_offset 6, -16
	pushq	%rbx
	.seh_pushreg	%rbx
	.cfi_def_cfa_offset 24
	.cfi_offset 3, -24
	subq	$24, %rsp
	.seh_stackalloc	24
	.cfi_def_cfa_offset 48
	leaq	128(%rsp), %rbp
	.seh_setframe	%rbp, 128
	.cfi_def_cfa 6, -80
	.seh_endprologue
	movq	%rcx, -80(%rbp)
	movq	%rdx, %rbx
	movq	(%rbx), %rax
	movq	8(%rbx), %rdx
	movq	%rax, -128(%rbp)
	movq	%rdx, -120(%rbp)
	.loc 14 161 50
	movq	-80(%rbp), %rcx
	movq	-128(%rbp), %rax
	movq	-120(%rbp), %rdx
	movq	%rax, (%rcx)
	movq	%rdx, 8(%rcx)
	.loc 14 164 1
	movq	-80(%rbp), %rax
	addq	$24, %rsp
	popq	%rbx
	.cfi_restore 3
	popq	%rbp
	.cfi_restore 6
	.cfi_def_cfa 7, -8
	ret
	.cfi_endproc
.LFE17480:
	.seh_endproc
	.section	.text$_ZNK14wxEventTypeTagI12wxFocusEventEcvRKiEv,"x"
	.linkonce discard
	.align 2
	.globl	_ZNK14wxEventTypeTagI12wxFocusEventEcvRKiEv
	.def	_ZNK14wxEventTypeTagI12wxFocusEventEcvRKiEv;	.scl	2;	.type	32;	.endef
	.seh_proc	_ZNK14wxEventTypeTagI12wxFocusEventEcvRKiEv
_ZNK14wxEventTypeTagI12wxFocusEventEcvRKiEv:
.LFB17481:
	.loc 14 190 5
	.cfi_startproc
	pushq	%rbp
	.seh_pushreg	%rbp
	.cfi_def_cfa_offset 16
	.cfi_offset 6, -16
	movq	%rsp, %rbp
	.seh_setframe	%rbp, 0
	.cfi_def_cfa_register 6
	.seh_endprologue
	movq	%rcx, 16(%rbp)
	.loc 14 190 50
	movq	16(%rbp), %rax
	.loc 14 190 58
	popq	%rbp
	.cfi_restore 6
	.cfi_def_cfa 7, 8
	ret
	.cfi_endproc
.LFE17481:
	.seh_endproc
	.section	.text$_ZN19wxNavigationEnabledI8wxWindowE12OnChildFocusER17wxChildFocusEvent,"x"
	.linkonce discard
	.align 2
	.globl	_ZN19wxNavigationEnabledI8wxWindowE12OnChildFocusER17wxChildFocusEvent
	.def	_ZN19wxNavigationEnabledI8wxWindowE12OnChildFocusER17wxChildFocusEvent;	.scl	2;	.type	32;	.endef
	.seh_proc	_ZN19wxNavigationEnabledI8wxWindowE12OnChildFocusER17wxChildFocusEvent
_ZN19wxNavigationEnabledI8wxWindowE12OnChildFocusER17wxChildFocusEvent:
.LFB17482:
	.loc 30 267 10
	.cfi_startproc
	pushq	%rbp
	.seh_pushreg	%rbp
	.cfi_def_cfa_offset 16
	.cfi_offset 6, -16
	pushq	%rbx
	.seh_pushreg	%rbx
	.cfi_def_cfa_offset 24
	.cfi_offset 3, -24
	subq	$40, %rsp
	.seh_stackalloc	40
	.cfi_def_cfa_offset 64
	leaq	128(%rsp), %rbp
	.seh_setframe	%rbp, 128
	.cfi_def_cfa 6, -64
	.seh_endprologue
	movq	%rcx, -64(%rbp)
	movq	%rdx, -56(%rbp)
