	.file	"mathplotHandler.cpp"
	.text
.Ltext0:
	.cfi_sections	.debug_frame
	.section .rdata,"dr"
_ZStL19piecewise_construct:
	.space 1
	.section	.text$_ZNKSt9type_info4nameEv,"x"
	.linkonce discard
	.align 2
	.globl	_ZNKSt9type_info4nameEv
	.def	_ZNKSt9type_info4nameEv;	.scl	2;	.type	32;	.endef
	.seh_proc	_ZNKSt9type_info4nameEv
_ZNKSt9type_info4nameEv:
.LFB310:
	.file 1 "C:/Program Files/CodeBlocks/MinGW/lib/gcc/x86_64-w64-mingw32/8.1.0/include/c++/typeinfo"
	.loc 1 99 17
	.cfi_startproc
	pushq	%rbp
	.seh_pushreg	%rbp
	.cfi_def_cfa_offset 16
	.cfi_offset 6, -16
	movq	%rsp, %rbp
	.seh_setframe	%rbp, 0
	.cfi_def_cfa_register 6
	.seh_endprologue
	movq	%rcx, 16(%rbp)
	.loc 1 100 14
	movq	16(%rbp), %rax
	movq	8(%rax), %rax
	.loc 1 100 22
	movzbl	(%rax), %eax
	.loc 1 100 31
	cmpb	$42, %al
	jne	.L2
	.loc 1 100 33 discriminator 1
	movq	16(%rbp), %rax
	movq	8(%rax), %rax
	.loc 1 100 31 discriminator 1
	addq	$1, %rax
	.loc 1 100 46 discriminator 1
	jmp	.L4
.L2:
	.loc 1 100 31 discriminator 2
	movq	16(%rbp), %rax
	movq	8(%rax), %rax
.L4:
	.loc 1 100 54 discriminator 5
	popq	%rbp
	.cfi_restore 6
	.cfi_def_cfa 7, 8
	ret
	.cfi_endproc
.LFE310:
	.seh_endproc
	.section	.text$_ZnwyPv,"x"
	.linkonce discard
	.globl	_ZnwyPv
	.def	_ZnwyPv;	.scl	2;	.type	32;	.endef
	.seh_proc	_ZnwyPv
_ZnwyPv:
.LFB352:
	.file 2 "C:/Program Files/CodeBlocks/MinGW/lib/gcc/x86_64-w64-mingw32/8.1.0/include/c++/new"
	.loc 2 169 1
	.cfi_startproc
	pushq	%rbp
	.seh_pushreg	%rbp
	.cfi_def_cfa_offset 16
	.cfi_offset 6, -16
	movq	%rsp, %rbp
	.seh_setframe	%rbp, 0
	.cfi_def_cfa_register 6
	.seh_endprologue
	movq	%rcx, 16(%rbp)
	movq	%rdx, 24(%rbp)
	.loc 2 169 10
	movq	24(%rbp), %rax
	.loc 2 169 15
	popq	%rbp
	.cfi_restore 6
	.cfi_def_cfa 7, 8
	ret
	.cfi_endproc
.LFE352:
	.seh_endproc
	.section	.text$_ZN10BaseObjectD2Ev,"x"
	.linkonce discard
	.align 2
	.globl	_ZN10BaseObjectD2Ev
	.def	_ZN10BaseObjectD2Ev;	.scl	2;	.type	32;	.endef
	.seh_proc	_ZN10BaseObjectD2Ev
_ZN10BaseObjectD2Ev:
.LFB814:
	.file 3 "../../CalculadorNumerico/calculador/../padroes/baseobject.h"
	.loc 3 8 17
	.cfi_startproc
	pushq	%rbp
	.seh_pushreg	%rbp
	.cfi_def_cfa_offset 16
	.cfi_offset 6, -16
	movq	%rsp, %rbp
	.seh_setframe	%rbp, 0
	.cfi_def_cfa_register 6
	.seh_endprologue
	movq	%rcx, 16(%rbp)
.LBB2:
	.loc 3 8 31
	leaq	16+_ZTV10BaseObject(%rip), %rdx
	movq	16(%rbp), %rax
	movq	%rdx, (%rax)
.LBE2:
	.loc 3 8 32
	nop
	popq	%rbp
	.cfi_restore 6
	.cfi_def_cfa 7, 8
	ret
	.cfi_endproc
.LFE814:
	.seh_endproc
	.section	.text$_ZN10BaseObjectD1Ev,"x"
	.linkonce discard
	.align 2
	.globl	_ZN10BaseObjectD1Ev
	.def	_ZN10BaseObjectD1Ev;	.scl	2;	.type	32;	.endef
	.seh_proc	_ZN10BaseObjectD1Ev
_ZN10BaseObjectD1Ev:
.LFB815:
	.loc 3 8 17
	.cfi_startproc
	pushq	%rbp
	.seh_pushreg	%rbp
	.cfi_def_cfa_offset 16
	.cfi_offset 6, -16
	movq	%rsp, %rbp
	.seh_setframe	%rbp, 0
	.cfi_def_cfa_register 6
	.seh_endprologue
	movq	%rcx, 16(%rbp)
.LBB3:
	.loc 3 8 31
	leaq	16+_ZTV10BaseObject(%rip), %rdx
	movq	16(%rbp), %rax
	movq	%rdx, (%rax)
.LBE3:
	.loc 3 8 32
	nop
	popq	%rbp
	.cfi_restore 6
	.cfi_def_cfa 7, 8
	ret
	.cfi_endproc
.LFE815:
	.seh_endproc
	.section	.text$_ZN10BaseObjectD0Ev,"x"
	.linkonce discard
	.align 2
	.globl	_ZN10BaseObjectD0Ev
	.def	_ZN10BaseObjectD0Ev;	.scl	2;	.type	32;	.endef
	.seh_proc	_ZN10BaseObjectD0Ev
_ZN10BaseObjectD0Ev:
.LFB816:
	.loc 3 8 17
	.cfi_startproc
	pushq	%rbp
	.seh_pushreg	%rbp
	.cfi_def_cfa_offset 16
	.cfi_offset 6, -16
	movq	%rsp, %rbp
	.seh_setframe	%rbp, 0
	.cfi_def_cfa_register 6
	subq	$32, %rsp
	.seh_stackalloc	32
	.seh_endprologue
	movq	%rcx, 16(%rbp)
	.loc 3 8 32
	movq	16(%rbp), %rcx
	call	_ZN10BaseObjectD1Ev
	movq	16(%rbp), %rcx
	call	_ZdlPv
	nop
	addq	$32, %rsp
	popq	%rbp
	.cfi_restore 6
	.cfi_def_cfa 7, 8
	ret
	.cfi_endproc
.LFE816:
	.seh_endproc
	.section	.text$_ZN9wxPrivate17UntypedBufferDataD2Ev,"x"
	.linkonce discard
	.align 2
	.globl	_ZN9wxPrivate17UntypedBufferDataD2Ev
	.def	_ZN9wxPrivate17UntypedBufferDataD2Ev;	.scl	2;	.type	32;	.endef
	.seh_proc	_ZN9wxPrivate17UntypedBufferDataD2Ev
_ZN9wxPrivate17UntypedBufferDataD2Ev:
.LFB940:
	.file 4 "../wxMSW-3.0.5_gcc810_x64_Dev/include/wx/buffer.h"
	.loc 4 41 5
	.cfi_startproc
	pushq	%rbp
	.seh_pushreg	%rbp
	.cfi_def_cfa_offset 16
	.cfi_offset 6, -16
	movq	%rsp, %rbp
	.seh_setframe	%rbp, 0
	.cfi_def_cfa_register 6
	subq	$32, %rsp
	.seh_stackalloc	32
	.seh_endprologue
	movq	%rcx, 16(%rbp)
.LBB4:
	.loc 4 43 14
	movq	16(%rbp), %rax
	movzbl	18(%rax), %eax
	.loc 4 43 9
	testb	%al, %al
	je	.L12
	.loc 4 44 17
	movq	16(%rbp), %rax
	movq	(%rax), %rax
	movq	%rax, %rcx
	call	free
.L12:
.LBE4:
	.loc 4 45 5
	nop
	addq	$32, %rsp
	popq	%rbp
	.cfi_restore 6
	.cfi_def_cfa 7, 8
	ret
	.cfi_endproc
.LFE940:
	.seh_endproc
	.section	.text$_ZN8wxMBConvC2Ev,"x"
	.linkonce discard
	.align 2
	.globl	_ZN8wxMBConvC2Ev
	.def	_ZN8wxMBConvC2Ev;	.scl	2;	.type	32;	.endef
	.seh_proc	_ZN8wxMBConvC2Ev
_ZN8wxMBConvC2Ev:
.LFB1061:
	.file 5 "../wxMSW-3.0.5_gcc810_x64_Dev/include/wx/strconv.h"
	.loc 5 47 7
	.cfi_startproc
	pushq	%rbp
	.seh_pushreg	%rbp
	.cfi_def_cfa_offset 16
	.cfi_offset 6, -16
	movq	%rsp, %rbp
	.seh_setframe	%rbp, 0
	.cfi_def_cfa_register 6
	.seh_endprologue
	movq	%rcx, 16(%rbp)
.LBB5:
	.loc 5 47 7
	movq	.refptr._ZTV8wxMBConv(%rip), %rax
	leaq	16(%rax), %rdx
	movq	16(%rbp), %rax
	movq	%rdx, (%rax)
.LBE5:
	nop
	popq	%rbp
	.cfi_restore 6
	.cfi_def_cfa 7, 8
	ret
	.cfi_endproc
.LFE1061:
	.seh_endproc
	.section	.text$_ZN18wxMBConvStrictUTF8C2Ev,"x"
	.linkonce discard
	.align 2
	.globl	_ZN18wxMBConvStrictUTF8C2Ev
	.def	_ZN18wxMBConvStrictUTF8C2Ev;	.scl	2;	.type	32;	.endef
	.seh_proc	_ZN18wxMBConvStrictUTF8C2Ev
_ZN18wxMBConvStrictUTF8C2Ev:
.LFB1085:
	.loc 5 341 7
	.cfi_startproc
	pushq	%rbp
	.seh_pushreg	%rbp
	.cfi_def_cfa_offset 16
	.cfi_offset 6, -16
	movq	%rsp, %rbp
	.seh_setframe	%rbp, 0
	.cfi_def_cfa_register 6
	subq	$32, %rsp
	.seh_stackalloc	32
	.seh_endprologue
	movq	%rcx, 16(%rbp)
.LBB6:
	.loc 5 341 7
	movq	16(%rbp), %rax
	movq	%rax, %rcx
	call	_ZN8wxMBConvC2Ev
	movq	.refptr._ZTV18wxMBConvStrictUTF8(%rip), %rax
	leaq	16(%rax), %rdx
	movq	16(%rbp), %rax
	movq	%rdx, (%rax)
.LBE6:
	nop
	addq	$32, %rsp
	popq	%rbp
	.cfi_restore 6
	.cfi_def_cfa 7, 8
	ret
	.cfi_endproc
.LFE1085:
	.seh_endproc
	.section	.text$_ZN18wxMBConvStrictUTF8D2Ev,"x"
	.linkonce discard
	.align 2
	.globl	_ZN18wxMBConvStrictUTF8D2Ev
	.def	_ZN18wxMBConvStrictUTF8D2Ev;	.scl	2;	.type	32;	.endef
	.seh_proc	_ZN18wxMBConvStrictUTF8D2Ev
_ZN18wxMBConvStrictUTF8D2Ev:
.LFB1089:
	.loc 5 341 7
	.cfi_startproc
	pushq	%rbp
	.seh_pushreg	%rbp
	.cfi_def_cfa_offset 16
	.cfi_offset 6, -16
	movq	%rsp, %rbp
	.seh_setframe	%rbp, 0
	.cfi_def_cfa_register 6
	subq	$32, %rsp
	.seh_stackalloc	32
	.seh_endprologue
	movq	%rcx, 16(%rbp)
.LBB7:
	.loc 5 341 7
	movq	.refptr._ZTV18wxMBConvStrictUTF8(%rip), %rax
	leaq	16(%rax), %rdx
	movq	16(%rbp), %rax
	movq	%rdx, (%rax)
	movq	16(%rbp), %rax
	movq	%rax, %rcx
	call	_ZN8wxMBConvD2Ev
.LBE7:
	nop
	addq	$32, %rsp
	popq	%rbp
	.cfi_restore 6
	.cfi_def_cfa 7, 8
	ret
	.cfi_endproc
.LFE1089:
	.seh_endproc
	.section	.text$_ZN12wxMBConvUTF8C1Ei,"x"
	.linkonce discard
	.align 2
	.globl	_ZN12wxMBConvUTF8C1Ei
	.def	_ZN12wxMBConvUTF8C1Ei;	.scl	2;	.type	32;	.endef
	.seh_proc	_ZN12wxMBConvUTF8C1Ei
_ZN12wxMBConvUTF8C1Ei:
.LFB1093:
	.loc 5 370 5
	.cfi_startproc
	pushq	%rbp
	.seh_pushreg	%rbp
	.cfi_def_cfa_offset 16
	.cfi_offset 6, -16
	movq	%rsp, %rbp
	.seh_setframe	%rbp, 0
	.cfi_def_cfa_register 6
	subq	$32, %rsp
	.seh_stackalloc	32
	.seh_endprologue
	movq	%rcx, 16(%rbp)
	movl	%edx, 24(%rbp)
.LBB8:
	.loc 5 370 73
	movq	16(%rbp), %rax
	movq	%rax, %rcx
	call	_ZN18wxMBConvStrictUTF8C2Ev
	movq	.refptr._ZTV12wxMBConvUTF8(%rip), %rax
	leaq	16(%rax), %rdx
	movq	16(%rbp), %rax
	movq	%rdx, (%rax)
	movq	16(%rbp), %rax
	movl	24(%rbp), %edx
	movl	%edx, 8(%rax)
.LBE8:
	.loc 5 370 77
	nop
	addq	$32, %rsp
	popq	%rbp
	.cfi_restore 6
	.cfi_def_cfa 7, 8
	ret
	.cfi_endproc
.LFE1093:
	.seh_endproc
	.section	.text$_ZN8wxString17SubstrBufFromTypeI22wxScopedCharTypeBufferIwEED1Ev,"x"
	.linkonce discard
	.align 2
	.globl	_ZN8wxString17SubstrBufFromTypeI22wxScopedCharTypeBufferIwEED1Ev
	.def	_ZN8wxString17SubstrBufFromTypeI22wxScopedCharTypeBufferIwEED1Ev;	.scl	2;	.type	32;	.endef
	.seh_proc	_ZN8wxString17SubstrBufFromTypeI22wxScopedCharTypeBufferIwEED1Ev
_ZN8wxString17SubstrBufFromTypeI22wxScopedCharTypeBufferIwEED1Ev:
.LFB2064:
	.file 6 "../wxMSW-3.0.5_gcc810_x64_Dev/include/wx/string.h"
	.loc 6 425 10
	.cfi_startproc
	pushq	%rbp
	.seh_pushreg	%rbp
	.cfi_def_cfa_offset 16
	.cfi_offset 6, -16
	movq	%rsp, %rbp
	.seh_setframe	%rbp, 0
	.cfi_def_cfa_register 6
	subq	$32, %rsp
	.seh_stackalloc	32
	.seh_endprologue
	movq	%rcx, 16(%rbp)
.LBB9:
	.loc 6 425 10
	movq	16(%rbp), %rax
	movq	%rax, %rcx
	call	_ZN22wxScopedCharTypeBufferIwED1Ev
.LBE9:
	nop
	addq	$32, %rsp
	popq	%rbp
	.cfi_restore 6
	.cfi_def_cfa 7, 8
	ret
	.cfi_endproc
.LFE2064:
	.seh_endproc
	.section	.text$_ZN8wxString7ImplStrEPKcyRK8wxMBConv,"x"
	.linkonce discard
	.globl	_ZN8wxString7ImplStrEPKcyRK8wxMBConv
	.def	_ZN8wxString7ImplStrEPKcyRK8wxMBConv;	.scl	2;	.type	32;	.endef
	.seh_proc	_ZN8wxString7ImplStrEPKcyRK8wxMBConv
_ZN8wxString7ImplStrEPKcyRK8wxMBConv:
.LFB2065:
	.loc 6 478 26
	.cfi_startproc
	pushq	%rbp
	.seh_pushreg	%rbp
	.cfi_def_cfa_offset 16
	.cfi_offset 6, -16
	movq	%rsp, %rbp
	.seh_setframe	%rbp, 0
	.cfi_def_cfa_register 6
	subq	$32, %rsp
	.seh_stackalloc	32
	.seh_endprologue
	movq	%rcx, 16(%rbp)
	movq	%rdx, 24(%rbp)
	movq	%r8, 32(%rbp)
	movq	%r9, 40(%rbp)
	.loc 6 480 37
	movq	16(%rbp), %rax
	movq	40(%rbp), %r8
	movq	32(%rbp), %rcx
	movq	24(%rbp), %rdx
	movq	%r8, %r9
	movq	%rcx, %r8
	movq	%rax, %rcx
	call	_ZN8wxString10ConvertStrEPKcyRK8wxMBConv
	.loc 6 480 40
	movq	16(%rbp), %rax
	addq	$32, %rsp
	popq	%rbp
	.cfi_restore 6
	.cfi_def_cfa 7, 8
	ret
	.cfi_endproc
.LFE2065:
	.seh_endproc
	.section	.text$_ZN8wxStringD1Ev,"x"
	.linkonce discard
	.align 2
	.globl	_ZN8wxStringD1Ev
	.def	_ZN8wxStringD1Ev;	.scl	2;	.type	32;	.endef
	.seh_proc	_ZN8wxStringD1Ev
_ZN8wxStringD1Ev:
.LFB2141:
	.loc 6 393 7
	.cfi_startproc
	pushq	%rbp
	.seh_pushreg	%rbp
	.cfi_def_cfa_offset 16
	.cfi_offset 6, -16
	movq	%rsp, %rbp
	.seh_setframe	%rbp, 0
	.cfi_def_cfa_register 6
	subq	$32, %rsp
	.seh_stackalloc	32
	.seh_endprologue
	movq	%rcx, 16(%rbp)
.LBB10:
	.loc 6 393 7
	movq	16(%rbp), %rax
	addq	$32, %rax
	movq	%rax, %rcx
	call	_ZN8wxString15ConvertedBufferIcED1Ev
	movq	16(%rbp), %rax
	movq	%rax, %rcx
	call	_ZNSt7__cxx1112basic_stringIwSt11char_traitsIwESaIwEED1Ev
.LBE10:
	nop
	addq	$32, %rsp
	popq	%rbp
	.cfi_restore 6
	.cfi_def_cfa 7, 8
	ret
	.cfi_endproc
.LFE2141:
	.seh_endproc
	.section	.text$_ZN8wxStringC1ERKS_,"x"
	.linkonce discard
	.align 2
	.globl	_ZN8wxStringC1ERKS_
	.def	_ZN8wxStringC1ERKS_;	.scl	2;	.type	32;	.endef
	.seh_proc	_ZN8wxStringC1ERKS_
_ZN8wxStringC1ERKS_:
.LFB2170:
	.loc 6 1220 3
	.cfi_startproc
	pushq	%rbp
	.seh_pushreg	%rbp
	.cfi_def_cfa_offset 16
	.cfi_offset 6, -16
	movq	%rsp, %rbp
	.seh_setframe	%rbp, 0
	.cfi_def_cfa_register 6
	subq	$32, %rsp
	.seh_stackalloc	32
	.seh_endprologue
	movq	%rcx, 16(%rbp)
	movq	%rdx, 24(%rbp)
.LBB11:
	.loc 6 1220 64
	movq	16(%rbp), %rax
	.loc 6 1220 58
	movq	24(%rbp), %rdx
	.loc 6 1220 64
	movq	%rax, %rcx
	call	_ZNSt7__cxx1112basic_stringIwSt11char_traitsIwESaIwEEC1ERKS4_
	movq	16(%rbp), %rax
	addq	$32, %rax
	movq	%rax, %rcx
	call	_ZN8wxString15ConvertedBufferIcEC1Ev
.LBE11:
	.loc 6 1220 68
	nop
	addq	$32, %rsp
	popq	%rbp
	.cfi_restore 6
	.cfi_def_cfa 7, 8
	ret
	.cfi_endproc
.LFE2170:
	.seh_endproc
	.section	.text$_ZN8wxStringC1EPKcRK8wxMBConvy,"x"
	.linkonce discard
	.align 2
	.globl	_ZN8wxStringC1EPKcRK8wxMBConvy
	.def	_ZN8wxStringC1EPKcRK8wxMBConvy;	.scl	2;	.type	32;	.endef
	.seh_proc	_ZN8wxStringC1EPKcRK8wxMBConvy
_ZN8wxStringC1EPKcRK8wxMBConvy:
.LFB2206:
	.loc 6 1247 3
	.cfi_startproc
	pushq	%rbp
	.seh_pushreg	%rbp
	.cfi_def_cfa_offset 16
	.cfi_offset 6, -16
	pushq	%rsi
	.seh_pushreg	%rsi
	.cfi_def_cfa_offset 24
	.cfi_offset 4, -24
	pushq	%rbx
	.seh_pushreg	%rbx
	.cfi_def_cfa_offset 32
	.cfi_offset 3, -32
	movq	%rsp, %rbp
	.seh_setframe	%rbp, 0
	.cfi_def_cfa_register 6
	subq	$48, %rsp
	.seh_stackalloc	48
	.seh_endprologue
	movq	%rcx, 32(%rbp)
	movq	%rdx, 40(%rbp)
	movq	%r8, 48(%rbp)
	movq	%r9, 56(%rbp)
.LBB12:
	.loc 6 1248 3
	movq	32(%rbp), %rax
	movq	%rax, %rcx
	call	_ZNSt7__cxx1112basic_stringIwSt11char_traitsIwESaIwEEC1Ev
	movq	32(%rbp), %rax
	addq	$32, %rax
	movq	%rax, %rcx
	call	_ZN8wxString15ConvertedBufferIcEC1Ev
.LBB13:
	.loc 6 1249 52
	leaq	-16(%rbp), %rax
	movq	48(%rbp), %r8
	movq	56(%rbp), %rcx
	movq	40(%rbp), %rdx
	movq	%r8, %r9
	movq	%rcx, %r8
	movq	%rax, %rcx
.LEHB0:
	call	_ZN8wxString7ImplStrEPKcyRK8wxMBConv
.LEHE0:
	.loc 6 1250 36
	movq	32(%rbp), %rbx
	movq	-8(%rbp), %rsi
	leaq	-16(%rbp), %rax
	movq	%rax, %rcx
.LEHB1:
	call	_ZNK22wxScopedCharTypeBufferIwEcvPKwEv
	movq	%rsi, %r8
	movq	%rax, %rdx
	movq	%rbx, %rcx
	call	_ZNSt7__cxx1112basic_stringIwSt11char_traitsIwESaIwEE6assignEPKwy
.LEHE1:
	.loc 6 1249 52
	leaq	-16(%rbp), %rax
	movq	%rax, %rcx
	call	_ZN8wxString17SubstrBufFromTypeI22wxScopedCharTypeBufferIwEED1Ev
.LBE13:
.LBE12:
	.loc 6 1251 3
	jmp	.L27
.L26:
	movq	%rax, %rbx
.LBB15:
.LBB14:
	.loc 6 1249 52
	leaq	-16(%rbp), %rax
	movq	%rax, %rcx
	call	_ZN8wxString17SubstrBufFromTypeI22wxScopedCharTypeBufferIwEED1Ev
	jmp	.L24
.L25:
	movq	%rax, %rbx
.L24:
.LBE14:
	.loc 6 1248 3
	movq	32(%rbp), %rax
	addq	$32, %rax
	movq	%rax, %rcx
	call	_ZN8wxString15ConvertedBufferIcED1Ev
	movq	32(%rbp), %rax
	movq	%rax, %rcx
	call	_ZNSt7__cxx1112basic_stringIwSt11char_traitsIwESaIwEED1Ev
	movq	%rbx, %rax
	movq	%rax, %rcx
.LEHB2:
	call	_Unwind_Resume
	nop
.LEHE2:
.L27:
.LBE15:
	.loc 6 1251 3
	addq	$48, %rsp
	popq	%rbx
	.cfi_restore 3
	popq	%rsi
	.cfi_restore 4
	popq	%rbp
	.cfi_restore 6
	.cfi_def_cfa 7, 24
	ret
	.cfi_endproc
.LFE2206:
	.def	__gxx_personality_seh0;	.scl	2;	.type	32;	.endef
	.seh_handler	__gxx_personality_seh0, @unwind, @except
	.seh_handlerdata
.LLSDA2206:
	.byte	0xff
	.byte	0xff
	.byte	0x1
	.uleb128 .LLSDACSE2206-.LLSDACSB2206
.LLSDACSB2206:
	.uleb128 .LEHB0-.LFB2206
	.uleb128 .LEHE0-.LEHB0
	.uleb128 .L25-.LFB2206
	.uleb128 0
	.uleb128 .LEHB1-.LFB2206
	.uleb128 .LEHE1-.LEHB1
	.uleb128 .L26-.LFB2206
	.uleb128 0
	.uleb128 .LEHB2-.LFB2206
	.uleb128 .LEHE2-.LEHB2
	.uleb128 0
	.uleb128 0
.LLSDACSE2206:
	.section	.text$_ZN8wxStringC1EPKcRK8wxMBConvy,"x"
	.linkonce discard
	.seh_endproc
	.section	.text$_ZN8wxString8FromUTF8EPKcy,"x"
	.linkonce discard
	.globl	_ZN8wxString8FromUTF8EPKcy
	.def	_ZN8wxString8FromUTF8EPKcy;	.scl	2;	.type	32;	.endef
	.seh_proc	_ZN8wxString8FromUTF8EPKcy
_ZN8wxString8FromUTF8EPKcy:
.LFB2316:
	.loc 6 1742 21
	.cfi_startproc
	pushq	%rbp
	.seh_pushreg	%rbp
	.cfi_def_cfa_offset 16
	.cfi_offset 6, -16
	pushq	%rbx
	.seh_pushreg	%rbx
	.cfi_def_cfa_offset 24
	.cfi_offset 3, -24
	subq	$56, %rsp
	.seh_stackalloc	56
	.cfi_def_cfa_offset 80
	leaq	128(%rsp), %rbp
	.seh_setframe	%rbp, 128
	.cfi_def_cfa 6, -48
	.seh_endprologue
	movq	%rcx, -48(%rbp)
	movq	%rdx, -40(%rbp)
	movq	%r8, -32(%rbp)
	.loc 6 1743 31
	leaq	-96(%rbp), %rax
	movl	$0, %edx
	movq	%rax, %rcx
	call	_ZN12wxMBConvUTF8C1Ei
	.loc 6 1743 50
	movq	-32(%rbp), %rcx
	leaq	-96(%rbp), %rdx
	movq	-40(%rbp), %rax
	movq	%rcx, %r9
	movq	%rdx, %r8
	movq	%rax, %rdx
	movq	-48(%rbp), %rcx
.LEHB3:
	call	_ZN8wxStringC1EPKcRK8wxMBConvy
.LEHE3:
	nop
	.loc 6 1743 31
	leaq	-96(%rbp), %rax
	movq	%rax, %rcx
	call	_ZN12wxMBConvUTF8D1Ev
	.loc 6 1743 50
	jmp	.L32
.L31:
	movq	%rax, %rbx
	.loc 6 1743 31
	leaq	-96(%rbp), %rax
	movq	%rax, %rcx
	call	_ZN12wxMBConvUTF8D1Ev
	movq	%rbx, %rax
	movq	%rax, %rcx
.LEHB4:
	call	_Unwind_Resume
.LEHE4:
.L32:
	.loc 6 1743 53
	movq	-48(%rbp), %rax
	addq	$56, %rsp
	popq	%rbx
	.cfi_restore 3
	popq	%rbp
	.cfi_restore 6
	.cfi_def_cfa 7, -40
	ret
	.cfi_endproc
.LFE2316:
	.seh_handler	__gxx_personality_seh0, @unwind, @except
	.seh_handlerdata
.LLSDA2316:
	.byte	0xff
	.byte	0xff
	.byte	0x1
	.uleb128 .LLSDACSE2316-.LLSDACSB2316
.LLSDACSB2316:
	.uleb128 .LEHB3-.LFB2316
	.uleb128 .LEHE3-.LEHB3
	.uleb128 .L31-.LFB2316
	.uleb128 0
	.uleb128 .LEHB4-.LFB2316
	.uleb128 .LEHE4-.LEHB4
	.uleb128 0
	.uleb128 0
.LLSDACSE2316:
	.section	.text$_ZN8wxString8FromUTF8EPKcy,"x"
	.linkonce discard
	.seh_endproc
	.section	.text$_ZN12wxRefCounter6IncRefEv,"x"
	.linkonce discard
	.align 2
	.globl	_ZN12wxRefCounter6IncRefEv
	.def	_ZN12wxRefCounter6IncRefEv;	.scl	2;	.type	32;	.endef
	.seh_proc	_ZN12wxRefCounter6IncRefEv
_ZN12wxRefCounter6IncRefEv:
.LFB4039:
	.file 7 "../wxMSW-3.0.5_gcc810_x64_Dev/include/wx/object.h"
	.loc 7 248 10
	.cfi_startproc
	pushq	%rbp
	.seh_pushreg	%rbp
	.cfi_def_cfa_offset 16
	.cfi_offset 6, -16
	movq	%rsp, %rbp
	.seh_setframe	%rbp, 0
	.cfi_def_cfa_register 6
	.seh_endprologue
	movq	%rcx, 16(%rbp)
	.loc 7 248 21
	movq	16(%rbp), %rax
	movl	8(%rax), %eax
	.loc 7 248 28
	leal	1(%rax), %edx
	movq	16(%rbp), %rax
	movl	%edx, 8(%rax)
	.loc 7 248 32
	nop
	popq	%rbp
	.cfi_restore 6
	.cfi_def_cfa 7, 8
	ret
	.cfi_endproc
.LFE4039:
	.seh_endproc
	.section	.text$_ZN8wxObjectC2Ev,"x"
	.linkonce discard
	.align 2
	.globl	_ZN8wxObjectC2Ev
	.def	_ZN8wxObjectC2Ev;	.scl	2;	.type	32;	.endef
	.seh_proc	_ZN8wxObjectC2Ev
_ZN8wxObjectC2Ev:
.LFB4055:
	.loc 7 360 5
	.cfi_startproc
	pushq	%rbp
	.seh_pushreg	%rbp
	.cfi_def_cfa_offset 16
	.cfi_offset 6, -16
	movq	%rsp, %rbp
	.seh_setframe	%rbp, 0
	.cfi_def_cfa_register 6
	.seh_endprologue
	movq	%rcx, 16(%rbp)
.LBB16:
	.loc 7 360 16
	movq	.refptr._ZTV8wxObject(%rip), %rax
	leaq	16(%rax), %rdx
	movq	16(%rbp), %rax
	movq	%rdx, (%rax)
	.loc 7 360 28
	movq	16(%rbp), %rax
	movq	$0, 8(%rax)
.LBE16:
	.loc 7 360 35
	nop
	popq	%rbp
	.cfi_restore 6
	.cfi_def_cfa 7, 8
	ret
	.cfi_endproc
.LFE4055:
	.seh_endproc
	.section	.text$_ZN8wxObjectD2Ev,"x"
	.linkonce discard
	.align 2
	.globl	_ZN8wxObjectD2Ev
	.def	_ZN8wxObjectD2Ev;	.scl	2;	.type	32;	.endef
	.seh_proc	_ZN8wxObjectD2Ev
_ZN8wxObjectD2Ev:
.LFB4058:
	.loc 7 361 13
	.cfi_startproc
	pushq	%rbp
	.seh_pushreg	%rbp
	.cfi_def_cfa_offset 16
	.cfi_offset 6, -16
	movq	%rsp, %rbp
	.seh_setframe	%rbp, 0
	.cfi_def_cfa_register 6
	subq	$32, %rsp
	.seh_stackalloc	32
	.seh_endprologue
	movq	%rcx, 16(%rbp)
.LBB17:
	.loc 7 361 25
	movq	.refptr._ZTV8wxObject(%rip), %rax
	leaq	16(%rax), %rdx
	movq	16(%rbp), %rax
	movq	%rdx, (%rax)
	.loc 7 361 32
	movq	16(%rbp), %rcx
	call	_ZN8wxObject5UnRefEv
.LBE17:
	.loc 7 361 36
	nop
	addq	$32, %rsp
	popq	%rbp
	.cfi_restore 6
	.cfi_def_cfa 7, 8
	ret
	.cfi_endproc
.LFE4058:
	.seh_handler	__gxx_personality_seh0, @unwind, @except
	.seh_handlerdata
.LLSDA4058:
	.byte	0xff
	.byte	0xff
	.byte	0x1
	.uleb128 .LLSDACSE4058-.LLSDACSB4058
.LLSDACSB4058:
.LLSDACSE4058:
	.section	.text$_ZN8wxObjectD2Ev,"x"
	.linkonce discard
	.seh_endproc
	.section	.text$_ZN8wxObjectC2ERKS_,"x"
	.linkonce discard
	.align 2
	.globl	_ZN8wxObjectC2ERKS_
	.def	_ZN8wxObjectC2ERKS_;	.scl	2;	.type	32;	.endef
	.seh_proc	_ZN8wxObjectC2ERKS_
_ZN8wxObjectC2ERKS_:
.LFB4062:
	.loc 7 363 5
	.cfi_startproc
	pushq	%rbp
	.seh_pushreg	%rbp
	.cfi_def_cfa_offset 16
	.cfi_offset 6, -16
	movq	%rsp, %rbp
	.seh_setframe	%rbp, 0
	.cfi_def_cfa_register 6
	subq	$32, %rsp
	.seh_stackalloc	32
	.seh_endprologue
	movq	%rcx, 16(%rbp)
	movq	%rdx, 24(%rbp)
.LBB18:
	.loc 7 364 5
	movq	.refptr._ZTV8wxObject(%rip), %rax
	leaq	16(%rax), %rdx
	movq	16(%rbp), %rax
	movq	%rdx, (%rax)
	.loc 7 365 28
	movq	24(%rbp), %rax
	movq	8(%rax), %rdx
	.loc 7 365 20
	movq	16(%rbp), %rax
	movq	%rdx, 8(%rax)
	.loc 7 366 14
	movq	16(%rbp), %rax
	movq	8(%rax), %rax
	.loc 7 366 10
	testq	%rax, %rax
	je	.L38
	.loc 7 367 14
	movq	16(%rbp), %rax
	movq	8(%rax), %rax
	.loc 7 367 31
	movq	%rax, %rcx
	call	_ZN12wxRefCounter6IncRefEv
.L38:
.LBE18:
	.loc 7 368 5
	nop
	addq	$32, %rsp
	popq	%rbp
	.cfi_restore 6
	.cfi_def_cfa 7, 8
	ret
	.cfi_endproc
.LFE4062:
	.seh_endproc
	.section	.text$_ZN8wxObjectaSERKS_,"x"
	.linkonce discard
	.align 2
	.globl	_ZN8wxObjectaSERKS_
	.def	_ZN8wxObjectaSERKS_;	.scl	2;	.type	32;	.endef
	.seh_proc	_ZN8wxObjectaSERKS_
_ZN8wxObjectaSERKS_:
.LFB4064:
	.loc 7 370 15
	.cfi_startproc
	pushq	%rbp
	.seh_pushreg	%rbp
	.cfi_def_cfa_offset 16
	.cfi_offset 6, -16
	movq	%rsp, %rbp
	.seh_setframe	%rbp, 0
	.cfi_def_cfa_register 6
	subq	$32, %rsp
	.seh_stackalloc	32
	.seh_endprologue
	movq	%rcx, 16(%rbp)
	movq	%rdx, 24(%rbp)
	.loc 7 372 9
	movq	16(%rbp), %rax
	cmpq	24(%rbp), %rax
	je	.L40
	.loc 7 374 16
	movq	24(%rbp), %rax
	movq	%rax, %rdx
	movq	16(%rbp), %rcx
	call	_ZN8wxObject3RefERKS_
.L40:
	.loc 7 376 17
	movq	16(%rbp), %rax
	.loc 7 377 5
	addq	$32, %rsp
	popq	%rbp
	.cfi_restore 6
	.cfi_def_cfa 7, 8
	ret
	.cfi_endproc
.LFE4064:
	.seh_endproc
	.section	.text$_ZN6wxRectC1Eiiii,"x"
	.linkonce discard
	.align 2
	.globl	_ZN6wxRectC1Eiiii
	.def	_ZN6wxRectC1Eiiii;	.scl	2;	.type	32;	.endef
	.seh_proc	_ZN6wxRectC1Eiiii
_ZN6wxRectC1Eiiii:
.LFB5641:
	.file 8 "../wxMSW-3.0.5_gcc810_x64_Dev/include/wx/gdicmn.h"
	.loc 8 702 5
	.cfi_startproc
	pushq	%rbp
	.seh_pushreg	%rbp
	.cfi_def_cfa_offset 16
	.cfi_offset 6, -16
	movq	%rsp, %rbp
	.seh_setframe	%rbp, 0
	.cfi_def_cfa_register 6
	.seh_endprologue
	movq	%rcx, 16(%rbp)
	movl	%edx, 24(%rbp)
	movl	%r8d, 32(%rbp)
	movl	%r9d, 40(%rbp)
.LBB19:
	.loc 8 703 45
	movq	16(%rbp), %rax
	movl	24(%rbp), %edx
	movl	%edx, (%rax)
	movq	16(%rbp), %rax
	movl	32(%rbp), %edx
	movl	%edx, 4(%rax)
	movq	16(%rbp), %rax
	movl	40(%rbp), %edx
	movl	%edx, 8(%rax)
	movq	16(%rbp), %rax
	movl	48(%rbp), %edx
	movl	%edx, 12(%rax)
.LBE19:
	.loc 8 704 11
	nop
	popq	%rbp
	.cfi_restore 6
	.cfi_def_cfa 7, 8
	ret
	.cfi_endproc
.LFE5641:
	.seh_endproc
	.section	.text$_ZNK11wxGDIObject4IsOkEv,"x"
	.linkonce discard
	.align 2
	.globl	_ZNK11wxGDIObject4IsOkEv
	.def	_ZNK11wxGDIObject4IsOkEv;	.scl	2;	.type	32;	.endef
	.seh_proc	_ZNK11wxGDIObject4IsOkEv
_ZNK11wxGDIObject4IsOkEv:
.LFB5815:
	.file 9 "../wxMSW-3.0.5_gcc810_x64_Dev/include/wx/gdiobj.h"
	.loc 9 45 18
	.cfi_startproc
	pushq	%rbp
	.seh_pushreg	%rbp
	.cfi_def_cfa_offset 16
	.cfi_offset 6, -16
	movq	%rsp, %rbp
	.seh_setframe	%rbp, 0
	.cfi_def_cfa_register 6
	subq	$32, %rsp
	.seh_stackalloc	32
	.seh_endprologue
	movq	%rcx, 16(%rbp)
	.loc 9 49 16
	movq	16(%rbp), %rax
	movq	8(%rax), %rax
	.loc 9 49 26
	testq	%rax, %rax
	je	.L44
	.loc 9 49 57 discriminator 1
	movq	16(%rbp), %rax
	movq	8(%rax), %rdx
	movq	16(%rbp), %rax
	movq	8(%rax), %rax
	.loc 9 49 74 discriminator 1
	movq	(%rax), %rax
	addq	$16, %rax
	movq	(%rax), %rax
	.loc 9 49 73 discriminator 1
	movq	%rdx, %rcx
	call	*%rax
.LVL0:
	.loc 9 49 26 discriminator 1
	testb	%al, %al
	je	.L44
	.loc 9 49 26 is_stmt 0 discriminator 3
	movl	$1, %eax
	jmp	.L45
.L44:
	.loc 9 49 26 discriminator 4
	movl	$0, %eax
.L45:
	.loc 9 50 5 is_stmt 1 discriminator 6
	addq	$32, %rsp
	popq	%rbp
	.cfi_restore 6
	.cfi_def_cfa 7, 8
	ret
	.cfi_endproc
.LFE5815:
	.seh_endproc
	.section	.text$_ZN11wxGDIObject15RealizeResourceEv,"x"
	.linkonce discard
	.align 2
	.globl	_ZN11wxGDIObject15RealizeResourceEv
	.def	_ZN11wxGDIObject15RealizeResourceEv;	.scl	2;	.type	32;	.endef
	.seh_proc	_ZN11wxGDIObject15RealizeResourceEv
_ZN11wxGDIObject15RealizeResourceEv:
.LFB5818:
	.loc 9 61 18
	.cfi_startproc
	pushq	%rbp
	.seh_pushreg	%rbp
	.cfi_def_cfa_offset 16
	.cfi_offset 6, -16
	movq	%rsp, %rbp
	.seh_setframe	%rbp, 0
	.cfi_def_cfa_register 6
	.seh_endprologue
	movq	%rcx, 16(%rbp)
	.loc 9 61 45
	movl	$0, %eax
	.loc 9 61 52
	popq	%rbp
	.cfi_restore 6
	.cfi_def_cfa 7, 8
	ret
	.cfi_endproc
.LFE5818:
	.seh_endproc
	.section	.text$_ZN11wxGDIObject12FreeResourceEb,"x"
	.linkonce discard
	.align 2
	.globl	_ZN11wxGDIObject12FreeResourceEb
	.def	_ZN11wxGDIObject12FreeResourceEb;	.scl	2;	.type	32;	.endef
	.seh_proc	_ZN11wxGDIObject12FreeResourceEb
_ZN11wxGDIObject12FreeResourceEb:
.LFB5819:
	.loc 9 64 18
	.cfi_startproc
	pushq	%rbp
	.seh_pushreg	%rbp
	.cfi_def_cfa_offset 16
	.cfi_offset 6, -16
	movq	%rsp, %rbp
	.seh_setframe	%rbp, 0
	.cfi_def_cfa_register 6
	.seh_endprologue
	movq	%rcx, 16(%rbp)
	movl	%edx, %eax
	movb	%al, 24(%rbp)
	.loc 9 64 54
	movl	$0, %eax
	.loc 9 64 61
	popq	%rbp
	.cfi_restore 6
	.cfi_def_cfa 7, 8
	ret
	.cfi_endproc
.LFE5819:
	.seh_endproc
	.section	.text$_ZNK11wxGDIObject6IsFreeEv,"x"
	.linkonce discard
	.align 2
	.globl	_ZNK11wxGDIObject6IsFreeEv
	.def	_ZNK11wxGDIObject6IsFreeEv;	.scl	2;	.type	32;	.endef
	.seh_proc	_ZNK11wxGDIObject6IsFreeEv
_ZNK11wxGDIObject6IsFreeEv:
.LFB5820:
	.loc 9 66 18
	.cfi_startproc
	pushq	%rbp
	.seh_pushreg	%rbp
	.cfi_def_cfa_offset 16
	.cfi_offset 6, -16
	movq	%rsp, %rbp
	.seh_setframe	%rbp, 0
	.cfi_def_cfa_register 6
	.seh_endprologue
	movq	%rcx, 16(%rbp)
	.loc 9 66 42
	movl	$0, %eax
	.loc 9 66 49
	popq	%rbp
	.cfi_restore 6
	.cfi_def_cfa 7, 8
	ret
	.cfi_endproc
.LFE5820:
	.seh_endproc
	.section	.text$_ZNK11wxGDIObject17GetResourceHandleEv,"x"
	.linkonce discard
	.align 2
	.globl	_ZNK11wxGDIObject17GetResourceHandleEv
	.def	_ZNK11wxGDIObject17GetResourceHandleEv;	.scl	2;	.type	32;	.endef
	.seh_proc	_ZNK11wxGDIObject17GetResourceHandleEv
_ZNK11wxGDIObject17GetResourceHandleEv:
.LFB5821:
	.loc 9 69 22
	.cfi_startproc
	pushq	%rbp
	.seh_pushreg	%rbp
	.cfi_def_cfa_offset 16
	.cfi_offset 6, -16
	movq	%rsp, %rbp
	.seh_setframe	%rbp, 0
	.cfi_def_cfa_register 6
	.seh_endprologue
	movq	%rcx, 16(%rbp)
	.loc 9 69 57
	movl	$0, %eax
	.loc 9 69 60
	popq	%rbp
	.cfi_restore 6
	.cfi_def_cfa 7, 8
	ret
	.cfi_endproc
.LFE5821:
	.seh_endproc
	.section	.text$_ZNK11wxGDIObject13CreateRefDataEv,"x"
	.linkonce discard
	.align 2
	.globl	_ZNK11wxGDIObject13CreateRefDataEv
	.def	_ZNK11wxGDIObject13CreateRefDataEv;	.scl	2;	.type	32;	.endef
	.seh_proc	_ZNK11wxGDIObject13CreateRefDataEv
_ZNK11wxGDIObject13CreateRefDataEv:
.LFB5822:
	.loc 9 76 30
	.cfi_startproc
	pushq	%rbp
	.seh_pushreg	%rbp
	.cfi_def_cfa_offset 16
	.cfi_offset 6, -16
	movq	%rsp, %rbp
	.seh_setframe	%rbp, 0
	.cfi_def_cfa_register 6
	subq	$32, %rsp
	.seh_stackalloc	32
	.seh_endprologue
	movq	%rcx, 16(%rbp)
	.loc 9 78 33
	movq	16(%rbp), %rax
	movq	(%rax), %rax
	addq	$80, %rax
	movq	(%rax), %rax
	.loc 9 78 32
	movq	16(%rbp), %rcx
	call	*%rax
.LVL1:
	.loc 9 79 5
	addq	$32, %rsp
	popq	%rbp
	.cfi_restore 6
	.cfi_def_cfa 7, 8
	ret
	.cfi_endproc
.LFE5822:
	.seh_endproc
	.section	.text$_ZNK11wxGDIObject12CloneRefDataEPK12wxRefCounter,"x"
	.linkonce discard
	.align 2
	.globl	_ZNK11wxGDIObject12CloneRefDataEPK12wxRefCounter
	.def	_ZNK11wxGDIObject12CloneRefDataEPK12wxRefCounter;	.scl	2;	.type	32;	.endef
	.seh_proc	_ZNK11wxGDIObject12CloneRefDataEPK12wxRefCounter
_ZNK11wxGDIObject12CloneRefDataEPK12wxRefCounter:
.LFB5823:
	.loc 9 81 30
	.cfi_startproc
	pushq	%rbp
	.seh_pushreg	%rbp
	.cfi_def_cfa_offset 16
	.cfi_offset 6, -16
	movq	%rsp, %rbp
	.seh_setframe	%rbp, 0
	.cfi_def_cfa_register 6
	subq	$32, %rsp
	.seh_stackalloc	32
	.seh_endprologue
	movq	%rcx, 16(%rbp)
	movq	%rdx, 24(%rbp)
	.loc 9 83 71
	movq	16(%rbp), %rax
	movq	(%rax), %rax
	addq	$88, %rax
	movq	(%rax), %rax
	.loc 9 83 31
	movq	24(%rbp), %rdx
	movq	16(%rbp), %rcx
	call	*%rax
.LVL2:
	.loc 9 84 5
	addq	$32, %rsp
	popq	%rbp
	.cfi_restore 6
	.cfi_def_cfa 7, 8
	ret
	.cfi_endproc
.LFE5823:
	.seh_endproc
	.section	.text$_ZN11wxGDIObjectD2Ev,"x"
	.linkonce discard
	.align 2
	.globl	_ZN11wxGDIObjectD2Ev
	.def	_ZN11wxGDIObjectD2Ev;	.scl	2;	.type	32;	.endef
	.seh_proc	_ZN11wxGDIObjectD2Ev
_ZN11wxGDIObjectD2Ev:
.LFB6009:
	.loc 9 41 7
	.cfi_startproc
	pushq	%rbp
	.seh_pushreg	%rbp
	.cfi_def_cfa_offset 16
	.cfi_offset 6, -16
	movq	%rsp, %rbp
	.seh_setframe	%rbp, 0
	.cfi_def_cfa_register 6
	subq	$32, %rsp
	.seh_stackalloc	32
	.seh_endprologue
	movq	%rcx, 16(%rbp)
.LBB20:
	.loc 9 41 7
	movq	.refptr._ZTV11wxGDIObject(%rip), %rax
	leaq	16(%rax), %rdx
	movq	16(%rbp), %rax
	movq	%rdx, (%rax)
	movq	16(%rbp), %rax
	movq	%rax, %rcx
	call	_ZN8wxObjectD2Ev
.LBE20:
	nop
	addq	$32, %rsp
	popq	%rbp
	.cfi_restore 6
	.cfi_def_cfa 7, 8
	ret
	.cfi_endproc
.LFE6009:
	.seh_endproc
	.section .rdata,"dr"
	.align 4
_ZL15wxInvalidOffset:
	.long	-1
	.section	.text$_ZN23wxCriticalSectionLockerC1ER17wxCriticalSection,"x"
	.linkonce discard
	.align 2
	.globl	_ZN23wxCriticalSectionLockerC1ER17wxCriticalSection
	.def	_ZN23wxCriticalSectionLockerC1ER17wxCriticalSection;	.scl	2;	.type	32;	.endef
	.seh_proc	_ZN23wxCriticalSectionLockerC1ER17wxCriticalSection
_ZN23wxCriticalSectionLockerC1ER17wxCriticalSection:
.LFB7799:
	.file 10 "../wxMSW-3.0.5_gcc810_x64_Dev/include/wx/thread.h"
	.loc 10 304 5
	.cfi_startproc
	pushq	%rbp
	.seh_pushreg	%rbp
	.cfi_def_cfa_offset 16
	.cfi_offset 6, -16
	movq	%rsp, %rbp
	.seh_setframe	%rbp, 0
	.cfi_def_cfa_register 6
	subq	$32, %rsp
	.seh_stackalloc	32
	.seh_endprologue
	movq	%rcx, 16(%rbp)
	movq	%rdx, 24(%rbp)
.LBB21:
	.loc 10 305 24
	movq	16(%rbp), %rax
	movq	24(%rbp), %rdx
	movq	%rdx, (%rax)
	.loc 10 307 9
	movq	16(%rbp), %rax
	movq	(%rax), %rax
	.loc 10 307 25
	movq	%rax, %rcx
	call	_ZN17wxCriticalSection5EnterEv
.LBE21:
	.loc 10 308 5
	nop
	addq	$32, %rsp
	popq	%rbp
	.cfi_restore 6
	.cfi_def_cfa 7, 8
	ret
	.cfi_endproc
.LFE7799:
	.seh_endproc
	.section	.text$_ZN23wxCriticalSectionLockerD1Ev,"x"
	.linkonce discard
	.align 2
	.globl	_ZN23wxCriticalSectionLockerD1Ev
	.def	_ZN23wxCriticalSectionLockerD1Ev;	.scl	2;	.type	32;	.endef
	.seh_proc	_ZN23wxCriticalSectionLockerD1Ev
_ZN23wxCriticalSectionLockerD1Ev:
.LFB7802:
	.loc 10 310 5
	.cfi_startproc
	pushq	%rbp
	.seh_pushreg	%rbp
	.cfi_def_cfa_offset 16
	.cfi_offset 6, -16
	movq	%rsp, %rbp
	.seh_setframe	%rbp, 0
	.cfi_def_cfa_register 6
	subq	$32, %rsp
	.seh_stackalloc	32
	.seh_endprologue
	movq	%rcx, 16(%rbp)
.LBB22:
	.loc 10 312 9
	movq	16(%rbp), %rax
	movq	(%rax), %rax
	.loc 10 312 25
	movq	%rax, %rcx
	call	_ZN17wxCriticalSection5LeaveEv
.LBE22:
	.loc 10 313 5
	nop
	addq	$32, %rsp
	popq	%rbp
	.cfi_restore 6
	.cfi_def_cfa 7, 8
	ret
	.cfi_endproc
.LFE7802:
	.seh_handler	__gxx_personality_seh0, @unwind, @except
	.seh_handlerdata
.LLSDA7802:
	.byte	0xff
	.byte	0xff
	.byte	0x1
	.uleb128 .LLSDACSE7802-.LLSDACSB7802
.LLSDACSB7802:
.LLSDACSE7802:
	.section	.text$_ZN23wxCriticalSectionLockerD1Ev,"x"
	.linkonce discard
	.seh_endproc
	.section	.text$_ZN8wxThread8OnDeleteEv,"x"
	.linkonce discard
	.align 2
	.globl	_ZN8wxThread8OnDeleteEv
	.def	_ZN8wxThread8OnDeleteEv;	.scl	2;	.type	32;	.endef
	.seh_proc	_ZN8wxThread8OnDeleteEv
_ZN8wxThread8OnDeleteEv:
.LFB7808:
	.loc 10 627 18
	.cfi_startproc
	pushq	%rbp
	.seh_pushreg	%rbp
	.cfi_def_cfa_offset 16
	.cfi_offset 6, -16
	movq	%rsp, %rbp
	.seh_setframe	%rbp, 0
	.cfi_def_cfa_register 6
	.seh_endprologue
	movq	%rcx, 16(%rbp)
	.loc 10 627 30
	nop
	popq	%rbp
	.cfi_restore 6
	.cfi_def_cfa 7, 8
	ret
	.cfi_endproc
.LFE7808:
	.seh_endproc
	.section	.text$_ZN8wxThread6OnKillEv,"x"
	.linkonce discard
	.align 2
	.globl	_ZN8wxThread6OnKillEv
	.def	_ZN8wxThread6OnKillEv;	.scl	2;	.type	32;	.endef
	.seh_proc	_ZN8wxThread6OnKillEv
_ZN8wxThread6OnKillEv:
.LFB7809:
	.loc 10 631 18
	.cfi_startproc
	pushq	%rbp
	.seh_pushreg	%rbp
	.cfi_def_cfa_offset 16
	.cfi_offset 6, -16
	movq	%rsp, %rbp
	.seh_setframe	%rbp, 0
	.cfi_def_cfa_register 6
	.seh_endprologue
	movq	%rcx, 16(%rbp)
	.loc 10 631 28
	nop
	popq	%rbp
	.cfi_restore 6
	.cfi_def_cfa 7, 8
	ret
	.cfi_endproc
.LFE7809:
	.seh_endproc
	.section	.text$_ZN8wxThread6OnExitEv,"x"
	.linkonce discard
	.align 2
	.globl	_ZN8wxThread6OnExitEv
	.def	_ZN8wxThread6OnExitEv;	.scl	2;	.type	32;	.endef
	.seh_proc	_ZN8wxThread6OnExitEv
_ZN8wxThread6OnExitEv:
.LFB7810:
	.loc 10 641 18
	.cfi_startproc
	pushq	%rbp
	.seh_pushreg	%rbp
	.cfi_def_cfa_offset 16
	.cfi_offset 6, -16
	movq	%rsp, %rbp
	.seh_setframe	%rbp, 0
	.cfi_def_cfa_register 6
	.seh_endprologue
	movq	%rcx, 16(%rbp)
	.loc 10 641 29
	nop
	popq	%rbp
	.cfi_restore 6
	.cfi_def_cfa 7, 8
	ret
	.cfi_endproc
.LFE7810:
	.seh_endproc
	.section	.text$_ZN20wxThreadHelperThread5EntryEv,"x"
	.linkonce discard
	.align 2
	.globl	_ZN20wxThreadHelperThread5EntryEv
	.def	_ZN20wxThreadHelperThread5EntryEv;	.scl	2;	.type	32;	.endef
	.seh_proc	_ZN20wxThreadHelperThread5EntryEv
_ZN20wxThreadHelperThread5EntryEv:
.LFB7825:
	.loc 10 767 1
	.cfi_startproc
	pushq	%rbp
	.seh_pushreg	%rbp
	.cfi_def_cfa_offset 16
	.cfi_offset 6, -16
	pushq	%rbx
	.seh_pushreg	%rbx
	.cfi_def_cfa_offset 24
	.cfi_offset 3, -24
	subq	$56, %rsp
	.seh_stackalloc	56
	.cfi_def_cfa_offset 80
	leaq	128(%rsp), %rbp
	.seh_setframe	%rbp, 128
	.cfi_def_cfa 6, -48
	.seh_endprologue
	movq	%rcx, -48(%rbp)
	.loc 10 768 27
	movq	-48(%rbp), %rax
	movq	64(%rax), %rdx
	movq	-48(%rbp), %rax
	movq	64(%rax), %rax
	.loc 10 768 41
	movq	(%rax), %rax
	addq	$16, %rax
	movq	(%rax), %rax
	.loc 10 768 40
	movq	%rdx, %rcx
	call	*%rax
.LVL3:
	movq	%rax, -88(%rbp)
	.loc 10 770 36
	movq	-48(%rbp), %rax
	movq	64(%rax), %rax
	.loc 10 770 44
	leaq	24(%rax), %rdx
	.loc 10 770 57
	leaq	-96(%rbp), %rax
	movq	%rax, %rcx
	call	_ZN23wxCriticalSectionLockerC1ER17wxCriticalSection
	.loc 10 776 10
	movq	-48(%rbp), %rax
	movq	64(%rax), %rax
	.loc 10 776 18
	movl	16(%rax), %eax
	.loc 10 776 5
	testl	%eax, %eax
	jne	.L66
	.loc 10 777 9
	movq	-48(%rbp), %rax
	movq	64(%rax), %rax
	.loc 10 777 26
	movq	$0, 8(%rax)
.L66:
	.loc 10 779 12
	movq	-88(%rbp), %rbx
	.loc 10 770 57
	leaq	-96(%rbp), %rax
	movq	%rax, %rcx
	call	_ZN23wxCriticalSectionLockerD1Ev
	.loc 10 779 12
	movq	%rbx, %rax
	.loc 10 780 1
	addq	$56, %rsp
	popq	%rbx
	.cfi_restore 3
	popq	%rbp
	.cfi_restore 6
	.cfi_def_cfa 7, -40
	ret
	.cfi_endproc
.LFE7825:
	.seh_endproc
	.section	.text$_ZN16wxTypeIdentifierC1EPKc,"x"
	.linkonce discard
	.align 2
	.globl	_ZN16wxTypeIdentifierC1EPKc
	.def	_ZN16wxTypeIdentifierC1EPKc;	.scl	2;	.type	32;	.endef
	.seh_proc	_ZN16wxTypeIdentifierC1EPKc
_ZN16wxTypeIdentifierC1EPKc:
.LFB7856:
	.file 11 "../wxMSW-3.0.5_gcc810_x64_Dev/include/wx/typeinfo.h"
	.loc 11 66 5
	.cfi_startproc
	pushq	%rbp
	.seh_pushreg	%rbp
	.cfi_def_cfa_offset 16
	.cfi_offset 6, -16
	movq	%rsp, %rbp
	.seh_setframe	%rbp, 0
	.cfi_def_cfa_register 6
	.seh_endprologue
	movq	%rcx, 16(%rbp)
	movq	%rdx, 24(%rbp)
.LBB23:
	.loc 11 68 21
	movq	16(%rbp), %rax
	movq	24(%rbp), %rdx
	movq	%rdx, (%rax)
.LBE23:
	.loc 11 69 5
	nop
	popq	%rbp
	.cfi_restore 6
	.cfi_def_cfa 7, 8
	ret
	.cfi_endproc
.LFE7856:
	.seh_endproc
	.section	.text$_ZN16wxTypeIdentifiereqERKS_,"x"
	.linkonce discard
	.align 2
	.globl	_ZN16wxTypeIdentifiereqERKS_
	.def	_ZN16wxTypeIdentifiereqERKS_;	.scl	2;	.type	32;	.endef
	.seh_proc	_ZN16wxTypeIdentifiereqERKS_
_ZN16wxTypeIdentifiereqERKS_:
.LFB7857:
	.loc 11 71 10
	.cfi_startproc
	pushq	%rbp
	.seh_pushreg	%rbp
	.cfi_def_cfa_offset 16
	.cfi_offset 6, -16
	movq	%rsp, %rbp
	.seh_setframe	%rbp, 0
	.cfi_def_cfa_register 6
	subq	$32, %rsp
	.seh_stackalloc	32
	.seh_endprologue
	movq	%rcx, 16(%rbp)
	movq	%rdx, 24(%rbp)
	.loc 11 73 42
	movq	24(%rbp), %rax
	movq	(%rax), %rdx
	.loc 11 73 22
	movq	16(%rbp), %rax
	movq	(%rax), %rax
	movq	%rax, %rcx
	call	strcmp
	.loc 11 73 58
	testl	%eax, %eax
	sete	%al
	.loc 11 74 5
	addq	$32, %rsp
	popq	%rbp
	.cfi_restore 6
	.cfi_def_cfa 7, 8
	ret
	.cfi_endproc
.LFE7857:
	.seh_endproc
	.section	.text$_ZNK20wxObjectEventFunctor10IsMatchingERK14wxEventFunctor,"x"
	.linkonce discard
	.align 2
	.globl	_ZNK20wxObjectEventFunctor10IsMatchingERK14wxEventFunctor
	.def	_ZNK20wxObjectEventFunctor10IsMatchingERK14wxEventFunctor;	.scl	2;	.type	32;	.endef
	.seh_proc	_ZNK20wxObjectEventFunctor10IsMatchingERK14wxEventFunctor
_ZNK20wxObjectEventFunctor10IsMatchingERK14wxEventFunctor:
.LFB8888:
	.file 12 "../wxMSW-3.0.5_gcc810_x64_Dev/include/wx/event.h"
	.loc 12 249 18
	.cfi_startproc
	pushq	%rbp
	.seh_pushreg	%rbp
	.cfi_def_cfa_offset 16
	.cfi_offset 6, -16
	movq	%rsp, %rbp
	.seh_setframe	%rbp, 0
	.cfi_def_cfa_register 6
	subq	$64, %rsp
	.seh_stackalloc	64
	.seh_endprologue
	movq	%rcx, 16(%rbp)
	movq	%rdx, 24(%rbp)
.LBB24:
	.loc 12 251 83
	movq	16(%rbp), %rax
	movq	(%rax), %rax
	subq	$8, %rax
	.loc 12 251 58
	movq	(%rax), %rax
	movq	%rax, %rcx
	call	_ZNKSt9type_info4nameEv
	movq	%rax, %rdx
	leaq	-24(%rbp), %rax
	movq	%rax, %rcx
	call	_ZN16wxTypeIdentifierC1EPKc
	.loc 12 251 38
	movq	24(%rbp), %rax
	movq	(%rax), %rax
	subq	$8, %rax
	.loc 12 251 14
	movq	(%rax), %rax
	movq	%rax, %rcx
	call	_ZNKSt9type_info4nameEv
	movq	%rax, %rdx
	leaq	-16(%rbp), %rax
	movq	%rax, %rcx
	call	_ZN16wxTypeIdentifierC1EPKc
	.loc 12 251 55
	leaq	-24(%rbp), %rdx
	leaq	-16(%rbp), %rax
	movq	%rax, %rcx
	call	_ZN16wxTypeIdentifiereqERKS_
	.loc 12 251 9
	testb	%al, %al
	je	.L72
.LBB25:
	.loc 12 253 41
	movq	24(%rbp), %rax
	movq	%rax, -8(%rbp)
	.loc 12 262 40
	movq	16(%rbp), %rax
	movq	16(%rax), %rdx
	movq	-8(%rbp), %rax
	movq	16(%rax), %rax
	.loc 12 262 74
	cmpq	%rax, %rdx
	jne	.L73
	.loc 12 262 40 discriminator 1
	movq	16(%rbp), %rax
	movq	24(%rax), %rdx
	movq	-8(%rbp), %rax
	movq	24(%rax), %rax
	.loc 12 262 31 discriminator 1
	cmpq	%rax, %rdx
	je	.L74
	.loc 12 262 40 discriminator 4
	movq	16(%rbp), %rax
	movq	16(%rax), %rax
	.loc 12 262 31 discriminator 4
	testq	%rax, %rax
	je	.L74
.L73:
	.loc 12 262 70 discriminator 6
	movq	-8(%rbp), %rax
	movq	16(%rax), %rax
	.loc 12 262 49 discriminator 6
	testq	%rax, %rax
	jne	.L75
.L74:
	.loc 12 263 22 discriminator 7
	movq	16(%rbp), %rax
	movq	8(%rax), %rdx
	.loc 12 263 41 discriminator 7
	movq	-8(%rbp), %rax
	movq	8(%rax), %rax
	.loc 12 262 74 discriminator 7
	cmpq	%rax, %rdx
	je	.L76
	.loc 12 263 60
	movq	-8(%rbp), %rax
	movq	8(%rax), %rax
	.loc 12 263 51
	testq	%rax, %rax
	jne	.L75
.L76:
	.loc 12 262 74 discriminator 9
	movl	$1, %eax
	.loc 12 263 77 discriminator 9
	jmp	.L78
.L75:
	.loc 12 262 74 discriminator 8
	movl	$0, %eax
	.loc 12 263 77 discriminator 8
	jmp	.L78
.L72:
.LBE25:
	.loc 12 266 20
	movl	$0, %eax
.L78:
.LBE24:
	.loc 12 267 5
	addq	$64, %rsp
	popq	%rbp
	.cfi_restore 6
	.cfi_def_cfa 7, 8
	ret
	.cfi_endproc
.LFE8888:
	.seh_endproc
	.section	.text$_ZNK20wxObjectEventFunctor13GetEvtHandlerEv,"x"
	.linkonce discard
	.align 2
	.globl	_ZNK20wxObjectEventFunctor13GetEvtHandlerEv
	.def	_ZNK20wxObjectEventFunctor13GetEvtHandlerEv;	.scl	2;	.type	32;	.endef
	.seh_proc	_ZNK20wxObjectEventFunctor13GetEvtHandlerEv
_ZNK20wxObjectEventFunctor13GetEvtHandlerEv:
.LFB8889:
	.loc 12 269 27
	.cfi_startproc
	pushq	%rbp
	.seh_pushreg	%rbp
	.cfi_def_cfa_offset 16
	.cfi_offset 6, -16
	movq	%rsp, %rbp
	.seh_setframe	%rbp, 0
	.cfi_def_cfa_register 6
	.seh_endprologue
	movq	%rcx, 16(%rbp)
	.loc 12 270 18
	movq	16(%rbp), %rax
	movq	8(%rax), %rax
	.loc 12 270 29
	popq	%rbp
	.cfi_restore 6
	.cfi_def_cfa 7, 8
	ret
	.cfi_endproc
.LFE8889:
	.seh_endproc
	.section	.text$_ZNK20wxObjectEventFunctor12GetEvtMethodEv,"x"
	.linkonce discard
	.align 2
	.globl	_ZNK20wxObjectEventFunctor12GetEvtMethodEv
	.def	_ZNK20wxObjectEventFunctor12GetEvtMethodEv;	.scl	2;	.type	32;	.endef
	.seh_proc	_ZNK20wxObjectEventFunctor12GetEvtMethodEv
_ZNK20wxObjectEventFunctor12GetEvtMethodEv:
.LFB8890:
	.loc 12 272 29
	.cfi_startproc
	pushq	%rbp
	.seh_pushreg	%rbp
	.cfi_def_cfa_offset 16
	.cfi_offset 6, -16
	movq	%rsp, %rbp
	.seh_setframe	%rbp, 0
	.cfi_def_cfa_register 6
	.seh_endprologue
	movq	%rcx, 16(%rbp)
	movq	%rdx, 24(%rbp)
	.loc 12 273 18
	movq	16(%rbp), %rcx
	movq	24(%rbp), %rax
	movq	24(%rax), %rdx
	movq	16(%rax), %rax
	movq	%rax, (%rcx)
	movq	%rdx, 8(%rcx)
	.loc 12 273 28
	movq	16(%rbp), %rax
	popq	%rbp
	.cfi_restore 6
	.cfi_def_cfa 7, 8
	ret
	.cfi_endproc
.LFE8890:
	.seh_endproc
	.section	.text$_ZN11wxGDIObjectC2ERKS_,"x"
	.linkonce discard
	.align 2
	.globl	_ZN11wxGDIObjectC2ERKS_
	.def	_ZN11wxGDIObjectC2ERKS_;	.scl	2;	.type	32;	.endef
	.seh_proc	_ZN11wxGDIObjectC2ERKS_
_ZN11wxGDIObjectC2ERKS_:
.LFB9127:
	.loc 9 41 7
	.cfi_startproc
	pushq	%rbp
	.seh_pushreg	%rbp
	.cfi_def_cfa_offset 16
	.cfi_offset 6, -16
	movq	%rsp, %rbp
	.seh_setframe	%rbp, 0
	.cfi_def_cfa_register 6
	subq	$32, %rsp
	.seh_stackalloc	32
	.seh_endprologue
	movq	%rcx, 16(%rbp)
	movq	%rdx, 24(%rbp)
.LBB26:
	.loc 9 41 7
	movq	16(%rbp), %rax
	movq	24(%rbp), %rdx
	movq	%rax, %rcx
	call	_ZN8wxObjectC2ERKS_
	movq	.refptr._ZTV11wxGDIObject(%rip), %rax
	leaq	16(%rax), %rdx
	movq	16(%rbp), %rax
	movq	%rdx, (%rax)
.LBE26:
	nop
	addq	$32, %rsp
	popq	%rbp
	.cfi_restore 6
	.cfi_def_cfa 7, 8
	ret
	.cfi_endproc
.LFE9127:
	.seh_endproc
	.section	.text$_ZN11wxGDIObjectaSERKS_,"x"
	.linkonce discard
	.align 2
	.globl	_ZN11wxGDIObjectaSERKS_
	.def	_ZN11wxGDIObjectaSERKS_;	.scl	2;	.type	32;	.endef
	.seh_proc	_ZN11wxGDIObjectaSERKS_
_ZN11wxGDIObjectaSERKS_:
.LFB9140:
	.loc 9 41 7
	.cfi_startproc
	pushq	%rbp
	.seh_pushreg	%rbp
	.cfi_def_cfa_offset 16
	.cfi_offset 6, -16
	movq	%rsp, %rbp
	.seh_setframe	%rbp, 0
	.cfi_def_cfa_register 6
	subq	$32, %rsp
	.seh_stackalloc	32
	.seh_endprologue
	movq	%rcx, 16(%rbp)
	movq	%rdx, 24(%rbp)
	.loc 9 41 7
	movq	16(%rbp), %rax
	movq	24(%rbp), %rdx
	movq	%rax, %rcx
	call	_ZN8wxObjectaSERKS_
	movq	16(%rbp), %rax
	addq	$32, %rsp
	popq	%rbp
	.cfi_restore 6
	.cfi_def_cfa 7, 8
	ret
	.cfi_endproc
.LFE9140:
	.seh_endproc
	.section	.text$_ZN20wxObjectEventFunctorclEP12wxEvtHandlerR7wxEvent,"x"
	.linkonce discard
	.align 2
	.globl	_ZN20wxObjectEventFunctorclEP12wxEvtHandlerR7wxEvent
	.def	_ZN20wxObjectEventFunctorclEP12wxEvtHandlerR7wxEvent;	.scl	2;	.type	32;	.endef
	.seh_proc	_ZN20wxObjectEventFunctorclEP12wxEvtHandlerR7wxEvent
_ZN20wxObjectEventFunctorclEP12wxEvtHandlerR7wxEvent:
.LFB9688:
	.loc 12 3775 1
	.cfi_startproc
	pushq	%rbp
	.seh_pushreg	%rbp
	.cfi_def_cfa_offset 16
	.cfi_offset 6, -16
	movq	%rsp, %rbp
	.seh_setframe	%rbp, 0
	.cfi_def_cfa_register 6
	subq	$48, %rsp
	.seh_stackalloc	48
	.seh_endprologue
	movq	%rcx, 16(%rbp)
	movq	%rdx, 24(%rbp)
	movq	%r8, 32(%rbp)
	.loc 12 3776 40
	movq	16(%rbp), %rax
	movq	8(%rax), %rax
	.loc 12 3776 50
	testq	%rax, %rax
	je	.L87
	.loc 12 3776 50 is_stmt 0 discriminator 1
	movq	16(%rbp), %rax
	movq	8(%rax), %rax
	jmp	.L88
.L87:
	.loc 12 3776 50 discriminator 2
	movq	24(%rbp), %rax
.L88:
	.loc 12 3776 26 is_stmt 1 discriminator 4
	movq	%rax, -8(%rbp)
	.loc 12 3778 35 discriminator 4
	movq	16(%rbp), %rax
	movq	24(%rax), %rax
	.loc 12 3778 29 discriminator 4
	movq	%rax, %rdx
	movq	-8(%rbp), %rax
	leaq	(%rdx,%rax), %rcx
	.loc 12 3778 35 discriminator 4
	movq	16(%rbp), %rax
	movq	16(%rax), %rax
	andl	$1, %eax
	testq	%rax, %rax
	je	.L89
	.loc 12 3778 35 is_stmt 0 discriminator 1
	movq	16(%rbp), %rax
	movq	24(%rax), %rax
	movq	%rax, %rdx
	movq	-8(%rbp), %rax
	addq	%rdx, %rax
	movq	(%rax), %rdx
	movq	16(%rbp), %rax
	movq	16(%rax), %rax
	subq	$1, %rax
	addq	%rdx, %rax
	movq	(%rax), %rax
	jmp	.L90
.L89:
	.loc 12 3778 35 discriminator 2
	movq	16(%rbp), %rax
	movq	16(%rax), %rax
.L90:
	.loc 12 3778 29 is_stmt 1 discriminator 4
	movq	32(%rbp), %rdx
	call	*%rax
.LVL4:
	.loc 12 3779 1 discriminator 4
	nop
	addq	$48, %rsp
	popq	%rbp
	.cfi_restore 6
	.cfi_def_cfa 7, 8
	ret
	.cfi_endproc
.LFE9688:
	.seh_endproc
	.section .rdata,"dr"
_ZL19wxALPHA_TRANSPARENT:
	.space 1
_ZL14wxALPHA_OPAQUE:
	.byte	-1
	.section	.text$_ZN12wxColourBaseC2Ev,"x"
	.linkonce discard
	.align 2
	.globl	_ZN12wxColourBaseC2Ev
	.def	_ZN12wxColourBaseC2Ev;	.scl	2;	.type	32;	.endef
	.seh_proc	_ZN12wxColourBaseC2Ev
_ZN12wxColourBaseC2Ev:
.LFB9797:
	.file 13 "../wxMSW-3.0.5_gcc810_x64_Dev/include/wx/colour.h"
	.loc 13 85 5
	.cfi_startproc
	pushq	%rbp
	.seh_pushreg	%rbp
	.cfi_def_cfa_offset 16
	.cfi_offset 6, -16
	movq	%rsp, %rbp
	.seh_setframe	%rbp, 0
	.cfi_def_cfa_register 6
	subq	$32, %rsp
	.seh_stackalloc	32
	.seh_endprologue
	movq	%rcx, 16(%rbp)
.LBB27:
	.loc 13 85 20
	movq	16(%rbp), %rax
	movq	%rax, %rcx
	call	_ZN8wxObjectC2Ev
	movq	.refptr._ZTV12wxColourBase(%rip), %rax
	leaq	16(%rax), %rdx
	movq	16(%rbp), %rax
	movq	%rdx, (%rax)
.LBE27:
	.loc 13 85 21
	nop
	addq	$32, %rsp
	popq	%rbp
	.cfi_restore 6
	.cfi_def_cfa 7, 8
	ret
	.cfi_endproc
.LFE9797:
	.seh_endproc
	.section	.text$_ZN12wxColourBaseD2Ev,"x"
	.linkonce discard
	.align 2
	.globl	_ZN12wxColourBaseD2Ev
	.def	_ZN12wxColourBaseD2Ev;	.scl	2;	.type	32;	.endef
	.seh_proc	_ZN12wxColourBaseD2Ev
_ZN12wxColourBaseD2Ev:
.LFB9800:
	.loc 13 86 13
	.cfi_startproc
	pushq	%rbp
	.seh_pushreg	%rbp
	.cfi_def_cfa_offset 16
	.cfi_offset 6, -16
	movq	%rsp, %rbp
	.seh_setframe	%rbp, 0
	.cfi_def_cfa_register 6
	subq	$32, %rsp
	.seh_stackalloc	32
	.seh_endprologue
	movq	%rcx, 16(%rbp)
.LBB28:
	.loc 13 86 29
	movq	.refptr._ZTV12wxColourBase(%rip), %rax
	leaq	16(%rax), %rdx
	movq	16(%rbp), %rax
	movq	%rdx, (%rax)
	movq	16(%rbp), %rax
	movq	%rax, %rcx
	call	_ZN8wxObjectD2Ev
.LBE28:
	.loc 13 86 30
	nop
	addq	$32, %rsp
	popq	%rbp
	.cfi_restore 6
	.cfi_def_cfa 7, 8
	ret
	.cfi_endproc
.LFE9800:
	.seh_endproc
	.section	.text$_ZN12wxColourBase3SetEhhhh,"x"
	.linkonce discard
	.align 2
	.globl	_ZN12wxColourBase3SetEhhhh
	.def	_ZN12wxColourBase3SetEhhhh;	.scl	2;	.type	32;	.endef
	.seh_proc	_ZN12wxColourBase3SetEhhhh
_ZN12wxColourBase3SetEhhhh:
.LFB9803:
	.loc 13 92 10
	.cfi_startproc
	pushq	%rbp
	.seh_pushreg	%rbp
	.cfi_def_cfa_offset 16
	.cfi_offset 6, -16
	movq	%rsp, %rbp
	.seh_setframe	%rbp, 0
	.cfi_def_cfa_register 6
	subq	$64, %rsp
	.seh_stackalloc	64
	.seh_endprologue
	movq	%rcx, 16(%rbp)
	movl	%edx, %eax
	movl	%r9d, %ecx
	movl	48(%rbp), %edx
	movb	%al, 24(%rbp)
	movl	%r8d, %eax
	movb	%al, 32(%rbp)
	movl	%ecx, %eax
	movb	%al, 40(%rbp)
	movl	%edx, %eax
	movb	%al, -4(%rbp)
	.loc 13 96 43
	movq	16(%rbp), %rax
	movq	(%rax), %rax
	addq	$88, %rax
	movq	(%rax), %r10
	.loc 13 96 19
	movzbl	-4(%rbp), %edx
	movzbl	40(%rbp), %r8d
	movzbl	32(%rbp), %ecx
	movzbl	24(%rbp), %eax
	movl	%edx, 32(%rsp)
	movl	%r8d, %r9d
	movl	%ecx, %r8d
	movl	%eax, %edx
	movq	16(%rbp), %rcx
	call	*%r10
.LVL5:
	.loc 13 96 46
	nop
	addq	$64, %rsp
	popq	%rbp
	.cfi_restore 6
	.cfi_def_cfa 7, 8
	ret
	.cfi_endproc
.LFE9803:
	.seh_endproc
	.section	.text$_ZN8wxColourC1Ehhhh,"x"
	.linkonce discard
	.align 2
	.globl	_ZN8wxColourC1Ehhhh
	.def	_ZN8wxColourC1Ehhhh;	.scl	2;	.type	32;	.endef
	.seh_proc	_ZN8wxColourC1Ehhhh
_ZN8wxColourC1Ehhhh:
.LFB9818:
	.file 14 "../wxMSW-3.0.5_gcc810_x64_Dev/include/wx/msw/colour.h"
	.loc 14 25 28
	.cfi_startproc
	pushq	%rbp
	.seh_pushreg	%rbp
	.cfi_def_cfa_offset 16
	.cfi_offset 6, -16
	pushq	%rbx
	.seh_pushreg	%rbx
	.cfi_def_cfa_offset 24
	.cfi_offset 3, -24
	subq	$72, %rsp
	.seh_stackalloc	72
	.cfi_def_cfa_offset 96
	leaq	128(%rsp), %rbp
	.seh_setframe	%rbp, 128
	.cfi_def_cfa 6, -32
	.seh_endprologue
	movq	%rcx, -32(%rbp)
	movl	%edx, %eax
	movl	%r9d, %ecx
	movl	0(%rbp), %edx
	movb	%al, -24(%rbp)
	movl	%r8d, %eax
	movb	%al, -16(%rbp)
	movl	%ecx, %eax
	movb	%al, -8(%rbp)
	movl	%edx, %eax
	movb	%al, -68(%rbp)
.LBB29:
	.loc 14 25 127
	movq	-32(%rbp), %rax
	movq	%rax, %rcx
	call	_ZN12wxColourBaseC2Ev
	movq	.refptr._ZTV8wxColour(%rip), %rax
	leaq	16(%rax), %rdx
	movq	-32(%rbp), %rax
	movq	%rdx, (%rax)
	.loc 14 25 133
	movq	-32(%rbp), %rcx
.LEHB5:
	call	_ZN8wxColour4InitEv
	.loc 14 25 140 discriminator 2
	movq	-32(%rbp), %rcx
	movzbl	-68(%rbp), %edx
	movzbl	-8(%rbp), %r9d
	movzbl	-16(%rbp), %r8d
	movzbl	-24(%rbp), %eax
	movl	%edx, 32(%rsp)
	movl	%eax, %edx
	call	_ZN12wxColourBase3SetEhhhh
.LEHE5:
.LBE29:
	.loc 14 25 167
	jmp	.L97
.L96:
	movq	%rax, %rbx
.LBB30:
	.loc 14 25 127
	movq	-32(%rbp), %rax
	movq	%rax, %rcx
	call	_ZN12wxColourBaseD2Ev
	movq	%rbx, %rax
	movq	%rax, %rcx
.LEHB6:
	call	_Unwind_Resume
	nop
.LEHE6:
.L97:
.LBE30:
	.loc 14 25 167
	addq	$72, %rsp
	popq	%rbx
	.cfi_restore 3
	popq	%rbp
	.cfi_restore 6
	.cfi_def_cfa 7, -56
	ret
	.cfi_endproc
.LFE9818:
	.seh_handler	__gxx_personality_seh0, @unwind, @except
	.seh_handlerdata
.LLSDA9818:
	.byte	0xff
	.byte	0xff
	.byte	0x1
	.uleb128 .LLSDACSE9818-.LLSDACSB9818
.LLSDACSB9818:
	.uleb128 .LEHB5-.LFB9818
	.uleb128 .LEHE5-.LEHB5
	.uleb128 .L96-.LFB9818
	.uleb128 0
	.uleb128 .LEHB6-.LFB9818
	.uleb128 .LEHE6-.LEHB6
	.uleb128 0
	.uleb128 0
.LLSDACSE9818:
	.section	.text$_ZN8wxColourC1Ehhhh,"x"
	.linkonce discard
	.seh_endproc
	.section	.text$_ZNK12wxWindowBase7GetSizeEPiS0_,"x"
	.linkonce discard
	.align 2
	.globl	_ZNK12wxWindowBase7GetSizeEPiS0_
	.def	_ZNK12wxWindowBase7GetSizeEPiS0_;	.scl	2;	.type	32;	.endef
	.seh_proc	_ZNK12wxWindowBase7GetSizeEPiS0_
_ZNK12wxWindowBase7GetSizeEPiS0_:
.LFB10161:
	.file 15 "../wxMSW-3.0.5_gcc810_x64_Dev/include/wx/window.h"
	.loc 15 323 10
	.cfi_startproc
	pushq	%rbp
	.seh_pushreg	%rbp
	.cfi_def_cfa_offset 16
	.cfi_offset 6, -16
	movq	%rsp, %rbp
	.seh_setframe	%rbp, 0
	.cfi_def_cfa_register 6
	subq	$32, %rsp
	.seh_stackalloc	32
	.seh_endprologue
	movq	%rcx, 16(%rbp)
	movq	%rdx, 24(%rbp)
	movq	%r8, 32(%rbp)
	.loc 15 323 58
	movq	16(%rbp), %rax
	movq	(%rax), %rax
	addq	$1320, %rax
	movq	(%rax), %rax
	.loc 15 323 53
	movq	32(%rbp), %rcx
	movq	24(%rbp), %rdx
	movq	%rcx, %r8
	movq	16(%rbp), %rcx
	call	*%rax
.LVL6:
	.loc 15 323 61
	nop
	addq	$32, %rsp
	popq	%rbp
	.cfi_restore 6
	.cfi_def_cfa 7, 8
	ret
	.cfi_endproc
.LFE10161:
	.seh_endproc
	.section	.text$_ZN12wxColourBaseC2ERKS_,"x"
	.linkonce discard
	.align 2
	.globl	_ZN12wxColourBaseC2ERKS_
	.def	_ZN12wxColourBaseC2ERKS_;	.scl	2;	.type	32;	.endef
	.seh_proc	_ZN12wxColourBaseC2ERKS_
_ZN12wxColourBaseC2ERKS_:
.LFB10269:
	.loc 13 74 7
	.cfi_startproc
	pushq	%rbp
	.seh_pushreg	%rbp
	.cfi_def_cfa_offset 16
	.cfi_offset 6, -16
	movq	%rsp, %rbp
	.seh_setframe	%rbp, 0
	.cfi_def_cfa_register 6
	subq	$32, %rsp
	.seh_stackalloc	32
	.seh_endprologue
	movq	%rcx, 16(%rbp)
	movq	%rdx, 24(%rbp)
.LBB31:
	.loc 13 74 7
	movq	16(%rbp), %rax
	movq	24(%rbp), %rdx
	movq	%rax, %rcx
	call	_ZN8wxObjectC2ERKS_
	movq	.refptr._ZTV12wxColourBase(%rip), %rax
	leaq	16(%rax), %rdx
	movq	16(%rbp), %rax
	movq	%rdx, (%rax)
.LBE31:
	nop
	addq	$32, %rsp
	popq	%rbp
	.cfi_restore 6
	.cfi_def_cfa 7, 8
	ret
	.cfi_endproc
.LFE10269:
	.seh_endproc
	.section .rdata,"dr"
	.align 4
_ZL5wxEOF:
	.long	-1
_ZL25wxIMAGE_ALPHA_TRANSPARENT:
	.space 1
_ZL23wxIMAGE_ALPHA_THRESHOLD:
	.byte	-128
_ZL20wxIMAGE_ALPHA_OPAQUE:
	.byte	-1
	.section	.text$_ZN9wxPenBaseD2Ev,"x"
	.linkonce discard
	.align 2
	.globl	_ZN9wxPenBaseD2Ev
	.def	_ZN9wxPenBaseD2Ev;	.scl	2;	.type	32;	.endef
	.seh_proc	_ZN9wxPenBaseD2Ev
_ZN9wxPenBaseD2Ev:
.LFB11328:
	.file 16 "../wxMSW-3.0.5_gcc810_x64_Dev/include/wx/pen.h"
	.loc 16 66 13
	.cfi_startproc
	pushq	%rbp
	.seh_pushreg	%rbp
	.cfi_def_cfa_offset 16
	.cfi_offset 6, -16
	movq	%rsp, %rbp
	.seh_setframe	%rbp, 0
	.cfi_def_cfa_register 6
	subq	$32, %rsp
	.seh_stackalloc	32
	.seh_endprologue
	movq	%rcx, 16(%rbp)
.LBB32:
	.loc 16 66 26
	leaq	16+_ZTV9wxPenBase(%rip), %rdx
	movq	16(%rbp), %rax
	movq	%rdx, (%rax)
	movq	16(%rbp), %rax
	movq	%rax, %rcx
	call	_ZN11wxGDIObjectD2Ev
.LBE32:
	.loc 16 66 28
	nop
	addq	$32, %rsp
	popq	%rbp
	.cfi_restore 6
	.cfi_def_cfa 7, 8
	ret
	.cfi_endproc
.LFE11328:
	.seh_endproc
	.section	.text$_ZN5wxPenD1Ev,"x"
	.linkonce discard
	.align 2
	.globl	_ZN5wxPenD1Ev
	.def	_ZN5wxPenD1Ev;	.scl	2;	.type	32;	.endef
	.seh_proc	_ZN5wxPenD1Ev
_ZN5wxPenD1Ev:
.LFB11341:
	.file 17 "../wxMSW-3.0.5_gcc810_x64_Dev/include/wx/msw/pen.h"
	.loc 17 31 13
	.cfi_startproc
	pushq	%rbp
	.seh_pushreg	%rbp
	.cfi_def_cfa_offset 16
	.cfi_offset 6, -16
	movq	%rsp, %rbp
	.seh_setframe	%rbp, 0
	.cfi_def_cfa_register 6
	subq	$32, %rsp
	.seh_stackalloc	32
	.seh_endprologue
	movq	%rcx, 16(%rbp)
.LBB33:
	.loc 17 31 22
	movq	.refptr._ZTV5wxPen(%rip), %rax
	leaq	16(%rax), %rdx
	movq	16(%rbp), %rax
	movq	%rdx, (%rax)
	movq	16(%rbp), %rax
	movq	%rax, %rcx
	call	_ZN9wxPenBaseD2Ev
.LBE33:
	.loc 17 31 24
	nop
	addq	$32, %rsp
	popq	%rbp
	.cfi_restore 6
	.cfi_def_cfa 7, 8
	ret
	.cfi_endproc
.LFE11341:
	.seh_endproc
	.section	.text$_ZN9wxPenBaseC2ERKS_,"x"
	.linkonce discard
	.align 2
	.globl	_ZN9wxPenBaseC2ERKS_
	.def	_ZN9wxPenBaseC2ERKS_;	.scl	2;	.type	32;	.endef
	.seh_proc	_ZN9wxPenBaseC2ERKS_
_ZN9wxPenBaseC2ERKS_:
.LFB11840:
	.loc 16 63 7
	.cfi_startproc
	pushq	%rbp
	.seh_pushreg	%rbp
	.cfi_def_cfa_offset 16
	.cfi_offset 6, -16
	movq	%rsp, %rbp
	.seh_setframe	%rbp, 0
	.cfi_def_cfa_register 6
	subq	$32, %rsp
	.seh_stackalloc	32
	.seh_endprologue
	movq	%rcx, 16(%rbp)
	movq	%rdx, 24(%rbp)
.LBB34:
	.loc 16 63 7
	movq	16(%rbp), %rax
	movq	24(%rbp), %rdx
	movq	%rax, %rcx
	call	_ZN11wxGDIObjectC2ERKS_
	leaq	16+_ZTV9wxPenBase(%rip), %rdx
	movq	16(%rbp), %rax
	movq	%rdx, (%rax)
.LBE34:
	nop
	addq	$32, %rsp
	popq	%rbp
	.cfi_restore 6
	.cfi_def_cfa 7, 8
	ret
	.cfi_endproc
.LFE11840:
	.seh_endproc
	.section	.text$_ZN5wxPenC1ERKS_,"x"
	.linkonce discard
	.align 2
	.globl	_ZN5wxPenC1ERKS_
	.def	_ZN5wxPenC1ERKS_;	.scl	2;	.type	32;	.endef
	.seh_proc	_ZN5wxPenC1ERKS_
_ZN5wxPenC1ERKS_:
.LFB11843:
	.loc 17 21 7
	.cfi_startproc
	pushq	%rbp
	.seh_pushreg	%rbp
	.cfi_def_cfa_offset 16
	.cfi_offset 6, -16
	movq	%rsp, %rbp
	.seh_setframe	%rbp, 0
	.cfi_def_cfa_register 6
	subq	$32, %rsp
	.seh_stackalloc	32
	.seh_endprologue
	movq	%rcx, 16(%rbp)
	movq	%rdx, 24(%rbp)
.LBB35:
	.loc 17 21 7
	movq	16(%rbp), %rax
	movq	24(%rbp), %rdx
	movq	%rax, %rcx
	call	_ZN9wxPenBaseC2ERKS_
	movq	.refptr._ZTV5wxPen(%rip), %rax
	leaq	16(%rax), %rdx
	movq	16(%rbp), %rax
	movq	%rdx, (%rax)
.LBE35:
	nop
	addq	$32, %rsp
	popq	%rbp
	.cfi_restore 6
	.cfi_def_cfa 7, 8
	ret
	.cfi_endproc
.LFE11843:
	.seh_endproc
	.section .rdata,"dr"
	.align 4
_ZL20wxPRINTMEDIA_DEFAULT:
	.space 4
	.section	.text$_ZSt16__deque_buf_sizey,"x"
	.linkonce discard
	.globl	_ZSt16__deque_buf_sizey
	.def	_ZSt16__deque_buf_sizey;	.scl	2;	.type	32;	.endef
	.seh_proc	_ZSt16__deque_buf_sizey
_ZSt16__deque_buf_sizey:
.LFB17058:
	.file 18 "C:/Program Files/CodeBlocks/MinGW/lib/gcc/x86_64-w64-mingw32/8.1.0/include/c++/bits/stl_deque.h"
	.loc 18 93 3
	.cfi_startproc
	pushq	%rbp
	.seh_pushreg	%rbp
	.cfi_def_cfa_offset 16
	.cfi_offset 6, -16
	movq	%rsp, %rbp
	.seh_setframe	%rbp, 0
	.cfi_def_cfa_register 6
	.seh_endprologue
	movq	%rcx, 16(%rbp)
	.loc 18 94 6
	cmpq	$511, 16(%rbp)
	ja	.L105
	.loc 18 94 6 is_stmt 0 discriminator 1
	movl	$512, %eax
	movl	$0, %edx
	divq	16(%rbp)
	.loc 18 94 40 is_stmt 1 discriminator 1
	jmp	.L107
.L105:
	.loc 18 94 6 discriminator 2
	movl	$1, %eax
.L107:
	.loc 18 94 43 discriminator 5
	popq	%rbp
	.cfi_restore 6
	.cfi_def_cfa 7, 8
	ret
	.cfi_endproc
.LFE17058:
	.seh_endproc
	.section	.text$_ZN7mpLayer13SetContinuityEb,"x"
	.linkonce discard
	.align 2
	.globl	_ZN7mpLayer13SetContinuityEb
	.def	_ZN7mpLayer13SetContinuityEb;	.scl	2;	.type	32;	.endef
	.seh_proc	_ZN7mpLayer13SetContinuityEb
_ZN7mpLayer13SetContinuityEb:
.LFB17253:
	.file 19 "../wxMathPlotWin/mathplot.h"
	.loc 19 249 10
	.cfi_startproc
	pushq	%rbp
	.seh_pushreg	%rbp
	.cfi_def_cfa_offset 16
	.cfi_offset 6, -16
	movq	%rsp, %rbp
	.seh_setframe	%rbp, 0
	.cfi_def_cfa_register 6
	.seh_endprologue
	movq	%rcx, 16(%rbp)
	movl	%edx, %eax
	movb	%al, 24(%rbp)
	.loc 19 249 55
	movq	16(%rbp), %rdx
	movzbl	24(%rbp), %eax
	movb	%al, 112(%rdx)
	.loc 19 249 68
	nop
	popq	%rbp
	.cfi_restore 6
	.cfi_def_cfa 7, 8
	ret
	.cfi_endproc
.LFE17253:
	.seh_endproc
	.section	.text$_ZN7mpLayer8ShowNameEb,"x"
	.linkonce discard
	.align 2
	.globl	_ZN7mpLayer8ShowNameEb
	.def	_ZN7mpLayer8ShowNameEb;	.scl	2;	.type	32;	.endef
	.seh_proc	_ZN7mpLayer8ShowNameEb
_ZN7mpLayer8ShowNameEb:
.LFB17255:
	.loc 19 258 10
	.cfi_startproc
	pushq	%rbp
	.seh_pushreg	%rbp
	.cfi_def_cfa_offset 16
	.cfi_offset 6, -16
	movq	%rsp, %rbp
	.seh_setframe	%rbp, 0
	.cfi_def_cfa_register 6
	.seh_endprologue
	movq	%rcx, 16(%rbp)
	movl	%edx, %eax
	movb	%al, 24(%rbp)
	.loc 19 258 43
	movq	16(%rbp), %rdx
	movzbl	24(%rbp), %eax
	movb	%al, 113(%rdx)
	.loc 19 258 51
	nop
	popq	%rbp
	.cfi_restore 6
	.cfi_def_cfa 7, 8
	ret
	.cfi_endproc
.LFE17255:
	.seh_endproc
	.section	.text$_ZN7mpLayer6SetPenE5wxPen,"x"
	.linkonce discard
	.align 2
	.globl	_ZN7mpLayer6SetPenE5wxPen
	.def	_ZN7mpLayer6SetPenE5wxPen;	.scl	2;	.type	32;	.endef
	.seh_proc	_ZN7mpLayer6SetPenE5wxPen
_ZN7mpLayer6SetPenE5wxPen:
.LFB17258:
	.loc 19 273 10
	.cfi_startproc
	pushq	%rbp
	.seh_pushreg	%rbp
	.cfi_def_cfa_offset 16
	.cfi_offset 6, -16
	movq	%rsp, %rbp
	.seh_setframe	%rbp, 0
	.cfi_def_cfa_register 6
	subq	$32, %rsp
	.seh_stackalloc	32
	.seh_endprologue
	movq	%rcx, 16(%rbp)
	movq	%rdx, 24(%rbp)
	.loc 19 273 38
	movq	16(%rbp), %rax
	addq	$32, %rax
	movq	24(%rbp), %rdx
	movq	%rax, %rcx
	call	_ZN5wxPenaSERKS_
	.loc 19 273 43
	nop
	addq	$32, %rsp
	popq	%rbp
	.cfi_restore 6
	.cfi_def_cfa 7, 8
	ret
	.cfi_endproc
.LFE17258:
	.seh_endproc
	.section	.text$_ZN9wxPenBaseaSERKS_,"x"
	.linkonce discard
	.align 2
	.globl	_ZN9wxPenBaseaSERKS_
	.def	_ZN9wxPenBaseaSERKS_;	.scl	2;	.type	32;	.endef
	.seh_proc	_ZN9wxPenBaseaSERKS_
_ZN9wxPenBaseaSERKS_:
.LFB17260:
	.loc 16 63 7
	.cfi_startproc
	pushq	%rbp
	.seh_pushreg	%rbp
	.cfi_def_cfa_offset 16
	.cfi_offset 6, -16
	movq	%rsp, %rbp
	.seh_setframe	%rbp, 0
	.cfi_def_cfa_register 6
	subq	$32, %rsp
	.seh_stackalloc	32
	.seh_endprologue
	movq	%rcx, 16(%rbp)
	movq	%rdx, 24(%rbp)
	.loc 16 63 7
	movq	16(%rbp), %rax
	movq	24(%rbp), %rdx
	movq	%rax, %rcx
	call	_ZN11wxGDIObjectaSERKS_
	movq	16(%rbp), %rax
	addq	$32, %rsp
	popq	%rbp
	.cfi_restore 6
	.cfi_def_cfa 7, 8
	ret
	.cfi_endproc
.LFE17260:
	.seh_endproc
	.section	.text$_ZN5wxPenaSERKS_,"x"
	.linkonce discard
	.align 2
	.globl	_ZN5wxPenaSERKS_
	.def	_ZN5wxPenaSERKS_;	.scl	2;	.type	32;	.endef
	.seh_proc	_ZN5wxPenaSERKS_
_ZN5wxPenaSERKS_:
.LFB17259:
	.loc 17 21 7
	.cfi_startproc
	pushq	%rbp
	.seh_pushreg	%rbp
	.cfi_def_cfa_offset 16
	.cfi_offset 6, -16
	movq	%rsp, %rbp
	.seh_setframe	%rbp, 0
	.cfi_def_cfa_register 6
	subq	$32, %rsp
	.seh_stackalloc	32
	.seh_endprologue
	movq	%rcx, 16(%rbp)
	movq	%rdx, 24(%rbp)
	.loc 17 21 7
	movq	16(%rbp), %rax
	movq	24(%rbp), %rdx
	movq	%rax, %rcx
	call	_ZN9wxPenBaseaSERKS_
	movq	16(%rbp), %rax
	addq	$32, %rsp
	popq	%rbp
	.cfi_restore 6
	.cfi_def_cfa 7, 8
	ret
	.cfi_endproc
.LFE17259:
	.seh_endproc
	.section	.text$_ZN7mpLayer21SetDrawOutsideMarginsEb,"x"
	.linkonce discard
	.align 2
	.globl	_ZN7mpLayer21SetDrawOutsideMarginsEb
	.def	_ZN7mpLayer21SetDrawOutsideMarginsEb;	.scl	2;	.type	32;	.endef
	.seh_proc	_ZN7mpLayer21SetDrawOutsideMarginsEb
_ZN7mpLayer21SetDrawOutsideMarginsEb:
.LFB17261:
	.loc 19 277 10
	.cfi_startproc
	pushq	%rbp
	.seh_pushreg	%rbp
	.cfi_def_cfa_offset 16
	.cfi_offset 6, -16
	movq	%rsp, %rbp
	.seh_setframe	%rbp, 0
	.cfi_def_cfa_register 6
	.seh_endprologue
	movq	%rcx, 16(%rbp)
	movl	%edx, %eax
	movb	%al, 24(%rbp)
	.loc 19 277 77
	movq	16(%rbp), %rdx
	movzbl	24(%rbp), %eax
	movb	%al, 114(%rdx)
	.loc 19 277 96
	nop
	popq	%rbp
	.cfi_restore 6
	.cfi_def_cfa 7, 8
	ret
	.cfi_endproc
.LFE17261:
	.seh_endproc
	.section	.text$_ZN7mpLayer10SetVisibleEb,"x"
	.linkonce discard
	.align 2
	.globl	_ZN7mpLayer10SetVisibleEb
	.def	_ZN7mpLayer10SetVisibleEb;	.scl	2;	.type	32;	.endef
	.seh_proc	_ZN7mpLayer10SetVisibleEb
_ZN7mpLayer10SetVisibleEb:
.LFB17265:
	.loc 19 298 10
	.cfi_startproc
	pushq	%rbp
	.seh_pushreg	%rbp
	.cfi_def_cfa_offset 16
	.cfi_offset 6, -16
	movq	%rsp, %rbp
	.seh_setframe	%rbp, 0
	.cfi_def_cfa_register 6
	.seh_endprologue
	movq	%rcx, 16(%rbp)
	movl	%edx, %eax
	movb	%al, 24(%rbp)
	.loc 19 298 44
	movq	16(%rbp), %rdx
	movzbl	24(%rbp), %eax
	movb	%al, 120(%rdx)
	.loc 19 298 52
	nop
	popq	%rbp
	.cfi_restore 6
	.cfi_def_cfa 7, 8
	ret
	.cfi_endproc
.LFE17265:
	.seh_endproc
	.section	.text$_ZN8mpScaleX8SetTicksEb,"x"
	.linkonce discard
	.align 2
	.globl	_ZN8mpScaleX8SetTicksEb
	.def	_ZN8mpScaleX8SetTicksEb;	.scl	2;	.type	32;	.endef
	.seh_proc	_ZN8mpScaleX8SetTicksEb
_ZN8mpScaleX8SetTicksEb:
.LFB17275:
	.loc 19 699 10
	.cfi_startproc
	pushq	%rbp
	.seh_pushreg	%rbp
	.cfi_def_cfa_offset 16
	.cfi_offset 6, -16
	movq	%rsp, %rbp
	.seh_setframe	%rbp, 0
	.cfi_def_cfa_register 6
	.seh_endprologue
	movq	%rcx, 16(%rbp)
	movl	%edx, %eax
	movb	%al, 24(%rbp)
	.loc 19 699 41
	movq	16(%rbp), %rdx
	movzbl	24(%rbp), %eax
	movb	%al, 128(%rdx)
	.loc 19 699 50
	nop
	popq	%rbp
	.cfi_restore 6
	.cfi_def_cfa 7, 8
	ret
	.cfi_endproc
.LFE17275:
	.seh_endproc
	.section	.text$_ZN8mpScaleY8SetTicksEb,"x"
	.linkonce discard
	.align 2
	.globl	_ZN8mpScaleY8SetTicksEb
	.def	_ZN8mpScaleY8SetTicksEb;	.scl	2;	.type	32;	.endef
	.seh_proc	_ZN8mpScaleY8SetTicksEb
_ZN8mpScaleY8SetTicksEb:
.LFB17283:
	.loc 19 760 10
	.cfi_startproc
	pushq	%rbp
	.seh_pushreg	%rbp
	.cfi_def_cfa_offset 16
	.cfi_offset 6, -16
	movq	%rsp, %rbp
	.seh_setframe	%rbp, 0
	.cfi_def_cfa_register 6
	.seh_endprologue
	movq	%rcx, 16(%rbp)
	movl	%edx, %eax
	movb	%al, 24(%rbp)
	.loc 19 760 41
	movq	16(%rbp), %rdx
	movzbl	24(%rbp), %eax
	movb	%al, 128(%rdx)
	.loc 19 760 50
	nop
	popq	%rbp
	.cfi_restore 6
	.cfi_def_cfa 7, 8
	ret
	.cfi_endproc
.LFE17283:
	.seh_endproc
	.section	.text$_ZN8mpWindow14CountAllLayersEv,"x"
	.linkonce discard
	.align 2
	.globl	_ZN8mpWindow14CountAllLayersEv
	.def	_ZN8mpWindow14CountAllLayersEv;	.scl	2;	.type	32;	.endef
	.seh_proc	_ZN8mpWindow14CountAllLayersEv
_ZN8mpWindow14CountAllLayersEv:
.LFB17315:
	.loc 19 1044 18
	.cfi_startproc
	pushq	%rbp
	.seh_pushreg	%rbp
	.cfi_def_cfa_offset 16
	.cfi_offset 6, -16
	movq	%rsp, %rbp
	.seh_setframe	%rbp, 0
	.cfi_def_cfa_register 6
	subq	$32, %rsp
	.seh_stackalloc	32
	.seh_endprologue
	movq	%rcx, 16(%rbp)
	.loc 19 1044 57
	movq	16(%rbp), %rax
	addq	$576, %rax
	movq	%rax, %rcx
	call	_ZNKSt5dequeIP7mpLayerSaIS1_EE4sizeEv
	.loc 19 1044 61
	addq	$32, %rsp
	popq	%rbp
	.cfi_restore 6
	.cfi_def_cfa 7, 8
	ret
	.cfi_endproc
.LFE17315:
	.seh_endproc
	.section	.text$_ZN8mpWindow14SetMarginRightEi,"x"
	.linkonce discard
	.align 2
	.globl	_ZN8mpWindow14SetMarginRightEi
	.def	_ZN8mpWindow14SetMarginRightEi;	.scl	2;	.type	32;	.endef
	.seh_proc	_ZN8mpWindow14SetMarginRightEi
_ZN8mpWindow14SetMarginRightEi:
.LFB17322:
	.loc 19 1104 10
	.cfi_startproc
	pushq	%rbp
	.seh_pushreg	%rbp
	.cfi_def_cfa_offset 16
	.cfi_offset 6, -16
	movq	%rsp, %rbp
	.seh_setframe	%rbp, 0
	.cfi_def_cfa_register 6
	.seh_endprologue
	movq	%rcx, 16(%rbp)
	movl	%edx, 24(%rbp)
	.loc 19 1104 52
	movq	16(%rbp), %rax
	movl	24(%rbp), %edx
	movl	%edx, 1196(%rax)
	.loc 19 1104 61
	nop
	popq	%rbp
	.cfi_restore 6
	.cfi_def_cfa 7, 8
	ret
	.cfi_endproc
.LFE17322:
	.seh_endproc
	.section	.text$_ZN8mpWindow15SetMarginBottomEi,"x"
	.linkonce discard
	.align 2
	.globl	_ZN8mpWindow15SetMarginBottomEi
	.def	_ZN8mpWindow15SetMarginBottomEi;	.scl	2;	.type	32;	.endef
	.seh_proc	_ZN8mpWindow15SetMarginBottomEi
_ZN8mpWindow15SetMarginBottomEi:
.LFB17323:
	.loc 19 1106 10
	.cfi_startproc
	pushq	%rbp
	.seh_pushreg	%rbp
	.cfi_def_cfa_offset 16
	.cfi_offset 6, -16
	movq	%rsp, %rbp
	.seh_setframe	%rbp, 0
	.cfi_def_cfa_register 6
	.seh_endprologue
	movq	%rcx, 16(%rbp)
	movl	%edx, 24(%rbp)
	.loc 19 1106 55
	movq	16(%rbp), %rax
	movl	24(%rbp), %edx
	movl	%edx, 1200(%rax)
	.loc 19 1106 65
	nop
	popq	%rbp
	.cfi_restore 6
	.cfi_def_cfa 7, 8
	ret
	.cfi_endproc
.LFE17323:
	.seh_endproc
	.section	.text$_ZN8mpWindow13SetMarginLeftEi,"x"
	.linkonce discard
	.align 2
	.globl	_ZN8mpWindow13SetMarginLeftEi
	.def	_ZN8mpWindow13SetMarginLeftEi;	.scl	2;	.type	32;	.endef
	.seh_proc	_ZN8mpWindow13SetMarginLeftEi
_ZN8mpWindow13SetMarginLeftEi:
.LFB17324:
	.loc 19 1108 10
	.cfi_startproc
	pushq	%rbp
	.seh_pushreg	%rbp
	.cfi_def_cfa_offset 16
	.cfi_offset 6, -16
	movq	%rsp, %rbp
	.seh_setframe	%rbp, 0
	.cfi_def_cfa_register 6
	.seh_endprologue
	movq	%rcx, 16(%rbp)
	movl	%edx, 24(%rbp)
	.loc 19 1108 49
	movq	16(%rbp), %rax
	movl	24(%rbp), %edx
	movl	%edx, 1204(%rax)
	.loc 19 1108 57
	nop
	popq	%rbp
	.cfi_restore 6
	.cfi_def_cfa 7, 8
	ret
	.cfi_endproc
.LFE17324:
	.seh_endproc
	.section	.text$_ZN8Projetil13getTipoForcasEv,"x"
	.linkonce discard
	.align 2
	.globl	_ZN8Projetil13getTipoForcasEv
	.def	_ZN8Projetil13getTipoForcasEv;	.scl	2;	.type	32;	.endef
	.seh_proc	_ZN8Projetil13getTipoForcasEv
_ZN8Projetil13getTipoForcasEv:
.LFB17404:
	.file 20 "../../CalculadorNumerico/projetil/projetil.h"
	.loc 20 25 21
	.cfi_startproc
	pushq	%rbp
	.seh_pushreg	%rbp
	.cfi_def_cfa_offset 16
	.cfi_offset 6, -16
	movq	%rsp, %rbp
	.seh_setframe	%rbp, 0
	.cfi_def_cfa_register 6
	.seh_endprologue
	movq	%rcx, 16(%rbp)
	.loc 20 25 44
	movq	16(%rbp), %rax
	movl	12(%rax), %eax
	.loc 20 25 55
	popq	%rbp
	.cfi_restore 6
	.cfi_def_cfa 7, 8
	ret
	.cfi_endproc
.LFE17404:
	.seh_endproc
	.section	.text$_ZN23CoeficienteAerodinamico14getVelocidadesEv,"x"
	.linkonce discard
	.align 2
	.globl	_ZN23CoeficienteAerodinamico14getVelocidadesEv
	.def	_ZN23CoeficienteAerodinamico14getVelocidadesEv;	.scl	2;	.type	32;	.endef
	.seh_proc	_ZN23CoeficienteAerodinamico14getVelocidadesEv
_ZN23CoeficienteAerodinamico14getVelocidadesEv:
.LFB17427:
	.file 21 "../../CalculadorNumerico/coeficientes/coeficienteAerodinamico.h"
	.loc 21 16 24
	.cfi_startproc
	pushq	%rbp
	.seh_pushreg	%rbp
	.cfi_def_cfa_offset 16
	.cfi_offset 6, -16
	movq	%rsp, %rbp
	.seh_setframe	%rbp, 0
	.cfi_def_cfa_register 6
	subq	$32, %rsp
	.seh_stackalloc	32
	.seh_endprologue
	movq	%rcx, 16(%rbp)
	movq	%rdx, 24(%rbp)
	.loc 21 16 48
	movq	24(%rbp), %rax
	addq	$16, %rax
	movq	%rax, %rdx
	movq	16(%rbp), %rcx
	call	_ZNSt6vectorIdSaIdEEC1ERKS1_
	.loc 21 16 60
	movq	16(%rbp), %rax
	addq	$32, %rsp
	popq	%rbp
	.cfi_restore 6
	.cfi_def_cfa 7, 8
	ret
	.cfi_endproc
.LFE17427:
	.seh_endproc
	.section	.text$_ZN23CoeficienteAerodinamico10getValoresEv,"x"
	.linkonce discard
	.align 2
	.globl	_ZN23CoeficienteAerodinamico10getValoresEv
	.def	_ZN23CoeficienteAerodinamico10getValoresEv;	.scl	2;	.type	32;	.endef
	.seh_proc	_ZN23CoeficienteAerodinamico10getValoresEv
_ZN23CoeficienteAerodinamico10getValoresEv:
.LFB17428:
	.loc 21 17 24
	.cfi_startproc
	pushq	%rbp
	.seh_pushreg	%rbp
	.cfi_def_cfa_offset 16
	.cfi_offset 6, -16
	movq	%rsp, %rbp
	.seh_setframe	%rbp, 0
	.cfi_def_cfa_register 6
	subq	$32, %rsp
	.seh_stackalloc	32
	.seh_endprologue
	movq	%rcx, 16(%rbp)
	movq	%rdx, 24(%rbp)
	.loc 21 17 44
	movq	24(%rbp), %rax
	addq	$40, %rax
	movq	%rax, %rdx
	movq	16(%rbp), %rcx
	call	_ZNSt6vectorIdSaIdEEC1ERKS1_
	.loc 21 17 52
	movq	16(%rbp), %rax
	addq	$32, %rsp
	popq	%rbp
	.cfi_restore 6
	.cfi_def_cfa 7, 8
	ret
	.cfi_endproc
.LFE17428:
	.seh_endproc
	.section	.text$_ZN10BaseObjectC2ERKS_,"x"
	.linkonce discard
	.align 2
	.globl	_ZN10BaseObjectC2ERKS_
	.def	_ZN10BaseObjectC2ERKS_;	.scl	2;	.type	32;	.endef
	.seh_proc	_ZN10BaseObjectC2ERKS_
_ZN10BaseObjectC2ERKS_:
.LFB17434:
	.loc 3 5 7
	.cfi_startproc
	pushq	%rbp
	.seh_pushreg	%rbp
	.cfi_def_cfa_offset 16
	.cfi_offset 6, -16
	movq	%rsp, %rbp
	.seh_setframe	%rbp, 0
	.cfi_def_cfa_register 6
	.seh_endprologue
	movq	%rcx, 16(%rbp)
	movq	%rdx, 24(%rbp)
.LBB36:
	.loc 3 5 7
	leaq	16+_ZTV10BaseObject(%rip), %rdx
	movq	16(%rbp), %rax
	movq	%rdx, (%rax)
.LBE36:
	nop
	popq	%rbp
	.cfi_restore 6
	.cfi_def_cfa 7, 8
	ret
	.cfi_endproc
.LFE17434:
	.seh_endproc
	.section	.text$_ZN8ProjetilC1ERKS_,"x"
	.linkonce discard
	.align 2
	.globl	_ZN8ProjetilC1ERKS_
	.def	_ZN8ProjetilC1ERKS_;	.scl	2;	.type	32;	.endef
	.seh_proc	_ZN8ProjetilC1ERKS_
_ZN8ProjetilC1ERKS_:
.LFB17437:
	.loc 20 8 7
	.cfi_startproc
	pushq	%rbp
	.seh_pushreg	%rbp
	.cfi_def_cfa_offset 16
	.cfi_offset 6, -16
	pushq	%rbx
	.seh_pushreg	%rbx
	.cfi_def_cfa_offset 24
	.cfi_offset 3, -24
	subq	$40, %rsp
	.seh_stackalloc	40
	.cfi_def_cfa_offset 64
	leaq	128(%rsp), %rbp
	.seh_setframe	%rbp, 128
	.cfi_def_cfa 6, -64
	.seh_endprologue
	movq	%rcx, -64(%rbp)
	movq	%rdx, -56(%rbp)
.LBB37:
	.loc 20 8 7
	movq	-64(%rbp), %rax
	movq	-56(%rbp), %rdx
	movq	%rax, %rcx
	call	_ZN10BaseObjectC2ERKS_
	leaq	16+_ZTV8Projetil(%rip), %rdx
	movq	-64(%rbp), %rax
	movq	%rdx, (%rax)
	movq	-56(%rbp), %rax
	movl	8(%rax), %edx
	movq	-64(%rbp), %rax
	movl	%edx, 8(%rax)
	movq	-56(%rbp), %rax
	movl	12(%rax), %edx
	movq	-64(%rbp), %rax
	movl	%edx, 12(%rax)
	movq	-64(%rbp), %rax
	addq	$16, %rax
	movq	-56(%rbp), %rdx
	addq	$16, %rdx
	movq	%rax, %rcx
.LEHB7:
	call	_ZNSt7__cxx1112basic_stringIcSt11char_traitsIcESaIcEEC1ERKS4_
.LEHE7:
	.loc 20 8 7 is_stmt 0 discriminator 2
	movq	-64(%rbp), %rax
	addq	$48, %rax
	movq	-56(%rbp), %rdx
	addq	$48, %rdx
	movq	%rax, %rcx
.LEHB8:
	call	_ZNSt7__cxx1112basic_stringIcSt11char_traitsIcESaIcEEC1ERKS4_
.LEHE8:
	.loc 20 8 7 discriminator 4
	movq	-56(%rbp), %rax
	movsd	80(%rax), %xmm0
	movq	-64(%rbp), %rax
	movsd	%xmm0, 80(%rax)
	movq	-56(%rbp), %rax
	movsd	88(%rax), %xmm0
	movq	-64(%rbp), %rax
	movsd	%xmm0, 88(%rax)
	movq	-56(%rbp), %rax
	movsd	96(%rax), %xmm0
	movq	-64(%rbp), %rax
	movsd	%xmm0, 96(%rax)
	movq	-56(%rbp), %rax
	movsd	104(%rax), %xmm0
	movq	-64(%rbp), %rax
	movsd	%xmm0, 104(%rax)
	movq	-56(%rbp), %rax
	movsd	112(%rax), %xmm0
	movq	-64(%rbp), %rax
	movsd	%xmm0, 112(%rax)
	movq	-56(%rbp), %rax
	movsd	120(%rax), %xmm0
	movq	-64(%rbp), %rax
	movsd	%xmm0, 120(%rax)
.LBE37:
	jmp	.L136
.L135:
	movq	%rax, %rbx
.LBB38:
	.loc 20 8 7
	movq	-64(%rbp), %rax
	addq	$16, %rax
	movq	%rax, %rcx
	call	_ZNSt7__cxx1112basic_stringIcSt11char_traitsIcESaIcEED1Ev
	jmp	.L133
.L134:
	movq	%rax, %rbx
.L133:
	.loc 20 8 7 discriminator 1
	movq	-64(%rbp), %rax
	movq	%rax, %rcx
	call	_ZN10BaseObjectD2Ev
	movq	%rbx, %rax
	movq	%rax, %rcx
.LEHB9:
	call	_Unwind_Resume
	nop
.LEHE9:
.L136:
.LBE38:
	.loc 20 8 7
	addq	$40, %rsp
	popq	%rbx
	.cfi_restore 3
	popq	%rbp
	.cfi_restore 6
	.cfi_def_cfa 7, -24
	ret
	.cfi_endproc
.LFE17437:
	.seh_handler	__gxx_personality_seh0, @unwind, @except
	.seh_handlerdata
.LLSDA17437:
	.byte	0xff
	.byte	0xff
	.byte	0x1
	.uleb128 .LLSDACSE17437-.LLSDACSB17437
.LLSDACSB17437:
	.uleb128 .LEHB7-.LFB17437
	.uleb128 .LEHE7-.LEHB7
	.uleb128 .L134-.LFB17437
	.uleb128 0
	.uleb128 .LEHB8-.LFB17437
	.uleb128 .LEHE8-.LEHB8
	.uleb128 .L135-.LFB17437
	.uleb128 0
	.uleb128 .LEHB9-.LFB17437
	.uleb128 .LEHE9-.LEHB9
	.uleb128 0
	.uleb128 0
.LLSDACSE17437:
	.section	.text$_ZN8ProjetilC1ERKS_,"x"
	.linkonce discard
	.seh_endproc
	.section	.text$_ZN15CoeficientesDAO11getProjetilEv,"x"
	.linkonce discard
	.align 2
	.globl	_ZN15CoeficientesDAO11getProjetilEv
	.def	_ZN15CoeficientesDAO11getProjetilEv;	.scl	2;	.type	32;	.endef
	.seh_proc	_ZN15CoeficientesDAO11getProjetilEv
_ZN15CoeficientesDAO11getProjetilEv:
.LFB17431:
	.file 22 "../../CalculadorNumerico/coeficientes/coeficientesdao.h"
	.loc 22 18 17 is_stmt 1
	.cfi_startproc
	pushq	%rbp
	.seh_pushreg	%rbp
	.cfi_def_cfa_offset 16
	.cfi_offset 6, -16
	movq	%rsp, %rbp
	.seh_setframe	%rbp, 0
	.cfi_def_cfa_register 6
	subq	$32, %rsp
	.seh_stackalloc	32
	.seh_endprologue
	movq	%rcx, 16(%rbp)
	movq	%rdx, 24(%rbp)
	.loc 22 18 44
	movq	24(%rbp), %rax
	addq	$8, %rax
	movq	%rax, %rdx
	movq	16(%rbp), %rcx
	call	_ZN8ProjetilC1ERKS_
	.loc 22 18 49
	movq	16(%rbp), %rax
	addq	$32, %rsp
	popq	%rbp
	.cfi_restore 6
	.cfi_def_cfa 7, 8
	ret
	.cfi_endproc
.LFE17431:
	.seh_endproc
.lcomm _ZStL8__ioinit,1,1
	.section .rdata,"dr"
_ZStL13allocator_arg:
	.space 1
_ZStL6ignore:
	.space 1
	.text
	.align 2
	.globl	_ZN15MathplotHandlerC2Ev
	.def	_ZN15MathplotHandlerC2Ev;	.scl	2;	.type	32;	.endef
	.seh_proc	_ZN15MathplotHandlerC2Ev
_ZN15MathplotHandlerC2Ev:
.LFB17986:
	.file 23 "C:/temp/ballisticKernelCpp/interfaceGrafica/calculadorBalisiticaGraficoWindows/mathplotHandler.cpp"
	.loc 23 10 1
	.cfi_startproc
	pushq	%rbp
	.seh_pushreg	%rbp
	.cfi_def_cfa_offset 16
	.cfi_offset 6, -16
	movq	%rsp, %rbp
	.seh_setframe	%rbp, 0
	.cfi_def_cfa_register 6
	subq	$32, %rsp
	.seh_stackalloc	32
	.seh_endprologue
	movq	%rcx, 16(%rbp)
.LBB39:
	.loc 23 10 34
	movq	16(%rbp), %rax
	movq	%rax, %rcx
	call	_ZNSt6vectorIdSaIdEEC1Ev
	movq	16(%rbp), %rax
	addq	$24, %rax
	movq	%rax, %rcx
	call	_ZNSt6vectorIdSaIdEEC1Ev
	movq	16(%rbp), %rax
	addq	$48, %rax
	movq	%rax, %rcx
	call	_ZNSt6vectorIdSaIdEEC1Ev
	movq	16(%rbp), %rax
	addq	$72, %rax
	movq	%rax, %rcx
	call	_ZNSt6vectorIdSaIdEEC1Ev
	movq	16(%rbp), %rax
	addq	$96, %rax
	movq	%rax, %rcx
	call	_ZNSt6vectorIdSaIdEEC1Ev
	movq	16(%rbp), %rax
	addq	$120, %rax
	movq	%rax, %rcx
	call	_ZNSt6vectorIdSaIdEEC1Ev
	movq	16(%rbp), %rax
	addq	$144, %rax
	movq	%rax, %rcx
	call	_ZNSt6vectorIdSaIdEEC1Ev
	movq	16(%rbp), %rax
	addq	$168, %rax
	movq	%rax, %rcx
	call	_ZNSt6vectorIdSaIdEEC1Ev
.LBE39:
	.loc 23 14 1
	nop
	addq	$32, %rsp
	popq	%rbp
	.cfi_restore 6
	.cfi_def_cfa 7, 8
	ret
	.cfi_endproc
.LFE17986:
	.seh_endproc
	.globl	_ZN15MathplotHandlerC1Ev
	.def	_ZN15MathplotHandlerC1Ev;	.scl	2;	.type	32;	.endef
	.set	_ZN15MathplotHandlerC1Ev,_ZN15MathplotHandlerC2Ev
	.section	.text$_ZN8wxColourC1ERKS_,"x"
	.linkonce discard
	.align 2
	.globl	_ZN8wxColourC1ERKS_
	.def	_ZN8wxColourC1ERKS_;	.scl	2;	.type	32;	.endef
	.seh_proc	_ZN8wxColourC1ERKS_
_ZN8wxColourC1ERKS_:
.LFB17991:
	.loc 14 20 7
	.cfi_startproc
	pushq	%rbp
	.seh_pushreg	%rbp
	.cfi_def_cfa_offset 16
	.cfi_offset 6, -16
	movq	%rsp, %rbp
	.seh_setframe	%rbp, 0
	.cfi_def_cfa_register 6
	subq	$32, %rsp
	.seh_stackalloc	32
	.seh_endprologue
	movq	%rcx, 16(%rbp)
	movq	%rdx, 24(%rbp)
.LBB40:
	.loc 14 20 7
	movq	16(%rbp), %rax
	movq	24(%rbp), %rdx
	movq	%rax, %rcx
	call	_ZN12wxColourBaseC2ERKS_
	movq	.refptr._ZTV8wxColour(%rip), %rax
	leaq	16(%rax), %rdx
	movq	16(%rbp), %rax
	movq	%rdx, (%rax)
	movq	24(%rbp), %rax
	movl	16(%rax), %edx
	movq	16(%rbp), %rax
	movl	%edx, 16(%rax)
	movq	24(%rbp), %rax
	movzbl	20(%rax), %eax
	movq	16(%rbp), %rdx
	movb	%al, 20(%rdx)
	movq	24(%rbp), %rax
	movzbl	21(%rax), %eax
	movq	16(%rbp), %rdx
	movb	%al, 21(%rdx)
	movq	24(%rbp), %rax
	movzbl	22(%rax), %eax
	movq	16(%rbp), %rdx
	movb	%al, 22(%rdx)
	movq	24(%rbp), %rax
	movzbl	23(%rax), %eax
	movq	16(%rbp), %rdx
	movb	%al, 23(%rdx)
	movq	24(%rbp), %rax
	movzbl	24(%rax), %eax
	movq	16(%rbp), %rdx
	movb	%al, 24(%rdx)
.LBE40:
	nop
	addq	$32, %rsp
	popq	%rbp
	.cfi_restore 6
	.cfi_def_cfa 7, 8
	ret
	.cfi_endproc
.LFE17991:
	.seh_endproc
	.section .rdata,"dr"
.LC0:
	.ascii "Altura (m)\0"
.LC1:
	.ascii "Alcance (m)\0"
.LC2:
	.ascii "vel. (m/s)\0"
.LC3:
	.ascii "Tempo (s)\0"
.LC4:
	.ascii "Desvio (metros)\0"
.LC5:
	.ascii "Alcance\0"
.LC6:
	.ascii "Dist\303\242ncia\0"
.LC7:
	.ascii "Tempo(s)\0"
.LC8:
	.ascii "Altura\0"
.LC9:
	.ascii "aR\0"
	.text
	.align 2
	.globl	_ZN15MathplotHandler8plotMapaEP8mpWindowNSt7__cxx1112basic_stringIcSt11char_traitsIcESaIcEEE12Tipo_GRAFICO8wxColour
	.def	_ZN15MathplotHandler8plotMapaEP8mpWindowNSt7__cxx1112basic_stringIcSt11char_traitsIcESaIcEEE12Tipo_GRAFICO8wxColour;	.scl	2;	.type	32;	.endef
	.seh_proc	_ZN15MathplotHandler8plotMapaEP8mpWindowNSt7__cxx1112basic_stringIcSt11char_traitsIcESaIcEEE12Tipo_GRAFICO8wxColour
_ZN15MathplotHandler8plotMapaEP8mpWindowNSt7__cxx1112basic_stringIcSt11char_traitsIcESaIcEEE12Tipo_GRAFICO8wxColour:
.LFB17988:
	.loc 23 18 2
	.cfi_startproc
	pushq	%rbp
	.seh_pushreg	%rbp
	.cfi_def_cfa_offset 16
	.cfi_offset 6, -16
	pushq	%rbx
	.seh_pushreg	%rbx
	.cfi_def_cfa_offset 24
	.cfi_offset 3, -24
	subq	$1864, %rsp
	.seh_stackalloc	1864
	.cfi_def_cfa_offset 1888
	leaq	128(%rsp), %rbp
	.seh_setframe	%rbp, 128
	.cfi_def_cfa 6, 1760
	.seh_endprologue
	movq	%rcx, 1760(%rbp)
	movq	%rdx, 1768(%rbp)
	movq	%r8, 1776(%rbp)
	movl	%r9d, 1784(%rbp)
	.loc 23 19 6
	movl	1784(%rbp), %eax
	cmpl	$7, %eax
	ja	.L248
	movl	%eax, %eax
	leaq	0(,%rax,4), %rdx
	leaq	.L144(%rip), %rax
	movl	(%rdx,%rax), %eax
	cltq
	leaq	.L144(%rip), %rdx
	addq	%rdx, %rax
	jmp	*%rax
	.section .rdata,"dr"
	.align 4
.L144:
	.long	.L151-.L144
	.long	.L150-.L144
	.long	.L149-.L144
	.long	.L148-.L144
	.long	.L147-.L144
	.long	.L146-.L144
	.long	.L145-.L144
	.long	.L143-.L144
	.text
.L151:
	.loc 23 23 18
	movq	1792(%rbp), %rdx
	leaq	-64(%rbp), %rax
	movq	%rax, %rcx
	call	_ZN8wxColourC1ERKS_
	movq	1776(%rbp), %rdx
	leaq	-32(%rbp), %rax
	movq	%rax, %rcx
.LEHB10:
	call	_ZNSt7__cxx1112basic_stringIcSt11char_traitsIcESaIcEEC1ERKS4_
.LEHE10:
	.loc 23 23 18 is_stmt 0 discriminator 2
	leaq	47(%rbp), %rax
	movq	%rax, %rcx
	call	_ZNSaIcEC1Ev
	leaq	47(%rbp), %rdx
	movq	%rbp, %rax
	movq	%rdx, %r8
	leaq	.LC0(%rip), %rdx
	movq	%rax, %rcx
.LEHB11:
	call	_ZNSt7__cxx1112basic_stringIcSt11char_traitsIcESaIcEEC1EPKcRKS3_
.LEHE11:
	.loc 23 23 18 discriminator 4
	leaq	95(%rbp), %rax
	movq	%rax, %rcx
	call	_ZNSaIcEC1Ev
	leaq	95(%rbp), %rdx
	leaq	48(%rbp), %rax
	movq	%rdx, %r8
	leaq	.LC1(%rip), %rdx
	movq	%rax, %rcx
.LEHB12:
	call	_ZNSt7__cxx1112basic_stringIcSt11char_traitsIcESaIcEEC1EPKcRKS3_
.LEHE12:
	.loc 23 23 30 is_stmt 1 discriminator 6
	movq	1760(%rbp), %rax
	leaq	96(%rax), %rdx
	.loc 23 23 18 discriminator 6
	leaq	96(%rbp), %rax
	movq	%rax, %rcx
.LEHB13:
	call	_ZNSt6vectorIdSaIdEEC1ERKS1_
.LEHE13:
	.loc 23 23 26 discriminator 8
	movq	1760(%rbp), %rax
	leaq	72(%rax), %rdx
	.loc 23 23 18 discriminator 8
	leaq	128(%rbp), %rax
	movq	%rax, %rcx
.LEHB14:
	call	_ZNSt6vectorIdSaIdEEC1ERKS1_
.LEHE14:
	.loc 23 23 18 is_stmt 0 discriminator 10
	leaq	96(%rbp), %r8
	leaq	128(%rbp), %rcx
	movq	1768(%rbp), %rdx
	leaq	-64(%rbp), %rax
	movq	%rax, 56(%rsp)
	leaq	-32(%rbp), %rax
	movq	%rax, 48(%rsp)
	movq	%rbp, %rax
	movq	%rax, 40(%rsp)
	leaq	48(%rbp), %rax
	movq	%rax, 32(%rsp)
	movq	%r8, %r9
	movq	%rcx, %r8
	movq	1760(%rbp), %rcx
.LEHB15:
	call	_ZN15MathplotHandler8plotMapaEP8mpWindowSt6vectorIdSaIdEES4_NSt7__cxx1112basic_stringIcSt11char_traitsIcESaIcEEESA_SA_8wxColour
.LEHE15:
	.loc 23 23 18 discriminator 12
	leaq	128(%rbp), %rax
	movq	%rax, %rcx
	call	_ZNSt6vectorIdSaIdEED1Ev
	leaq	96(%rbp), %rax
	movq	%rax, %rcx
	call	_ZNSt6vectorIdSaIdEED1Ev
	leaq	48(%rbp), %rax
	movq	%rax, %rcx
	call	_ZNSt7__cxx1112basic_stringIcSt11char_traitsIcESaIcEED1Ev
	leaq	95(%rbp), %rax
	movq	%rax, %rcx
	call	_ZNSaIcED1Ev
	movq	%rbp, %rax
	movq	%rax, %rcx
	call	_ZNSt7__cxx1112basic_stringIcSt11char_traitsIcESaIcEED1Ev
	leaq	47(%rbp), %rax
	movq	%rax, %rcx
	call	_ZNSaIcED1Ev
	leaq	-32(%rbp), %rax
	movq	%rax, %rcx
	call	_ZNSt7__cxx1112basic_stringIcSt11char_traitsIcESaIcEED1Ev
	leaq	-64(%rbp), %rax
	movq	%rax, %rcx
	call	_ZN8wxColourD1Ev
	.loc 23 24 9 is_stmt 1 discriminator 12
	jmp	.L142
.L150:
	.loc 23 27 18
	movq	1792(%rbp), %rdx
	leaq	160(%rbp), %rax
	movq	%rax, %rcx
	call	_ZN8wxColourC1ERKS_
	movq	1776(%rbp), %rdx
	leaq	192(%rbp), %rax
	movq	%rax, %rcx
.LEHB16:
	call	_ZNSt7__cxx1112basic_stringIcSt11char_traitsIcESaIcEEC1ERKS4_
.LEHE16:
	.loc 23 27 18 is_stmt 0 discriminator 2
	leaq	271(%rbp), %rax
	movq	%rax, %rcx
	call	_ZNSaIcEC1Ev
	leaq	271(%rbp), %rdx
	leaq	224(%rbp), %rax
	movq	%rdx, %r8
	leaq	.LC2(%rip), %rdx
	movq	%rax, %rcx
.LEHB17:
	call	_ZNSt7__cxx1112basic_stringIcSt11char_traitsIcESaIcEEC1EPKcRKS3_
.LEHE17:
	.loc 23 27 18 discriminator 4
	leaq	319(%rbp), %rax
	movq	%rax, %rcx
	call	_ZNSaIcEC1Ev
	leaq	319(%rbp), %rdx
	leaq	272(%rbp), %rax
	movq	%rdx, %r8
	leaq	.LC3(%rip), %rdx
	movq	%rax, %rcx
.LEHB18:
	call	_ZNSt7__cxx1112basic_stringIcSt11char_traitsIcESaIcEEC1EPKcRKS3_
.LEHE18:
	.loc 23 27 33 is_stmt 1 discriminator 6
	movq	1760(%rbp), %rax
	leaq	48(%rax), %rdx
	.loc 23 27 18 discriminator 6
	leaq	320(%rbp), %rax
	movq	%rax, %rcx
.LEHB19:
	call	_ZNSt6vectorIdSaIdEEC1ERKS1_
.LEHE19:
	.loc 23 27 26 discriminator 8
	movq	1760(%rbp), %rax
	leaq	168(%rax), %rdx
	.loc 23 27 18 discriminator 8
	leaq	352(%rbp), %rax
	movq	%rax, %rcx
.LEHB20:
	call	_ZNSt6vectorIdSaIdEEC1ERKS1_
.LEHE20:
	.loc 23 27 18 is_stmt 0 discriminator 10
	leaq	320(%rbp), %r8
	leaq	352(%rbp), %rcx
	movq	1768(%rbp), %rdx
	leaq	160(%rbp), %rax
	movq	%rax, 56(%rsp)
	leaq	192(%rbp), %rax
	movq	%rax, 48(%rsp)
	leaq	224(%rbp), %rax
	movq	%rax, 40(%rsp)
	leaq	272(%rbp), %rax
	movq	%rax, 32(%rsp)
	movq	%r8, %r9
	movq	%rcx, %r8
	movq	1760(%rbp), %rcx
.LEHB21:
	call	_ZN15MathplotHandler8plotMapaEP8mpWindowSt6vectorIdSaIdEES4_NSt7__cxx1112basic_stringIcSt11char_traitsIcESaIcEEESA_SA_8wxColour
.LEHE21:
	.loc 23 27 18 discriminator 12
	leaq	352(%rbp), %rax
	movq	%rax, %rcx
	call	_ZNSt6vectorIdSaIdEED1Ev
	leaq	320(%rbp), %rax
	movq	%rax, %rcx
	call	_ZNSt6vectorIdSaIdEED1Ev
	leaq	272(%rbp), %rax
	movq	%rax, %rcx
	call	_ZNSt7__cxx1112basic_stringIcSt11char_traitsIcESaIcEED1Ev
	leaq	319(%rbp), %rax
	movq	%rax, %rcx
	call	_ZNSaIcED1Ev
	leaq	224(%rbp), %rax
	movq	%rax, %rcx
	call	_ZNSt7__cxx1112basic_stringIcSt11char_traitsIcESaIcEED1Ev
	leaq	271(%rbp), %rax
	movq	%rax, %rcx
	call	_ZNSaIcED1Ev
	leaq	192(%rbp), %rax
	movq	%rax, %rcx
	call	_ZNSt7__cxx1112basic_stringIcSt11char_traitsIcESaIcEED1Ev
	leaq	160(%rbp), %rax
	movq	%rax, %rcx
	call	_ZN8wxColourD1Ev
	.loc 23 28 9 is_stmt 1 discriminator 12
	jmp	.L142
.L149:
	.loc 23 31 18
	movq	1792(%rbp), %rdx
	leaq	384(%rbp), %rax
	movq	%rax, %rcx
	call	_ZN8wxColourC1ERKS_
	movq	1776(%rbp), %rdx
	leaq	416(%rbp), %rax
	movq	%rax, %rcx
.LEHB22:
	call	_ZNSt7__cxx1112basic_stringIcSt11char_traitsIcESaIcEEC1ERKS4_
.LEHE22:
	.loc 23 31 18 is_stmt 0 discriminator 2
	leaq	495(%rbp), %rax
	movq	%rax, %rcx
	call	_ZNSaIcEC1Ev
	leaq	495(%rbp), %rdx
	leaq	448(%rbp), %rax
	movq	%rdx, %r8
	leaq	.LC4(%rip), %rdx
	movq	%rax, %rcx
.LEHB23:
	call	_ZNSt7__cxx1112basic_stringIcSt11char_traitsIcESaIcEEC1EPKcRKS3_
.LEHE23:
	.loc 23 31 18 discriminator 4
	leaq	543(%rbp), %rax
	movq	%rax, %rcx
	call	_ZNSaIcEC1Ev
	leaq	543(%rbp), %rdx
	leaq	496(%rbp), %rax
	movq	%rdx, %r8
	leaq	.LC5(%rip), %rdx
	movq	%rax, %rcx
.LEHB24:
	call	_ZNSt7__cxx1112basic_stringIcSt11char_traitsIcESaIcEEC1EPKcRKS3_
.LEHE24:
	.loc 23 31 30 is_stmt 1 discriminator 6
	movq	1760(%rbp), %rax
	leaq	120(%rax), %rdx
	.loc 23 31 18 discriminator 6
	leaq	544(%rbp), %rax
	movq	%rax, %rcx
.LEHB25:
	call	_ZNSt6vectorIdSaIdEEC1ERKS1_
.LEHE25:
	.loc 23 31 26 discriminator 8
	movq	1760(%rbp), %rax
	leaq	72(%rax), %rdx
	.loc 23 31 18 discriminator 8
	leaq	576(%rbp), %rax
	movq	%rax, %rcx
.LEHB26:
	call	_ZNSt6vectorIdSaIdEEC1ERKS1_
.LEHE26:
	.loc 23 31 18 is_stmt 0 discriminator 10
	leaq	544(%rbp), %r8
	leaq	576(%rbp), %rcx
	movq	1768(%rbp), %rdx
	leaq	384(%rbp), %rax
	movq	%rax, 56(%rsp)
	leaq	416(%rbp), %rax
	movq	%rax, 48(%rsp)
	leaq	448(%rbp), %rax
	movq	%rax, 40(%rsp)
	leaq	496(%rbp), %rax
	movq	%rax, 32(%rsp)
	movq	%r8, %r9
	movq	%rcx, %r8
	movq	1760(%rbp), %rcx
.LEHB27:
	call	_ZN15MathplotHandler8plotMapaEP8mpWindowSt6vectorIdSaIdEES4_NSt7__cxx1112basic_stringIcSt11char_traitsIcESaIcEEESA_SA_8wxColour
.LEHE27:
	.loc 23 31 18 discriminator 12
	leaq	576(%rbp), %rax
	movq	%rax, %rcx
	call	_ZNSt6vectorIdSaIdEED1Ev
	leaq	544(%rbp), %rax
	movq	%rax, %rcx
	call	_ZNSt6vectorIdSaIdEED1Ev
	leaq	496(%rbp), %rax
	movq	%rax, %rcx
	call	_ZNSt7__cxx1112basic_stringIcSt11char_traitsIcESaIcEED1Ev
	leaq	543(%rbp), %rax
	movq	%rax, %rcx
	call	_ZNSaIcED1Ev
	leaq	448(%rbp), %rax
	movq	%rax, %rcx
	call	_ZNSt7__cxx1112basic_stringIcSt11char_traitsIcESaIcEED1Ev
	leaq	495(%rbp), %rax
	movq	%rax, %rcx
	call	_ZNSaIcED1Ev
	leaq	416(%rbp), %rax
	movq	%rax, %rcx
	call	_ZNSt7__cxx1112basic_stringIcSt11char_traitsIcESaIcEED1Ev
	leaq	384(%rbp), %rax
	movq	%rax, %rcx
	call	_ZN8wxColourD1Ev
	.loc 23 32 10 is_stmt 1 discriminator 12
	jmp	.L142
.L148:
	.loc 23 34 18
	movq	1792(%rbp), %rdx
	leaq	608(%rbp), %rax
	movq	%rax, %rcx
	call	_ZN8wxColourC1ERKS_
	movq	1776(%rbp), %rdx
	leaq	640(%rbp), %rax
	movq	%rax, %rcx
.LEHB28:
	call	_ZNSt7__cxx1112basic_stringIcSt11char_traitsIcESaIcEEC1ERKS4_
.LEHE28:
	.loc 23 34 18 is_stmt 0 discriminator 2
	leaq	719(%rbp), %rax
	movq	%rax, %rcx
	call	_ZNSaIcEC1Ev
	leaq	719(%rbp), %rdx
	leaq	672(%rbp), %rax
	movq	%rdx, %r8
	leaq	.LC6(%rip), %rdx
	movq	%rax, %rcx
.LEHB29:
	call	_ZNSt7__cxx1112basic_stringIcSt11char_traitsIcESaIcEEC1EPKcRKS3_
.LEHE29:
	.loc 23 34 18 discriminator 4
	leaq	767(%rbp), %rax
	movq	%rax, %rcx
	call	_ZNSaIcEC1Ev
	leaq	767(%rbp), %rdx
	leaq	720(%rbp), %rax
	movq	%rdx, %r8
	leaq	.LC7(%rip), %rdx
	movq	%rax, %rcx
.LEHB30:
	call	_ZNSt7__cxx1112basic_stringIcSt11char_traitsIcESaIcEEC1EPKcRKS3_
.LEHE30:
	.loc 23 34 33 is_stmt 1 discriminator 6
	movq	1760(%rbp), %rax
	leaq	72(%rax), %rdx
	.loc 23 34 18 discriminator 6
	leaq	768(%rbp), %rax
	movq	%rax, %rcx
.LEHB31:
	call	_ZNSt6vectorIdSaIdEEC1ERKS1_
.LEHE31:
	.loc 23 34 26 discriminator 8
	movq	1760(%rbp), %rax
	leaq	168(%rax), %rdx
	.loc 23 34 18 discriminator 8
	leaq	800(%rbp), %rax
	movq	%rax, %rcx
.LEHB32:
	call	_ZNSt6vectorIdSaIdEEC1ERKS1_
.LEHE32:
	.loc 23 34 18 is_stmt 0 discriminator 10
	leaq	768(%rbp), %r8
	leaq	800(%rbp), %rcx
	movq	1768(%rbp), %rdx
	leaq	608(%rbp), %rax
	movq	%rax, 56(%rsp)
	leaq	640(%rbp), %rax
	movq	%rax, 48(%rsp)
	leaq	672(%rbp), %rax
	movq	%rax, 40(%rsp)
	leaq	720(%rbp), %rax
	movq	%rax, 32(%rsp)
	movq	%r8, %r9
	movq	%rcx, %r8
	movq	1760(%rbp), %rcx
.LEHB33:
	call	_ZN15MathplotHandler8plotMapaEP8mpWindowSt6vectorIdSaIdEES4_NSt7__cxx1112basic_stringIcSt11char_traitsIcESaIcEEESA_SA_8wxColour
.LEHE33:
	.loc 23 34 18 discriminator 12
	leaq	800(%rbp), %rax
	movq	%rax, %rcx
	call	_ZNSt6vectorIdSaIdEED1Ev
	leaq	768(%rbp), %rax
	movq	%rax, %rcx
	call	_ZNSt6vectorIdSaIdEED1Ev
	leaq	720(%rbp), %rax
	movq	%rax, %rcx
	call	_ZNSt7__cxx1112basic_stringIcSt11char_traitsIcESaIcEED1Ev
	leaq	767(%rbp), %rax
	movq	%rax, %rcx
	call	_ZNSaIcED1Ev
	leaq	672(%rbp), %rax
	movq	%rax, %rcx
	call	_ZNSt7__cxx1112basic_stringIcSt11char_traitsIcESaIcEED1Ev
	leaq	719(%rbp), %rax
	movq	%rax, %rcx
	call	_ZNSaIcED1Ev
	leaq	640(%rbp), %rax
	movq	%rax, %rcx
	call	_ZNSt7__cxx1112basic_stringIcSt11char_traitsIcESaIcEED1Ev
	leaq	608(%rbp), %rax
	movq	%rax, %rcx
	call	_ZN8wxColourD1Ev
	.loc 23 35 10 is_stmt 1 discriminator 12
	jmp	.L142
.L147:
	.loc 23 37 18
	movq	1792(%rbp), %rdx
	leaq	832(%rbp), %rax
	movq	%rax, %rcx
	call	_ZN8wxColourC1ERKS_
	movq	1776(%rbp), %rdx
	leaq	864(%rbp), %rax
	movq	%rax, %rcx
.LEHB34:
	call	_ZNSt7__cxx1112basic_stringIcSt11char_traitsIcESaIcEEC1ERKS4_
.LEHE34:
	.loc 23 37 18 is_stmt 0 discriminator 2
	leaq	943(%rbp), %rax
	movq	%rax, %rcx
	call	_ZNSaIcEC1Ev
	leaq	943(%rbp), %rdx
	leaq	896(%rbp), %rax
	movq	%rdx, %r8
	leaq	.LC8(%rip), %rdx
	movq	%rax, %rcx
.LEHB35:
	call	_ZNSt7__cxx1112basic_stringIcSt11char_traitsIcESaIcEEC1EPKcRKS3_
.LEHE35:
	.loc 23 37 18 discriminator 4
	leaq	991(%rbp), %rax
	movq	%rax, %rcx
	call	_ZNSaIcEC1Ev
	leaq	991(%rbp), %rdx
	leaq	944(%rbp), %rax
	movq	%rdx, %r8
	leaq	.LC3(%rip), %rdx
	movq	%rax, %rcx
.LEHB36:
	call	_ZNSt7__cxx1112basic_stringIcSt11char_traitsIcESaIcEEC1EPKcRKS3_
.LEHE36:
	.loc 23 37 33 is_stmt 1 discriminator 6
	movq	1760(%rbp), %rax
	leaq	96(%rax), %rdx
	.loc 23 37 18 discriminator 6
	leaq	992(%rbp), %rax
	movq	%rax, %rcx
.LEHB37:
	call	_ZNSt6vectorIdSaIdEEC1ERKS1_
.LEHE37:
	.loc 23 37 26 discriminator 8
	movq	1760(%rbp), %rax
	leaq	168(%rax), %rdx
	.loc 23 37 18 discriminator 8
	leaq	1024(%rbp), %rax
	movq	%rax, %rcx
.LEHB38:
	call	_ZNSt6vectorIdSaIdEEC1ERKS1_
.LEHE38:
	.loc 23 37 18 is_stmt 0 discriminator 10
	leaq	992(%rbp), %r8
	leaq	1024(%rbp), %rcx
	movq	1768(%rbp), %rdx
	leaq	832(%rbp), %rax
	movq	%rax, 56(%rsp)
	leaq	864(%rbp), %rax
	movq	%rax, 48(%rsp)
	leaq	896(%rbp), %rax
	movq	%rax, 40(%rsp)
	leaq	944(%rbp), %rax
	movq	%rax, 32(%rsp)
	movq	%r8, %r9
	movq	%rcx, %r8
	movq	1760(%rbp), %rcx
.LEHB39:
	call	_ZN15MathplotHandler8plotMapaEP8mpWindowSt6vectorIdSaIdEES4_NSt7__cxx1112basic_stringIcSt11char_traitsIcESaIcEEESA_SA_8wxColour
.LEHE39:
	.loc 23 37 18 discriminator 12
	leaq	1024(%rbp), %rax
	movq	%rax, %rcx
	call	_ZNSt6vectorIdSaIdEED1Ev
	leaq	992(%rbp), %rax
	movq	%rax, %rcx
	call	_ZNSt6vectorIdSaIdEED1Ev
	leaq	944(%rbp), %rax
	movq	%rax, %rcx
	call	_ZNSt7__cxx1112basic_stringIcSt11char_traitsIcESaIcEED1Ev
	leaq	991(%rbp), %rax
	movq	%rax, %rcx
	call	_ZNSaIcED1Ev
	leaq	896(%rbp), %rax
	movq	%rax, %rcx
	call	_ZNSt7__cxx1112basic_stringIcSt11char_traitsIcESaIcEED1Ev
	leaq	943(%rbp), %rax
	movq	%rax, %rcx
	call	_ZNSaIcED1Ev
	leaq	864(%rbp), %rax
	movq	%rax, %rcx
	call	_ZNSt7__cxx1112basic_stringIcSt11char_traitsIcESaIcEED1Ev
	leaq	832(%rbp), %rax
	movq	%rax, %rcx
	call	_ZN8wxColourD1Ev
	.loc 23 38 9 is_stmt 1 discriminator 12
	jmp	.L142
.L146:
	.loc 23 40 18
	movq	1792(%rbp), %rdx
	leaq	1056(%rbp), %rax
	movq	%rax, %rcx
	call	_ZN8wxColourC1ERKS_
	movq	1776(%rbp), %rdx
	leaq	1088(%rbp), %rax
	movq	%rax, %rcx
.LEHB40:
	call	_ZNSt7__cxx1112basic_stringIcSt11char_traitsIcESaIcEEC1ERKS4_
.LEHE40:
	.loc 23 40 18 is_stmt 0 discriminator 2
	leaq	1167(%rbp), %rax
	movq	%rax, %rcx
	call	_ZNSaIcEC1Ev
	leaq	1167(%rbp), %rdx
	leaq	1120(%rbp), %rax
	movq	%rdx, %r8
	leaq	.LC2(%rip), %rdx
	movq	%rax, %rcx
.LEHB41:
	call	_ZNSt7__cxx1112basic_stringIcSt11char_traitsIcESaIcEEC1EPKcRKS3_
.LEHE41:
	.loc 23 40 18 discriminator 4
	leaq	1215(%rbp), %rax
	movq	%rax, %rcx
	call	_ZNSaIcEC1Ev
	leaq	1215(%rbp), %rdx
	leaq	1168(%rbp), %rax
	movq	%rdx, %r8
	leaq	.LC3(%rip), %rdx
	movq	%rax, %rcx
.LEHB42:
	call	_ZNSt7__cxx1112basic_stringIcSt11char_traitsIcESaIcEEC1EPKcRKS3_
.LEHE42:
	.loc 23 40 33 is_stmt 1 discriminator 6
	movq	1760(%rbp), %rdx
	.loc 23 40 18 discriminator 6
	leaq	1216(%rbp), %rax
	movq	%rax, %rcx
.LEHB43:
	call	_ZNSt6vectorIdSaIdEEC1ERKS1_
.LEHE43:
	.loc 23 40 26 discriminator 8
	movq	1760(%rbp), %rax
	leaq	168(%rax), %rdx
	.loc 23 40 18 discriminator 8
	leaq	1248(%rbp), %rax
	movq	%rax, %rcx
.LEHB44:
	call	_ZNSt6vectorIdSaIdEEC1ERKS1_
.LEHE44:
	.loc 23 40 18 is_stmt 0 discriminator 10
	leaq	1216(%rbp), %r8
	leaq	1248(%rbp), %rcx
	movq	1768(%rbp), %rdx
	leaq	1056(%rbp), %rax
	movq	%rax, 56(%rsp)
	leaq	1088(%rbp), %rax
	movq	%rax, 48(%rsp)
	leaq	1120(%rbp), %rax
	movq	%rax, 40(%rsp)
	leaq	1168(%rbp), %rax
	movq	%rax, 32(%rsp)
	movq	%r8, %r9
	movq	%rcx, %r8
	movq	1760(%rbp), %rcx
.LEHB45:
	call	_ZN15MathplotHandler8plotMapaEP8mpWindowSt6vectorIdSaIdEES4_NSt7__cxx1112basic_stringIcSt11char_traitsIcESaIcEEESA_SA_8wxColour
.LEHE45:
	.loc 23 40 18 discriminator 12
	leaq	1248(%rbp), %rax
	movq	%rax, %rcx
	call	_ZNSt6vectorIdSaIdEED1Ev
	leaq	1216(%rbp), %rax
	movq	%rax, %rcx
	call	_ZNSt6vectorIdSaIdEED1Ev
	leaq	1168(%rbp), %rax
	movq	%rax, %rcx
	call	_ZNSt7__cxx1112basic_stringIcSt11char_traitsIcESaIcEED1Ev
	leaq	1215(%rbp), %rax
	movq	%rax, %rcx
	call	_ZNSaIcED1Ev
	leaq	1120(%rbp), %rax
	movq	%rax, %rcx
	call	_ZNSt7__cxx1112basic_stringIcSt11char_traitsIcESaIcEED1Ev
	leaq	1167(%rbp), %rax
	movq	%rax, %rcx
	call	_ZNSaIcED1Ev
	leaq	1088(%rbp), %rax
	movq	%rax, %rcx
	call	_ZNSt7__cxx1112basic_stringIcSt11char_traitsIcESaIcEED1Ev
	leaq	1056(%rbp), %rax
	movq	%rax, %rcx
	call	_ZN8wxColourD1Ev
	.loc 23 41 9 is_stmt 1 discriminator 12
	jmp	.L142
.L145:
	.loc 23 43 18
	movq	1792(%rbp), %rdx
	leaq	1280(%rbp), %rax
	movq	%rax, %rcx
	call	_ZN8wxColourC1ERKS_
	movq	1776(%rbp), %rdx
	leaq	1312(%rbp), %rax
	movq	%rax, %rcx
.LEHB46:
	call	_ZNSt7__cxx1112basic_stringIcSt11char_traitsIcESaIcEEC1ERKS4_
.LEHE46:
	.loc 23 43 18 is_stmt 0 discriminator 2
	leaq	1391(%rbp), %rax
	movq	%rax, %rcx
	call	_ZNSaIcEC1Ev
	leaq	1391(%rbp), %rdx
	leaq	1344(%rbp), %rax
	movq	%rdx, %r8
	leaq	.LC2(%rip), %rdx
	movq	%rax, %rcx
.LEHB47:
	call	_ZNSt7__cxx1112basic_stringIcSt11char_traitsIcESaIcEEC1EPKcRKS3_
.LEHE47:
	.loc 23 43 18 discriminator 4
	leaq	1439(%rbp), %rax
	movq	%rax, %rcx
	call	_ZNSaIcEC1Ev
	leaq	1439(%rbp), %rdx
	leaq	1392(%rbp), %rax
	movq	%rdx, %r8
	leaq	.LC3(%rip), %rdx
	movq	%rax, %rcx
.LEHB48:
	call	_ZNSt7__cxx1112basic_stringIcSt11char_traitsIcESaIcEEC1EPKcRKS3_
.LEHE48:
	.loc 23 43 33 is_stmt 1 discriminator 6
	movq	1760(%rbp), %rax
	leaq	24(%rax), %rdx
	.loc 23 43 18 discriminator 6
	leaq	1440(%rbp), %rax
	movq	%rax, %rcx
.LEHB49:
	call	_ZNSt6vectorIdSaIdEEC1ERKS1_
.LEHE49:
	.loc 23 43 26 discriminator 8
	movq	1760(%rbp), %rax
	leaq	168(%rax), %rdx
	.loc 23 43 18 discriminator 8
	leaq	1472(%rbp), %rax
	movq	%rax, %rcx
.LEHB50:
	call	_ZNSt6vectorIdSaIdEEC1ERKS1_
.LEHE50:
	.loc 23 43 18 is_stmt 0 discriminator 10
	leaq	1440(%rbp), %r8
	leaq	1472(%rbp), %rcx
	movq	1768(%rbp), %rdx
	leaq	1280(%rbp), %rax
	movq	%rax, 56(%rsp)
	leaq	1312(%rbp), %rax
	movq	%rax, 48(%rsp)
	leaq	1344(%rbp), %rax
	movq	%rax, 40(%rsp)
	leaq	1392(%rbp), %rax
	movq	%rax, 32(%rsp)
	movq	%r8, %r9
	movq	%rcx, %r8
	movq	1760(%rbp), %rcx
.LEHB51:
	call	_ZN15MathplotHandler8plotMapaEP8mpWindowSt6vectorIdSaIdEES4_NSt7__cxx1112basic_stringIcSt11char_traitsIcESaIcEEESA_SA_8wxColour
.LEHE51:
	.loc 23 43 18 discriminator 12
	leaq	1472(%rbp), %rax
	movq	%rax, %rcx
	call	_ZNSt6vectorIdSaIdEED1Ev
	leaq	1440(%rbp), %rax
	movq	%rax, %rcx
	call	_ZNSt6vectorIdSaIdEED1Ev
	leaq	1392(%rbp), %rax
	movq	%rax, %rcx
	call	_ZNSt7__cxx1112basic_stringIcSt11char_traitsIcESaIcEED1Ev
	leaq	1439(%rbp), %rax
	movq	%rax, %rcx
	call	_ZNSaIcED1Ev
	leaq	1344(%rbp), %rax
	movq	%rax, %rcx
	call	_ZNSt7__cxx1112basic_stringIcSt11char_traitsIcESaIcEED1Ev
	leaq	1391(%rbp), %rax
	movq	%rax, %rcx
	call	_ZNSaIcED1Ev
	leaq	1312(%rbp), %rax
	movq	%rax, %rcx
	call	_ZNSt7__cxx1112basic_stringIcSt11char_traitsIcESaIcEED1Ev
	leaq	1280(%rbp), %rax
	movq	%rax, %rcx
	call	_ZN8wxColourD1Ev
	.loc 23 44 9 is_stmt 1 discriminator 12
	jmp	.L142
.L143:
	.loc 23 46 18
	movq	1792(%rbp), %rdx
	leaq	1504(%rbp), %rax
	movq	%rax, %rcx
	call	_ZN8wxColourC1ERKS_
	movq	1776(%rbp), %rdx
	leaq	1536(%rbp), %rax
	movq	%rax, %rcx
.LEHB52:
	call	_ZNSt7__cxx1112basic_stringIcSt11char_traitsIcESaIcEEC1ERKS4_
.LEHE52:
	.loc 23 46 18 is_stmt 0 discriminator 2
	leaq	1615(%rbp), %rax
	movq	%rax, %rcx
	call	_ZNSaIcEC1Ev
	leaq	1615(%rbp), %rdx
	leaq	1568(%rbp), %rax
	movq	%rdx, %r8
	leaq	.LC9(%rip), %rdx
	movq	%rax, %rcx
.LEHB53:
	call	_ZNSt7__cxx1112basic_stringIcSt11char_traitsIcESaIcEEC1EPKcRKS3_
.LEHE53:
	.loc 23 46 18 discriminator 4
	leaq	1663(%rbp), %rax
	movq	%rax, %rcx
	call	_ZNSaIcEC1Ev
	leaq	1663(%rbp), %rdx
	leaq	1616(%rbp), %rax
	movq	%rdx, %r8
	leaq	.LC3(%rip), %rdx
	movq	%rax, %rcx
.LEHB54:
	call	_ZNSt7__cxx1112basic_stringIcSt11char_traitsIcESaIcEEC1EPKcRKS3_
.LEHE54:
	.loc 23 46 33 is_stmt 1 discriminator 6
	movq	1760(%rbp), %rax
	leaq	144(%rax), %rdx
	.loc 23 46 18 discriminator 6
	leaq	1664(%rbp), %rax
	movq	%rax, %rcx
.LEHB55:
	call	_ZNSt6vectorIdSaIdEEC1ERKS1_
.LEHE55:
	.loc 23 46 26 discriminator 8
	movq	1760(%rbp), %rax
	leaq	168(%rax), %rdx
	.loc 23 46 18 discriminator 8
	leaq	1696(%rbp), %rax
	movq	%rax, %rcx
.LEHB56:
	call	_ZNSt6vectorIdSaIdEEC1ERKS1_
.LEHE56:
	.loc 23 46 18 is_stmt 0 discriminator 10
	leaq	1664(%rbp), %r8
	leaq	1696(%rbp), %rcx
	movq	1768(%rbp), %rdx
	leaq	1504(%rbp), %rax
	movq	%rax, 56(%rsp)
	leaq	1536(%rbp), %rax
	movq	%rax, 48(%rsp)
	leaq	1568(%rbp), %rax
	movq	%rax, 40(%rsp)
	leaq	1616(%rbp), %rax
	movq	%rax, 32(%rsp)
	movq	%r8, %r9
	movq	%rcx, %r8
	movq	1760(%rbp), %rcx
.LEHB57:
	call	_ZN15MathplotHandler8plotMapaEP8mpWindowSt6vectorIdSaIdEES4_NSt7__cxx1112basic_stringIcSt11char_traitsIcESaIcEEESA_SA_8wxColour
.LEHE57:
	.loc 23 46 18 discriminator 12
	leaq	1696(%rbp), %rax
	movq	%rax, %rcx
	call	_ZNSt6vectorIdSaIdEED1Ev
	leaq	1664(%rbp), %rax
	movq	%rax, %rcx
	call	_ZNSt6vectorIdSaIdEED1Ev
	leaq	1616(%rbp), %rax
	movq	%rax, %rcx
	call	_ZNSt7__cxx1112basic_stringIcSt11char_traitsIcESaIcEED1Ev
	leaq	1663(%rbp), %rax
	movq	%rax, %rcx
	call	_ZNSaIcED1Ev
	leaq	1568(%rbp), %rax
	movq	%rax, %rcx
	call	_ZNSt7__cxx1112basic_stringIcSt11char_traitsIcESaIcEED1Ev
	leaq	1615(%rbp), %rax
	movq	%rax, %rcx
	call	_ZNSaIcED1Ev
	leaq	1536(%rbp), %rax
	movq	%rax, %rcx
	call	_ZNSt7__cxx1112basic_stringIcSt11char_traitsIcESaIcEED1Ev
	leaq	1504(%rbp), %rax
	movq	%rax, %rcx
	call	_ZN8wxColourD1Ev
	.loc 23 47 9 is_stmt 1 discriminator 12
	nop
.L142:
	.loc 23 49 2
	jmp	.L248
.L205:
	movq	%rax, %rbx
	.loc 23 23 18
	leaq	128(%rbp), %rax
	movq	%rax, %rcx
	call	_ZNSt6vectorIdSaIdEED1Ev
	jmp	.L153
.L204:
	movq	%rax, %rbx
.L153:
	.loc 23 23 18 is_stmt 0 discriminator 9
	leaq	96(%rbp), %rax
	movq	%rax, %rcx
	call	_ZNSt6vectorIdSaIdEED1Ev
	jmp	.L154
.L203:
	movq	%rax, %rbx
.L154:
	.loc 23 23 18 discriminator 7
	leaq	48(%rbp), %rax
	movq	%rax, %rcx
	call	_ZNSt7__cxx1112basic_stringIcSt11char_traitsIcESaIcEED1Ev
	jmp	.L155
.L202:
	movq	%rax, %rbx
.L155:
	.loc 23 23 18 discriminator 5
	leaq	95(%rbp), %rax
	movq	%rax, %rcx
	call	_ZNSaIcED1Ev
	movq	%rbp, %rax
	movq	%rax, %rcx
	call	_ZNSt7__cxx1112basic_stringIcSt11char_traitsIcESaIcEED1Ev
	jmp	.L156
.L201:
	movq	%rax, %rbx
.L156:
	.loc 23 23 18 discriminator 3
	leaq	47(%rbp), %rax
	movq	%rax, %rcx
	call	_ZNSaIcED1Ev
	leaq	-32(%rbp), %rax
	movq	%rax, %rcx
	call	_ZNSt7__cxx1112basic_stringIcSt11char_traitsIcESaIcEED1Ev
	jmp	.L157
.L200:
	movq	%rax, %rbx
.L157:
	.loc 23 23 18 discriminator 1
	leaq	-64(%rbp), %rax
	movq	%rax, %rcx
	call	_ZN8wxColourD1Ev
	movq	%rbx, %rax
	movq	%rax, %rcx
.LEHB58:
	call	_Unwind_Resume
.L211:
	movq	%rax, %rbx
	.loc 23 27 18 is_stmt 1
	leaq	352(%rbp), %rax
	movq	%rax, %rcx
	call	_ZNSt6vectorIdSaIdEED1Ev
	jmp	.L159
.L210:
	movq	%rax, %rbx
.L159:
	.loc 23 27 18 is_stmt 0 discriminator 9
	leaq	320(%rbp), %rax
	movq	%rax, %rcx
	call	_ZNSt6vectorIdSaIdEED1Ev
	jmp	.L160
.L209:
	movq	%rax, %rbx
.L160:
	.loc 23 27 18 discriminator 7
	leaq	272(%rbp), %rax
	movq	%rax, %rcx
	call	_ZNSt7__cxx1112basic_stringIcSt11char_traitsIcESaIcEED1Ev
	jmp	.L161
.L208:
	movq	%rax, %rbx
.L161:
	.loc 23 27 18 discriminator 5
	leaq	319(%rbp), %rax
	movq	%rax, %rcx
	call	_ZNSaIcED1Ev
	leaq	224(%rbp), %rax
	movq	%rax, %rcx
	call	_ZNSt7__cxx1112basic_stringIcSt11char_traitsIcESaIcEED1Ev
	jmp	.L162
.L207:
	movq	%rax, %rbx
.L162:
	.loc 23 27 18 discriminator 3
	leaq	271(%rbp), %rax
	movq	%rax, %rcx
	call	_ZNSaIcED1Ev
	leaq	192(%rbp), %rax
	movq	%rax, %rcx
	call	_ZNSt7__cxx1112basic_stringIcSt11char_traitsIcESaIcEED1Ev
	jmp	.L163
.L206:
	movq	%rax, %rbx
.L163:
	.loc 23 27 18 discriminator 1
	leaq	160(%rbp), %rax
	movq	%rax, %rcx
	call	_ZN8wxColourD1Ev
	movq	%rbx, %rax
	movq	%rax, %rcx
	call	_Unwind_Resume
.L217:
	movq	%rax, %rbx
	.loc 23 31 18 is_stmt 1
	leaq	576(%rbp), %rax
	movq	%rax, %rcx
	call	_ZNSt6vectorIdSaIdEED1Ev
	jmp	.L165
.L216:
	movq	%rax, %rbx
.L165:
	.loc 23 31 18 is_stmt 0 discriminator 9
	leaq	544(%rbp), %rax
	movq	%rax, %rcx
	call	_ZNSt6vectorIdSaIdEED1Ev
	jmp	.L166
.L215:
	movq	%rax, %rbx
.L166:
	.loc 23 31 18 discriminator 7
	leaq	496(%rbp), %rax
	movq	%rax, %rcx
	call	_ZNSt7__cxx1112basic_stringIcSt11char_traitsIcESaIcEED1Ev
	jmp	.L167
.L214:
	movq	%rax, %rbx
.L167:
	.loc 23 31 18 discriminator 5
	leaq	543(%rbp), %rax
	movq	%rax, %rcx
	call	_ZNSaIcED1Ev
	leaq	448(%rbp), %rax
	movq	%rax, %rcx
	call	_ZNSt7__cxx1112basic_stringIcSt11char_traitsIcESaIcEED1Ev
	jmp	.L168
.L213:
	movq	%rax, %rbx
.L168:
	.loc 23 31 18 discriminator 3
	leaq	495(%rbp), %rax
	movq	%rax, %rcx
	call	_ZNSaIcED1Ev
	leaq	416(%rbp), %rax
	movq	%rax, %rcx
	call	_ZNSt7__cxx1112basic_stringIcSt11char_traitsIcESaIcEED1Ev
	jmp	.L169
.L212:
	movq	%rax, %rbx
.L169:
	.loc 23 31 18 discriminator 1
	leaq	384(%rbp), %rax
	movq	%rax, %rcx
	call	_ZN8wxColourD1Ev
	movq	%rbx, %rax
	movq	%rax, %rcx
	call	_Unwind_Resume
.L223:
	movq	%rax, %rbx
	.loc 23 34 18 is_stmt 1
	leaq	800(%rbp), %rax
	movq	%rax, %rcx
	call	_ZNSt6vectorIdSaIdEED1Ev
	jmp	.L171
.L222:
	movq	%rax, %rbx
.L171:
	.loc 23 34 18 is_stmt 0 discriminator 9
	leaq	768(%rbp), %rax
	movq	%rax, %rcx
	call	_ZNSt6vectorIdSaIdEED1Ev
	jmp	.L172
.L221:
	movq	%rax, %rbx
.L172:
	.loc 23 34 18 discriminator 7
	leaq	720(%rbp), %rax
	movq	%rax, %rcx
	call	_ZNSt7__cxx1112basic_stringIcSt11char_traitsIcESaIcEED1Ev
	jmp	.L173
.L220:
	movq	%rax, %rbx
.L173:
	.loc 23 34 18 discriminator 5
	leaq	767(%rbp), %rax
	movq	%rax, %rcx
	call	_ZNSaIcED1Ev
	leaq	672(%rbp), %rax
	movq	%rax, %rcx
	call	_ZNSt7__cxx1112basic_stringIcSt11char_traitsIcESaIcEED1Ev
	jmp	.L174
.L219:
	movq	%rax, %rbx
.L174:
	.loc 23 34 18 discriminator 3
	leaq	719(%rbp), %rax
	movq	%rax, %rcx
	call	_ZNSaIcED1Ev
	leaq	640(%rbp), %rax
	movq	%rax, %rcx
	call	_ZNSt7__cxx1112basic_stringIcSt11char_traitsIcESaIcEED1Ev
	jmp	.L175
.L218:
	movq	%rax, %rbx
.L175:
	.loc 23 34 18 discriminator 1
	leaq	608(%rbp), %rax
	movq	%rax, %rcx
	call	_ZN8wxColourD1Ev
	movq	%rbx, %rax
	movq	%rax, %rcx
	call	_Unwind_Resume
.L229:
	movq	%rax, %rbx
	.loc 23 37 18 is_stmt 1
	leaq	1024(%rbp), %rax
	movq	%rax, %rcx
	call	_ZNSt6vectorIdSaIdEED1Ev
	jmp	.L177
.L228:
	movq	%rax, %rbx
.L177:
	.loc 23 37 18 is_stmt 0 discriminator 9
	leaq	992(%rbp), %rax
	movq	%rax, %rcx
	call	_ZNSt6vectorIdSaIdEED1Ev
	jmp	.L178
.L227:
	movq	%rax, %rbx
.L178:
	.loc 23 37 18 discriminator 7
	leaq	944(%rbp), %rax
	movq	%rax, %rcx
	call	_ZNSt7__cxx1112basic_stringIcSt11char_traitsIcESaIcEED1Ev
	jmp	.L179
.L226:
	movq	%rax, %rbx
.L179:
	.loc 23 37 18 discriminator 5
	leaq	991(%rbp), %rax
	movq	%rax, %rcx
	call	_ZNSaIcED1Ev
	leaq	896(%rbp), %rax
	movq	%rax, %rcx
	call	_ZNSt7__cxx1112basic_stringIcSt11char_traitsIcESaIcEED1Ev
	jmp	.L180
.L225:
	movq	%rax, %rbx
.L180:
	.loc 23 37 18 discriminator 3
	leaq	943(%rbp), %rax
	movq	%rax, %rcx
	call	_ZNSaIcED1Ev
	leaq	864(%rbp), %rax
	movq	%rax, %rcx
	call	_ZNSt7__cxx1112basic_stringIcSt11char_traitsIcESaIcEED1Ev
	jmp	.L181
.L224:
	movq	%rax, %rbx
.L181:
	.loc 23 37 18 discriminator 1
	leaq	832(%rbp), %rax
	movq	%rax, %rcx
	call	_ZN8wxColourD1Ev
	movq	%rbx, %rax
	movq	%rax, %rcx
	call	_Unwind_Resume
.L235:
	movq	%rax, %rbx
	.loc 23 40 18 is_stmt 1
	leaq	1248(%rbp), %rax
	movq	%rax, %rcx
	call	_ZNSt6vectorIdSaIdEED1Ev
	jmp	.L183
.L234:
	movq	%rax, %rbx
.L183:
	.loc 23 40 18 is_stmt 0 discriminator 9
	leaq	1216(%rbp), %rax
	movq	%rax, %rcx
	call	_ZNSt6vectorIdSaIdEED1Ev
	jmp	.L184
.L233:
	movq	%rax, %rbx
.L184:
	.loc 23 40 18 discriminator 7
	leaq	1168(%rbp), %rax
	movq	%rax, %rcx
	call	_ZNSt7__cxx1112basic_stringIcSt11char_traitsIcESaIcEED1Ev
	jmp	.L185
.L232:
	movq	%rax, %rbx
.L185:
	.loc 23 40 18 discriminator 5
	leaq	1215(%rbp), %rax
	movq	%rax, %rcx
	call	_ZNSaIcED1Ev
	leaq	1120(%rbp), %rax
	movq	%rax, %rcx
	call	_ZNSt7__cxx1112basic_stringIcSt11char_traitsIcESaIcEED1Ev
	jmp	.L186
.L231:
	movq	%rax, %rbx
.L186:
	.loc 23 40 18 discriminator 3
	leaq	1167(%rbp), %rax
	movq	%rax, %rcx
	call	_ZNSaIcED1Ev
	leaq	1088(%rbp), %rax
	movq	%rax, %rcx
	call	_ZNSt7__cxx1112basic_stringIcSt11char_traitsIcESaIcEED1Ev
	jmp	.L187
.L230:
	movq	%rax, %rbx
.L187:
	.loc 23 40 18 discriminator 1
	leaq	1056(%rbp), %rax
	movq	%rax, %rcx
	call	_ZN8wxColourD1Ev
	movq	%rbx, %rax
	movq	%rax, %rcx
	call	_Unwind_Resume
.L241:
	movq	%rax, %rbx
	.loc 23 43 18 is_stmt 1
	leaq	1472(%rbp), %rax
	movq	%rax, %rcx
	call	_ZNSt6vectorIdSaIdEED1Ev
	jmp	.L189
.L240:
	movq	%rax, %rbx
.L189:
	.loc 23 43 18 is_stmt 0 discriminator 9
	leaq	1440(%rbp), %rax
	movq	%rax, %rcx
	call	_ZNSt6vectorIdSaIdEED1Ev
	jmp	.L190
.L239:
	movq	%rax, %rbx
.L190:
	.loc 23 43 18 discriminator 7
	leaq	1392(%rbp), %rax
	movq	%rax, %rcx
	call	_ZNSt7__cxx1112basic_stringIcSt11char_traitsIcESaIcEED1Ev
	jmp	.L191
.L238:
	movq	%rax, %rbx
.L191:
	.loc 23 43 18 discriminator 5
	leaq	1439(%rbp), %rax
	movq	%rax, %rcx
	call	_ZNSaIcED1Ev
	leaq	1344(%rbp), %rax
	movq	%rax, %rcx
	call	_ZNSt7__cxx1112basic_stringIcSt11char_traitsIcESaIcEED1Ev
	jmp	.L192
.L237:
	movq	%rax, %rbx
.L192:
	.loc 23 43 18 discriminator 3
	leaq	1391(%rbp), %rax
	movq	%rax, %rcx
	call	_ZNSaIcED1Ev
	leaq	1312(%rbp), %rax
	movq	%rax, %rcx
	call	_ZNSt7__cxx1112basic_stringIcSt11char_traitsIcESaIcEED1Ev
	jmp	.L193
.L236:
	movq	%rax, %rbx
.L193:
	.loc 23 43 18 discriminator 1
	leaq	1280(%rbp), %rax
	movq	%rax, %rcx
	call	_ZN8wxColourD1Ev
	movq	%rbx, %rax
	movq	%rax, %rcx
	call	_Unwind_Resume
.L247:
	movq	%rax, %rbx
	.loc 23 46 18 is_stmt 1
	leaq	1696(%rbp), %rax
	movq	%rax, %rcx
	call	_ZNSt6vectorIdSaIdEED1Ev
	jmp	.L195
.L246:
	movq	%rax, %rbx
.L195:
	.loc 23 46 18 is_stmt 0 discriminator 9
	leaq	1664(%rbp), %rax
	movq	%rax, %rcx
	call	_ZNSt6vectorIdSaIdEED1Ev
	jmp	.L196
.L245:
	movq	%rax, %rbx
.L196:
	.loc 23 46 18 discriminator 7
	leaq	1616(%rbp), %rax
	movq	%rax, %rcx
	call	_ZNSt7__cxx1112basic_stringIcSt11char_traitsIcESaIcEED1Ev
	jmp	.L197
.L244:
	movq	%rax, %rbx
.L197:
	.loc 23 46 18 discriminator 5
	leaq	1663(%rbp), %rax
	movq	%rax, %rcx
	call	_ZNSaIcED1Ev
	leaq	1568(%rbp), %rax
	movq	%rax, %rcx
	call	_ZNSt7__cxx1112basic_stringIcSt11char_traitsIcESaIcEED1Ev
	jmp	.L198
.L243:
	movq	%rax, %rbx
.L198:
	.loc 23 46 18 discriminator 3
	leaq	1615(%rbp), %rax
	movq	%rax, %rcx
	call	_ZNSaIcED1Ev
	leaq	1536(%rbp), %rax
	movq	%rax, %rcx
	call	_ZNSt7__cxx1112basic_stringIcSt11char_traitsIcESaIcEED1Ev
	jmp	.L199
.L242:
	movq	%rax, %rbx
.L199:
	.loc 23 46 18 discriminator 1
	leaq	1504(%rbp), %rax
	movq	%rax, %rcx
	call	_ZN8wxColourD1Ev
	movq	%rbx, %rax
	movq	%rax, %rcx
	call	_Unwind_Resume
.LEHE58:
.L248:
	.loc 23 49 2 is_stmt 1
	nop
	addq	$1864, %rsp
	popq	%rbx
	.cfi_restore 3
	popq	%rbp
	.cfi_restore 6
	.cfi_def_cfa 7, -1848
	ret
	.cfi_endproc
.LFE17988:
	.seh_handler	__gxx_personality_seh0, @unwind, @except
	.seh_handlerdata
.LLSDA17988:
	.byte	0xff
	.byte	0xff
	.byte	0x1
	.uleb128 .LLSDACSE17988-.LLSDACSB17988
.LLSDACSB17988:
	.uleb128 .LEHB10-.LFB17988
	.uleb128 .LEHE10-.LEHB10
	.uleb128 .L200-.LFB17988
	.uleb128 0
	.uleb128 .LEHB11-.LFB17988
	.uleb128 .LEHE11-.LEHB11
	.uleb128 .L201-.LFB17988
	.uleb128 0
	.uleb128 .LEHB12-.LFB17988
	.uleb128 .LEHE12-.LEHB12
	.uleb128 .L202-.LFB17988
	.uleb128 0
	.uleb128 .LEHB13-.LFB17988
	.uleb128 .LEHE13-.LEHB13
	.uleb128 .L203-.LFB17988
	.uleb128 0
	.uleb128 .LEHB14-.LFB17988
	.uleb128 .LEHE14-.LEHB14
	.uleb128 .L204-.LFB17988
	.uleb128 0
	.uleb128 .LEHB15-.LFB17988
	.uleb128 .LEHE15-.LEHB15
	.uleb128 .L205-.LFB17988
	.uleb128 0
	.uleb128 .LEHB16-.LFB17988
	.uleb128 .LEHE16-.LEHB16
	.uleb128 .L206-.LFB17988
	.uleb128 0
	.uleb128 .LEHB17-.LFB17988
	.uleb128 .LEHE17-.LEHB17
	.uleb128 .L207-.LFB17988
	.uleb128 0
	.uleb128 .LEHB18-.LFB17988
	.uleb128 .LEHE18-.LEHB18
	.uleb128 .L208-.LFB17988
	.uleb128 0
	.uleb128 .LEHB19-.LFB17988
	.uleb128 .LEHE19-.LEHB19
	.uleb128 .L209-.LFB17988
	.uleb128 0
	.uleb128 .LEHB20-.LFB17988
	.uleb128 .LEHE20-.LEHB20
	.uleb128 .L210-.LFB17988
	.uleb128 0
	.uleb128 .LEHB21-.LFB17988
	.uleb128 .LEHE21-.LEHB21
	.uleb128 .L211-.LFB17988
	.uleb128 0
	.uleb128 .LEHB22-.LFB17988
	.uleb128 .LEHE22-.LEHB22
	.uleb128 .L212-.LFB17988
	.uleb128 0
	.uleb128 .LEHB23-.LFB17988
	.uleb128 .LEHE23-.LEHB23
	.uleb128 .L213-.LFB17988
	.uleb128 0
	.uleb128 .LEHB24-.LFB17988
	.uleb128 .LEHE24-.LEHB24
	.uleb128 .L214-.LFB17988
	.uleb128 0
	.uleb128 .LEHB25-.LFB17988
	.uleb128 .LEHE25-.LEHB25
	.uleb128 .L215-.LFB17988
	.uleb128 0
	.uleb128 .LEHB26-.LFB17988
	.uleb128 .LEHE26-.LEHB26
	.uleb128 .L216-.LFB17988
	.uleb128 0
	.uleb128 .LEHB27-.LFB17988
	.uleb128 .LEHE27-.LEHB27
	.uleb128 .L217-.LFB17988
	.uleb128 0
	.uleb128 .LEHB28-.LFB17988
	.uleb128 .LEHE28-.LEHB28
	.uleb128 .L218-.LFB17988
	.uleb128 0
	.uleb128 .LEHB29-.LFB17988
	.uleb128 .LEHE29-.LEHB29
	.uleb128 .L219-.LFB17988
	.uleb128 0
	.uleb128 .LEHB30-.LFB17988
	.uleb128 .LEHE30-.LEHB30
	.uleb128 .L220-.LFB17988
	.uleb128 0
	.uleb128 .LEHB31-.LFB17988
	.uleb128 .LEHE31-.LEHB31
	.uleb128 .L221-.LFB17988
	.uleb128 0
	.uleb128 .LEHB32-.LFB17988
	.uleb128 .LEHE32-.LEHB32
	.uleb128 .L222-.LFB17988
	.uleb128 0
	.uleb128 .LEHB33-.LFB17988
	.uleb128 .LEHE33-.LEHB33
	.uleb128 .L223-.LFB17988
	.uleb128 0
	.uleb128 .LEHB34-.LFB17988
	.uleb128 .LEHE34-.LEHB34
	.uleb128 .L224-.LFB17988
	.uleb128 0
	.uleb128 .LEHB35-.LFB17988
	.uleb128 .LEHE35-.LEHB35
	.uleb128 .L225-.LFB17988
	.uleb128 0
	.uleb128 .LEHB36-.LFB17988
	.uleb128 .LEHE36-.LEHB36
	.uleb128 .L226-.LFB17988
	.uleb128 0
	.uleb128 .LEHB37-.LFB17988
	.uleb128 .LEHE37-.LEHB37
	.uleb128 .L227-.LFB17988
	.uleb128 0
	.uleb128 .LEHB38-.LFB17988
	.uleb128 .LEHE38-.LEHB38
	.uleb128 .L228-.LFB17988
	.uleb128 0
	.uleb128 .LEHB39-.LFB17988
	.uleb128 .LEHE39-.LEHB39
	.uleb128 .L229-.LFB17988
	.uleb128 0
	.uleb128 .LEHB40-.LFB17988
	.uleb128 .LEHE40-.LEHB40
	.uleb128 .L230-.LFB17988
	.uleb128 0
	.uleb128 .LEHB41-.LFB17988
	.uleb128 .LEHE41-.LEHB41
	.uleb128 .L231-.LFB17988
	.uleb128 0
	.uleb128 .LEHB42-.LFB17988
	.uleb128 .LEHE42-.LEHB42
	.uleb128 .L232-.LFB17988
	.uleb128 0
	.uleb128 .LEHB43-.LFB17988
	.uleb128 .LEHE43-.LEHB43
	.uleb128 .L233-.LFB17988
	.uleb128 0
	.uleb128 .LEHB44-.LFB17988
	.uleb128 .LEHE44-.LEHB44
	.uleb128 .L234-.LFB17988
	.uleb128 0
	.uleb128 .LEHB45-.LFB17988
	.uleb128 .LEHE45-.LEHB45
	.uleb128 .L235-.LFB17988
	.uleb128 0
	.uleb128 .LEHB46-.LFB17988
	.uleb128 .LEHE46-.LEHB46
	.uleb128 .L236-.LFB17988
	.uleb128 0
	.uleb128 .LEHB47-.LFB17988
	.uleb128 .LEHE47-.LEHB47
	.uleb128 .L237-.LFB17988
	.uleb128 0
	.uleb128 .LEHB48-.LFB17988
	.uleb128 .LEHE48-.LEHB48
	.uleb128 .L238-.LFB17988
	.uleb128 0
	.uleb128 .LEHB49-.LFB17988
	.uleb128 .LEHE49-.LEHB49
	.uleb128 .L239-.LFB17988
	.uleb128 0
	.uleb128 .LEHB50-.LFB17988
	.uleb128 .LEHE50-.LEHB50
	.uleb128 .L240-.LFB17988
	.uleb128 0
	.uleb128 .LEHB51-.LFB17988
	.uleb128 .LEHE51-.LEHB51
	.uleb128 .L241-.LFB17988
	.uleb128 0
	.uleb128 .LEHB52-.LFB17988
	.uleb128 .LEHE52-.LEHB52
	.uleb128 .L242-.LFB17988
	.uleb128 0
	.uleb128 .LEHB53-.LFB17988
	.uleb128 .LEHE53-.LEHB53
	.uleb128 .L243-.LFB17988
	.uleb128 0
	.uleb128 .LEHB54-.LFB17988
	.uleb128 .LEHE54-.LEHB54
	.uleb128 .L244-.LFB17988
	.uleb128 0
	.uleb128 .LEHB55-.LFB17988
	.uleb128 .LEHE55-.LEHB55
	.uleb128 .L245-.LFB17988
	.uleb128 0
	.uleb128 .LEHB56-.LFB17988
	.uleb128 .LEHE56-.LEHB56
	.uleb128 .L246-.LFB17988
	.uleb128 0
	.uleb128 .LEHB57-.LFB17988
	.uleb128 .LEHE57-.LEHB57
	.uleb128 .L247-.LFB17988
	.uleb128 0
	.uleb128 .LEHB58-.LFB17988
	.uleb128 .LEHE58-.LEHB58
	.uleb128 0
	.uleb128 0
.LLSDACSE17988:
	.text
	.seh_endproc
	.section .rdata,"dr"
.LC10:
	.ascii "Cd\0"
.LC11:
	.ascii "Cx\0"
.LC12:
	.ascii "\0"
.LC13:
	.ascii "vel. (mach)\0"
.LC18:
	.ascii "Cd2\0"
.LC19:
	.ascii "Cx2\0"
.LC21:
	.ascii "Cl\0"
.LC22:
	.ascii "Cz\0"
.LC23:
	.ascii "CYPa\0"
.LC24:
	.ascii "CMa\0"
.LC27:
	.ascii "CLp\0"
	.text
	.align 2
	.globl	_ZN15MathplotHandler8plotMapaEP8mpWindow24Tipo_GRAFICO_COEFICIENTE
	.def	_ZN15MathplotHandler8plotMapaEP8mpWindow24Tipo_GRAFICO_COEFICIENTE;	.scl	2;	.type	32;	.endef
	.seh_proc	_ZN15MathplotHandler8plotMapaEP8mpWindow24Tipo_GRAFICO_COEFICIENTE
_ZN15MathplotHandler8plotMapaEP8mpWindow24Tipo_GRAFICO_COEFICIENTE:
.LFB17992:
	.loc 23 52 2
	.cfi_startproc
	pushq	%rbp
	.seh_pushreg	%rbp
	.cfi_def_cfa_offset 16
	.cfi_offset 6, -16
	pushq	%rbx
	.seh_pushreg	%rbx
	.cfi_def_cfa_offset 24
	.cfi_offset 3, -24
	subq	$2456, %rsp
	.seh_stackalloc	2456
	.cfi_def_cfa_offset 2480
	leaq	128(%rsp), %rbp
	.seh_setframe	%rbp, 128
	.cfi_def_cfa 6, 2352
	.seh_endprologue
	movq	%rcx, 2352(%rbp)
	movq	%rdx, 2360(%rbp)
	movl	%r8d, 2368(%rbp)
	.loc 23 53 32
	leaq	352(%rbp), %rax
	movl	$255, 32(%rsp)
	movl	$255, %r9d
	movl	$100, %r8d
	movl	$0, %edx
	movq	%rax, %rcx
.LEHB59:
	call	_ZN8wxColourC1Ehhhh
.LEHE59:
.LBB41:
	.loc 23 54 6
	movl	2368(%rbp), %eax
	cmpl	$5, %eax
	ja	.L250
	movl	%eax, %eax
	leaq	0(,%rax,4), %rdx
	leaq	.L252(%rip), %rax
	movl	(%rdx,%rax), %eax
	cltq
	leaq	.L252(%rip), %rdx
	addq	%rdx, %rax
	jmp	*%rax
	.section .rdata,"dr"
	.align 4
.L252:
	.long	.L257-.L252
	.long	.L256-.L252
	.long	.L255-.L252
	.long	.L254-.L252
	.long	.L253-.L252
	.long	.L251-.L252
	.text
.L257:
.LBB42:
.LBB43:
	.loc 23 59 25
	leaq	-32(%rbp), %rax
	movq	%rax, %rcx
.LEHB60:
	call	_ZN15CoeficienteDragC1Ev
.LEHE60:
	.loc 23 60 33
	movq	.refptr.coefDAO(%rip), %rax
	movq	(%rax), %rdx
	leaq	384(%rbp), %rax
	leaq	-32(%rbp), %rcx
	movq	%rcx, %r8
	movq	%rax, %rcx
.LEHB61:
	call	_ZN15CoeficientesDAO15geraCoeficienteER23CoeficienteAerodinamico
	.loc 23 60 33 is_stmt 0 discriminator 1
	leaq	384(%rbp), %rax
	movq	%rax, %rcx
	call	_ZN23CoeficienteAerodinamicoD1Ev
	.loc 23 61 50 is_stmt 1 discriminator 1
	movq	.refptr.coefDAO(%rip), %rax
	movq	(%rax), %rdx
	leaq	32(%rbp), %rax
	movq	%rax, %rcx
	call	_ZN15CoeficientesDAO11getProjetilEv
.LEHE61:
	.loc 23 62 95
	leaq	463(%rbp), %rax
	movq	%rax, %rcx
	call	_ZNSaIcEC1Ev
	.loc 23 62 56
	leaq	32(%rbp), %rax
	movq	%rax, %rcx
	call	_ZN8Projetil13getTipoForcasEv
	.loc 23 62 95
	testl	%eax, %eax
	jne	.L258
	.loc 23 62 95 is_stmt 0 discriminator 1
	leaq	.LC10(%rip), %rax
	jmp	.L259
.L258:
	.loc 23 62 95 discriminator 2
	leaq	.LC11(%rip), %rax
.L259:
	.loc 23 62 95 discriminator 4
	leaq	463(%rbp), %rdx
	leaq	-64(%rbp), %rcx
	movq	%rdx, %r8
	movq	%rax, %rdx
.LEHB62:
	call	_ZNSt7__cxx1112basic_stringIcSt11char_traitsIcESaIcEEC1EPKcRKS3_
.LEHE62:
	leaq	463(%rbp), %rax
	movq	%rax, %rcx
	call	_ZNSaIcED1Ev
	.loc 23 63 17 is_stmt 1
	leaq	352(%rbp), %rdx
	leaq	464(%rbp), %rax
	movq	%rax, %rcx
	call	_ZN8wxColourC1ERKS_
	leaq	543(%rbp), %rax
	movq	%rax, %rcx
	call	_ZNSaIcEC1Ev
	leaq	543(%rbp), %rdx
	leaq	496(%rbp), %rax
	movq	%rdx, %r8
	leaq	.LC12(%rip), %rdx
	movq	%rax, %rcx
.LEHB63:
	call	_ZNSt7__cxx1112basic_stringIcSt11char_traitsIcESaIcEEC1EPKcRKS3_
.LEHE63:
	.loc 23 63 17 is_stmt 0 discriminator 2
	leaq	-64(%rbp), %rdx
	leaq	544(%rbp), %rax
	movq	%rax, %rcx
.LEHB64:
	call	_ZNSt7__cxx1112basic_stringIcSt11char_traitsIcESaIcEEC1ERKS4_
.LEHE64:
	.loc 23 63 17 discriminator 4
	leaq	623(%rbp), %rax
	movq	%rax, %rcx
	call	_ZNSaIcEC1Ev
	leaq	623(%rbp), %rdx
	leaq	576(%rbp), %rax
	movq	%rdx, %r8
	leaq	.LC13(%rip), %rdx
	movq	%rax, %rcx
.LEHB65:
	call	_ZNSt7__cxx1112basic_stringIcSt11char_traitsIcESaIcEEC1EPKcRKS3_
.LEHE65:
	.loc 23 63 71 is_stmt 1 discriminator 6
	leaq	624(%rbp), %rax
	leaq	-32(%rbp), %rdx
	movq	%rax, %rcx
.LEHB66:
	call	_ZN23CoeficienteAerodinamico10getValoresEv
.LEHE66:
	.loc 23 63 48 discriminator 8
	leaq	656(%rbp), %rax
	leaq	-32(%rbp), %rdx
	movq	%rax, %rcx
.LEHB67:
	call	_ZN23CoeficienteAerodinamico14getVelocidadesEv
.LEHE67:
	.loc 23 63 17 discriminator 10
	leaq	624(%rbp), %r8
	leaq	656(%rbp), %rcx
	movq	2360(%rbp), %rdx
	leaq	464(%rbp), %rax
	movq	%rax, 56(%rsp)
	leaq	496(%rbp), %rax
	movq	%rax, 48(%rsp)
	leaq	544(%rbp), %rax
	movq	%rax, 40(%rsp)
	leaq	576(%rbp), %rax
	movq	%rax, 32(%rsp)
	movq	%r8, %r9
	movq	%rcx, %r8
	movq	2352(%rbp), %rcx
.LEHB68:
	call	_ZN15MathplotHandler8plotMapaEP8mpWindowSt6vectorIdSaIdEES4_NSt7__cxx1112basic_stringIcSt11char_traitsIcESaIcEEESA_SA_8wxColour
.LEHE68:
	.loc 23 63 48 discriminator 12
	leaq	656(%rbp), %rax
	movq	%rax, %rcx
	call	_ZNSt6vectorIdSaIdEED1Ev
	.loc 23 63 71 discriminator 12
	leaq	624(%rbp), %rax
	movq	%rax, %rcx
	call	_ZNSt6vectorIdSaIdEED1Ev
	.loc 23 63 17 discriminator 12
	leaq	576(%rbp), %rax
	movq	%rax, %rcx
	call	_ZNSt7__cxx1112basic_stringIcSt11char_traitsIcESaIcEED1Ev
	leaq	623(%rbp), %rax
	movq	%rax, %rcx
	call	_ZNSaIcED1Ev
	leaq	544(%rbp), %rax
	movq	%rax, %rcx
	call	_ZNSt7__cxx1112basic_stringIcSt11char_traitsIcESaIcEED1Ev
	leaq	496(%rbp), %rax
	movq	%rax, %rcx
	call	_ZNSt7__cxx1112basic_stringIcSt11char_traitsIcESaIcEED1Ev
	leaq	543(%rbp), %rax
	movq	%rax, %rcx
	call	_ZNSaIcED1Ev
	leaq	464(%rbp), %rax
	movq	%rax, %rcx
	call	_ZN8wxColourD1Ev
	.loc 23 65 61 discriminator 12
	leaq	320(%rbp), %rax
	leaq	-32(%rbp), %rdx
	movq	%rax, %rcx
.LEHB69:
	call	_ZN23CoeficienteAerodinamico14getVelocidadesEv
.LEHE69:
	.loc 23 66 54
	leaq	320(%rbp), %rax
	movq	%rax, %rcx
	call	_ZNKSt6vectorIdSaIdEE4sizeEv
	.loc 23 66 58
	leaq	-1(%rax), %rdx
	leaq	320(%rbp), %rax
	movq	%rax, %rcx
.LEHB70:
	call	_ZNSt6vectorIdSaIdEE2atEy
	movsd	(%rax), %xmm0
	movsd	%xmm0, 2312(%rbp)
	.loc 23 67 40
	movsd	.LC14(%rip), %xmm0
	leaq	-32(%rbp), %rax
	movapd	%xmm0, %xmm1
	movq	%rax, %rcx
	call	_ZN23CoeficienteAerodinamico8getValorEd
	.loc 23 67 40 is_stmt 0 discriminator 1
	movq	%xmm0, %rax
	movq	%rax, 2304(%rbp)
	.loc 23 68 19 is_stmt 1 discriminator 1
	movsd	2304(%rbp), %xmm1
	movsd	.LC15(%rip), %xmm0
	addsd	%xmm1, %xmm0
	movsd	.LC16(%rip), %xmm2
	movsd	2312(%rbp), %xmm1
	movq	2360(%rbp), %rax
	movq	$0, 48(%rsp)
	movq	$0, 40(%rsp)
	movsd	%xmm0, 32(%rsp)
	movapd	%xmm2, %xmm3
	movapd	%xmm1, %xmm2
	pxor	%xmm1, %xmm1
	movq	%rax, %rcx
	call	_ZN8mpWindow3FitEddddPiS0_
.LEHE70:
	.loc 23 69 9
	nop
	.loc 23 65 61
	leaq	320(%rbp), %rax
	movq	%rax, %rcx
	call	_ZNSt6vectorIdSaIdEED1Ev
	.loc 23 62 95
	leaq	-64(%rbp), %rax
	movq	%rax, %rcx
	call	_ZNSt7__cxx1112basic_stringIcSt11char_traitsIcESaIcEED1Ev
	.loc 23 61 50
	leaq	32(%rbp), %rax
	movq	%rax, %rcx
	call	_ZN8ProjetilD1Ev
	.loc 23 59 25
	leaq	-32(%rbp), %rax
	movq	%rax, %rcx
	call	_ZN15CoeficienteDragD1Ev
	jmp	.L250
.L256:
.LBE43:
.LBB44:
	.loc 23 74 26
	leaq	-32(%rbp), %rax
	movq	%rax, %rcx
.LEHB71:
	call	_ZN16CoeficienteDrag2C1Ev
.LEHE71:
	.loc 23 75 33
	movq	.refptr.coefDAO(%rip), %rax
	movq	(%rax), %rdx
	leaq	688(%rbp), %rax
	leaq	-32(%rbp), %rcx
	movq	%rcx, %r8
	movq	%rax, %rcx
.LEHB72:
	call	_ZN15CoeficientesDAO15geraCoeficienteER23CoeficienteAerodinamico
	.loc 23 75 33 is_stmt 0 discriminator 1
	leaq	688(%rbp), %rax
	movq	%rax, %rcx
	call	_ZN23CoeficienteAerodinamicoD1Ev
	.loc 23 76 50 is_stmt 1 discriminator 1
	movq	.refptr.coefDAO(%rip), %rax
	movq	(%rax), %rdx
	leaq	32(%rbp), %rax
	movq	%rax, %rcx
	call	_ZN15CoeficientesDAO11getProjetilEv
.LEHE72:
	.loc 23 77 97
	leaq	767(%rbp), %rax
	movq	%rax, %rcx
	call	_ZNSaIcEC1Ev
	.loc 23 77 56
	leaq	32(%rbp), %rax
	movq	%rax, %rcx
	call	_ZN8Projetil13getTipoForcasEv
	.loc 23 77 97
	testl	%eax, %eax
	jne	.L260
	.loc 23 77 97 is_stmt 0 discriminator 1
	leaq	.LC18(%rip), %rax
	jmp	.L261
.L260:
	.loc 23 77 97 discriminator 2
	leaq	.LC19(%rip), %rax
.L261:
	.loc 23 77 97 discriminator 4
	leaq	767(%rbp), %rdx
	leaq	-64(%rbp), %rcx
	movq	%rdx, %r8
	movq	%rax, %rdx
.LEHB73:
	call	_ZNSt7__cxx1112basic_stringIcSt11char_traitsIcESaIcEEC1EPKcRKS3_
.LEHE73:
	leaq	767(%rbp), %rax
	movq	%rax, %rcx
	call	_ZNSaIcED1Ev
	.loc 23 78 17 is_stmt 1
	leaq	352(%rbp), %rdx
	leaq	768(%rbp), %rax
	movq	%rax, %rcx
	call	_ZN8wxColourC1ERKS_
	leaq	847(%rbp), %rax
	movq	%rax, %rcx
	call	_ZNSaIcEC1Ev
	leaq	847(%rbp), %rdx
	leaq	800(%rbp), %rax
	movq	%rdx, %r8
	leaq	.LC12(%rip), %rdx
	movq	%rax, %rcx
.LEHB74:
	call	_ZNSt7__cxx1112basic_stringIcSt11char_traitsIcESaIcEEC1EPKcRKS3_
.LEHE74:
	.loc 23 78 17 is_stmt 0 discriminator 2
	leaq	-64(%rbp), %rdx
	leaq	848(%rbp), %rax
	movq	%rax, %rcx
.LEHB75:
	call	_ZNSt7__cxx1112basic_stringIcSt11char_traitsIcESaIcEEC1ERKS4_
.LEHE75:
	.loc 23 78 17 discriminator 4
	leaq	927(%rbp), %rax
	movq	%rax, %rcx
	call	_ZNSaIcEC1Ev
	leaq	927(%rbp), %rdx
	leaq	880(%rbp), %rax
	movq	%rdx, %r8
	leaq	.LC13(%rip), %rdx
	movq	%rax, %rcx
.LEHB76:
	call	_ZNSt7__cxx1112basic_stringIcSt11char_traitsIcESaIcEEC1EPKcRKS3_
.LEHE76:
	.loc 23 78 73 is_stmt 1 discriminator 6
	leaq	928(%rbp), %rax
	leaq	-32(%rbp), %rdx
	movq	%rax, %rcx
.LEHB77:
	call	_ZN23CoeficienteAerodinamico10getValoresEv
.LEHE77:
	.loc 23 78 49 discriminator 8
	leaq	960(%rbp), %rax
	leaq	-32(%rbp), %rdx
	movq	%rax, %rcx
.LEHB78:
	call	_ZN23CoeficienteAerodinamico14getVelocidadesEv
.LEHE78:
	.loc 23 78 17 discriminator 10
	leaq	928(%rbp), %r8
	leaq	960(%rbp), %rcx
	movq	2360(%rbp), %rdx
	leaq	768(%rbp), %rax
	movq	%rax, 56(%rsp)
	leaq	800(%rbp), %rax
	movq	%rax, 48(%rsp)
	leaq	848(%rbp), %rax
	movq	%rax, 40(%rsp)
	leaq	880(%rbp), %rax
	movq	%rax, 32(%rsp)
	movq	%r8, %r9
	movq	%rcx, %r8
	movq	2352(%rbp), %rcx
.LEHB79:
	call	_ZN15MathplotHandler8plotMapaEP8mpWindowSt6vectorIdSaIdEES4_NSt7__cxx1112basic_stringIcSt11char_traitsIcESaIcEEESA_SA_8wxColour
.LEHE79:
	.loc 23 78 49 discriminator 12
	leaq	960(%rbp), %rax
	movq	%rax, %rcx
	call	_ZNSt6vectorIdSaIdEED1Ev
	.loc 23 78 73 discriminator 12
	leaq	928(%rbp), %rax
	movq	%rax, %rcx
	call	_ZNSt6vectorIdSaIdEED1Ev
	.loc 23 78 17 discriminator 12
	leaq	880(%rbp), %rax
	movq	%rax, %rcx
	call	_ZNSt7__cxx1112basic_stringIcSt11char_traitsIcESaIcEED1Ev
	leaq	927(%rbp), %rax
	movq	%rax, %rcx
	call	_ZNSaIcED1Ev
	leaq	848(%rbp), %rax
	movq	%rax, %rcx
	call	_ZNSt7__cxx1112basic_stringIcSt11char_traitsIcESaIcEED1Ev
	leaq	800(%rbp), %rax
	movq	%rax, %rcx
	call	_ZNSt7__cxx1112basic_stringIcSt11char_traitsIcESaIcEED1Ev
	leaq	847(%rbp), %rax
	movq	%rax, %rcx
	call	_ZNSaIcED1Ev
	leaq	768(%rbp), %rax
	movq	%rax, %rcx
	call	_ZN8wxColourD1Ev
	.loc 23 81 62 discriminator 12
	leaq	288(%rbp), %rax
	leaq	-32(%rbp), %rdx
	movq	%rax, %rcx
.LEHB80:
	call	_ZN23CoeficienteAerodinamico14getVelocidadesEv
.LEHE80:
	.loc 23 82 54
	leaq	288(%rbp), %rax
	movq	%rax, %rcx
	call	_ZNKSt6vectorIdSaIdEE4sizeEv
	.loc 23 82 58
	leaq	-1(%rax), %rdx
	leaq	288(%rbp), %rax
	movq	%rax, %rcx
.LEHB81:
	call	_ZNSt6vectorIdSaIdEE2atEy
	movsd	(%rax), %xmm0
	movsd	%xmm0, 2296(%rbp)
	.loc 23 83 41
	movsd	.LC20(%rip), %xmm0
	leaq	-32(%rbp), %rax
	movapd	%xmm0, %xmm1
	movq	%rax, %rcx
	call	_ZN23CoeficienteAerodinamico8getValorEd
	.loc 23 83 41 is_stmt 0 discriminator 1
	movq	%xmm0, %rax
	movq	%rax, 2288(%rbp)
	.loc 23 84 19 is_stmt 1 discriminator 1
	movsd	2288(%rbp), %xmm1
	movsd	.LC14(%rip), %xmm0
	addsd	%xmm1, %xmm0
	movsd	.LC16(%rip), %xmm2
	movsd	2296(%rbp), %xmm1
	movq	2360(%rbp), %rax
	movq	$0, 48(%rsp)
	movq	$0, 40(%rsp)
	movsd	%xmm0, 32(%rsp)
	movapd	%xmm2, %xmm3
	movapd	%xmm1, %xmm2
	pxor	%xmm1, %xmm1
	movq	%rax, %rcx
	call	_ZN8mpWindow3FitEddddPiS0_
.LEHE81:
	.loc 23 85 9
	nop
	.loc 23 81 62
	leaq	288(%rbp), %rax
	movq	%rax, %rcx
	call	_ZNSt6vectorIdSaIdEED1Ev
	.loc 23 77 97
	leaq	-64(%rbp), %rax
	movq	%rax, %rcx
	call	_ZNSt7__cxx1112basic_stringIcSt11char_traitsIcESaIcEED1Ev
	.loc 23 76 50
	leaq	32(%rbp), %rax
	movq	%rax, %rcx
	call	_ZN8ProjetilD1Ev
	.loc 23 74 26
	leaq	-32(%rbp), %rax
	movq	%rax, %rcx
	call	_ZN16CoeficienteDrag2D1Ev
	jmp	.L250
.L255:
.LBE44:
.LBB45:
	.loc 23 89 25
	leaq	-32(%rbp), %rax
	movq	%rax, %rcx
.LEHB82:
	call	_ZN15CoeficienteLiftC1Ev
.LEHE82:
	.loc 23 90 33
	movq	.refptr.coefDAO(%rip), %rax
	movq	(%rax), %rdx
	leaq	992(%rbp), %rax
	leaq	-32(%rbp), %rcx
	movq	%rcx, %r8
	movq	%rax, %rcx
.LEHB83:
	call	_ZN15CoeficientesDAO15geraCoeficienteER23CoeficienteAerodinamico
	.loc 23 90 33 is_stmt 0 discriminator 1
	leaq	992(%rbp), %rax
	movq	%rax, %rcx
	call	_ZN23CoeficienteAerodinamicoD1Ev
	.loc 23 91 50 is_stmt 1 discriminator 1
	movq	.refptr.coefDAO(%rip), %rax
	movq	(%rax), %rdx
	leaq	32(%rbp), %rax
	movq	%rax, %rcx
	call	_ZN15CoeficientesDAO11getProjetilEv
.LEHE83:
	.loc 23 92 95
	leaq	1071(%rbp), %rax
	movq	%rax, %rcx
	call	_ZNSaIcEC1Ev
	.loc 23 92 56
	leaq	32(%rbp), %rax
	movq	%rax, %rcx
	call	_ZN8Projetil13getTipoForcasEv
	.loc 23 92 95
	testl	%eax, %eax
	jne	.L262
	.loc 23 92 95 is_stmt 0 discriminator 1
	leaq	.LC21(%rip), %rax
	jmp	.L263
.L262:
	.loc 23 92 95 discriminator 2
	leaq	.LC22(%rip), %rax
.L263:
	.loc 23 92 95 discriminator 4
	leaq	1071(%rbp), %rdx
	leaq	-64(%rbp), %rcx
	movq	%rdx, %r8
	movq	%rax, %rdx
.LEHB84:
	call	_ZNSt7__cxx1112basic_stringIcSt11char_traitsIcESaIcEEC1EPKcRKS3_
.LEHE84:
	leaq	1071(%rbp), %rax
	movq	%rax, %rcx
	call	_ZNSaIcED1Ev
	.loc 23 93 17 is_stmt 1
	leaq	352(%rbp), %rdx
	leaq	1072(%rbp), %rax
	movq	%rax, %rcx
	call	_ZN8wxColourC1ERKS_
	leaq	1151(%rbp), %rax
	movq	%rax, %rcx
	call	_ZNSaIcEC1Ev
	leaq	1151(%rbp), %rdx
	leaq	1104(%rbp), %rax
	movq	%rdx, %r8
	leaq	.LC12(%rip), %rdx
	movq	%rax, %rcx
.LEHB85:
	call	_ZNSt7__cxx1112basic_stringIcSt11char_traitsIcESaIcEEC1EPKcRKS3_
.LEHE85:
	.loc 23 93 17 is_stmt 0 discriminator 2
	leaq	-64(%rbp), %rdx
	leaq	1152(%rbp), %rax
	movq	%rax, %rcx
.LEHB86:
	call	_ZNSt7__cxx1112basic_stringIcSt11char_traitsIcESaIcEEC1ERKS4_
.LEHE86:
	.loc 23 93 17 discriminator 4
	leaq	1231(%rbp), %rax
	movq	%rax, %rcx
	call	_ZNSaIcEC1Ev
	leaq	1231(%rbp), %rdx
	leaq	1184(%rbp), %rax
	movq	%rdx, %r8
	leaq	.LC13(%rip), %rdx
	movq	%rax, %rcx
.LEHB87:
	call	_ZNSt7__cxx1112basic_stringIcSt11char_traitsIcESaIcEEC1EPKcRKS3_
.LEHE87:
	.loc 23 93 71 is_stmt 1 discriminator 6
	leaq	1232(%rbp), %rax
	leaq	-32(%rbp), %rdx
	movq	%rax, %rcx
.LEHB88:
	call	_ZN23CoeficienteAerodinamico10getValoresEv
.LEHE88:
	.loc 23 93 48 discriminator 8
	leaq	1264(%rbp), %rax
	leaq	-32(%rbp), %rdx
	movq	%rax, %rcx
.LEHB89:
	call	_ZN23CoeficienteAerodinamico14getVelocidadesEv
.LEHE89:
	.loc 23 93 17 discriminator 10
	leaq	1232(%rbp), %r8
	leaq	1264(%rbp), %rcx
	movq	2360(%rbp), %rdx
	leaq	1072(%rbp), %rax
	movq	%rax, 56(%rsp)
	leaq	1104(%rbp), %rax
	movq	%rax, 48(%rsp)
	leaq	1152(%rbp), %rax
	movq	%rax, 40(%rsp)
	leaq	1184(%rbp), %rax
	movq	%rax, 32(%rsp)
	movq	%r8, %r9
	movq	%rcx, %r8
	movq	2352(%rbp), %rcx
.LEHB90:
	call	_ZN15MathplotHandler8plotMapaEP8mpWindowSt6vectorIdSaIdEES4_NSt7__cxx1112basic_stringIcSt11char_traitsIcESaIcEEESA_SA_8wxColour
.LEHE90:
	.loc 23 93 48 discriminator 12
	leaq	1264(%rbp), %rax
	movq	%rax, %rcx
	call	_ZNSt6vectorIdSaIdEED1Ev
	.loc 23 93 71 discriminator 12
	leaq	1232(%rbp), %rax
	movq	%rax, %rcx
	call	_ZNSt6vectorIdSaIdEED1Ev
	.loc 23 93 17 discriminator 12
	leaq	1184(%rbp), %rax
	movq	%rax, %rcx
	call	_ZNSt7__cxx1112basic_stringIcSt11char_traitsIcESaIcEED1Ev
	leaq	1231(%rbp), %rax
	movq	%rax, %rcx
	call	_ZNSaIcED1Ev
	leaq	1152(%rbp), %rax
	movq	%rax, %rcx
	call	_ZNSt7__cxx1112basic_stringIcSt11char_traitsIcESaIcEED1Ev
	leaq	1104(%rbp), %rax
	movq	%rax, %rcx
	call	_ZNSt7__cxx1112basic_stringIcSt11char_traitsIcESaIcEED1Ev
	leaq	1151(%rbp), %rax
	movq	%rax, %rcx
	call	_ZNSaIcED1Ev
	leaq	1072(%rbp), %rax
	movq	%rax, %rcx
	call	_ZN8wxColourD1Ev
	.loc 23 96 61 discriminator 12
	leaq	256(%rbp), %rax
	leaq	-32(%rbp), %rdx
	movq	%rax, %rcx
.LEHB91:
	call	_ZN23CoeficienteAerodinamico14getVelocidadesEv
.LEHE91:
	.loc 23 97 54
	leaq	256(%rbp), %rax
	movq	%rax, %rcx
	call	_ZNKSt6vectorIdSaIdEE4sizeEv
	.loc 23 97 58
	leaq	-1(%rax), %rdx
	leaq	256(%rbp), %rax
	movq	%rax, %rcx
.LEHB92:
	call	_ZNSt6vectorIdSaIdEE2atEy
	movsd	(%rax), %xmm0
	movsd	%xmm0, 2280(%rbp)
	.loc 23 98 40
	movsd	2280(%rbp), %xmm0
	leaq	-32(%rbp), %rax
	movapd	%xmm0, %xmm1
	movq	%rax, %rcx
	call	_ZN23CoeficienteAerodinamico8getValorEd
	.loc 23 98 40 is_stmt 0 discriminator 1
	movq	%xmm0, %rax
	movq	%rax, 2272(%rbp)
	.loc 23 100 19 is_stmt 1 discriminator 1
	movsd	2272(%rbp), %xmm1
	movsd	.LC14(%rip), %xmm0
	addsd	%xmm1, %xmm0
	movsd	.LC16(%rip), %xmm2
	movsd	2280(%rbp), %xmm1
	movq	2360(%rbp), %rax
	movq	$0, 48(%rsp)
	movq	$0, 40(%rsp)
	movsd	%xmm0, 32(%rsp)
	movapd	%xmm2, %xmm3
	movapd	%xmm1, %xmm2
	pxor	%xmm1, %xmm1
	movq	%rax, %rcx
	call	_ZN8mpWindow3FitEddddPiS0_
.LEHE92:
	.loc 23 101 9
	nop
	.loc 23 96 61
	leaq	256(%rbp), %rax
	movq	%rax, %rcx
	call	_ZNSt6vectorIdSaIdEED1Ev
	.loc 23 92 95
	leaq	-64(%rbp), %rax
	movq	%rax, %rcx
	call	_ZNSt7__cxx1112basic_stringIcSt11char_traitsIcESaIcEED1Ev
	.loc 23 91 50
	leaq	32(%rbp), %rax
	movq	%rax, %rcx
	call	_ZN8ProjetilD1Ev
	.loc 23 89 25
	leaq	-32(%rbp), %rax
	movq	%rax, %rcx
	call	_ZN15CoeficienteLiftD1Ev
	jmp	.L250
.L254:
.LBE45:
.LBB46:
	.loc 23 105 32
	leaq	32(%rbp), %rax
	movq	%rax, %rcx
.LEHB93:
	call	_ZN22CoeficienteMagnusForceC1Ev
.LEHE93:
	.loc 23 106 33
	movq	.refptr.coefDAO(%rip), %rax
	movq	(%rax), %rdx
	leaq	1296(%rbp), %rax
	leaq	32(%rbp), %rcx
	movq	%rcx, %r8
	movq	%rax, %rcx
.LEHB94:
	call	_ZN15CoeficientesDAO15geraCoeficienteER23CoeficienteAerodinamico
.LEHE94:
	.loc 23 106 33 is_stmt 0 discriminator 1
	leaq	1296(%rbp), %rax
	movq	%rax, %rcx
	call	_ZN23CoeficienteAerodinamicoD1Ev
	.loc 23 107 17 is_stmt 1 discriminator 1
	leaq	352(%rbp), %rdx
	leaq	1360(%rbp), %rax
	movq	%rax, %rcx
	call	_ZN8wxColourC1ERKS_
	leaq	1439(%rbp), %rax
	movq	%rax, %rcx
	call	_ZNSaIcEC1Ev
	leaq	1439(%rbp), %rdx
	leaq	1392(%rbp), %rax
	movq	%rdx, %r8
	leaq	.LC12(%rip), %rdx
	movq	%rax, %rcx
.LEHB95:
	call	_ZNSt7__cxx1112basic_stringIcSt11char_traitsIcESaIcEEC1EPKcRKS3_
.LEHE95:
	.loc 23 107 17 is_stmt 0 discriminator 2
	leaq	1487(%rbp), %rax
	movq	%rax, %rcx
	call	_ZNSaIcEC1Ev
	leaq	1487(%rbp), %rdx
	leaq	1440(%rbp), %rax
	movq	%rdx, %r8
	leaq	.LC23(%rip), %rdx
	movq	%rax, %rcx
.LEHB96:
	call	_ZNSt7__cxx1112basic_stringIcSt11char_traitsIcESaIcEEC1EPKcRKS3_
.LEHE96:
	.loc 23 107 17 discriminator 4
	leaq	1535(%rbp), %rax
	movq	%rax, %rcx
	call	_ZNSaIcEC1Ev
	leaq	1535(%rbp), %rdx
	leaq	1488(%rbp), %rax
	movq	%rdx, %r8
	leaq	.LC13(%rip), %rdx
	movq	%rax, %rcx
.LEHB97:
	call	_ZNSt7__cxx1112basic_stringIcSt11char_traitsIcESaIcEEC1EPKcRKS3_
.LEHE97:
	.loc 23 107 75 is_stmt 1 discriminator 6
	leaq	1536(%rbp), %rax
	leaq	32(%rbp), %rdx
	movq	%rax, %rcx
.LEHB98:
	call	_ZN23CoeficienteAerodinamico10getValoresEv
.LEHE98:
	.loc 23 107 50 discriminator 8
	leaq	1568(%rbp), %rax
	leaq	32(%rbp), %rdx
	movq	%rax, %rcx
.LEHB99:
	call	_ZN23CoeficienteAerodinamico14getVelocidadesEv
.LEHE99:
	.loc 23 107 17 discriminator 10
	leaq	1536(%rbp), %r8
	leaq	1568(%rbp), %rcx
	movq	2360(%rbp), %rdx
	leaq	1360(%rbp), %rax
	movq	%rax, 56(%rsp)
	leaq	1392(%rbp), %rax
	movq	%rax, 48(%rsp)
	leaq	1440(%rbp), %rax
	movq	%rax, 40(%rsp)
	leaq	1488(%rbp), %rax
	movq	%rax, 32(%rsp)
	movq	%r8, %r9
	movq	%rcx, %r8
	movq	2352(%rbp), %rcx
.LEHB100:
	call	_ZN15MathplotHandler8plotMapaEP8mpWindowSt6vectorIdSaIdEES4_NSt7__cxx1112basic_stringIcSt11char_traitsIcESaIcEEESA_SA_8wxColour
.LEHE100:
	.loc 23 107 50 discriminator 12
	leaq	1568(%rbp), %rax
	movq	%rax, %rcx
	call	_ZNSt6vectorIdSaIdEED1Ev
	.loc 23 107 75 discriminator 12
	leaq	1536(%rbp), %rax
	movq	%rax, %rcx
	call	_ZNSt6vectorIdSaIdEED1Ev
	.loc 23 107 17 discriminator 12
	leaq	1488(%rbp), %rax
	movq	%rax, %rcx
	call	_ZNSt7__cxx1112basic_stringIcSt11char_traitsIcESaIcEED1Ev
	leaq	1535(%rbp), %rax
	movq	%rax, %rcx
	call	_ZNSaIcED1Ev
	leaq	1440(%rbp), %rax
	movq	%rax, %rcx
	call	_ZNSt7__cxx1112basic_stringIcSt11char_traitsIcESaIcEED1Ev
	leaq	1487(%rbp), %rax
	movq	%rax, %rcx
	call	_ZNSaIcED1Ev
	leaq	1392(%rbp), %rax
	movq	%rax, %rcx
	call	_ZNSt7__cxx1112basic_stringIcSt11char_traitsIcESaIcEED1Ev
	leaq	1439(%rbp), %rax
	movq	%rax, %rcx
	call	_ZNSaIcED1Ev
	leaq	1360(%rbp), %rax
	movq	%rax, %rcx
	call	_ZN8wxColourD1Ev
	.loc 23 110 63 discriminator 12
	leaq	224(%rbp), %rax
	leaq	32(%rbp), %rdx
	movq	%rax, %rcx
.LEHB101:
	call	_ZN23CoeficienteAerodinamico14getVelocidadesEv
.LEHE101:
	.loc 23 111 54
	leaq	224(%rbp), %rax
	movq	%rax, %rcx
	call	_ZNKSt6vectorIdSaIdEE4sizeEv
	.loc 23 111 58
	leaq	-1(%rax), %rdx
	leaq	224(%rbp), %rax
	movq	%rax, %rcx
.LEHB102:
	call	_ZNSt6vectorIdSaIdEE2atEy
	movsd	(%rax), %xmm0
	movsd	%xmm0, 2264(%rbp)
	.loc 23 113 42
	movsd	2264(%rbp), %xmm0
	leaq	32(%rbp), %rax
	movapd	%xmm0, %xmm1
	movq	%rax, %rcx
	call	_ZN23CoeficienteAerodinamico8getValorEd
	.loc 23 113 42 is_stmt 0 discriminator 1
	movq	%xmm0, %rax
	movq	%rax, 2256(%rbp)
	.loc 23 114 42 is_stmt 1 discriminator 1
	movsd	.LC14(%rip), %xmm0
	leaq	32(%rbp), %rax
	movapd	%xmm0, %xmm1
	movq	%rax, %rcx
	call	_ZN23CoeficienteAerodinamico8getValorEd
	movq	%xmm0, %rax
	movq	%rax, 2248(%rbp)
	.loc 23 116 19 discriminator 1
	movsd	2256(%rbp), %xmm1
	movsd	.LC15(%rip), %xmm0
	addsd	%xmm1, %xmm0
	movsd	2248(%rbp), %xmm1
	movsd	.LC15(%rip), %xmm2
	subsd	%xmm2, %xmm1
	movapd	%xmm1, %xmm2
	movsd	2264(%rbp), %xmm1
	movq	2360(%rbp), %rax
	movq	$0, 48(%rsp)
	movq	$0, 40(%rsp)
	movsd	%xmm0, 32(%rsp)
	movapd	%xmm2, %xmm3
	movapd	%xmm1, %xmm2
	pxor	%xmm1, %xmm1
	movq	%rax, %rcx
	call	_ZN8mpWindow3FitEddddPiS0_
.LEHE102:
	.loc 23 117 9
	nop
	.loc 23 110 63
	leaq	224(%rbp), %rax
	movq	%rax, %rcx
	call	_ZNSt6vectorIdSaIdEED1Ev
	.loc 23 105 32
	leaq	32(%rbp), %rax
	movq	%rax, %rcx
	call	_ZN22CoeficienteMagnusForceD1Ev
	jmp	.L250
.L253:
.LBE46:
.LBB47:
	.loc 23 123 38
	leaq	32(%rbp), %rax
	movq	%rax, %rcx
.LEHB103:
	call	_ZN28CoeficienteOverturningMomentC1Ev
.LEHE103:
	.loc 23 124 33
	movq	.refptr.coefDAO(%rip), %rax
	movq	(%rax), %rdx
	leaq	1600(%rbp), %rax
	leaq	32(%rbp), %rcx
	movq	%rcx, %r8
	movq	%rax, %rcx
.LEHB104:
	call	_ZN15CoeficientesDAO15geraCoeficienteER23CoeficienteAerodinamico
.LEHE104:
	.loc 23 124 33 is_stmt 0 discriminator 1
	leaq	1600(%rbp), %rax
	movq	%rax, %rcx
	call	_ZN23CoeficienteAerodinamicoD1Ev
	.loc 23 125 17 is_stmt 1 discriminator 1
	leaq	352(%rbp), %rdx
	leaq	1664(%rbp), %rax
	movq	%rax, %rcx
	call	_ZN8wxColourC1ERKS_
	leaq	1743(%rbp), %rax
	movq	%rax, %rcx
	call	_ZNSaIcEC1Ev
	leaq	1743(%rbp), %rdx
	leaq	1696(%rbp), %rax
	movq	%rdx, %r8
	leaq	.LC12(%rip), %rdx
	movq	%rax, %rcx
.LEHB105:
	call	_ZNSt7__cxx1112basic_stringIcSt11char_traitsIcESaIcEEC1EPKcRKS3_
.LEHE105:
	.loc 23 125 17 is_stmt 0 discriminator 2
	leaq	1791(%rbp), %rax
	movq	%rax, %rcx
	call	_ZNSaIcEC1Ev
	leaq	1791(%rbp), %rdx
	leaq	1744(%rbp), %rax
	movq	%rdx, %r8
	leaq	.LC24(%rip), %rdx
	movq	%rax, %rcx
.LEHB106:
	call	_ZNSt7__cxx1112basic_stringIcSt11char_traitsIcESaIcEEC1EPKcRKS3_
.LEHE106:
	.loc 23 125 17 discriminator 4
	leaq	1839(%rbp), %rax
	movq	%rax, %rcx
	call	_ZNSaIcEC1Ev
	leaq	1839(%rbp), %rdx
	leaq	1792(%rbp), %rax
	movq	%rdx, %r8
	leaq	.LC13(%rip), %rdx
	movq	%rax, %rcx
.LEHB107:
	call	_ZNSt7__cxx1112basic_stringIcSt11char_traitsIcESaIcEEC1EPKcRKS3_
.LEHE107:
	.loc 23 125 85 is_stmt 1 discriminator 6
	leaq	1840(%rbp), %rax
	leaq	32(%rbp), %rdx
	movq	%rax, %rcx
.LEHB108:
	call	_ZN23CoeficienteAerodinamico10getValoresEv
.LEHE108:
	.loc 23 125 55 discriminator 8
	leaq	1872(%rbp), %rax
	leaq	32(%rbp), %rdx
	movq	%rax, %rcx
.LEHB109:
	call	_ZN23CoeficienteAerodinamico14getVelocidadesEv
.LEHE109:
	.loc 23 125 17 discriminator 10
	leaq	1840(%rbp), %r8
	leaq	1872(%rbp), %rcx
	movq	2360(%rbp), %rdx
	leaq	1664(%rbp), %rax
	movq	%rax, 56(%rsp)
	leaq	1696(%rbp), %rax
	movq	%rax, 48(%rsp)
	leaq	1744(%rbp), %rax
	movq	%rax, 40(%rsp)
	leaq	1792(%rbp), %rax
	movq	%rax, 32(%rsp)
	movq	%r8, %r9
	movq	%rcx, %r8
	movq	2352(%rbp), %rcx
.LEHB110:
	call	_ZN15MathplotHandler8plotMapaEP8mpWindowSt6vectorIdSaIdEES4_NSt7__cxx1112basic_stringIcSt11char_traitsIcESaIcEEESA_SA_8wxColour
.LEHE110:
	.loc 23 125 55 discriminator 12
	leaq	1872(%rbp), %rax
	movq	%rax, %rcx
	call	_ZNSt6vectorIdSaIdEED1Ev
	.loc 23 125 85 discriminator 12
	leaq	1840(%rbp), %rax
	movq	%rax, %rcx
	call	_ZNSt6vectorIdSaIdEED1Ev
	.loc 23 125 17 discriminator 12
	leaq	1792(%rbp), %rax
	movq	%rax, %rcx
	call	_ZNSt7__cxx1112basic_stringIcSt11char_traitsIcESaIcEED1Ev
	leaq	1839(%rbp), %rax
	movq	%rax, %rcx
	call	_ZNSaIcED1Ev
	leaq	1744(%rbp), %rax
	movq	%rax, %rcx
	call	_ZNSt7__cxx1112basic_stringIcSt11char_traitsIcESaIcEED1Ev
	leaq	1791(%rbp), %rax
	movq	%rax, %rcx
	call	_ZNSaIcED1Ev
	leaq	1696(%rbp), %rax
	movq	%rax, %rcx
	call	_ZNSt7__cxx1112basic_stringIcSt11char_traitsIcESaIcEED1Ev
	leaq	1743(%rbp), %rax
	movq	%rax, %rcx
	call	_ZNSaIcED1Ev
	leaq	1664(%rbp), %rax
	movq	%rax, %rcx
	call	_ZN8wxColourD1Ev
	.loc 23 127 68 discriminator 12
	leaq	192(%rbp), %rax
	leaq	32(%rbp), %rdx
	movq	%rax, %rcx
.LEHB111:
	call	_ZN23CoeficienteAerodinamico14getVelocidadesEv
.LEHE111:
	.loc 23 128 54
	leaq	192(%rbp), %rax
	movq	%rax, %rcx
	call	_ZNKSt6vectorIdSaIdEE4sizeEv
	.loc 23 128 58
	leaq	-1(%rax), %rdx
	leaq	192(%rbp), %rax
	movq	%rax, %rcx
.LEHB112:
	call	_ZNSt6vectorIdSaIdEE2atEy
	movsd	(%rax), %xmm0
	movsd	%xmm0, 2240(%rbp)
	.loc 23 129 47
	movsd	.LC25(%rip), %xmm0
	leaq	32(%rbp), %rax
	movapd	%xmm0, %xmm1
	movq	%rax, %rcx
	call	_ZN23CoeficienteAerodinamico8getValorEd
	.loc 23 129 47 is_stmt 0 discriminator 1
	movq	%xmm0, %rax
	movq	%rax, 2232(%rbp)
	.loc 23 130 47 is_stmt 1 discriminator 1
	movsd	2240(%rbp), %xmm0
	leaq	32(%rbp), %rax
	movapd	%xmm0, %xmm1
	movq	%rax, %rcx
	call	_ZN23CoeficienteAerodinamico8getValorEd
	movq	%xmm0, %rax
	movq	%rax, 2224(%rbp)
	.loc 23 132 19 discriminator 1
	movsd	2232(%rbp), %xmm1
	movsd	.LC26(%rip), %xmm0
	addsd	%xmm1, %xmm0
	movsd	2224(%rbp), %xmm1
	movsd	.LC15(%rip), %xmm2
	subsd	%xmm2, %xmm1
	movapd	%xmm1, %xmm2
	movsd	2240(%rbp), %xmm1
	movq	2360(%rbp), %rax
	movq	$0, 48(%rsp)
	movq	$0, 40(%rsp)
	movsd	%xmm0, 32(%rsp)
	movapd	%xmm2, %xmm3
	movapd	%xmm1, %xmm2
	pxor	%xmm1, %xmm1
	movq	%rax, %rcx
	call	_ZN8mpWindow3FitEddddPiS0_
.LEHE112:
	.loc 23 133 9
	nop
	.loc 23 127 68
	leaq	192(%rbp), %rax
	movq	%rax, %rcx
	call	_ZNSt6vectorIdSaIdEED1Ev
	.loc 23 123 38
	leaq	32(%rbp), %rax
	movq	%rax, %rcx
	call	_ZN28CoeficienteOverturningMomentD1Ev
	jmp	.L250
.L251:
.LBE47:
.LBB48:
	.loc 23 138 38
	leaq	32(%rbp), %rax
	movq	%rax, %rcx
.LEHB113:
	call	_ZN28CoeficienteSpinDampingMomentC1Ev
.LEHE113:
	.loc 23 139 33
	movq	.refptr.coefDAO(%rip), %rax
	movq	(%rax), %rdx
	leaq	1904(%rbp), %rax
	leaq	32(%rbp), %rcx
	movq	%rcx, %r8
	movq	%rax, %rcx
.LEHB114:
	call	_ZN15CoeficientesDAO15geraCoeficienteER23CoeficienteAerodinamico
.LEHE114:
	.loc 23 139 33 is_stmt 0 discriminator 1
	leaq	1904(%rbp), %rax
	movq	%rax, %rcx
	call	_ZN23CoeficienteAerodinamicoD1Ev
	.loc 23 140 17 is_stmt 1 discriminator 1
	leaq	352(%rbp), %rdx
	leaq	1968(%rbp), %rax
	movq	%rax, %rcx
	call	_ZN8wxColourC1ERKS_
	leaq	2047(%rbp), %rax
	movq	%rax, %rcx
	call	_ZNSaIcEC1Ev
	leaq	2047(%rbp), %rdx
	leaq	2000(%rbp), %rax
	movq	%rdx, %r8
	leaq	.LC12(%rip), %rdx
	movq	%rax, %rcx
.LEHB115:
	call	_ZNSt7__cxx1112basic_stringIcSt11char_traitsIcESaIcEEC1EPKcRKS3_
.LEHE115:
	.loc 23 140 17 is_stmt 0 discriminator 2
	leaq	2095(%rbp), %rax
	movq	%rax, %rcx
	call	_ZNSaIcEC1Ev
	leaq	2095(%rbp), %rdx
	leaq	2048(%rbp), %rax
	movq	%rdx, %r8
	leaq	.LC27(%rip), %rdx
	movq	%rax, %rcx
.LEHB116:
	call	_ZNSt7__cxx1112basic_stringIcSt11char_traitsIcESaIcEEC1EPKcRKS3_
.LEHE116:
	.loc 23 140 17 discriminator 4
	leaq	2143(%rbp), %rax
	movq	%rax, %rcx
	call	_ZNSaIcEC1Ev
	leaq	2143(%rbp), %rdx
	leaq	2096(%rbp), %rax
	movq	%rdx, %r8
	leaq	.LC13(%rip), %rdx
	movq	%rax, %rcx
.LEHB117:
	call	_ZNSt7__cxx1112basic_stringIcSt11char_traitsIcESaIcEEC1EPKcRKS3_
.LEHE117:
	.loc 23 140 71 is_stmt 1 discriminator 6
	leaq	2144(%rbp), %rax
	leaq	32(%rbp), %rdx
	movq	%rax, %rcx
.LEHB118:
	call	_ZN23CoeficienteAerodinamico10getValoresEv
.LEHE118:
	.loc 23 140 48 discriminator 8
	leaq	2176(%rbp), %rax
	leaq	32(%rbp), %rdx
	movq	%rax, %rcx
.LEHB119:
	call	_ZN23CoeficienteAerodinamico14getVelocidadesEv
.LEHE119:
	.loc 23 140 17 discriminator 10
	leaq	2144(%rbp), %r8
	leaq	2176(%rbp), %rcx
	movq	2360(%rbp), %rdx
	leaq	1968(%rbp), %rax
	movq	%rax, 56(%rsp)
	leaq	2000(%rbp), %rax
	movq	%rax, 48(%rsp)
	leaq	2048(%rbp), %rax
	movq	%rax, 40(%rsp)
	leaq	2096(%rbp), %rax
	movq	%rax, 32(%rsp)
	movq	%r8, %r9
	movq	%rcx, %r8
	movq	2352(%rbp), %rcx
.LEHB120:
	call	_ZN15MathplotHandler8plotMapaEP8mpWindowSt6vectorIdSaIdEES4_NSt7__cxx1112basic_stringIcSt11char_traitsIcESaIcEEESA_SA_8wxColour
.LEHE120:
	.loc 23 140 48 discriminator 12
	leaq	2176(%rbp), %rax
	movq	%rax, %rcx
	call	_ZNSt6vectorIdSaIdEED1Ev
	.loc 23 140 71 discriminator 12
	leaq	2144(%rbp), %rax
	movq	%rax, %rcx
	call	_ZNSt6vectorIdSaIdEED1Ev
	.loc 23 140 17 discriminator 12
	leaq	2096(%rbp), %rax
	movq	%rax, %rcx
	call	_ZNSt7__cxx1112basic_stringIcSt11char_traitsIcESaIcEED1Ev
	leaq	2143(%rbp), %rax
	movq	%rax, %rcx
	call	_ZNSaIcED1Ev
	leaq	2048(%rbp), %rax
	movq	%rax, %rcx
	call	_ZNSt7__cxx1112basic_stringIcSt11char_traitsIcESaIcEED1Ev
	leaq	2095(%rbp), %rax
	movq	%rax, %rcx
	call	_ZNSaIcED1Ev
	leaq	2000(%rbp), %rax
	movq	%rax, %rcx
	call	_ZNSt7__cxx1112basic_stringIcSt11char_traitsIcESaIcEED1Ev
	leaq	2047(%rbp), %rax
	movq	%rax, %rcx
	call	_ZNSaIcED1Ev
	leaq	1968(%rbp), %rax
	movq	%rax, %rcx
	call	_ZN8wxColourD1Ev
	.loc 23 142 40 discriminator 12
	movsd	.LC25(%rip), %xmm0
	leaq	32(%rbp), %rax
	movapd	%xmm0, %xmm1
	movq	%rax, %rcx
.LEHB121:
	call	_ZN23CoeficienteAerodinamico8getValorEd
	movq	%xmm0, %rax
	movq	%rax, 2216(%rbp)
	.loc 23 143 40 discriminator 12
	leaq	32(%rbp), %rax
	pxor	%xmm1, %xmm1
	movq	%rax, %rcx
	call	_ZN23CoeficienteAerodinamico8getValorEd
	.loc 23 143 40 is_stmt 0 discriminator 1
	movq	%xmm0, %rax
	movq	%rax, 2208(%rbp)
	.loc 23 145 61 is_stmt 1 discriminator 1
	leaq	160(%rbp), %rax
	leaq	32(%rbp), %rdx
	movq	%rax, %rcx
	call	_ZN23CoeficienteAerodinamico14getVelocidadesEv
.LEHE121:
	.loc 23 146 54
	leaq	160(%rbp), %rax
	movq	%rax, %rcx
	call	_ZNKSt6vectorIdSaIdEE4sizeEv
	.loc 23 146 58
	leaq	-1(%rax), %rdx
	leaq	160(%rbp), %rax
	movq	%rax, %rcx
.LEHB122:
	call	_ZNSt6vectorIdSaIdEE2atEy
	movsd	(%rax), %xmm0
	movsd	%xmm0, 2200(%rbp)
	.loc 23 148 19
	movsd	2216(%rbp), %xmm1
	movsd	.LC28(%rip), %xmm0
	addsd	%xmm1, %xmm0
	movsd	2208(%rbp), %xmm1
	movsd	.LC28(%rip), %xmm2
	subsd	%xmm2, %xmm1
	movapd	%xmm1, %xmm2
	movsd	2200(%rbp), %xmm1
	movq	2360(%rbp), %rax
	movq	$0, 48(%rsp)
	movq	$0, 40(%rsp)
	movsd	%xmm0, 32(%rsp)
	movapd	%xmm2, %xmm3
	movapd	%xmm1, %xmm2
	pxor	%xmm1, %xmm1
	movq	%rax, %rcx
	call	_ZN8mpWindow3FitEddddPiS0_
.LEHE122:
	.loc 23 149 9
	nop
	.loc 23 145 61
	leaq	160(%rbp), %rax
	movq	%rax, %rcx
	call	_ZNSt6vectorIdSaIdEED1Ev
	.loc 23 138 38
	leaq	32(%rbp), %rax
	movq	%rax, %rcx
	call	_ZN28CoeficienteSpinDampingMomentD1Ev
.L250:
.LBE48:
.LBE42:
.LBE41:
	.loc 23 53 32
	leaq	352(%rbp), %rax
	movq	%rax, %rcx
	call	_ZN8wxColourD1Ev
	.loc 23 153 2
	jmp	.L377
.L323:
	movq	%rax, %rbx
.LBB56:
.LBB55:
.LBB49:
	leaq	463(%rbp), %rax
	movq	%rax, %rcx
	call	_ZNSaIcED1Ev
	jmp	.L265
.L329:
	movq	%rax, %rbx
	.loc 23 63 48
	leaq	656(%rbp), %rax
	movq	%rax, %rcx
	call	_ZNSt6vectorIdSaIdEED1Ev
	jmp	.L267
.L328:
	movq	%rax, %rbx
.L267:
	.loc 23 63 71 discriminator 9
	leaq	624(%rbp), %rax
	movq	%rax, %rcx
	call	_ZNSt6vectorIdSaIdEED1Ev
	jmp	.L268
.L327:
	movq	%rax, %rbx
.L268:
	.loc 23 63 17 discriminator 7
	leaq	576(%rbp), %rax
	movq	%rax, %rcx
	call	_ZNSt7__cxx1112basic_stringIcSt11char_traitsIcESaIcEED1Ev
	jmp	.L269
.L326:
	movq	%rax, %rbx
.L269:
	.loc 23 63 17 is_stmt 0 discriminator 5
	leaq	623(%rbp), %rax
	movq	%rax, %rcx
	call	_ZNSaIcED1Ev
	leaq	544(%rbp), %rax
	movq	%rax, %rcx
	call	_ZNSt7__cxx1112basic_stringIcSt11char_traitsIcESaIcEED1Ev
	jmp	.L270
.L325:
	movq	%rax, %rbx
.L270:
	.loc 23 63 17 discriminator 3
	leaq	496(%rbp), %rax
	movq	%rax, %rcx
	call	_ZNSt7__cxx1112basic_stringIcSt11char_traitsIcESaIcEED1Ev
	jmp	.L271
.L324:
	movq	%rax, %rbx
.L271:
	.loc 23 63 17 discriminator 1
	leaq	543(%rbp), %rax
	movq	%rax, %rcx
	call	_ZNSaIcED1Ev
	leaq	464(%rbp), %rax
	movq	%rax, %rcx
	call	_ZN8wxColourD1Ev
	jmp	.L272
.L331:
	movq	%rax, %rbx
	.loc 23 65 61 is_stmt 1
	leaq	320(%rbp), %rax
	movq	%rax, %rcx
	call	_ZNSt6vectorIdSaIdEED1Ev
	jmp	.L272
.L330:
	movq	%rax, %rbx
.L272:
	.loc 23 62 95
	leaq	-64(%rbp), %rax
	movq	%rax, %rcx
	call	_ZNSt7__cxx1112basic_stringIcSt11char_traitsIcESaIcEED1Ev
.L265:
	.loc 23 61 50
	leaq	32(%rbp), %rax
	movq	%rax, %rcx
	call	_ZN8ProjetilD1Ev
	jmp	.L274
.L322:
	movq	%rax, %rbx
.L274:
	.loc 23 59 25
	leaq	-32(%rbp), %rax
	movq	%rax, %rcx
	call	_ZN15CoeficienteDragD1Ev
	jmp	.L275
.L334:
	movq	%rax, %rbx
.LBE49:
.LBB50:
	leaq	767(%rbp), %rax
	movq	%rax, %rcx
	call	_ZNSaIcED1Ev
	jmp	.L277
.L340:
	movq	%rax, %rbx
	.loc 23 78 49
	leaq	960(%rbp), %rax
	movq	%rax, %rcx
	call	_ZNSt6vectorIdSaIdEED1Ev
	jmp	.L279
.L339:
	movq	%rax, %rbx
.L279:
	.loc 23 78 73 discriminator 9
	leaq	928(%rbp), %rax
	movq	%rax, %rcx
	call	_ZNSt6vectorIdSaIdEED1Ev
	jmp	.L280
.L338:
	movq	%rax, %rbx
.L280:
	.loc 23 78 17 discriminator 7
	leaq	880(%rbp), %rax
	movq	%rax, %rcx
	call	_ZNSt7__cxx1112basic_stringIcSt11char_traitsIcESaIcEED1Ev
	jmp	.L281
.L337:
	movq	%rax, %rbx
.L281:
	.loc 23 78 17 is_stmt 0 discriminator 5
	leaq	927(%rbp), %rax
	movq	%rax, %rcx
	call	_ZNSaIcED1Ev
	leaq	848(%rbp), %rax
	movq	%rax, %rcx
	call	_ZNSt7__cxx1112basic_stringIcSt11char_traitsIcESaIcEED1Ev
	jmp	.L282
.L336:
	movq	%rax, %rbx
.L282:
	.loc 23 78 17 discriminator 3
	leaq	800(%rbp), %rax
	movq	%rax, %rcx
	call	_ZNSt7__cxx1112basic_stringIcSt11char_traitsIcESaIcEED1Ev
	jmp	.L283
.L335:
	movq	%rax, %rbx
.L283:
	.loc 23 78 17 discriminator 1
	leaq	847(%rbp), %rax
	movq	%rax, %rcx
	call	_ZNSaIcED1Ev
	leaq	768(%rbp), %rax
	movq	%rax, %rcx
	call	_ZN8wxColourD1Ev
	jmp	.L284
.L342:
	movq	%rax, %rbx
	.loc 23 81 62 is_stmt 1
	leaq	288(%rbp), %rax
	movq	%rax, %rcx
	call	_ZNSt6vectorIdSaIdEED1Ev
	jmp	.L284
.L341:
	movq	%rax, %rbx
.L284:
	.loc 23 77 97
	leaq	-64(%rbp), %rax
	movq	%rax, %rcx
	call	_ZNSt7__cxx1112basic_stringIcSt11char_traitsIcESaIcEED1Ev
.L277:
	.loc 23 76 50
	leaq	32(%rbp), %rax
	movq	%rax, %rcx
	call	_ZN8ProjetilD1Ev
	jmp	.L286
.L333:
	movq	%rax, %rbx
.L286:
	.loc 23 74 26
	leaq	-32(%rbp), %rax
	movq	%rax, %rcx
	call	_ZN16CoeficienteDrag2D1Ev
	jmp	.L275
.L344:
	movq	%rax, %rbx
.LBE50:
.LBB51:
	leaq	1071(%rbp), %rax
	movq	%rax, %rcx
	call	_ZNSaIcED1Ev
	jmp	.L288
.L350:
	movq	%rax, %rbx
	.loc 23 93 48
	leaq	1264(%rbp), %rax
	movq	%rax, %rcx
	call	_ZNSt6vectorIdSaIdEED1Ev
	jmp	.L290
.L349:
	movq	%rax, %rbx
.L290:
	.loc 23 93 71 discriminator 9
	leaq	1232(%rbp), %rax
	movq	%rax, %rcx
	call	_ZNSt6vectorIdSaIdEED1Ev
	jmp	.L291
.L348:
	movq	%rax, %rbx
.L291:
	.loc 23 93 17 discriminator 7
	leaq	1184(%rbp), %rax
	movq	%rax, %rcx
	call	_ZNSt7__cxx1112basic_stringIcSt11char_traitsIcESaIcEED1Ev
	jmp	.L292
.L347:
	movq	%rax, %rbx
.L292:
	.loc 23 93 17 is_stmt 0 discriminator 5
	leaq	1231(%rbp), %rax
	movq	%rax, %rcx
	call	_ZNSaIcED1Ev
	leaq	1152(%rbp), %rax
	movq	%rax, %rcx
	call	_ZNSt7__cxx1112basic_stringIcSt11char_traitsIcESaIcEED1Ev
	jmp	.L293
.L346:
	movq	%rax, %rbx
.L293:
	.loc 23 93 17 discriminator 3
	leaq	1104(%rbp), %rax
	movq	%rax, %rcx
	call	_ZNSt7__cxx1112basic_stringIcSt11char_traitsIcESaIcEED1Ev
	jmp	.L294
.L345:
	movq	%rax, %rbx
.L294:
	.loc 23 93 17 discriminator 1
	leaq	1151(%rbp), %rax
	movq	%rax, %rcx
	call	_ZNSaIcED1Ev
	leaq	1072(%rbp), %rax
	movq	%rax, %rcx
	call	_ZN8wxColourD1Ev
	jmp	.L295
.L352:
	movq	%rax, %rbx
	.loc 23 96 61 is_stmt 1
	leaq	256(%rbp), %rax
	movq	%rax, %rcx
	call	_ZNSt6vectorIdSaIdEED1Ev
	jmp	.L295
.L351:
	movq	%rax, %rbx
.L295:
	.loc 23 92 95
	leaq	-64(%rbp), %rax
	movq	%rax, %rcx
	call	_ZNSt7__cxx1112basic_stringIcSt11char_traitsIcESaIcEED1Ev
.L288:
	.loc 23 91 50
	leaq	32(%rbp), %rax
	movq	%rax, %rcx
	call	_ZN8ProjetilD1Ev
	jmp	.L297
.L343:
	movq	%rax, %rbx
.L297:
	.loc 23 89 25
	leaq	-32(%rbp), %rax
	movq	%rax, %rcx
	call	_ZN15CoeficienteLiftD1Ev
	jmp	.L275
.L359:
	movq	%rax, %rbx
.LBE51:
.LBB52:
	.loc 23 107 50
	leaq	1568(%rbp), %rax
	movq	%rax, %rcx
	call	_ZNSt6vectorIdSaIdEED1Ev
	jmp	.L299
.L358:
	movq	%rax, %rbx
.L299:
	.loc 23 107 75 discriminator 9
	leaq	1536(%rbp), %rax
	movq	%rax, %rcx
	call	_ZNSt6vectorIdSaIdEED1Ev
	jmp	.L300
.L357:
	movq	%rax, %rbx
.L300:
	.loc 23 107 17 discriminator 7
	leaq	1488(%rbp), %rax
	movq	%rax, %rcx
	call	_ZNSt7__cxx1112basic_stringIcSt11char_traitsIcESaIcEED1Ev
	jmp	.L301
.L356:
	movq	%rax, %rbx
.L301:
	.loc 23 107 17 is_stmt 0 discriminator 5
	leaq	1535(%rbp), %rax
	movq	%rax, %rcx
	call	_ZNSaIcED1Ev
	leaq	1440(%rbp), %rax
	movq	%rax, %rcx
	call	_ZNSt7__cxx1112basic_stringIcSt11char_traitsIcESaIcEED1Ev
	jmp	.L302
.L355:
	movq	%rax, %rbx
.L302:
	.loc 23 107 17 discriminator 3
	leaq	1487(%rbp), %rax
	movq	%rax, %rcx
	call	_ZNSaIcED1Ev
	leaq	1392(%rbp), %rax
	movq	%rax, %rcx
	call	_ZNSt7__cxx1112basic_stringIcSt11char_traitsIcESaIcEED1Ev
	jmp	.L303
.L354:
	movq	%rax, %rbx
.L303:
	.loc 23 107 17 discriminator 1
	leaq	1439(%rbp), %rax
	movq	%rax, %rcx
	call	_ZNSaIcED1Ev
	leaq	1360(%rbp), %rax
	movq	%rax, %rcx
	call	_ZN8wxColourD1Ev
	jmp	.L304
.L360:
	movq	%rax, %rbx
	.loc 23 110 63 is_stmt 1
	leaq	224(%rbp), %rax
	movq	%rax, %rcx
	call	_ZNSt6vectorIdSaIdEED1Ev
	jmp	.L304
.L353:
	movq	%rax, %rbx
.L304:
	.loc 23 105 32
	leaq	32(%rbp), %rax
	movq	%rax, %rcx
	call	_ZN22CoeficienteMagnusForceD1Ev
	jmp	.L275
.L367:
	movq	%rax, %rbx
.LBE52:
.LBB53:
	.loc 23 125 55
	leaq	1872(%rbp), %rax
	movq	%rax, %rcx
	call	_ZNSt6vectorIdSaIdEED1Ev
	jmp	.L307
.L366:
	movq	%rax, %rbx
.L307:
	.loc 23 125 85 discriminator 9
	leaq	1840(%rbp), %rax
	movq	%rax, %rcx
	call	_ZNSt6vectorIdSaIdEED1Ev
	jmp	.L308
.L365:
	movq	%rax, %rbx
.L308:
	.loc 23 125 17 discriminator 7
	leaq	1792(%rbp), %rax
	movq	%rax, %rcx
	call	_ZNSt7__cxx1112basic_stringIcSt11char_traitsIcESaIcEED1Ev
	jmp	.L309
.L364:
	movq	%rax, %rbx
.L309:
	.loc 23 125 17 is_stmt 0 discriminator 5
	leaq	1839(%rbp), %rax
	movq	%rax, %rcx
	call	_ZNSaIcED1Ev
	leaq	1744(%rbp), %rax
	movq	%rax, %rcx
	call	_ZNSt7__cxx1112basic_stringIcSt11char_traitsIcESaIcEED1Ev
	jmp	.L310
.L363:
	movq	%rax, %rbx
.L310:
	.loc 23 125 17 discriminator 3
	leaq	1791(%rbp), %rax
	movq	%rax, %rcx
	call	_ZNSaIcED1Ev
	leaq	1696(%rbp), %rax
	movq	%rax, %rcx
	call	_ZNSt7__cxx1112basic_stringIcSt11char_traitsIcESaIcEED1Ev
	jmp	.L311
.L362:
	movq	%rax, %rbx
.L311:
	.loc 23 125 17 discriminator 1
	leaq	1743(%rbp), %rax
	movq	%rax, %rcx
	call	_ZNSaIcED1Ev
	leaq	1664(%rbp), %rax
	movq	%rax, %rcx
	call	_ZN8wxColourD1Ev
	jmp	.L312
.L368:
	movq	%rax, %rbx
	.loc 23 127 68 is_stmt 1
	leaq	192(%rbp), %rax
	movq	%rax, %rcx
	call	_ZNSt6vectorIdSaIdEED1Ev
	jmp	.L312
.L361:
	movq	%rax, %rbx
.L312:
	.loc 23 123 38
	leaq	32(%rbp), %rax
	movq	%rax, %rcx
	call	_ZN28CoeficienteOverturningMomentD1Ev
	jmp	.L275
.L375:
	movq	%rax, %rbx
.LBE53:
.LBB54:
	.loc 23 140 48
	leaq	2176(%rbp), %rax
	movq	%rax, %rcx
	call	_ZNSt6vectorIdSaIdEED1Ev
	jmp	.L315
.L374:
	movq	%rax, %rbx
.L315:
	.loc 23 140 71 discriminator 9
	leaq	2144(%rbp), %rax
	movq	%rax, %rcx
	call	_ZNSt6vectorIdSaIdEED1Ev
	jmp	.L316
.L373:
	movq	%rax, %rbx
.L316:
	.loc 23 140 17 discriminator 7
	leaq	2096(%rbp), %rax
	movq	%rax, %rcx
	call	_ZNSt7__cxx1112basic_stringIcSt11char_traitsIcESaIcEED1Ev
	jmp	.L317
.L372:
	movq	%rax, %rbx
.L317:
	.loc 23 140 17 is_stmt 0 discriminator 5
	leaq	2143(%rbp), %rax
	movq	%rax, %rcx
	call	_ZNSaIcED1Ev
	leaq	2048(%rbp), %rax
	movq	%rax, %rcx
	call	_ZNSt7__cxx1112basic_stringIcSt11char_traitsIcESaIcEED1Ev
	jmp	.L318
.L371:
	movq	%rax, %rbx
.L318:
	.loc 23 140 17 discriminator 3
	leaq	2095(%rbp), %rax
	movq	%rax, %rcx
	call	_ZNSaIcED1Ev
	leaq	2000(%rbp), %rax
	movq	%rax, %rcx
	call	_ZNSt7__cxx1112basic_stringIcSt11char_traitsIcESaIcEED1Ev
	jmp	.L319
.L370:
	movq	%rax, %rbx
.L319:
	.loc 23 140 17 discriminator 1
	leaq	2047(%rbp), %rax
	movq	%rax, %rcx
	call	_ZNSaIcED1Ev
	leaq	1968(%rbp), %rax
	movq	%rax, %rcx
	call	_ZN8wxColourD1Ev
	jmp	.L320
.L376:
	movq	%rax, %rbx
	.loc 23 145 61 is_stmt 1
	leaq	160(%rbp), %rax
	movq	%rax, %rcx
	call	_ZNSt6vectorIdSaIdEED1Ev
	jmp	.L320
.L369:
	movq	%rax, %rbx
.L320:
	.loc 23 138 38
	leaq	32(%rbp), %rax
	movq	%rax, %rcx
	call	_ZN28CoeficienteSpinDampingMomentD1Ev
	jmp	.L275
.L332:
	movq	%rax, %rbx
.L275:
.LBE54:
.LBE55:
.LBE56:
	.loc 23 53 32
	leaq	352(%rbp), %rax
	movq	%rax, %rcx
	call	_ZN8wxColourD1Ev
	movq	%rbx, %rax
	movq	%rax, %rcx
.LEHB123:
	call	_Unwind_Resume
	nop
.LEHE123:
.L377:
	.loc 23 153 2
	addq	$2456, %rsp
	popq	%rbx
	.cfi_restore 3
	popq	%rbp
	.cfi_restore 6
	.cfi_def_cfa 7, -2440
	ret
	.cfi_endproc
.LFE17992:
	.seh_handler	__gxx_personality_seh0, @unwind, @except
	.seh_handlerdata
.LLSDA17992:
	.byte	0xff
	.byte	0xff
	.byte	0x1
	.uleb128 .LLSDACSE17992-.LLSDACSB17992
.LLSDACSB17992:
	.uleb128 .LEHB59-.LFB17992
	.uleb128 .LEHE59-.LEHB59
	.uleb128 0
	.uleb128 0
	.uleb128 .LEHB60-.LFB17992
	.uleb128 .LEHE60-.LEHB60
	.uleb128 .L332-.LFB17992
	.uleb128 0
	.uleb128 .LEHB61-.LFB17992
	.uleb128 .LEHE61-.LEHB61
	.uleb128 .L322-.LFB17992
	.uleb128 0
	.uleb128 .LEHB62-.LFB17992
	.uleb128 .LEHE62-.LEHB62
	.uleb128 .L323-.LFB17992
	.uleb128 0
	.uleb128 .LEHB63-.LFB17992
	.uleb128 .LEHE63-.LEHB63
	.uleb128 .L324-.LFB17992
	.uleb128 0
	.uleb128 .LEHB64-.LFB17992
	.uleb128 .LEHE64-.LEHB64
	.uleb128 .L325-.LFB17992
	.uleb128 0
	.uleb128 .LEHB65-.LFB17992
	.uleb128 .LEHE65-.LEHB65
	.uleb128 .L326-.LFB17992
	.uleb128 0
	.uleb128 .LEHB66-.LFB17992
	.uleb128 .LEHE66-.LEHB66
	.uleb128 .L327-.LFB17992
	.uleb128 0
	.uleb128 .LEHB67-.LFB17992
	.uleb128 .LEHE67-.LEHB67
	.uleb128 .L328-.LFB17992
	.uleb128 0
	.uleb128 .LEHB68-.LFB17992
	.uleb128 .LEHE68-.LEHB68
	.uleb128 .L329-.LFB17992
	.uleb128 0
	.uleb128 .LEHB69-.LFB17992
	.uleb128 .LEHE69-.LEHB69
	.uleb128 .L330-.LFB17992
	.uleb128 0
	.uleb128 .LEHB70-.LFB17992
	.uleb128 .LEHE70-.LEHB70
	.uleb128 .L331-.LFB17992
	.uleb128 0
	.uleb128 .LEHB71-.LFB17992
	.uleb128 .LEHE71-.LEHB71
	.uleb128 .L332-.LFB17992
	.uleb128 0
	.uleb128 .LEHB72-.LFB17992
	.uleb128 .LEHE72-.LEHB72
	.uleb128 .L333-.LFB17992
	.uleb128 0
	.uleb128 .LEHB73-.LFB17992
	.uleb128 .LEHE73-.LEHB73
	.uleb128 .L334-.LFB17992
	.uleb128 0
	.uleb128 .LEHB74-.LFB17992
	.uleb128 .LEHE74-.LEHB74
	.uleb128 .L335-.LFB17992
	.uleb128 0
	.uleb128 .LEHB75-.LFB17992
	.uleb128 .LEHE75-.LEHB75
	.uleb128 .L336-.LFB17992
	.uleb128 0
	.uleb128 .LEHB76-.LFB17992
	.uleb128 .LEHE76-.LEHB76
	.uleb128 .L337-.LFB17992
	.uleb128 0
	.uleb128 .LEHB77-.LFB17992
	.uleb128 .LEHE77-.LEHB77
	.uleb128 .L338-.LFB17992
	.uleb128 0
	.uleb128 .LEHB78-.LFB17992
	.uleb128 .LEHE78-.LEHB78
	.uleb128 .L339-.LFB17992
	.uleb128 0
	.uleb128 .LEHB79-.LFB17992
	.uleb128 .LEHE79-.LEHB79
	.uleb128 .L340-.LFB17992
	.uleb128 0
	.uleb128 .LEHB80-.LFB17992
	.uleb128 .LEHE80-.LEHB80
	.uleb128 .L341-.LFB17992
	.uleb128 0
	.uleb128 .LEHB81-.LFB17992
	.uleb128 .LEHE81-.LEHB81
	.uleb128 .L342-.LFB17992
	.uleb128 0
	.uleb128 .LEHB82-.LFB17992
	.uleb128 .LEHE82-.LEHB82
	.uleb128 .L332-.LFB17992
	.uleb128 0
	.uleb128 .LEHB83-.LFB17992
	.uleb128 .LEHE83-.LEHB83
	.uleb128 .L343-.LFB17992
	.uleb128 0
	.uleb128 .LEHB84-.LFB17992
	.uleb128 .LEHE84-.LEHB84
	.uleb128 .L344-.LFB17992
	.uleb128 0
	.uleb128 .LEHB85-.LFB17992
	.uleb128 .LEHE85-.LEHB85
	.uleb128 .L345-.LFB17992
	.uleb128 0
	.uleb128 .LEHB86-.LFB17992
	.uleb128 .LEHE86-.LEHB86
	.uleb128 .L346-.LFB17992
	.uleb128 0
	.uleb128 .LEHB87-.LFB17992
	.uleb128 .LEHE87-.LEHB87
	.uleb128 .L347-.LFB17992
	.uleb128 0
	.uleb128 .LEHB88-.LFB17992
	.uleb128 .LEHE88-.LEHB88
	.uleb128 .L348-.LFB17992
	.uleb128 0
	.uleb128 .LEHB89-.LFB17992
	.uleb128 .LEHE89-.LEHB89
	.uleb128 .L349-.LFB17992
	.uleb128 0
	.uleb128 .LEHB90-.LFB17992
	.uleb128 .LEHE90-.LEHB90
	.uleb128 .L350-.LFB17992
	.uleb128 0
	.uleb128 .LEHB91-.LFB17992
	.uleb128 .LEHE91-.LEHB91
	.uleb128 .L351-.LFB17992
	.uleb128 0
	.uleb128 .LEHB92-.LFB17992
	.uleb128 .LEHE92-.LEHB92
	.uleb128 .L352-.LFB17992
	.uleb128 0
	.uleb128 .LEHB93-.LFB17992
	.uleb128 .LEHE93-.LEHB93
	.uleb128 .L332-.LFB17992
	.uleb128 0
	.uleb128 .LEHB94-.LFB17992
	.uleb128 .LEHE94-.LEHB94
	.uleb128 .L353-.LFB17992
	.uleb128 0
	.uleb128 .LEHB95-.LFB17992
	.uleb128 .LEHE95-.LEHB95
	.uleb128 .L354-.LFB17992
	.uleb128 0
	.uleb128 .LEHB96-.LFB17992
	.uleb128 .LEHE96-.LEHB96
	.uleb128 .L355-.LFB17992
	.uleb128 0
	.uleb128 .LEHB97-.LFB17992
	.uleb128 .LEHE97-.LEHB97
	.uleb128 .L356-.LFB17992
	.uleb128 0
	.uleb128 .LEHB98-.LFB17992
	.uleb128 .LEHE98-.LEHB98
	.uleb128 .L357-.LFB17992
	.uleb128 0
	.uleb128 .LEHB99-.LFB17992
	.uleb128 .LEHE99-.LEHB99
	.uleb128 .L358-.LFB17992
	.uleb128 0
	.uleb128 .LEHB100-.LFB17992
	.uleb128 .LEHE100-.LEHB100
	.uleb128 .L359-.LFB17992
	.uleb128 0
	.uleb128 .LEHB101-.LFB17992
	.uleb128 .LEHE101-.LEHB101
	.uleb128 .L353-.LFB17992
	.uleb128 0
	.uleb128 .LEHB102-.LFB17992
	.uleb128 .LEHE102-.LEHB102
	.uleb128 .L360-.LFB17992
	.uleb128 0
	.uleb128 .LEHB103-.LFB17992
	.uleb128 .LEHE103-.LEHB103
	.uleb128 .L332-.LFB17992
	.uleb128 0
	.uleb128 .LEHB104-.LFB17992
	.uleb128 .LEHE104-.LEHB104
	.uleb128 .L361-.LFB17992
	.uleb128 0
	.uleb128 .LEHB105-.LFB17992
	.uleb128 .LEHE105-.LEHB105
	.uleb128 .L362-.LFB17992
	.uleb128 0
	.uleb128 .LEHB106-.LFB17992
	.uleb128 .LEHE106-.LEHB106
	.uleb128 .L363-.LFB17992
	.uleb128 0
	.uleb128 .LEHB107-.LFB17992
	.uleb128 .LEHE107-.LEHB107
	.uleb128 .L364-.LFB17992
	.uleb128 0
	.uleb128 .LEHB108-.LFB17992
	.uleb128 .LEHE108-.LEHB108
	.uleb128 .L365-.LFB17992
	.uleb128 0
	.uleb128 .LEHB109-.LFB17992
	.uleb128 .LEHE109-.LEHB109
	.uleb128 .L366-.LFB17992
	.uleb128 0
	.uleb128 .LEHB110-.LFB17992
	.uleb128 .LEHE110-.LEHB110
	.uleb128 .L367-.LFB17992
	.uleb128 0
	.uleb128 .LEHB111-.LFB17992
	.uleb128 .LEHE111-.LEHB111
	.uleb128 .L361-.LFB17992
	.uleb128 0
	.uleb128 .LEHB112-.LFB17992
	.uleb128 .LEHE112-.LEHB112
	.uleb128 .L368-.LFB17992
	.uleb128 0
	.uleb128 .LEHB113-.LFB17992
	.uleb128 .LEHE113-.LEHB113
	.uleb128 .L332-.LFB17992
	.uleb128 0
	.uleb128 .LEHB114-.LFB17992
	.uleb128 .LEHE114-.LEHB114
	.uleb128 .L369-.LFB17992
	.uleb128 0
	.uleb128 .LEHB115-.LFB17992
	.uleb128 .LEHE115-.LEHB115
	.uleb128 .L370-.LFB17992
	.uleb128 0
	.uleb128 .LEHB116-.LFB17992
	.uleb128 .LEHE116-.LEHB116
	.uleb128 .L371-.LFB17992
	.uleb128 0
	.uleb128 .LEHB117-.LFB17992
	.uleb128 .LEHE117-.LEHB117
	.uleb128 .L372-.LFB17992
	.uleb128 0
	.uleb128 .LEHB118-.LFB17992
	.uleb128 .LEHE118-.LEHB118
	.uleb128 .L373-.LFB17992
	.uleb128 0
	.uleb128 .LEHB119-.LFB17992
	.uleb128 .LEHE119-.LEHB119
	.uleb128 .L374-.LFB17992
	.uleb128 0
	.uleb128 .LEHB120-.LFB17992
	.uleb128 .LEHE120-.LEHB120
	.uleb128 .L375-.LFB17992
	.uleb128 0
	.uleb128 .LEHB121-.LFB17992
	.uleb128 .LEHE121-.LEHB121
	.uleb128 .L369-.LFB17992
	.uleb128 0
	.uleb128 .LEHB122-.LFB17992
	.uleb128 .LEHE122-.LEHB122
	.uleb128 .L376-.LFB17992
	.uleb128 0
	.uleb128 .LEHB123-.LFB17992
	.uleb128 .LEHE123-.LEHB123
	.uleb128 0
	.uleb128 0
.LLSDACSE17992:
	.text
	.seh_endproc
	.section	.text$_ZSt4atanIiEN9__gnu_cxx11__enable_ifIXsrSt12__is_integerIT_E7__valueEdE6__typeES3_,"x"
	.linkonce discard
	.globl	_ZSt4atanIiEN9__gnu_cxx11__enable_ifIXsrSt12__is_integerIT_E7__valueEdE6__typeES3_
	.def	_ZSt4atanIiEN9__gnu_cxx11__enable_ifIXsrSt12__is_integerIT_E7__valueEdE6__typeES3_;	.scl	2;	.type	32;	.endef
	.seh_proc	_ZSt4atanIiEN9__gnu_cxx11__enable_ifIXsrSt12__is_integerIT_E7__valueEdE6__typeES3_
_ZSt4atanIiEN9__gnu_cxx11__enable_ifIXsrSt12__is_integerIT_E7__valueEdE6__typeES3_:
.LFB17997:
	.file 24 "C:/Program Files/CodeBlocks/MinGW/lib/gcc/x86_64-w64-mingw32/8.1.0/include/c++/cmath"
	.loc 24 137 5
	.cfi_startproc
	pushq	%rbp
	.seh_pushreg	%rbp
	.cfi_def_cfa_offset 16
	.cfi_offset 6, -16
	movq	%rsp, %rbp
	.seh_setframe	%rbp, 0
	.cfi_def_cfa_register 6
	subq	$32, %rsp
	.seh_stackalloc	32
	.seh_endprologue
	movl	%ecx, 16(%rbp)
	.loc 24 138 28
	cvtsi2sd	16(%rbp), %xmm0
	call	atan
	movq	%xmm0, %rax
	.loc 24 138 35
	movq	%rax, %xmm0
	addq	$32, %rsp
	popq	%rbp
	.cfi_restore 6
	.cfi_def_cfa 7, 8
	ret
	.cfi_endproc
.LFE17997:
	.seh_endproc
	.section .rdata,"dr"
.LC33:
	.ascii "fator de forma\0"
.LC34:
	.ascii "i\0"
.LC35:
	.ascii "eleva\303\247\303\243o\0"
.LC37:
	.ascii "fator de lift\0"
.LC38:
	.ascii "fL\0"
	.text
	.align 2
	.globl	_ZN15MathplotHandler8plotMapaEP8mpWindow20Tipo_GRAFICO_FATORES
	.def	_ZN15MathplotHandler8plotMapaEP8mpWindow20Tipo_GRAFICO_FATORES;	.scl	2;	.type	32;	.endef
	.seh_proc	_ZN15MathplotHandler8plotMapaEP8mpWindow20Tipo_GRAFICO_FATORES
_ZN15MathplotHandler8plotMapaEP8mpWindow20Tipo_GRAFICO_FATORES:
.LFB17996:
	.loc 23 156 83
	.cfi_startproc
	pushq	%rbp
	.seh_pushreg	%rbp
	.cfi_def_cfa_offset 16
	.cfi_offset 6, -16
	pushq	%rbx
	.seh_pushreg	%rbx
	.cfi_def_cfa_offset 24
	.cfi_offset 3, -24
	subq	$760, %rsp
	.seh_stackalloc	760
	.cfi_def_cfa_offset 784
	leaq	128(%rsp), %rbp
	.seh_setframe	%rbp, 128
	.cfi_def_cfa 6, 656
	movaps	%xmm6, 608(%rbp)
	.seh_savexmm	%xmm6, 736
	.cfi_offset 23, -48
	.seh_endprologue
	movq	%rcx, 656(%rbp)
	movq	%rdx, 664(%rbp)
	movl	%r8d, 672(%rbp)
	.loc 23 157 36
	leaq	80(%rbp), %rax
	movl	$255, 32(%rsp)
	movl	$255, %r9d
	movl	$100, %r8d
	movl	$0, %edx
	movq	%rax, %rcx
.LEHB124:
	call	_ZN8wxColourC1Ehhhh
.LEHE124:
	.loc 23 158 35
	leaq	48(%rbp), %rax
	movl	$255, 32(%rsp)
	movl	$0, %r9d
	movl	$255, %r8d
	movl	$100, %edx
	movq	%rax, %rcx
.LEHB125:
	call	_ZN8wxColourC1Ehhhh
.LEHE125:
	.loc 23 159 25
	leaq	16(%rbp), %rax
	movq	%rax, %rcx
	call	_ZNSt6vectorIdSaIdEEC1Ev
	.loc 23 160 25
	leaq	-16(%rbp), %rax
	movq	%rax, %rcx
	call	_ZNSt6vectorIdSaIdEEC1Ev
	.loc 23 161 12
	movsd	.LC29(%rip), %xmm0
	movsd	%xmm0, -24(%rbp)
	.loc 23 161 22
	pxor	%xmm0, %xmm0
	movsd	%xmm0, -32(%rbp)
.LBB57:
	.loc 23 162 5
	movl	672(%rbp), %eax
	testl	%eax, %eax
	je	.L381
	cmpl	$1, %eax
	je	.L382
	jmp	.L383
.L381:
.LBB58:
.LBB59:
.LBB60:
	.loc 23 166 24
	pxor	%xmm0, %xmm0
	movsd	%xmm0, -40(%rbp)
.L386:
	.loc 23 166 33 discriminator 1
	movsd	-40(%rbp), %xmm1
	movsd	.LC30(%rip), %xmm0
	comisd	%xmm1, %xmm0
	jbe	.L424
.LBB61:
	.loc 23 167 36
	leaq	-40(%rbp), %rdx
	leaq	16(%rbp), %rax
	movq	%rax, %rcx
.LEHB126:
	call	_ZNSt6vectorIdSaIdEE9push_backERKd
	.loc 23 168 35
	movl	$1, %ecx
	call	_ZSt4atanIiEN9__gnu_cxx11__enable_ifIXsrSt12__is_integerIT_E7__valueEdE6__typeES3_
	movapd	%xmm0, %xmm1
	.loc 23 168 30
	movsd	-40(%rbp), %xmm0
	mulsd	%xmm1, %xmm0
	.loc 23 168 40
	movsd	.LC31(%rip), %xmm1
	divsd	%xmm1, %xmm0
	movsd	%xmm0, 600(%rbp)
	.loc 23 169 56
	movl	$0, %edx
	movq	.refptr.calcfat(%rip), %rax
	leaq	24(%rax), %rcx
	call	_ZNSt6vectorIdSaIdEEixEy
	.loc 23 169 58
	movsd	(%rax), %xmm6
	.loc 23 169 84
	movl	$1, %edx
	movq	.refptr.calcfat(%rip), %rax
	leaq	24(%rax), %rcx
	call	_ZNSt6vectorIdSaIdEEixEy
	.loc 23 169 85
	movsd	(%rax), %xmm0
	mulsd	600(%rbp), %xmm0
	.loc 23 169 58
	addsd	%xmm0, %xmm6
	.loc 23 170 49
	movl	$2, %edx
	movq	.refptr.calcfat(%rip), %rax
	leaq	24(%rax), %rcx
	call	_ZNSt6vectorIdSaIdEEixEy
	.loc 23 170 50
	movsd	(%rax), %xmm0
	mulsd	600(%rbp), %xmm0
	.loc 23 170 52
	mulsd	600(%rbp), %xmm0
	.loc 23 169 88
	addsd	%xmm0, %xmm6
	.loc 23 170 81
	movl	$3, %edx
	movq	.refptr.calcfat(%rip), %rax
	leaq	24(%rax), %rcx
	call	_ZNSt6vectorIdSaIdEEixEy
	.loc 23 170 82
	movsd	(%rax), %xmm0
	mulsd	600(%rbp), %xmm0
	.loc 23 170 84
	mulsd	600(%rbp), %xmm0
	.loc 23 170 86
	mulsd	600(%rbp), %xmm0
	.loc 23 170 55
	addsd	%xmm6, %xmm0
	.loc 23 170 87
	movsd	%xmm0, -48(%rbp)
	.loc 23 171 36
	leaq	-48(%rbp), %rdx
	leaq	-16(%rbp), %rax
	movq	%rax, %rcx
	call	_ZNSt6vectorIdSaIdEE9push_backERKd
.LEHE126:
	.loc 23 172 39 discriminator 2
	leaq	-48(%rbp), %rdx
	leaq	-24(%rbp), %rax
	movq	%rax, %rcx
	call	_ZSt3minIdERKT_S2_S2_
	.loc 23 172 27 discriminator 2
	movsd	(%rax), %xmm0
	.loc 23 172 22 discriminator 2
	movsd	%xmm0, -24(%rbp)
	.loc 23 173 39 discriminator 2
	leaq	-48(%rbp), %rdx
	leaq	-32(%rbp), %rax
	movq	%rax, %rcx
	call	_ZSt3maxIdERKT_S2_S2_
	.loc 23 173 27 discriminator 2
	movsd	(%rax), %xmm0
	.loc 23 173 22 discriminator 2
	movsd	%xmm0, -32(%rbp)
.LBE61:
	.loc 23 166 43 discriminator 2
	movsd	-40(%rbp), %xmm1
	movsd	.LC32(%rip), %xmm0
	addsd	%xmm1, %xmm0
	movsd	%xmm0, -40(%rbp)
	.loc 23 166 13 discriminator 2
	jmp	.L386
.L424:
.LBE60:
	.loc 23 176 21
	leaq	80(%rbp), %rdx
	leaq	112(%rbp), %rax
	movq	%rax, %rcx
	call	_ZN8wxColourC1ERKS_
	leaq	191(%rbp), %rax
	movq	%rax, %rcx
	call	_ZNSaIcEC1Ev
	leaq	191(%rbp), %rdx
	leaq	144(%rbp), %rax
	movq	%rdx, %r8
	leaq	.LC33(%rip), %rdx
	movq	%rax, %rcx
.LEHB127:
	call	_ZNSt7__cxx1112basic_stringIcSt11char_traitsIcESaIcEEC1EPKcRKS3_
.LEHE127:
	.loc 23 176 21 is_stmt 0 discriminator 2
	leaq	239(%rbp), %rax
	movq	%rax, %rcx
	call	_ZNSaIcEC1Ev
	leaq	239(%rbp), %rdx
	leaq	192(%rbp), %rax
	movq	%rdx, %r8
	leaq	.LC34(%rip), %rdx
	movq	%rax, %rcx
.LEHB128:
	call	_ZNSt7__cxx1112basic_stringIcSt11char_traitsIcESaIcEEC1EPKcRKS3_
.LEHE128:
	.loc 23 176 21 discriminator 4
	leaq	287(%rbp), %rax
	movq	%rax, %rcx
	call	_ZNSaIcEC1Ev
	leaq	287(%rbp), %rdx
	leaq	240(%rbp), %rax
	movq	%rdx, %r8
	leaq	.LC35(%rip), %rdx
	movq	%rax, %rcx
.LEHB129:
	call	_ZNSt7__cxx1112basic_stringIcSt11char_traitsIcESaIcEEC1EPKcRKS3_
.LEHE129:
	.loc 23 176 21 discriminator 6
	leaq	-16(%rbp), %rdx
	leaq	288(%rbp), %rax
	movq	%rax, %rcx
.LEHB130:
	call	_ZNSt6vectorIdSaIdEEC1ERKS1_
.LEHE130:
	.loc 23 176 21 discriminator 8
	leaq	16(%rbp), %rdx
	leaq	320(%rbp), %rax
	movq	%rax, %rcx
.LEHB131:
	call	_ZNSt6vectorIdSaIdEEC1ERKS1_
.LEHE131:
	.loc 23 176 21 discriminator 10
	leaq	288(%rbp), %r8
	leaq	320(%rbp), %rcx
	movq	664(%rbp), %rdx
	leaq	112(%rbp), %rax
	movq	%rax, 56(%rsp)
	leaq	144(%rbp), %rax
	movq	%rax, 48(%rsp)
	leaq	192(%rbp), %rax
	movq	%rax, 40(%rsp)
	leaq	240(%rbp), %rax
	movq	%rax, 32(%rsp)
	movq	%r8, %r9
	movq	%rcx, %r8
	movq	656(%rbp), %rcx
.LEHB132:
	call	_ZN15MathplotHandler8plotMapaEP8mpWindowSt6vectorIdSaIdEES4_NSt7__cxx1112basic_stringIcSt11char_traitsIcESaIcEEESA_SA_8wxColour
.LEHE132:
	.loc 23 176 21 discriminator 12
	leaq	320(%rbp), %rax
	movq	%rax, %rcx
	call	_ZNSt6vectorIdSaIdEED1Ev
	leaq	288(%rbp), %rax
	movq	%rax, %rcx
	call	_ZNSt6vectorIdSaIdEED1Ev
	leaq	240(%rbp), %rax
	movq	%rax, %rcx
	call	_ZNSt7__cxx1112basic_stringIcSt11char_traitsIcESaIcEED1Ev
	leaq	287(%rbp), %rax
	movq	%rax, %rcx
	call	_ZNSaIcED1Ev
	leaq	192(%rbp), %rax
	movq	%rax, %rcx
	call	_ZNSt7__cxx1112basic_stringIcSt11char_traitsIcESaIcEED1Ev
	leaq	239(%rbp), %rax
	movq	%rax, %rcx
	call	_ZNSaIcED1Ev
	leaq	144(%rbp), %rax
	movq	%rax, %rcx
	call	_ZNSt7__cxx1112basic_stringIcSt11char_traitsIcESaIcEED1Ev
	leaq	191(%rbp), %rax
	movq	%rax, %rcx
	call	_ZNSaIcED1Ev
	leaq	112(%rbp), %rax
	movq	%rax, %rcx
	call	_ZN8wxColourD1Ev
	.loc 23 177 23 is_stmt 1 discriminator 12
	movsd	-32(%rbp), %xmm1
	movsd	.LC28(%rip), %xmm0
	addsd	%xmm1, %xmm0
	movsd	-24(%rbp), %xmm1
	movsd	.LC28(%rip), %xmm2
	subsd	%xmm2, %xmm1
	movapd	%xmm1, %xmm2
	movsd	.LC36(%rip), %xmm1
	movq	664(%rbp), %rax
	movq	$0, 48(%rsp)
	movq	$0, 40(%rsp)
	movsd	%xmm0, 32(%rsp)
	movapd	%xmm2, %xmm3
	movapd	%xmm1, %xmm2
	pxor	%xmm1, %xmm1
	movq	%rax, %rcx
.LEHB133:
	call	_ZN8mpWindow3FitEddddPiS0_
.LEHE133:
	.loc 23 178 13
	jmp	.L383
.L382:
.LBE59:
.LBB62:
.LBB63:
	.loc 23 182 24
	pxor	%xmm0, %xmm0
	movsd	%xmm0, -56(%rbp)
.L389:
	.loc 23 182 33 discriminator 1
	movsd	-56(%rbp), %xmm1
	movsd	.LC30(%rip), %xmm0
	comisd	%xmm1, %xmm0
	jbe	.L425
.LBB64:
	.loc 23 183 36
	leaq	-56(%rbp), %rdx
	leaq	16(%rbp), %rax
	movq	%rax, %rcx
.LEHB134:
	call	_ZNSt6vectorIdSaIdEE9push_backERKd
	.loc 23 184 35
	movl	$1, %ecx
	call	_ZSt4atanIiEN9__gnu_cxx11__enable_ifIXsrSt12__is_integerIT_E7__valueEdE6__typeES3_
	movapd	%xmm0, %xmm1
	.loc 23 184 30
	movsd	-56(%rbp), %xmm0
	mulsd	%xmm1, %xmm0
	.loc 23 184 40
	movsd	.LC31(%rip), %xmm1
	divsd	%xmm1, %xmm0
	movsd	%xmm0, 592(%rbp)
	.loc 23 185 55
	movl	$0, %edx
	movq	.refptr.calcfat(%rip), %rcx
	call	_ZNSt6vectorIdSaIdEEixEy
	.loc 23 185 57
	movsd	(%rax), %xmm6
	.loc 23 185 82
	movl	$1, %edx
	movq	.refptr.calcfat(%rip), %rcx
	call	_ZNSt6vectorIdSaIdEEixEy
	.loc 23 185 83
	movsd	(%rax), %xmm0
	mulsd	592(%rbp), %xmm0
	.loc 23 185 57
	addsd	%xmm0, %xmm6
	.loc 23 186 48
	movl	$2, %edx
	movq	.refptr.calcfat(%rip), %rcx
	call	_ZNSt6vectorIdSaIdEEixEy
	.loc 23 186 49
	movsd	(%rax), %xmm0
	mulsd	592(%rbp), %xmm0
	.loc 23 186 51
	mulsd	592(%rbp), %xmm0
	.loc 23 185 86
	addsd	%xmm0, %xmm6
	.loc 23 186 79
	movl	$3, %edx
	movq	.refptr.calcfat(%rip), %rcx
	call	_ZNSt6vectorIdSaIdEEixEy
	.loc 23 186 80
	movsd	(%rax), %xmm0
	mulsd	592(%rbp), %xmm0
	.loc 23 186 82
	mulsd	592(%rbp), %xmm0
	.loc 23 186 84
	mulsd	592(%rbp), %xmm0
	.loc 23 186 54
	addsd	%xmm6, %xmm0
	.loc 23 186 85
	movsd	%xmm0, -64(%rbp)
	.loc 23 187 36
	leaq	-64(%rbp), %rdx
	leaq	-16(%rbp), %rax
	movq	%rax, %rcx
	call	_ZNSt6vectorIdSaIdEE9push_backERKd
.LEHE134:
	.loc 23 188 39 discriminator 2
	leaq	-64(%rbp), %rdx
	leaq	-24(%rbp), %rax
	movq	%rax, %rcx
	call	_ZSt3minIdERKT_S2_S2_
	.loc 23 188 27 discriminator 2
	movsd	(%rax), %xmm0
	.loc 23 188 22 discriminator 2
	movsd	%xmm0, -24(%rbp)
	.loc 23 189 39 discriminator 2
	leaq	-64(%rbp), %rdx
	leaq	-32(%rbp), %rax
	movq	%rax, %rcx
	call	_ZSt3maxIdERKT_S2_S2_
	.loc 23 189 27 discriminator 2
	movsd	(%rax), %xmm0
	.loc 23 189 22 discriminator 2
	movsd	%xmm0, -32(%rbp)
.LBE64:
	.loc 23 182 43 discriminator 2
	movsd	-56(%rbp), %xmm1
	movsd	.LC32(%rip), %xmm0
	addsd	%xmm1, %xmm0
	movsd	%xmm0, -56(%rbp)
	.loc 23 182 13 discriminator 2
	jmp	.L389
.L425:
.LBE63:
	.loc 23 191 21
	leaq	48(%rbp), %rdx
	leaq	352(%rbp), %rax
	movq	%rax, %rcx
	call	_ZN8wxColourC1ERKS_
	leaq	431(%rbp), %rax
	movq	%rax, %rcx
	call	_ZNSaIcEC1Ev
	leaq	431(%rbp), %rdx
	leaq	384(%rbp), %rax
	movq	%rdx, %r8
	leaq	.LC37(%rip), %rdx
	movq	%rax, %rcx
.LEHB135:
	call	_ZNSt7__cxx1112basic_stringIcSt11char_traitsIcESaIcEEC1EPKcRKS3_
.LEHE135:
	.loc 23 191 21 is_stmt 0 discriminator 2
	leaq	479(%rbp), %rax
	movq	%rax, %rcx
	call	_ZNSaIcEC1Ev
	leaq	479(%rbp), %rdx
	leaq	432(%rbp), %rax
	movq	%rdx, %r8
	leaq	.LC38(%rip), %rdx
	movq	%rax, %rcx
.LEHB136:
	call	_ZNSt7__cxx1112basic_stringIcSt11char_traitsIcESaIcEEC1EPKcRKS3_
.LEHE136:
	.loc 23 191 21 discriminator 4
	leaq	527(%rbp), %rax
	movq	%rax, %rcx
	call	_ZNSaIcEC1Ev
	leaq	527(%rbp), %rdx
	leaq	480(%rbp), %rax
	movq	%rdx, %r8
	leaq	.LC35(%rip), %rdx
	movq	%rax, %rcx
.LEHB137:
	call	_ZNSt7__cxx1112basic_stringIcSt11char_traitsIcESaIcEEC1EPKcRKS3_
.LEHE137:
	.loc 23 191 21 discriminator 6
	leaq	-16(%rbp), %rdx
	leaq	528(%rbp), %rax
	movq	%rax, %rcx
.LEHB138:
	call	_ZNSt6vectorIdSaIdEEC1ERKS1_
.LEHE138:
	.loc 23 191 21 discriminator 8
	leaq	16(%rbp), %rdx
	leaq	560(%rbp), %rax
	movq	%rax, %rcx
.LEHB139:
	call	_ZNSt6vectorIdSaIdEEC1ERKS1_
.LEHE139:
	.loc 23 191 21 discriminator 10
	leaq	528(%rbp), %r8
	leaq	560(%rbp), %rcx
	movq	664(%rbp), %rdx
	leaq	352(%rbp), %rax
	movq	%rax, 56(%rsp)
	leaq	384(%rbp), %rax
	movq	%rax, 48(%rsp)
	leaq	432(%rbp), %rax
	movq	%rax, 40(%rsp)
	leaq	480(%rbp), %rax
	movq	%rax, 32(%rsp)
	movq	%r8, %r9
	movq	%rcx, %r8
	movq	656(%rbp), %rcx
.LEHB140:
	call	_ZN15MathplotHandler8plotMapaEP8mpWindowSt6vectorIdSaIdEES4_NSt7__cxx1112basic_stringIcSt11char_traitsIcESaIcEEESA_SA_8wxColour
.LEHE140:
	.loc 23 191 21 discriminator 12
	leaq	560(%rbp), %rax
	movq	%rax, %rcx
	call	_ZNSt6vectorIdSaIdEED1Ev
	leaq	528(%rbp), %rax
	movq	%rax, %rcx
	call	_ZNSt6vectorIdSaIdEED1Ev
	leaq	480(%rbp), %rax
	movq	%rax, %rcx
	call	_ZNSt7__cxx1112basic_stringIcSt11char_traitsIcESaIcEED1Ev
	leaq	527(%rbp), %rax
	movq	%rax, %rcx
	call	_ZNSaIcED1Ev
	leaq	432(%rbp), %rax
	movq	%rax, %rcx
	call	_ZNSt7__cxx1112basic_stringIcSt11char_traitsIcESaIcEED1Ev
	leaq	479(%rbp), %rax
	movq	%rax, %rcx
	call	_ZNSaIcED1Ev
	leaq	384(%rbp), %rax
	movq	%rax, %rcx
	call	_ZNSt7__cxx1112basic_stringIcSt11char_traitsIcESaIcEED1Ev
	leaq	431(%rbp), %rax
	movq	%rax, %rcx
	call	_ZNSaIcED1Ev
	leaq	352(%rbp), %rax
	movq	%rax, %rcx
	call	_ZN8wxColourD1Ev
	.loc 23 192 23 is_stmt 1 discriminator 12
	movsd	-32(%rbp), %xmm1
	movsd	.LC28(%rip), %xmm0
	addsd	%xmm1, %xmm0
	movsd	-24(%rbp), %xmm1
	movsd	.LC28(%rip), %xmm2
	subsd	%xmm2, %xmm1
	movapd	%xmm1, %xmm2
	movsd	.LC36(%rip), %xmm1
	movq	664(%rbp), %rax
	movq	$0, 48(%rsp)
	movq	$0, 40(%rsp)
	movsd	%xmm0, 32(%rsp)
	movapd	%xmm2, %xmm3
	movapd	%xmm1, %xmm2
	pxor	%xmm1, %xmm1
	movq	%rax, %rcx
.LEHB141:
	call	_ZN8mpWindow3FitEddddPiS0_
.LEHE141:
	.loc 23 193 13
	nop
.L383:
.LBE62:
.LBE58:
.LBE57:
	.loc 23 160 25
	leaq	-16(%rbp), %rax
	movq	%rax, %rcx
	call	_ZNSt6vectorIdSaIdEED1Ev
	.loc 23 159 25
	leaq	16(%rbp), %rax
	movq	%rax, %rcx
	call	_ZNSt6vectorIdSaIdEED1Ev
	.loc 23 158 35
	leaq	48(%rbp), %rax
	movq	%rax, %rcx
	call	_ZN8wxColourD1Ev
	.loc 23 157 36
	leaq	80(%rbp), %rax
	movq	%rax, %rcx
	call	_ZN8wxColourD1Ev
	.loc 23 196 2
	jmp	.L426
.L407:
	movq	%rax, %rbx
	jmp	.L391
.L414:
	movq	%rax, %rbx
.LBB68:
.LBB67:
.LBB65:
	.loc 23 176 21
	leaq	320(%rbp), %rax
	movq	%rax, %rcx
	call	_ZNSt6vectorIdSaIdEED1Ev
	jmp	.L393
.L413:
	movq	%rax, %rbx
.L393:
	.loc 23 176 21 is_stmt 0 discriminator 9
	leaq	288(%rbp), %rax
	movq	%rax, %rcx
	call	_ZNSt6vectorIdSaIdEED1Ev
	jmp	.L394
.L412:
	movq	%rax, %rbx
.L394:
	.loc 23 176 21 discriminator 7
	leaq	240(%rbp), %rax
	movq	%rax, %rcx
	call	_ZNSt7__cxx1112basic_stringIcSt11char_traitsIcESaIcEED1Ev
	jmp	.L395
.L411:
	movq	%rax, %rbx
.L395:
	.loc 23 176 21 discriminator 5
	leaq	287(%rbp), %rax
	movq	%rax, %rcx
	call	_ZNSaIcED1Ev
	leaq	192(%rbp), %rax
	movq	%rax, %rcx
	call	_ZNSt7__cxx1112basic_stringIcSt11char_traitsIcESaIcEED1Ev
	jmp	.L396
.L410:
	movq	%rax, %rbx
.L396:
	.loc 23 176 21 discriminator 3
	leaq	239(%rbp), %rax
	movq	%rax, %rcx
	call	_ZNSaIcED1Ev
	leaq	144(%rbp), %rax
	movq	%rax, %rcx
	call	_ZNSt7__cxx1112basic_stringIcSt11char_traitsIcESaIcEED1Ev
	jmp	.L397
.L409:
	movq	%rax, %rbx
.L397:
	.loc 23 176 21 discriminator 1
	leaq	191(%rbp), %rax
	movq	%rax, %rcx
	call	_ZNSaIcED1Ev
	leaq	112(%rbp), %rax
	movq	%rax, %rcx
	call	_ZN8wxColourD1Ev
	jmp	.L391
.L415:
	movq	%rax, %rbx
	jmp	.L391
.L421:
	movq	%rax, %rbx
.LBE65:
.LBB66:
	.loc 23 191 21 is_stmt 1
	leaq	560(%rbp), %rax
	movq	%rax, %rcx
	call	_ZNSt6vectorIdSaIdEED1Ev
	jmp	.L400
.L420:
	movq	%rax, %rbx
.L400:
	.loc 23 191 21 is_stmt 0 discriminator 9
	leaq	528(%rbp), %rax
	movq	%rax, %rcx
	call	_ZNSt6vectorIdSaIdEED1Ev
	jmp	.L401
.L419:
	movq	%rax, %rbx
.L401:
	.loc 23 191 21 discriminator 7
	leaq	480(%rbp), %rax
	movq	%rax, %rcx
	call	_ZNSt7__cxx1112basic_stringIcSt11char_traitsIcESaIcEED1Ev
	jmp	.L402
.L418:
	movq	%rax, %rbx
.L402:
	.loc 23 191 21 discriminator 5
	leaq	527(%rbp), %rax
	movq	%rax, %rcx
	call	_ZNSaIcED1Ev
	leaq	432(%rbp), %rax
	movq	%rax, %rcx
	call	_ZNSt7__cxx1112basic_stringIcSt11char_traitsIcESaIcEED1Ev
	jmp	.L403
.L417:
	movq	%rax, %rbx
.L403:
	.loc 23 191 21 discriminator 3
	leaq	479(%rbp), %rax
	movq	%rax, %rcx
	call	_ZNSaIcED1Ev
	leaq	384(%rbp), %rax
	movq	%rax, %rcx
	call	_ZNSt7__cxx1112basic_stringIcSt11char_traitsIcESaIcEED1Ev
	jmp	.L404
.L416:
	movq	%rax, %rbx
.L404:
	.loc 23 191 21 discriminator 1
	leaq	431(%rbp), %rax
	movq	%rax, %rcx
	call	_ZNSaIcED1Ev
	leaq	352(%rbp), %rax
	movq	%rax, %rcx
	call	_ZN8wxColourD1Ev
	jmp	.L391
.L408:
	movq	%rax, %rbx
.L391:
.LBE66:
.LBE67:
.LBE68:
	.loc 23 160 25 is_stmt 1
	leaq	-16(%rbp), %rax
	movq	%rax, %rcx
	call	_ZNSt6vectorIdSaIdEED1Ev
	.loc 23 159 25
	leaq	16(%rbp), %rax
	movq	%rax, %rcx
	call	_ZNSt6vectorIdSaIdEED1Ev
	.loc 23 158 35
	leaq	48(%rbp), %rax
	movq	%rax, %rcx
	call	_ZN8wxColourD1Ev
	jmp	.L405
.L406:
	movq	%rax, %rbx
.L405:
	.loc 23 157 36
	leaq	80(%rbp), %rax
	movq	%rax, %rcx
	call	_ZN8wxColourD1Ev
	movq	%rbx, %rax
	movq	%rax, %rcx
.LEHB142:
	call	_Unwind_Resume
	nop
.LEHE142:
.L426:
	.loc 23 196 2
	movaps	608(%rbp), %xmm6
	addq	$760, %rsp
	.cfi_restore 23
	popq	%rbx
	.cfi_restore 3
	popq	%rbp
	.cfi_restore 6
	.cfi_def_cfa 7, -744
	ret
	.cfi_endproc
.LFE17996:
	.seh_handler	__gxx_personality_seh0, @unwind, @except
	.seh_handlerdata
.LLSDA17996:
	.byte	0xff
	.byte	0xff
	.byte	0x1
	.uleb128 .LLSDACSE17996-.LLSDACSB17996
.LLSDACSB17996:
	.uleb128 .LEHB124-.LFB17996
	.uleb128 .LEHE124-.LEHB124
	.uleb128 0
	.uleb128 0
	.uleb128 .LEHB125-.LFB17996
	.uleb128 .LEHE125-.LEHB125
	.uleb128 .L406-.LFB17996
	.uleb128 0
	.uleb128 .LEHB126-.LFB17996
	.uleb128 .LEHE126-.LEHB126
	.uleb128 .L407-.LFB17996
	.uleb128 0
	.uleb128 .LEHB127-.LFB17996
	.uleb128 .LEHE127-.LEHB127
	.uleb128 .L409-.LFB17996
	.uleb128 0
	.uleb128 .LEHB128-.LFB17996
	.uleb128 .LEHE128-.LEHB128
	.uleb128 .L410-.LFB17996
	.uleb128 0
	.uleb128 .LEHB129-.LFB17996
	.uleb128 .LEHE129-.LEHB129
	.uleb128 .L411-.LFB17996
	.uleb128 0
	.uleb128 .LEHB130-.LFB17996
	.uleb128 .LEHE130-.LEHB130
	.uleb128 .L412-.LFB17996
	.uleb128 0
	.uleb128 .LEHB131-.LFB17996
	.uleb128 .LEHE131-.LEHB131
	.uleb128 .L413-.LFB17996
	.uleb128 0
	.uleb128 .LEHB132-.LFB17996
	.uleb128 .LEHE132-.LEHB132
	.uleb128 .L414-.LFB17996
	.uleb128 0
	.uleb128 .LEHB133-.LFB17996
	.uleb128 .LEHE133-.LEHB133
	.uleb128 .L408-.LFB17996
	.uleb128 0
	.uleb128 .LEHB134-.LFB17996
	.uleb128 .LEHE134-.LEHB134
	.uleb128 .L415-.LFB17996
	.uleb128 0
	.uleb128 .LEHB135-.LFB17996
	.uleb128 .LEHE135-.LEHB135
	.uleb128 .L416-.LFB17996
	.uleb128 0
	.uleb128 .LEHB136-.LFB17996
	.uleb128 .LEHE136-.LEHB136
	.uleb128 .L417-.LFB17996
	.uleb128 0
	.uleb128 .LEHB137-.LFB17996
	.uleb128 .LEHE137-.LEHB137
	.uleb128 .L418-.LFB17996
	.uleb128 0
	.uleb128 .LEHB138-.LFB17996
	.uleb128 .LEHE138-.LEHB138
	.uleb128 .L419-.LFB17996
	.uleb128 0
	.uleb128 .LEHB139-.LFB17996
	.uleb128 .LEHE139-.LEHB139
	.uleb128 .L420-.LFB17996
	.uleb128 0
	.uleb128 .LEHB140-.LFB17996
	.uleb128 .LEHE140-.LEHB140
	.uleb128 .L421-.LFB17996
	.uleb128 0
	.uleb128 .LEHB141-.LFB17996
	.uleb128 .LEHE141-.LEHB141
	.uleb128 .L408-.LFB17996
	.uleb128 0
	.uleb128 .LEHB142-.LFB17996
	.uleb128 .LEHE142-.LEHB142
	.uleb128 0
	.uleb128 0
.LLSDACSE17996:
	.text
	.seh_endproc
	.align 2
	.globl	_ZN15MathplotHandler8plotMapaEP8mpWindowSt6vectorIdSaIdEES4_NSt7__cxx1112basic_stringIcSt11char_traitsIcESaIcEEESA_SA_8wxColour
	.def	_ZN15MathplotHandler8plotMapaEP8mpWindowSt6vectorIdSaIdEES4_NSt7__cxx1112basic_stringIcSt11char_traitsIcESaIcEEESA_SA_8wxColour;	.scl	2;	.type	32;	.endef
	.seh_proc	_ZN15MathplotHandler8plotMapaEP8mpWindowSt6vectorIdSaIdEES4_NSt7__cxx1112basic_stringIcSt11char_traitsIcESaIcEEESA_SA_8wxColour
_ZN15MathplotHandler8plotMapaEP8mpWindowSt6vectorIdSaIdEES4_NSt7__cxx1112basic_stringIcSt11char_traitsIcESaIcEEESA_SA_8wxColour:
.LFB17998:
	.loc 23 199 1
	.cfi_startproc
	pushq	%rbp
	.seh_pushreg	%rbp
	.cfi_def_cfa_offset 16
	.cfi_offset 6, -16
	pushq	%rsi
	.seh_pushreg	%rsi
	.cfi_def_cfa_offset 24
	.cfi_offset 4, -24
	pushq	%rbx
	.seh_pushreg	%rbx
	.cfi_def_cfa_offset 32
	.cfi_offset 3, -32
	subq	$448, %rsp
	.seh_stackalloc	448
	.cfi_def_cfa_offset 480
	leaq	128(%rsp), %rbp
	.seh_setframe	%rbp, 128
	.cfi_def_cfa 6, 352
	.seh_endprologue
	movq	%rcx, 352(%rbp)
	movq	%rdx, 360(%rbp)
	movq	%r8, 368(%rbp)
	movq	%r9, 376(%rbp)
	.loc 23 203 61
	movq	.refptr._ZN8wxString4nposE(%rip), %rax
	movq	(%rax), %rbx
	movq	400(%rbp), %rax
	movq	%rax, %rcx
	call	_ZNKSt7__cxx1112basic_stringIcSt11char_traitsIcESaIcEE5c_strEv
	movq	%rax, %rdx
	leaq	64(%rbp), %rax
	movq	%rbx, %r8
	movq	%rax, %rcx
.LEHB143:
	call	_ZN8wxString8FromUTF8EPKcy
.LEHE143:
	.loc 23 204 79
	movq	.refptr._ZN8wxString4nposE(%rip), %rax
	movq	(%rax), %rbx
	movq	384(%rbp), %rax
	movq	%rax, %rcx
	call	_ZNKSt7__cxx1112basic_stringIcSt11char_traitsIcESaIcEE5c_strEv
	movq	%rax, %rdx
	leaq	16(%rbp), %rax
	movq	%rbx, %r8
	movq	%rax, %rcx
.LEHB144:
	call	_ZN8wxString8FromUTF8EPKcy
.LEHE144:
	.loc 23 205 79
	movq	.refptr._ZN8wxString4nposE(%rip), %rax
	movq	(%rax), %rbx
	movq	392(%rbp), %rax
	movq	%rax, %rcx
	call	_ZNKSt7__cxx1112basic_stringIcSt11char_traitsIcESaIcEE5c_strEv
	movq	%rax, %rdx
	leaq	-32(%rbp), %rax
	movq	%rbx, %r8
	movq	%rax, %rcx
.LEHB145:
	call	_ZN8wxString8FromUTF8EPKcy
.LEHE145:
.LBB69:
	.loc 23 207 21
	movq	400(%rbp), %rax
	movq	%rax, %rcx
	call	_ZNKSt7__cxx1112basic_stringIcSt11char_traitsIcESaIcEE6lengthEv
	.loc 23 207 24
	testq	%rax, %rax
	setne	%al
	.loc 23 207 6
	testb	%al, %al
	je	.L428
.LBB70:
	.loc 23 211 23
	movq	360(%rbp), %rcx
	leaq	-56(%rbp), %rdx
	leaq	-52(%rbp), %rax
	movq	%rdx, %r8
	movq	%rax, %rdx
.LEHB146:
	call	_ZNK12wxWindowBase7GetSizeEPiS0_
	.loc 23 212 49
	movl	-52(%rbp), %eax
	leal	-200(%rax), %edx
	leaq	112(%rbp), %rax
	movl	$40, 32(%rsp)
	movl	$40, %r9d
	movl	$20, %r8d
	movq	%rax, %rcx
	call	_ZN6wxRectC1Eiiii
	.loc 23 212 101
	movl	$9, %ecx
	call	_ZN10wxStockGDI8GetBrushENS_4ItemE
	movq	%rax, %rsi
	.loc 23 212 132
	movl	$176, %ecx
	call	_Znwy
.LEHE146:
	.loc 23 212 132 is_stmt 0 discriminator 2
	movq	%rax, %rbx
	movq	112(%rbp), %rax
	movq	120(%rbp), %rdx
	movq	%rax, -80(%rbp)
	movq	%rdx, -72(%rbp)
	leaq	-80(%rbp), %rax
	movq	%rsi, %r8
	movq	%rax, %rdx
	movq	%rbx, %rcx
.LEHB147:
	call	_ZN12mpInfoLegendC1E6wxRectPK7wxBrush
.LEHE147:
	.loc 23 212 30 is_stmt 1 discriminator 6
	movq	%rbx, 312(%rbp)
	.loc 23 212 24 discriminator 6
	movq	312(%rbp), %rdx
	movq	360(%rbp), %rax
	movl	$1, %r8d
	movq	%rax, %rcx
.LEHB148:
	call	_ZN8mpWindow8AddLayerEP7mpLayerb
	.loc 23 213 24 discriminator 8
	movq	312(%rbp), %rax
	movl	$1, %edx
	movq	%rax, %rcx
	call	_ZN7mpLayer10SetVisibleEb
.L428:
.LBE70:
.LBE69:
	.loc 23 217 53
	leaq	64(%rbp), %rdx
	leaq	128(%rbp), %rax
	movq	%rax, %rcx
	call	_ZN8wxStringC1ERKS_
.LEHE148:
	.loc 23 217 53 is_stmt 0 discriminator 1
	leaq	128(%rbp), %rsi
	movl	$240, %ecx
.LEHB149:
	call	_Znwy
.LEHE149:
	movq	%rax, %rbx
	movl	$0, %r8d
	movq	%rsi, %rdx
	movq	%rbx, %rcx
.LEHB150:
	call	_ZN11mpFXYVectorC1E8wxStringi
.LEHE150:
	.loc 23 217 53 discriminator 5
	movq	%rbx, 304(%rbp)
	leaq	128(%rbp), %rax
	movq	%rax, %rcx
	call	_ZN8wxStringD1Ev
	.loc 23 219 18 is_stmt 1 discriminator 5
	movq	408(%rbp), %rdx
	leaq	-48(%rbp), %rax
	movl	$100, %r9d
	movl	$1, %r8d
	movq	%rax, %rcx
.LEHB151:
	call	_ZN5wxPenC1ERK8wxColouri10wxPenStyle
.LEHE151:
	.loc 23 220 17
	movq	304(%rbp), %rbx
	leaq	-48(%rbp), %rdx
	leaq	176(%rbp), %rax
	movq	%rax, %rcx
	call	_ZN5wxPenC1ERKS_
	leaq	176(%rbp), %rax
	movq	%rax, %rdx
	movq	%rbx, %rcx
.LEHB152:
	call	_ZN7mpLayer6SetPenE5wxPen
.LEHE152:
	.loc 23 220 17 is_stmt 0 discriminator 2
	leaq	176(%rbp), %rax
	movq	%rax, %rcx
	call	_ZN5wxPenD1Ev
	.loc 23 221 20 is_stmt 1 discriminator 2
	movq	304(%rbp), %rdx
	movq	360(%rbp), %rax
	movl	$1, %r8d
	movq	%rax, %rcx
.LEHB153:
	call	_ZN8mpWindow8AddLayerEP7mpLayerb
	.loc 23 222 24
	movq	304(%rbp), %rax
	movl	$1, %edx
	movq	%rax, %rcx
	call	_ZN7mpLayer13SetContinuityEb
	.loc 23 223 18
	movq	376(%rbp), %rcx
	movq	368(%rbp), %rdx
	movq	304(%rbp), %rax
	movq	%rcx, %r8
	movq	%rax, %rcx
	call	_ZN11mpFXYVector7SetDataERKSt6vectorIdSaIdEES4_
	.loc 23 224 19
	movq	304(%rbp), %rax
	movl	$0, %edx
	movq	%rax, %rcx
	call	_ZN7mpLayer8ShowNameEb
	.loc 23 225 32
	movq	304(%rbp), %rax
	movl	$1, %edx
	movq	%rax, %rcx
	call	_ZN7mpLayer21SetDrawOutsideMarginsEb
	.loc 23 228 63
	leaq	16(%rbp), %rdx
	leaq	192(%rbp), %rax
	movq	%rax, %rcx
	call	_ZN8wxStringC1ERKS_
.LEHE153:
	.loc 23 228 63 is_stmt 0 discriminator 1
	leaq	192(%rbp), %rsi
	movl	$184, %ecx
.LEHB154:
	call	_Znwy
.LEHE154:
	movq	%rax, %rbx
	movl	$0, 32(%rsp)
	movl	$1, %r9d
	movl	$4, %r8d
	movq	%rsi, %rdx
	movq	%rbx, %rcx
.LEHB155:
	call	_ZN8mpScaleXC1E8wxStringibj
.LEHE155:
	.loc 23 228 63 discriminator 5
	movq	%rbx, 296(%rbp)
	leaq	192(%rbp), %rax
	movq	%rax, %rcx
	call	_ZN8wxStringD1Ev
	.loc 23 229 63 is_stmt 1 discriminator 5
	leaq	-32(%rbp), %rdx
	leaq	240(%rbp), %rax
	movq	%rax, %rcx
.LEHB156:
	call	_ZN8wxStringC1ERKS_
.LEHE156:
	.loc 23 229 63 is_stmt 0 discriminator 1
	leaq	240(%rbp), %rsi
	movl	$184, %ecx
.LEHB157:
	call	_Znwy
.LEHE157:
	movq	%rax, %rbx
	movl	$1, %r9d
	movl	$4, %r8d
	movq	%rsi, %rdx
	movq	%rbx, %rcx
.LEHB158:
	call	_ZN8mpScaleYC1E8wxStringib
.LEHE158:
	.loc 23 229 63 discriminator 5
	movq	%rbx, 288(%rbp)
	leaq	240(%rbp), %rax
	movq	%rax, %rcx
	call	_ZN8wxStringD1Ev
	.loc 23 230 25 is_stmt 1 discriminator 5
	movq	360(%rbp), %rax
	movl	$50, %edx
	movq	%rax, %rcx
	call	_ZN8mpWindow13SetMarginLeftEi
	.loc 23 231 26 discriminator 5
	movq	360(%rbp), %rax
	movl	$100, %edx
	movq	%rax, %rcx
	call	_ZN8mpWindow14SetMarginRightEi
	.loc 23 232 27 discriminator 5
	movq	360(%rbp), %rax
	movl	$60, %edx
	movq	%rax, %rcx
	call	_ZN8mpWindow15SetMarginBottomEi
	.loc 23 233 33 discriminator 5
	movq	296(%rbp), %rax
	movl	$1, %edx
	movq	%rax, %rcx
	call	_ZN7mpLayer21SetDrawOutsideMarginsEb
	.loc 23 234 20 discriminator 5
	movq	296(%rbp), %rax
	movl	$0, %edx
	movq	%rax, %rcx
	call	_ZN8mpScaleX8SetTicksEb
	.loc 23 235 33 discriminator 5
	movq	288(%rbp), %rax
	movl	$1, %edx
	movq	%rax, %rcx
	call	_ZN7mpLayer21SetDrawOutsideMarginsEb
	.loc 23 238 20 discriminator 5
	movq	296(%rbp), %rdx
	movq	360(%rbp), %rax
	movl	$1, %r8d
	movq	%rax, %rcx
.LEHB159:
	call	_ZN8mpWindow8AddLayerEP7mpLayerb
	.loc 23 239 20
	movq	288(%rbp), %rdx
	movq	360(%rbp), %rax
	movl	$1, %r8d
	movq	%rax, %rcx
	call	_ZN8mpWindow8AddLayerEP7mpLayerb
	.loc 23 240 20
	movq	288(%rbp), %rax
	movl	$0, %edx
	movq	%rax, %rcx
	call	_ZN8mpScaleY8SetTicksEb
	.loc 23 242 16
	movq	360(%rbp), %rax
	movq	(%rax), %rax
	addq	$280, %rax
	movq	(%rax), %rax
	.loc 23 242 15
	movq	360(%rbp), %rdx
	movq	%rdx, %rcx
	call	*%rax
.LVL7:
	.loc 23 243 21
	movq	360(%rbp), %rax
	movq	%rax, %rcx
	call	_ZN8mpWindow9UpdateAllEv
.LEHE159:
	.loc 23 219 18
	leaq	-48(%rbp), %rax
	movq	%rax, %rcx
	call	_ZN5wxPenD1Ev
	.loc 23 205 79
	leaq	-32(%rbp), %rax
	movq	%rax, %rcx
	call	_ZN8wxStringD1Ev
	.loc 23 204 79
	leaq	16(%rbp), %rax
	movq	%rax, %rcx
	call	_ZN8wxStringD1Ev
	.loc 23 203 61
	leaq	64(%rbp), %rax
	movq	%rax, %rcx
	call	_ZN8wxStringD1Ev
	.loc 23 246 1
	jmp	.L453
.L443:
	movq	%rax, %rsi
.LBB72:
.LBB71:
	.loc 23 212 132
	movq	%rbx, %rcx
	call	_ZdlPv
	movq	%rsi, %rbx
	jmp	.L430
.L446:
	movq	%rax, %rsi
.LBE71:
.LBE72:
	.loc 23 217 53
	movq	%rbx, %rcx
	call	_ZdlPv
	movq	%rsi, %rbx
	jmp	.L432
.L445:
	movq	%rax, %rbx
.L432:
	.loc 23 217 53 is_stmt 0 discriminator 2
	leaq	128(%rbp), %rax
	movq	%rax, %rcx
	call	_ZN8wxStringD1Ev
	jmp	.L430
.L447:
	movq	%rax, %rbx
	.loc 23 220 17 is_stmt 1
	leaq	176(%rbp), %rax
	movq	%rax, %rcx
	call	_ZN5wxPenD1Ev
	jmp	.L434
.L450:
	movq	%rax, %rsi
	.loc 23 228 63
	movq	%rbx, %rcx
	call	_ZdlPv
	movq	%rsi, %rbx
	jmp	.L436
.L449:
	movq	%rax, %rbx
.L436:
	.loc 23 228 63 is_stmt 0 discriminator 2
	leaq	192(%rbp), %rax
	movq	%rax, %rcx
	call	_ZN8wxStringD1Ev
	jmp	.L434
.L452:
	movq	%rax, %rsi
	.loc 23 229 63 is_stmt 1
	movq	%rbx, %rcx
	call	_ZdlPv
	movq	%rsi, %rbx
	jmp	.L438
.L451:
	movq	%rax, %rbx
.L438:
	.loc 23 229 63 is_stmt 0 discriminator 2
	leaq	240(%rbp), %rax
	movq	%rax, %rcx
	call	_ZN8wxStringD1Ev
	jmp	.L434
.L448:
	movq	%rax, %rbx
.L434:
	.loc 23 219 18 is_stmt 1
	leaq	-48(%rbp), %rax
	movq	%rax, %rcx
	call	_ZN5wxPenD1Ev
	jmp	.L430
.L444:
	movq	%rax, %rbx
.L430:
	.loc 23 205 79
	leaq	-32(%rbp), %rax
	movq	%rax, %rcx
	call	_ZN8wxStringD1Ev
	jmp	.L439
.L442:
	movq	%rax, %rbx
.L439:
	.loc 23 204 79
	leaq	16(%rbp), %rax
	movq	%rax, %rcx
	call	_ZN8wxStringD1Ev
	jmp	.L440
.L441:
	movq	%rax, %rbx
.L440:
	.loc 23 203 61
	leaq	64(%rbp), %rax
	movq	%rax, %rcx
	call	_ZN8wxStringD1Ev
	movq	%rbx, %rax
	movq	%rax, %rcx
.LEHB160:
	call	_Unwind_Resume
	nop
.LEHE160:
.L453:
	.loc 23 246 1
	addq	$448, %rsp
	popq	%rbx
	.cfi_restore 3
	popq	%rsi
	.cfi_restore 4
	popq	%rbp
	.cfi_restore 6
	.cfi_def_cfa 7, -424
	ret
	.cfi_endproc
.LFE17998:
	.seh_handler	__gxx_personality_seh0, @unwind, @except
	.seh_handlerdata
.LLSDA17998:
	.byte	0xff
	.byte	0xff
	.byte	0x1
	.uleb128 .LLSDACSE17998-.LLSDACSB17998
.LLSDACSB17998:
	.uleb128 .LEHB143-.LFB17998
	.uleb128 .LEHE143-.LEHB143
	.uleb128 0
	.uleb128 0
	.uleb128 .LEHB144-.LFB17998
	.uleb128 .LEHE144-.LEHB144
	.uleb128 .L441-.LFB17998
	.uleb128 0
	.uleb128 .LEHB145-.LFB17998
	.uleb128 .LEHE145-.LEHB145
	.uleb128 .L442-.LFB17998
	.uleb128 0
	.uleb128 .LEHB146-.LFB17998
	.uleb128 .LEHE146-.LEHB146
	.uleb128 .L444-.LFB17998
	.uleb128 0
	.uleb128 .LEHB147-.LFB17998
	.uleb128 .LEHE147-.LEHB147
	.uleb128 .L443-.LFB17998
	.uleb128 0
	.uleb128 .LEHB148-.LFB17998
	.uleb128 .LEHE148-.LEHB148
	.uleb128 .L444-.LFB17998
	.uleb128 0
	.uleb128 .LEHB149-.LFB17998
	.uleb128 .LEHE149-.LEHB149
	.uleb128 .L445-.LFB17998
	.uleb128 0
	.uleb128 .LEHB150-.LFB17998
	.uleb128 .LEHE150-.LEHB150
	.uleb128 .L446-.LFB17998
	.uleb128 0
	.uleb128 .LEHB151-.LFB17998
	.uleb128 .LEHE151-.LEHB151
	.uleb128 .L444-.LFB17998
	.uleb128 0
	.uleb128 .LEHB152-.LFB17998
	.uleb128 .LEHE152-.LEHB152
	.uleb128 .L447-.LFB17998
	.uleb128 0
	.uleb128 .LEHB153-.LFB17998
	.uleb128 .LEHE153-.LEHB153
	.uleb128 .L448-.LFB17998
	.uleb128 0
	.uleb128 .LEHB154-.LFB17998
	.uleb128 .LEHE154-.LEHB154
	.uleb128 .L449-.LFB17998
	.uleb128 0
	.uleb128 .LEHB155-.LFB17998
	.uleb128 .LEHE155-.LEHB155
	.uleb128 .L450-.LFB17998
	.uleb128 0
	.uleb128 .LEHB156-.LFB17998
	.uleb128 .LEHE156-.LEHB156
	.uleb128 .L448-.LFB17998
	.uleb128 0
	.uleb128 .LEHB157-.LFB17998
	.uleb128 .LEHE157-.LEHB157
	.uleb128 .L451-.LFB17998
	.uleb128 0
	.uleb128 .LEHB158-.LFB17998
	.uleb128 .LEHE158-.LEHB158
	.uleb128 .L452-.LFB17998
	.uleb128 0
	.uleb128 .LEHB159-.LFB17998
	.uleb128 .LEHE159-.LEHB159
	.uleb128 .L448-.LFB17998
	.uleb128 0
	.uleb128 .LEHB160-.LFB17998
	.uleb128 .LEHE160-.LEHB160
	.uleb128 0
	.uleb128 0
.LLSDACSE17998:
	.text
	.seh_endproc
	.align 2
	.globl	_ZN15MathplotHandler14popularVetoresESt6vectorI12ElementosVooSaIS1_EE
	.def	_ZN15MathplotHandler14popularVetoresESt6vectorI12ElementosVooSaIS1_EE;	.scl	2;	.type	32;	.endef
	.seh_proc	_ZN15MathplotHandler14popularVetoresESt6vectorI12ElementosVooSaIS1_EE
_ZN15MathplotHandler14popularVetoresESt6vectorI12ElementosVooSaIS1_EE:
.LFB17999:
	.loc 23 249 1
	.cfi_startproc
	pushq	%rbp
	.seh_pushreg	%rbp
	.cfi_def_cfa_offset 16
	.cfi_offset 6, -16
	pushq	%rbx
	.seh_pushreg	%rbx
	.cfi_def_cfa_offset 24
	.cfi_offset 3, -24
	subq	$88, %rsp
	.seh_stackalloc	88
	.cfi_def_cfa_offset 112
	leaq	128(%rsp), %rbp
	.seh_setframe	%rbp, 128
	.cfi_def_cfa 6, -16
	movaps	%xmm6, -64(%rbp)
	.seh_savexmm	%xmm6, 64
	.cfi_offset 23, -48
	.seh_endprologue
	movq	%rcx, -16(%rbp)
	movq	%rdx, -8(%rbp)
	.loc 23 251 17
	movq	-16(%rbp), %rax
	addq	$48, %rax
	movq	%rax, %rcx
	call	_ZNSt6vectorIdSaIdEE5clearEv
	.loc 23 252 13
	movq	-16(%rbp), %rax
	movq	%rax, %rcx
	call	_ZNSt6vectorIdSaIdEE5clearEv
	.loc 23 253 13
	movq	-16(%rbp), %rax
	addq	$24, %rax
	movq	%rax, %rcx
	call	_ZNSt6vectorIdSaIdEE5clearEv
	.loc 23 254 13
	movq	-16(%rbp), %rax
	addq	$72, %rax
	movq	%rax, %rcx
	call	_ZNSt6vectorIdSaIdEE5clearEv
	.loc 23 255 13
	movq	-16(%rbp), %rax
	addq	$96, %rax
	movq	%rax, %rcx
	call	_ZNSt6vectorIdSaIdEE5clearEv
	.loc 23 256 13
	movq	-16(%rbp), %rax
	addq	$120, %rax
	movq	%rax, %rcx
	call	_ZNSt6vectorIdSaIdEE5clearEv
	.loc 23 257 13
	movq	-16(%rbp), %rax
	addq	$144, %rax
	movq	%rax, %rcx
	call	_ZNSt6vectorIdSaIdEE5clearEv
	.loc 23 258 16
	movq	-16(%rbp), %rax
	addq	$168, %rax
	movq	%rax, %rcx
	call	_ZNSt6vectorIdSaIdEE5clearEv
	.loc 23 260 9
	movl	$0, -68(%rbp)
.LBB73:
	.loc 23 261 67
	movq	-8(%rbp), %rax
	movq	%rax, %rcx
	call	_ZNSt6vectorI12ElementosVooSaIS0_EE5beginEv
	movq	%rax, -96(%rbp)
.L456:
	.loc 23 261 93 discriminator 1
	movq	-8(%rbp), %rax
	movq	%rax, %rcx
	call	_ZNSt6vectorI12ElementosVooSaIS0_EE3endEv
	movq	%rax, -88(%rbp)
	.loc 23 261 73 discriminator 1
	leaq	-88(%rbp), %rdx
	leaq	-96(%rbp), %rax
	movq	%rax, %rcx
	call	_ZN9__gnu_cxxneIP12ElementosVooSt6vectorIS1_SaIS1_EEEEbRKNS_17__normal_iteratorIT_T0_EESB_
	testb	%al, %al
	je	.L457
	.loc 23 264 21
	movq	-16(%rbp), %rbx
	.loc 23 264 36
	movl	-68(%rbp), %eax
	cltq
	movq	-8(%rbp), %rcx
	movq	%rax, %rdx
	call	_ZNSt6vectorI12ElementosVooSaIS0_EEixEy
	.loc 23 264 38
	addq	$40, %rax
	.loc 23 264 21
	movq	%rax, %rdx
	movq	%rbx, %rcx
	call	_ZNSt6vectorIdSaIdEE9push_backERKd
	.loc 23 265 21
	movq	-16(%rbp), %rax
	leaq	24(%rax), %rbx
	.loc 23 265 36
	movl	-68(%rbp), %eax
	cltq
	movq	-8(%rbp), %rcx
	movq	%rax, %rdx
	call	_ZNSt6vectorI12ElementosVooSaIS0_EEixEy
	.loc 23 265 38
	addq	$48, %rax
	.loc 23 265 21
	movq	%rax, %rdx
	movq	%rbx, %rcx
	call	_ZNSt6vectorIdSaIdEE9push_backERKd
	.loc 23 266 25
	movq	-16(%rbp), %rax
	leaq	48(%rax), %rbx
	.loc 23 266 49
	movl	-68(%rbp), %eax
	cltq
	movq	-8(%rbp), %rcx
	movq	%rax, %rdx
	call	_ZNSt6vectorI12ElementosVooSaIS0_EEixEy
	.loc 23 266 34
	movq	40(%rax), %rax
	movl	$2, %edx
	movq	%rax, %xmm0
	call	_ZSt3powIdiEN9__gnu_cxx11__promote_2IT_T0_NS0_9__promoteIS2_XsrSt12__is_integerIS2_E7__valueEE6__typeENS4_IS3_XsrS5_IS3_E7__valueEE6__typeEE6__typeES2_S3_
	movapd	%xmm0, %xmm6
	.loc 23 266 78
	movl	-68(%rbp), %eax
	cltq
	movq	-8(%rbp), %rcx
	movq	%rax, %rdx
	call	_ZNSt6vectorI12ElementosVooSaIS0_EEixEy
	.loc 23 266 63
	movq	48(%rax), %rax
	movl	$2, %edx
	movq	%rax, %xmm0
	call	_ZSt3powIdiEN9__gnu_cxx11__promote_2IT_T0_NS0_9__promoteIS2_XsrSt12__is_integerIS2_E7__valueEE6__typeENS4_IS3_XsrS5_IS3_E7__valueEE6__typeEE6__typeES2_S3_
	.loc 23 266 30
	addsd	%xmm6, %xmm0
	call	sqrt
	movq	%xmm0, %rax
	movq	%rax, -80(%rbp)
	.loc 23 266 25
	leaq	-80(%rbp), %rax
	movq	%rax, %rdx
	movq	%rbx, %rcx
	call	_ZNSt6vectorIdSaIdEE9push_backEOd
	.loc 23 267 21
	movq	-16(%rbp), %rax
	leaq	72(%rax), %rbx
	.loc 23 267 36
	movl	-68(%rbp), %eax
	cltq
	movq	-8(%rbp), %rcx
	movq	%rax, %rdx
	call	_ZNSt6vectorI12ElementosVooSaIS0_EEixEy
	.loc 23 267 38
	addq	$16, %rax
	.loc 23 267 21
	movq	%rax, %rdx
	movq	%rbx, %rcx
	call	_ZNSt6vectorIdSaIdEE9push_backERKd
	.loc 23 268 21
	movq	-16(%rbp), %rax
	leaq	96(%rax), %rbx
	.loc 23 268 36
	movl	-68(%rbp), %eax
	cltq
	movq	-8(%rbp), %rcx
	movq	%rax, %rdx
	call	_ZNSt6vectorI12ElementosVooSaIS0_EEixEy
	.loc 23 268 38
	addq	$24, %rax
	.loc 23 268 21
	movq	%rax, %rdx
	movq	%rbx, %rcx
	call	_ZNSt6vectorIdSaIdEE9push_backERKd
	.loc 23 269 21
	movq	-16(%rbp), %rax
	leaq	120(%rax), %rbx
	.loc 23 269 36
	movl	-68(%rbp), %eax
	cltq
	movq	-8(%rbp), %rcx
	movq	%rax, %rdx
	call	_ZNSt6vectorI12ElementosVooSaIS0_EEixEy
	.loc 23 269 38
	addq	$32, %rax
	.loc 23 269 21
	movq	%rax, %rdx
	movq	%rbx, %rcx
	call	_ZNSt6vectorIdSaIdEE9push_backERKd
	.loc 23 270 21
	movq	-16(%rbp), %rax
	leaq	144(%rax), %rbx
	.loc 23 270 36
	movl	-68(%rbp), %eax
	cltq
	movq	-8(%rbp), %rcx
	movq	%rax, %rdx
	call	_ZNSt6vectorI12ElementosVooSaIS0_EEixEy
	.loc 23 270 38
	addq	$80, %rax
	.loc 23 270 21
	movq	%rax, %rdx
	movq	%rbx, %rcx
	call	_ZNSt6vectorIdSaIdEE9push_backERKd
	.loc 23 271 24
	movq	-16(%rbp), %rax
	leaq	168(%rax), %rbx
	.loc 23 271 39
	movl	-68(%rbp), %eax
	cltq
	movq	-8(%rbp), %rcx
	movq	%rax, %rdx
	call	_ZNSt6vectorI12ElementosVooSaIS0_EEixEy
	.loc 23 271 41
	addq	$88, %rax
	.loc 23 271 24
	movq	%rax, %rdx
	movq	%rbx, %rcx
	call	_ZNSt6vectorIdSaIdEE9push_backERKd
	.loc 23 261 99
	leaq	-96(%rbp), %rax
	movl	$0, %edx
	movq	%rax, %rcx
	call	_ZN9__gnu_cxx17__normal_iteratorIP12ElementosVooSt6vectorIS1_SaIS1_EEEppEi
	.loc 23 261 5
	addl	$1, -68(%rbp)
	jmp	.L456
.L457:
.LBE73:
	.loc 23 274 1
	nop
	movaps	-64(%rbp), %xmm6
	addq	$88, %rsp
	.cfi_restore 23
	popq	%rbx
	.cfi_restore 3
	popq	%rbp
	.cfi_restore 6
	.cfi_def_cfa 7, -72
	ret
	.cfi_endproc
.LFE17999:
	.seh_endproc
	.align 2
	.globl	_ZN15MathplotHandler10removeMapaEP8mpWindowi
	.def	_ZN15MathplotHandler10removeMapaEP8mpWindowi;	.scl	2;	.type	32;	.endef
	.seh_proc	_ZN15MathplotHandler10removeMapaEP8mpWindowi
_ZN15MathplotHandler10removeMapaEP8mpWindowi:
.LFB18000:
	.loc 23 277 1
	.cfi_startproc
	pushq	%rbp
	.seh_pushreg	%rbp
	.cfi_def_cfa_offset 16
	.cfi_offset 6, -16
	pushq	%rbx
	.seh_pushreg	%rbx
	.cfi_def_cfa_offset 24
	.cfi_offset 3, -24
	subq	$72, %rsp
	.seh_stackalloc	72
	.cfi_def_cfa_offset 96
	leaq	128(%rsp), %rbp
	.seh_setframe	%rbp, 128
	.cfi_def_cfa 6, -32
	.seh_endprologue
	movq	%rcx, -32(%rbp)
	movq	%rdx, -24(%rbp)
	movl	%r8d, -16(%rbp)
	.loc 23 278 40
	movq	-24(%rbp), %rax
	movq	%rax, %rcx
	call	_ZN8mpWindow14CountAllLayersEv
	.loc 23 278 41
	movl	%eax, -76(%rbp)
	.loc 23 279 5
	cmpl	$0, -76(%rbp)
	jle	.L467
	.loc 23 282 57
	movl	-16(%rbp), %eax
	cltq
	movabsq	$1152921504606846975, %rdx
	cmpq	%rdx, %rax
	ja	.L461
	.loc 23 282 57 is_stmt 0 discriminator 1
	salq	$3, %rax
	movq	%rax, %rcx
	call	_Znay
	movq	%rax, -88(%rbp)
.LBB74:
	.loc 23 283 13 is_stmt 1 discriminator 1
	movl	$0, -68(%rbp)
	jmp	.L464
.L461:
.LBE74:
	.loc 23 282 57 discriminator 2
	call	__cxa_throw_bad_array_new_length
.L464:
.LBB75:
	.loc 23 283 23 discriminator 3
	movl	-68(%rbp), %eax
	cmpl	-16(%rbp), %eax
	jge	.L463
	.loc 23 284 51 discriminator 2
	movl	-68(%rbp), %eax
	addl	$1, %eax
	.loc 23 284 37 discriminator 2
	movl	-76(%rbp), %edx
	subl	%eax, %edx
	.loc 23 284 18 discriminator 2
	movl	-68(%rbp), %eax
	cltq
	leaq	0(,%rax,8), %rcx
	movq	-88(%rbp), %rax
	leaq	(%rcx,%rax), %rbx
	.loc 23 284 37 discriminator 2
	movq	-24(%rbp), %rax
	movq	%rax, %rcx
	call	_ZN8mpWindow8GetLayerEi
	.loc 23 284 20 discriminator 2
	movq	%rax, (%rbx)
	.loc 23 283 5 discriminator 2
	addl	$1, -68(%rbp)
	jmp	.L464
.L463:
.LBE75:
.LBB76:
	.loc 23 296 13
	movl	$0, -72(%rbp)
.L466:
	.loc 23 296 23 discriminator 3
	movl	-72(%rbp), %eax
	cmpl	-16(%rbp), %eax
	jge	.L465
	.loc 23 297 34 discriminator 2
	movl	-72(%rbp), %eax
	cltq
	leaq	0(,%rax,8), %rdx
	movq	-88(%rbp), %rax
	addq	%rdx, %rax
	.loc 23 297 24 discriminator 2
	movq	(%rax), %rdx
	movq	-24(%rbp), %rax
	movl	$1, %r9d
	movl	$1, %r8d
	movq	%rax, %rcx
	call	_ZN8mpWindow8DelLayerEP7mpLayerbb
	.loc 23 296 5 discriminator 2
	addl	$1, -72(%rbp)
	jmp	.L466
.L465:
.LBE76:
	.loc 23 299 16
	movq	-24(%rbp), %rax
	movq	(%rax), %rax
	addq	$280, %rax
	movq	(%rax), %rax
	.loc 23 299 15
	movq	-24(%rbp), %rdx
	movq	%rdx, %rcx
	call	*%rax
.LVL8:
	.loc 23 300 21
	movq	-24(%rbp), %rax
	movq	%rax, %rcx
	call	_ZN8mpWindow9UpdateAllEv
	.loc 23 301 22
	cmpq	$0, -88(%rbp)
	je	.L458
	.loc 23 301 15 discriminator 1
	movq	-88(%rbp), %rax
	movq	%rax, %rcx
	call	_ZdaPv
	jmp	.L458
.L467:
	.loc 23 280 9
	nop
.L458:
	.loc 23 302 1
	addq	$72, %rsp
	popq	%rbx
	.cfi_restore 3
	popq	%rbp
	.cfi_restore 6
	.cfi_def_cfa 7, -56
	ret
	.cfi_endproc
.LFE18000:
	.seh_endproc
	.section	.text$_ZN22wxScopedCharTypeBufferIwED1Ev,"x"
	.linkonce discard
	.align 2
	.globl	_ZN22wxScopedCharTypeBufferIwED1Ev
	.def	_ZN22wxScopedCharTypeBufferIwED1Ev;	.scl	2;	.type	32;	.endef
	.seh_proc	_ZN22wxScopedCharTypeBufferIwED1Ev
_ZN22wxScopedCharTypeBufferIwED1Ev:
.LFB18023:
	.loc 4 125 5
	.cfi_startproc
	pushq	%rbp
	.seh_pushreg	%rbp
	.cfi_def_cfa_offset 16
	.cfi_offset 6, -16
	movq	%rsp, %rbp
	.seh_setframe	%rbp, 0
	.cfi_def_cfa_register 6
	subq	$32, %rsp
	.seh_stackalloc	32
	.seh_endprologue
	movq	%rcx, 16(%rbp)
.LBB77:
	.loc 4 127 9
	movq	16(%rbp), %rcx
	call	_ZN22wxScopedCharTypeBufferIwE6DecRefEv
.LBE77:
	.loc 4 128 5
	nop
	addq	$32, %rsp
	popq	%rbp
	.cfi_restore 6
	.cfi_def_cfa 7, 8
	ret
	.cfi_endproc
.LFE18023:
	.seh_handler	__gxx_personality_seh0, @unwind, @except
	.seh_handlerdata
.LLSDA18023:
	.byte	0xff
	.byte	0xff
	.byte	0x1
	.uleb128 .LLSDACSE18023-.LLSDACSB18023
.LLSDACSB18023:
.LLSDACSE18023:
	.section	.text$_ZN22wxScopedCharTypeBufferIwED1Ev,"x"
	.linkonce discard
	.seh_endproc
	.section	.text$_ZN8wxString15ConvertedBufferIcED1Ev,"x"
	.linkonce discard
	.align 2
	.globl	_ZN8wxString15ConvertedBufferIcED1Ev
	.def	_ZN8wxString15ConvertedBufferIcED1Ev;	.scl	2;	.type	32;	.endef
	.seh_proc	_ZN8wxString15ConvertedBufferIcED1Ev
_ZN8wxString15ConvertedBufferIcED1Ev:
.LFB18290:
	.loc 6 3489 7
	.cfi_startproc
	pushq	%rbp
	.seh_pushreg	%rbp
	.cfi_def_cfa_offset 16
	.cfi_offset 6, -16
	movq	%rsp, %rbp
	.seh_setframe	%rbp, 0
	.cfi_def_cfa_register 6
	subq	$32, %rsp
	.seh_stackalloc	32
	.seh_endprologue
	movq	%rcx, 16(%rbp)
.LBB78:
	.loc 6 3490 18
	movq	16(%rbp), %rax
	movq	(%rax), %rax
	.loc 6 3490 17
	movq	%rax, %rcx
	call	free
.LBE78:
	.loc 6 3490 26
	nop
	addq	$32, %rsp
	popq	%rbp
	.cfi_restore 6
	.cfi_def_cfa 7, 8
	ret
	.cfi_endproc
.LFE18290:
	.seh_endproc
	.section	.text$_ZN8wxString15ConvertedBufferIcEC1Ev,"x"
	.linkonce discard
	.align 2
	.globl	_ZN8wxString15ConvertedBufferIcEC1Ev
	.def	_ZN8wxString15ConvertedBufferIcEC1Ev;	.scl	2;	.type	32;	.endef
	.seh_proc	_ZN8wxString15ConvertedBufferIcEC1Ev
_ZN8wxString15ConvertedBufferIcEC1Ev:
.LFB18296:
	.loc 6 3488 7
	.cfi_startproc
	pushq	%rbp
	.seh_pushreg	%rbp
	.cfi_def_cfa_offset 16
	.cfi_offset 6, -16
	movq	%rsp, %rbp
	.seh_setframe	%rbp, 0
	.cfi_def_cfa_register 6
	.seh_endprologue
	movq	%rcx, 16(%rbp)
.LBB79:
	.loc 6 3488 36
	movq	16(%rbp), %rax
	movq	$0, (%rax)
.LBE79:
	.loc 6 3488 39
	nop
	popq	%rbp
	.cfi_restore 6
	.cfi_def_cfa 7, 8
	ret
	.cfi_endproc
.LFE18296:
	.seh_endproc
	.section	.text$_ZNK22wxScopedCharTypeBufferIwEcvPKwEv,"x"
	.linkonce discard
	.align 2
	.globl	_ZNK22wxScopedCharTypeBufferIwEcvPKwEv
	.def	_ZNK22wxScopedCharTypeBufferIwEcvPKwEv;	.scl	2;	.type	32;	.endef
	.seh_proc	_ZNK22wxScopedCharTypeBufferIwEcvPKwEv
_ZNK22wxScopedCharTypeBufferIwEcvPKwEv:
.LFB18300:
	.loc 4 157 5
	.cfi_startproc
	pushq	%rbp
	.seh_pushreg	%rbp
	.cfi_def_cfa_offset 16
	.cfi_offset 6, -16
	movq	%rsp, %rbp
	.seh_setframe	%rbp, 0
	.cfi_def_cfa_register 6
	subq	$32, %rsp
	.seh_stackalloc	32
	.seh_endprologue
	movq	%rcx, 16(%rbp)
	.loc 4 157 53
	movq	16(%rbp), %rcx
	call	_ZNK22wxScopedCharTypeBufferIwE4dataEv
	.loc 4 157 56
	addq	$32, %rsp
	popq	%rbp
	.cfi_restore 6
	.cfi_def_cfa 7, 8
	ret
	.cfi_endproc
.LFE18300:
	.seh_endproc
	.section	.text$_ZNK22wxScopedCharTypeBufferIwE4dataEv,"x"
	.linkonce discard
	.align 2
	.globl	_ZNK22wxScopedCharTypeBufferIwE4dataEv
	.def	_ZNK22wxScopedCharTypeBufferIwE4dataEv;	.scl	2;	.type	32;	.endef
	.seh_proc	_ZNK22wxScopedCharTypeBufferIwE4dataEv
_ZNK22wxScopedCharTypeBufferIwE4dataEv:
.LFB18313:
	.loc 4 156 21
	.cfi_startproc
	pushq	%rbp
	.seh_pushreg	%rbp
	.cfi_def_cfa_offset 16
	.cfi_offset 6, -16
	movq	%rsp, %rbp
	.seh_setframe	%rbp, 0
	.cfi_def_cfa_register 6
	subq	$32, %rsp
	.seh_stackalloc	32
	.seh_endprologue
	movq	%rcx, 16(%rbp)
	.loc 4 156 43
	movq	16(%rbp), %rax
	movq	(%rax), %rax
	.loc 4 156 55
	movq	%rax, %rcx
	call	_ZNK22wxScopedCharTypeBufferIwE4Data3GetEv
	.loc 4 156 58
	addq	$32, %rsp
	popq	%rbp
	.cfi_restore 6
	.cfi_def_cfa 7, 8
	ret
	.cfi_endproc
.LFE18313:
	.seh_endproc
	.section	.text$_ZNKSt5dequeIP7mpLayerSaIS1_EE4sizeEv,"x"
	.linkonce discard
	.align 2
	.globl	_ZNKSt5dequeIP7mpLayerSaIS1_EE4sizeEv
	.def	_ZNKSt5dequeIP7mpLayerSaIS1_EE4sizeEv;	.scl	2;	.type	32;	.endef
	.seh_proc	_ZNKSt5dequeIP7mpLayerSaIS1_EE4sizeEv
_ZNKSt5dequeIP7mpLayerSaIS1_EE4sizeEv:
.LFB18647:
	.loc 18 1281 7
	.cfi_startproc
	pushq	%rbp
	.seh_pushreg	%rbp
	.cfi_def_cfa_offset 16
	.cfi_offset 6, -16
	movq	%rsp, %rbp
	.seh_setframe	%rbp, 0
	.cfi_def_cfa_register 6
	subq	$32, %rsp
	.seh_stackalloc	32
	.seh_endprologue
	movq	%rcx, 16(%rbp)
	.loc 18 1282 56
	movq	16(%rbp), %rax
	leaq	16(%rax), %rdx
	.loc 18 1282 30
	movq	16(%rbp), %rax
	addq	$48, %rax
	.loc 18 1282 40
	movq	%rax, %rcx
	call	_ZStmiIP7mpLayerRS1_PS1_ENSt15_Deque_iteratorIT_T0_T1_E15difference_typeERKS8_SB_
	.loc 18 1282 66
	addq	$32, %rsp
	popq	%rbp
	.cfi_restore 6
	.cfi_def_cfa 7, 8
	ret
	.cfi_endproc
.LFE18647:
	.seh_endproc
	.section	.text$_ZNSaIdEC2Ev,"x"
	.linkonce discard
	.align 2
	.globl	_ZNSaIdEC2Ev
	.def	_ZNSaIdEC2Ev;	.scl	2;	.type	32;	.endef
	.seh_proc	_ZNSaIdEC2Ev
_ZNSaIdEC2Ev:
.LFB18649:
	.file 25 "C:/Program Files/CodeBlocks/MinGW/lib/gcc/x86_64-w64-mingw32/8.1.0/include/c++/bits/allocator.h"
	.loc 25 131 7
	.cfi_startproc
	pushq	%rbp
	.seh_pushreg	%rbp
	.cfi_def_cfa_offset 16
	.cfi_offset 6, -16
	movq	%rsp, %rbp
	.seh_setframe	%rbp, 0
	.cfi_def_cfa_register 6
	subq	$32, %rsp
	.seh_stackalloc	32
	.seh_endprologue
	movq	%rcx, 16(%rbp)
.LBB80:
	.loc 25 131 27
	movq	16(%rbp), %rcx
	call	_ZN9__gnu_cxx13new_allocatorIdEC2Ev
.LBE80:
	.loc 25 131 29
	nop
	addq	$32, %rsp
	popq	%rbp
	.cfi_restore 6
	.cfi_def_cfa 7, 8
	ret
	.cfi_endproc
.LFE18649:
	.seh_endproc
	.section	.text$_ZNSaIdED2Ev,"x"
	.linkonce discard
	.align 2
	.globl	_ZNSaIdED2Ev
	.def	_ZNSaIdED2Ev;	.scl	2;	.type	32;	.endef
	.seh_proc	_ZNSaIdED2Ev
_ZNSaIdED2Ev:
.LFB18652:
	.loc 25 139 7
	.cfi_startproc
	pushq	%rbp
	.seh_pushreg	%rbp
	.cfi_def_cfa_offset 16
	.cfi_offset 6, -16
	movq	%rsp, %rbp
	.seh_setframe	%rbp, 0
	.cfi_def_cfa_register 6
	subq	$32, %rsp
	.seh_stackalloc	32
	.seh_endprologue
	movq	%rcx, 16(%rbp)
.LBB81:
	.loc 25 139 30
	movq	16(%rbp), %rcx
	call	_ZN9__gnu_cxx13new_allocatorIdED2Ev
.LBE81:
	nop
	addq	$32, %rsp
	popq	%rbp
	.cfi_restore 6
	.cfi_def_cfa 7, 8
	ret
	.cfi_endproc
.LFE18652:
	.seh_endproc
	.section	.text$_ZNSaIdED1Ev,"x"
	.linkonce discard
	.align 2
	.globl	_ZNSaIdED1Ev
	.def	_ZNSaIdED1Ev;	.scl	2;	.type	32;	.endef
	.seh_proc	_ZNSaIdED1Ev
_ZNSaIdED1Ev:
.LFB18653:
	.loc 25 139 7
	.cfi_startproc
	pushq	%rbp
	.seh_pushreg	%rbp
	.cfi_def_cfa_offset 16
	.cfi_offset 6, -16
	movq	%rsp, %rbp
	.seh_setframe	%rbp, 0
	.cfi_def_cfa_register 6
	subq	$32, %rsp
	.seh_stackalloc	32
	.seh_endprologue
	movq	%rcx, 16(%rbp)
.LBB82:
	.loc 25 139 30
	movq	16(%rbp), %rcx
	call	_ZN9__gnu_cxx13new_allocatorIdED2Ev
.LBE82:
	nop
	addq	$32, %rsp
	popq	%rbp
	.cfi_restore 6
	.cfi_def_cfa 7, 8
	ret
	.cfi_endproc
.LFE18653:
	.seh_endproc
	.section	.text$_ZNSt6vectorIdSaIdEED1Ev,"x"
	.linkonce discard
	.align 2
	.globl	_ZNSt6vectorIdSaIdEED1Ev
	.def	_ZNSt6vectorIdSaIdEED1Ev;	.scl	2;	.type	32;	.endef
	.seh_proc	_ZNSt6vectorIdSaIdEED1Ev
_ZNSt6vectorIdSaIdEED1Ev:
.LFB18659:
	.file 26 "C:/Program Files/CodeBlocks/MinGW/lib/gcc/x86_64-w64-mingw32/8.1.0/include/c++/bits/stl_vector.h"
	.loc 26 565 7
	.cfi_startproc
	pushq	%rbp
	.seh_pushreg	%rbp
	.cfi_def_cfa_offset 16
	.cfi_offset 6, -16
	movq	%rsp, %rbp
	.seh_setframe	%rbp, 0
	.cfi_def_cfa_register 6
	subq	$32, %rsp
	.seh_stackalloc	32
	.seh_endprologue
	movq	%rcx, 16(%rbp)
.LBB83:
	.loc 26 568 28
	movq	16(%rbp), %rax
	movq	%rax, %rcx
	call	_ZNSt12_Vector_baseIdSaIdEE19_M_get_Tp_allocatorEv
	movq	%rax, %rcx
	.loc 26 567 15
	movq	16(%rbp), %rax
	movq	8(%rax), %rdx
	movq	16(%rbp), %rax
	movq	(%rax), %rax
	movq	%rcx, %r8
	movq	%rax, %rcx
	call	_ZSt8_DestroyIPddEvT_S1_RSaIT0_E
	.loc 26 570 7
	movq	16(%rbp), %rax
	movq	%rax, %rcx
	call	_ZNSt12_Vector_baseIdSaIdEED2Ev
.LBE83:
	nop
	addq	$32, %rsp
	popq	%rbp
	.cfi_restore 6
	.cfi_def_cfa 7, 8
	ret
	.cfi_endproc
.LFE18659:
	.seh_handler	__gxx_personality_seh0, @unwind, @except
	.seh_handlerdata
.LLSDA18659:
	.byte	0xff
	.byte	0xff
	.byte	0x1
	.uleb128 .LLSDACSE18659-.LLSDACSB18659
.LLSDACSB18659:
.LLSDACSE18659:
	.section	.text$_ZNSt6vectorIdSaIdEED1Ev,"x"
	.linkonce discard
	.seh_endproc
	.section	.text$_ZNSt6vectorIdSaIdEEC1Ev,"x"
	.linkonce discard
	.align 2
	.globl	_ZNSt6vectorIdSaIdEEC1Ev
	.def	_ZNSt6vectorIdSaIdEEC1Ev;	.scl	2;	.type	32;	.endef
	.seh_proc	_ZNSt6vectorIdSaIdEEC1Ev
_ZNSt6vectorIdSaIdEEC1Ev:
.LFB18662:
	.loc 26 391 7
	.cfi_startproc
	pushq	%rbp
	.seh_pushreg	%rbp
	.cfi_def_cfa_offset 16
	.cfi_offset 6, -16
	movq	%rsp, %rbp
	.seh_setframe	%rbp, 0
	.cfi_def_cfa_register 6
	subq	$32, %rsp
	.seh_stackalloc	32
	.seh_endprologue
	movq	%rcx, 16(%rbp)
.LBB84:
	.loc 26 395 15
	movq	16(%rbp), %rax
	movq	%rax, %rcx
	call	_ZNSt12_Vector_baseIdSaIdEEC2Ev
.LBE84:
	.loc 26 395 19
	nop
	addq	$32, %rsp
	popq	%rbp
	.cfi_restore 6
	.cfi_def_cfa 7, 8
	ret
	.cfi_endproc
.LFE18662:
	.seh_handler	__gxx_personality_seh0, @unwind, @except
	.seh_handlerdata
.LLSDA18662:
	.byte	0xff
	.byte	0xff
	.byte	0x1
	.uleb128 .LLSDACSE18662-.LLSDACSB18662
.LLSDACSB18662:
.LLSDACSE18662:
	.section	.text$_ZNSt6vectorIdSaIdEEC1Ev,"x"
	.linkonce discard
	.seh_endproc
	.section	.text$_ZNKSt6vectorIdSaIdEE4sizeEv,"x"
	.linkonce discard
	.align 2
	.globl	_ZNKSt6vectorIdSaIdEE4sizeEv
	.def	_ZNKSt6vectorIdSaIdEE4sizeEv;	.scl	2;	.type	32;	.endef
	.seh_proc	_ZNKSt6vectorIdSaIdEE4sizeEv
_ZNKSt6vectorIdSaIdEE4sizeEv:
.LFB18663:
	.loc 26 805 7
	.cfi_startproc
	pushq	%rbp
	.seh_pushreg	%rbp
	.cfi_def_cfa_offset 16
	.cfi_offset 6, -16
	movq	%rsp, %rbp
	.seh_setframe	%rbp, 0
	.cfi_def_cfa_register 6
	.seh_endprologue
	movq	%rcx, 16(%rbp)
	.loc 26 806 40
	movq	16(%rbp), %rax
	movq	8(%rax), %rdx
	.loc 26 806 66
	movq	16(%rbp), %rax
	movq	(%rax), %rax
	.loc 26 806 50
	subq	%rax, %rdx
	movq	%rdx, %rax
	sarq	$3, %rax
	.loc 26 806 77
	popq	%rbp
	.cfi_restore 6
	.cfi_def_cfa 7, 8
	ret
	.cfi_endproc
.LFE18663:
	.seh_endproc
	.section	.text$_ZNSt6vectorIdSaIdEEC1ERKS1_,"x"
	.linkonce discard
	.align 2
	.globl	_ZNSt6vectorIdSaIdEEC1ERKS1_
	.def	_ZNSt6vectorIdSaIdEEC1ERKS1_;	.scl	2;	.type	32;	.endef
	.seh_proc	_ZNSt6vectorIdSaIdEEC1ERKS1_
_ZNSt6vectorIdSaIdEEC1ERKS1_:
.LFB18679:
	.loc 26 458 7
	.cfi_startproc
	pushq	%rbp
	.seh_pushreg	%rbp
	.cfi_def_cfa_offset 16
	.cfi_offset 6, -16
	pushq	%rdi
	.seh_pushreg	%rdi
	.cfi_def_cfa_offset 24
	.cfi_offset 5, -24
	pushq	%rsi
	.seh_pushreg	%rsi
	.cfi_def_cfa_offset 32
	.cfi_offset 4, -32
	pushq	%rbx
	.seh_pushreg	%rbx
	.cfi_def_cfa_offset 40
	.cfi_offset 3, -40
	subq	$56, %rsp
	.seh_stackalloc	56
	.cfi_def_cfa_offset 96
	leaq	128(%rsp), %rbp
	.seh_setframe	%rbp, 128
	.cfi_def_cfa 6, -32
	.seh_endprologue
	movq	%rcx, -32(%rbp)
	movq	%rdx, -24(%rbp)
.LBB85:
	.loc 26 460 61
	movq	-32(%rbp), %rbx
	.loc 26 460 34
	movq	-24(%rbp), %rax
	movq	%rax, %rcx
	call	_ZNKSt12_Vector_baseIdSaIdEE19_M_get_Tp_allocatorEv
	movq	%rax, %rdx
	.loc 26 460 61
	leaq	-81(%rbp), %rax
	movq	%rax, %rcx
.LEHB161:
	call	_ZN9__gnu_cxx14__alloc_traitsISaIdEdE17_S_select_on_copyERKS1_
.LEHE161:
	movq	-24(%rbp), %rax
	movq	%rax, %rcx
	call	_ZNKSt6vectorIdSaIdEE4sizeEv
	movq	%rax, %rdx
	leaq	-81(%rbp), %rax
	movq	%rax, %r8
	movq	%rbx, %rcx
.LEHB162:
	call	_ZNSt12_Vector_baseIdSaIdEEC2EyRKS0_
.LEHE162:
	.loc 26 460 61 is_stmt 0 discriminator 2
	leaq	-81(%rbp), %rax
	movq	%rax, %rcx
	call	_ZNSaIdED1Ev
	.loc 26 465 30 is_stmt 1 discriminator 2
	movq	-32(%rbp), %rax
	movq	%rax, %rcx
	call	_ZNSt12_Vector_baseIdSaIdEE19_M_get_Tp_allocatorEv
	movq	%rax, %rdi
	.loc 26 463 31 discriminator 2
	movq	-32(%rbp), %rax
	movq	(%rax), %rbx
	movq	-24(%rbp), %rax
	movq	%rax, %rcx
	call	_ZNKSt6vectorIdSaIdEE3endEv
	movq	%rax, %rsi
	movq	-24(%rbp), %rax
	movq	%rax, %rcx
	call	_ZNKSt6vectorIdSaIdEE5beginEv
	movq	%rdi, %r9
	movq	%rbx, %r8
	movq	%rsi, %rdx
	movq	%rax, %rcx
.LEHB163:
	call	_ZSt22__uninitialized_copy_aIN9__gnu_cxx17__normal_iteratorIPKdSt6vectorIdSaIdEEEEPddET0_T_SA_S9_RSaIT1_E
.LEHE163:
	movq	%rax, %rdx
	.loc 26 462 2 discriminator 2
	movq	-32(%rbp), %rax
	movq	%rdx, 8(%rax)
.LBE85:
	.loc 26 466 7 discriminator 2
	jmp	.L489
.L487:
	movq	%rax, %rbx
.LBB86:
	.loc 26 460 61
	leaq	-81(%rbp), %rax
	movq	%rax, %rcx
	call	_ZNSaIdED1Ev
	movq	%rbx, %rax
	movq	%rax, %rcx
.LEHB164:
	call	_Unwind_Resume
.L488:
	movq	%rax, %rbx
	movq	-32(%rbp), %rax
	movq	%rax, %rcx
	call	_ZNSt12_Vector_baseIdSaIdEED2Ev
	movq	%rbx, %rax
	movq	%rax, %rcx
	call	_Unwind_Resume
	nop
.LEHE164:
.L489:
.LBE86:
	.loc 26 466 7
	addq	$56, %rsp
	popq	%rbx
	.cfi_restore 3
	popq	%rsi
	.cfi_restore 4
	popq	%rdi
	.cfi_restore 5
	popq	%rbp
	.cfi_restore 6
	.cfi_def_cfa 7, -24
	ret
	.cfi_endproc
.LFE18679:
	.seh_handler	__gxx_personality_seh0, @unwind, @except
	.seh_handlerdata
.LLSDA18679:
	.byte	0xff
	.byte	0xff
	.byte	0x1
	.uleb128 .LLSDACSE18679-.LLSDACSB18679
.LLSDACSB18679:
	.uleb128 .LEHB161-.LFB18679
	.uleb128 .LEHE161-.LEHB161
	.uleb128 0
	.uleb128 0
	.uleb128 .LEHB162-.LFB18679
	.uleb128 .LEHE162-.LEHB162
	.uleb128 .L487-.LFB18679
	.uleb128 0
	.uleb128 .LEHB163-.LFB18679
	.uleb128 .LEHE163-.LEHB163
	.uleb128 .L488-.LFB18679
	.uleb128 0
	.uleb128 .LEHB164-.LFB18679
	.uleb128 .LEHE164-.LEHB164
	.uleb128 0
	.uleb128 0
.LLSDACSE18679:
	.section	.text$_ZNSt6vectorIdSaIdEEC1ERKS1_,"x"
	.linkonce discard
	.seh_endproc
	.section	.text$_ZNSt6vectorIdSaIdEE2atEy,"x"
	.linkonce discard
	.align 2
	.globl	_ZNSt6vectorIdSaIdEE2atEy
	.def	_ZNSt6vectorIdSaIdEE2atEy;	.scl	2;	.type	32;	.endef
	.seh_proc	_ZNSt6vectorIdSaIdEE2atEy
_ZNSt6vectorIdSaIdEE2atEy:
.LFB18700:
	.loc 26 979 7
	.cfi_startproc
	pushq	%rbp
	.seh_pushreg	%rbp
	.cfi_def_cfa_offset 16
	.cfi_offset 6, -16
	movq	%rsp, %rbp
	.seh_setframe	%rbp, 0
	.cfi_def_cfa_register 6
	subq	$32, %rsp
	.seh_stackalloc	32
	.seh_endprologue
	movq	%rcx, 16(%rbp)
	movq	%rdx, 24(%rbp)
	.loc 26 981 2
	movq	24(%rbp), %rax
	movq	%rax, %rdx
	movq	16(%rbp), %rcx
	call	_ZNKSt6vectorIdSaIdEE14_M_range_checkEy
	.loc 26 982 16
	movq	24(%rbp), %rax
	movq	%rax, %rdx
	movq	16(%rbp), %rcx
	call	_ZNSt6vectorIdSaIdEEixEy
	.loc 26 983 7
	addq	$32, %rsp
	popq	%rbp
	.cfi_restore 6
	.cfi_def_cfa 7, 8
	ret
	.cfi_endproc
.LFE18700:
	.seh_endproc
	.section	.text$_ZNSt6vectorIdSaIdEE9push_backERKd,"x"
	.linkonce discard
	.align 2
	.globl	_ZNSt6vectorIdSaIdEE9push_backERKd
	.def	_ZNSt6vectorIdSaIdEE9push_backERKd;	.scl	2;	.type	32;	.endef
	.seh_proc	_ZNSt6vectorIdSaIdEE9push_backERKd
_ZNSt6vectorIdSaIdEE9push_backERKd:
.LFB18701:
	.loc 26 1074 7
	.cfi_startproc
	pushq	%rbp
	.seh_pushreg	%rbp
	.cfi_def_cfa_offset 16
	.cfi_offset 6, -16
	movq	%rsp, %rbp
	.seh_setframe	%rbp, 0
	.cfi_def_cfa_register 6
	subq	$32, %rsp
	.seh_stackalloc	32
	.seh_endprologue
	movq	%rcx, 16(%rbp)
	movq	%rdx, 24(%rbp)
	.loc 26 1076 20
	movq	16(%rbp), %rax
	movq	8(%rax), %rdx
	.loc 26 1076 47
	movq	16(%rbp), %rax
	movq	16(%rax), %rax
	.loc 26 1076 2
	cmpq	%rax, %rdx
	je	.L493
	.loc 26 1079 30
	movq	16(%rbp), %rax
	movq	8(%rax), %rdx
	.loc 26 1079 37
	movq	16(%rbp), %rax
	.loc 26 1079 30
	movq	24(%rbp), %rcx
	movq	%rcx, %r8
	movq	%rax, %rcx
	call	_ZNSt16allocator_traitsISaIdEE9constructIdJRKdEEEvRS0_PT_DpOT0_
	.loc 26 1081 22
	movq	16(%rbp), %rax
	movq	8(%rax), %rax
	.loc 26 1081 6
	leaq	8(%rax), %rdx
	movq	16(%rbp), %rax
	movq	%rdx, 8(%rax)
	.loc 26 1086 7
	jmp	.L495
.L493:
	.loc 26 1085 4
	movq	16(%rbp), %rcx
	call	_ZNSt6vectorIdSaIdEE3endEv
	movq	%rax, %rdx
	movq	24(%rbp), %rax
	movq	%rax, %r8
	movq	16(%rbp), %rcx
	call	_ZNSt6vectorIdSaIdEE17_M_realloc_insertIJRKdEEEvN9__gnu_cxx17__normal_iteratorIPdS1_EEDpOT_
.L495:
	.loc 26 1086 7
	nop
	addq	$32, %rsp
	popq	%rbp
	.cfi_restore 6
	.cfi_def_cfa 7, 8
	ret
	.cfi_endproc
.LFE18701:
	.seh_endproc
	.section	.text$_ZNSt6vectorIdSaIdEEixEy,"x"
	.linkonce discard
	.align 2
	.globl	_ZNSt6vectorIdSaIdEEixEy
	.def	_ZNSt6vectorIdSaIdEEixEy;	.scl	2;	.type	32;	.endef
	.seh_proc	_ZNSt6vectorIdSaIdEEixEy
_ZNSt6vectorIdSaIdEEixEy:
.LFB18702:
	.loc 26 930 7
	.cfi_startproc
	pushq	%rbp
	.seh_pushreg	%rbp
	.cfi_def_cfa_offset 16
	.cfi_offset 6, -16
	movq	%rsp, %rbp
	.seh_setframe	%rbp, 0
	.cfi_def_cfa_register 6
	.seh_endprologue
	movq	%rcx, 16(%rbp)
	movq	%rdx, 24(%rbp)
	.loc 26 933 25
	movq	16(%rbp), %rax
	movq	(%rax), %rdx
	.loc 26 933 34
	movq	24(%rbp), %rax
	salq	$3, %rax
	.loc 26 933 39
	addq	%rdx, %rax
	.loc 26 934 7
	popq	%rbp
	.cfi_restore 6
	.cfi_def_cfa 7, 8
	ret
	.cfi_endproc
.LFE18702:
	.seh_endproc
	.section	.text$_ZSt3minIdERKT_S2_S2_,"x"
	.linkonce discard
	.globl	_ZSt3minIdERKT_S2_S2_
	.def	_ZSt3minIdERKT_S2_S2_;	.scl	2;	.type	32;	.endef
	.seh_proc	_ZSt3minIdERKT_S2_S2_
_ZSt3minIdERKT_S2_S2_:
.LFB18703:
	.file 27 "C:/Program Files/CodeBlocks/MinGW/lib/gcc/x86_64-w64-mingw32/8.1.0/include/c++/bits/stl_algobase.h"
	.loc 27 195 5
	.cfi_startproc
	pushq	%rbp
	.seh_pushreg	%rbp
	.cfi_def_cfa_offset 16
	.cfi_offset 6, -16
	movq	%rsp, %rbp
	.seh_setframe	%rbp, 0
	.cfi_def_cfa_register 6
	.seh_endprologue
	movq	%rcx, 16(%rbp)
	movq	%rdx, 24(%rbp)
	.loc 27 200 15
	movq	24(%rbp), %rax
	movsd	(%rax), %xmm1
	movq	16(%rbp), %rax
	movsd	(%rax), %xmm0
	.loc 27 200 7
	comisd	%xmm1, %xmm0
	jbe	.L503
	.loc 27 201 9
	movq	24(%rbp), %rax
	jmp	.L501
.L503:
	.loc 27 202 14
	movq	16(%rbp), %rax
.L501:
	.loc 27 203 5
	popq	%rbp
	.cfi_restore 6
	.cfi_def_cfa 7, 8
	ret
	.cfi_endproc
.LFE18703:
	.seh_endproc
	.section	.text$_ZSt3maxIdERKT_S2_S2_,"x"
	.linkonce discard
	.globl	_ZSt3maxIdERKT_S2_S2_
	.def	_ZSt3maxIdERKT_S2_S2_;	.scl	2;	.type	32;	.endef
	.seh_proc	_ZSt3maxIdERKT_S2_S2_
_ZSt3maxIdERKT_S2_S2_:
.LFB18704:
	.loc 27 219 5
	.cfi_startproc
	pushq	%rbp
	.seh_pushreg	%rbp
	.cfi_def_cfa_offset 16
	.cfi_offset 6, -16
	movq	%rsp, %rbp
	.seh_setframe	%rbp, 0
	.cfi_def_cfa_register 6
	.seh_endprologue
	movq	%rcx, 16(%rbp)
	movq	%rdx, 24(%rbp)
	.loc 27 224 15
	movq	16(%rbp), %rax
	movsd	(%rax), %xmm1
	movq	24(%rbp), %rax
	movsd	(%rax), %xmm0
	.loc 27 224 7
	comisd	%xmm1, %xmm0
	jbe	.L509
	.loc 27 225 9
	movq	24(%rbp), %rax
	jmp	.L507
.L509:
	.loc 27 226 14
	movq	16(%rbp), %rax
.L507:
	.loc 27 227 5
	popq	%rbp
	.cfi_restore 6
	.cfi_def_cfa 7, 8
	ret
	.cfi_endproc
.LFE18704:
	.seh_endproc
	.section	.text$_ZNSt6vectorIdSaIdEE5clearEv,"x"
	.linkonce discard
	.align 2
	.globl	_ZNSt6vectorIdSaIdEE5clearEv
	.def	_ZNSt6vectorIdSaIdEE5clearEv;	.scl	2;	.type	32;	.endef
	.seh_proc	_ZNSt6vectorIdSaIdEE5clearEv
_ZNSt6vectorIdSaIdEE5clearEv:
.LFB18705:
	.loc 26 1385 7
	.cfi_startproc
	pushq	%rbp
	.seh_pushreg	%rbp
	.cfi_def_cfa_offset 16
	.cfi_offset 6, -16
	movq	%rsp, %rbp
	.seh_setframe	%rbp, 0
	.cfi_def_cfa_register 6
	subq	$32, %rsp
	.seh_stackalloc	32
	.seh_endprologue
	movq	%rcx, 16(%rbp)
	.loc 26 1386 9
	movq	16(%rbp), %rax
	movq	(%rax), %rax
	movq	%rax, %rdx
	movq	16(%rbp), %rcx
	call	_ZNSt6vectorIdSaIdEE15_M_erase_at_endEPd
	.loc 26 1386 50
	nop
	addq	$32, %rsp
	popq	%rbp
	.cfi_restore 6
	.cfi_def_cfa 7, 8
	ret
	.cfi_endproc
.LFE18705:
	.seh_endproc
	.section	.text$_ZNSt6vectorI12ElementosVooSaIS0_EE5beginEv,"x"
	.linkonce discard
	.align 2
	.globl	_ZNSt6vectorI12ElementosVooSaIS0_EE5beginEv
	.def	_ZNSt6vectorI12ElementosVooSaIS0_EE5beginEv;	.scl	2;	.type	32;	.endef
	.seh_proc	_ZNSt6vectorI12ElementosVooSaIS0_EE5beginEv
_ZNSt6vectorI12ElementosVooSaIS0_EE5beginEv:
.LFB18706:
	.loc 26 698 7
	.cfi_startproc
	pushq	%rbp
	.seh_pushreg	%rbp
	.cfi_def_cfa_offset 16
	.cfi_offset 6, -16
	movq	%rsp, %rbp
	.seh_setframe	%rbp, 0
	.cfi_def_cfa_register 6
	subq	$48, %rsp
	.seh_stackalloc	48
	.seh_endprologue
	movq	%rcx, 16(%rbp)
	.loc 26 699 39
	movq	16(%rbp), %rdx
	.loc 26 699 47
	leaq	-8(%rbp), %rax
	movq	%rax, %rcx
	call	_ZN9__gnu_cxx17__normal_iteratorIP12ElementosVooSt6vectorIS1_SaIS1_EEEC1ERKS2_
	movq	-8(%rbp), %rax
	.loc 26 699 50
	addq	$48, %rsp
	popq	%rbp
	.cfi_restore 6
	.cfi_def_cfa 7, 8
	ret
	.cfi_endproc
.LFE18706:
	.seh_endproc
	.section	.text$_ZNSt6vectorI12ElementosVooSaIS0_EE3endEv,"x"
	.linkonce discard
	.align 2
	.globl	_ZNSt6vectorI12ElementosVooSaIS0_EE3endEv
	.def	_ZNSt6vectorI12ElementosVooSaIS0_EE3endEv;	.scl	2;	.type	32;	.endef
	.seh_proc	_ZNSt6vectorI12ElementosVooSaIS0_EE3endEv
_ZNSt6vectorI12ElementosVooSaIS0_EE3endEv:
.LFB18707:
	.loc 26 716 7
	.cfi_startproc
	pushq	%rbp
	.seh_pushreg	%rbp
	.cfi_def_cfa_offset 16
	.cfi_offset 6, -16
	movq	%rsp, %rbp
	.seh_setframe	%rbp, 0
	.cfi_def_cfa_register 6
	subq	$48, %rsp
	.seh_stackalloc	48
	.seh_endprologue
	movq	%rcx, 16(%rbp)
	.loc 26 717 39
	movq	16(%rbp), %rax
	leaq	8(%rax), %rdx
	.loc 26 717 48
	leaq	-8(%rbp), %rax
	movq	%rax, %rcx
	call	_ZN9__gnu_cxx17__normal_iteratorIP12ElementosVooSt6vectorIS1_SaIS1_EEEC1ERKS2_
	movq	-8(%rbp), %rax
	.loc 26 717 51
	addq	$48, %rsp
	popq	%rbp
	.cfi_restore 6
	.cfi_def_cfa 7, 8
	ret
	.cfi_endproc
.LFE18707:
	.seh_endproc
	.section	.text$_ZN9__gnu_cxxneIP12ElementosVooSt6vectorIS1_SaIS1_EEEEbRKNS_17__normal_iteratorIT_T0_EESB_,"x"
	.linkonce discard
	.globl	_ZN9__gnu_cxxneIP12ElementosVooSt6vectorIS1_SaIS1_EEEEbRKNS_17__normal_iteratorIT_T0_EESB_
	.def	_ZN9__gnu_cxxneIP12ElementosVooSt6vectorIS1_SaIS1_EEEEbRKNS_17__normal_iteratorIT_T0_EESB_;	.scl	2;	.type	32;	.endef
	.seh_proc	_ZN9__gnu_cxxneIP12ElementosVooSt6vectorIS1_SaIS1_EEEEbRKNS_17__normal_iteratorIT_T0_EESB_
_ZN9__gnu_cxxneIP12ElementosVooSt6vectorIS1_SaIS1_EEEEbRKNS_17__normal_iteratorIT_T0_EESB_:
.LFB18708:
	.file 28 "C:/Program Files/CodeBlocks/MinGW/lib/gcc/x86_64-w64-mingw32/8.1.0/include/c++/bits/stl_iterator.h"
	.loc 28 881 5
	.cfi_startproc
	pushq	%rbp
	.seh_pushreg	%rbp
	.cfi_def_cfa_offset 16
	.cfi_offset 6, -16
	pushq	%rbx
	.seh_pushreg	%rbx
	.cfi_def_cfa_offset 24
	.cfi_offset 3, -24
	subq	$40, %rsp
	.seh_stackalloc	40
	.cfi_def_cfa_offset 64
	leaq	128(%rsp), %rbp
	.seh_setframe	%rbp, 128
	.cfi_def_cfa 6, -64
	.seh_endprologue
	movq	%rcx, -64(%rbp)
	movq	%rdx, -56(%rbp)
	.loc 28 884 27
	movq	-64(%rbp), %rcx
	call	_ZNK9__gnu_cxx17__normal_iteratorIP12ElementosVooSt6vectorIS1_SaIS1_EEE4baseEv
	movq	(%rax), %rbx
	movq	-56(%rbp), %rax
	movq	%rax, %rcx
	call	_ZNK9__gnu_cxx17__normal_iteratorIP12ElementosVooSt6vectorIS1_SaIS1_EEE4baseEv
	movq	(%rax), %rax
	.loc 28 884 41
	cmpq	%rax, %rbx
	setne	%al
	.loc 28 884 44
	addq	$40, %rsp
	popq	%rbx
	.cfi_restore 3
	popq	%rbp
	.cfi_restore 6
	.cfi_def_cfa 7, -24
	ret
	.cfi_endproc
.LFE18708:
	.seh_endproc
	.section	.text$_ZN9__gnu_cxx17__normal_iteratorIP12ElementosVooSt6vectorIS1_SaIS1_EEEppEi,"x"
	.linkonce discard
	.align 2
	.globl	_ZN9__gnu_cxx17__normal_iteratorIP12ElementosVooSt6vectorIS1_SaIS1_EEEppEi
	.def	_ZN9__gnu_cxx17__normal_iteratorIP12ElementosVooSt6vectorIS1_SaIS1_EEEppEi;	.scl	2;	.type	32;	.endef
	.seh_proc	_ZN9__gnu_cxx17__normal_iteratorIP12ElementosVooSt6vectorIS1_SaIS1_EEEppEi
_ZN9__gnu_cxx17__normal_iteratorIP12ElementosVooSt6vectorIS1_SaIS1_EEEppEi:
.LFB18709:
	.loc 28 808 7
	.cfi_startproc
	pushq	%rbp
	.seh_pushreg	%rbp
	.cfi_def_cfa_offset 16
	.cfi_offset 6, -16
	movq	%rsp, %rbp
	.seh_setframe	%rbp, 0
	.cfi_def_cfa_register 6
	subq	$48, %rsp
	.seh_stackalloc	48
	.seh_endprologue
	movq	%rcx, 16(%rbp)
	movl	%edx, 24(%rbp)
	.loc 28 809 34
	movq	16(%rbp), %rax
	movq	(%rax), %rax
	.loc 28 809 46
	leaq	96(%rax), %rdx
	movq	16(%rbp), %rcx
	movq	%rdx, (%rcx)
	movq	%rax, -8(%rbp)
	leaq	-8(%rbp), %rdx
	leaq	-16(%rbp), %rax
	movq	%rax, %rcx
	call	_ZN9__gnu_cxx17__normal_iteratorIP12ElementosVooSt6vectorIS1_SaIS1_EEEC1ERKS2_
	movq	-16(%rbp), %rax
	.loc 28 809 49
	addq	$48, %rsp
	popq	%rbp
	.cfi_restore 6
	.cfi_def_cfa 7, 8
	ret
	.cfi_endproc
.LFE18709:
	.seh_endproc
	.section	.text$_ZNSt6vectorI12ElementosVooSaIS0_EEixEy,"x"
	.linkonce discard
	.align 2
	.globl	_ZNSt6vectorI12ElementosVooSaIS0_EEixEy
	.def	_ZNSt6vectorI12ElementosVooSaIS0_EEixEy;	.scl	2;	.type	32;	.endef
	.seh_proc	_ZNSt6vectorI12ElementosVooSaIS0_EEixEy
_ZNSt6vectorI12ElementosVooSaIS0_EEixEy:
.LFB18710:
	.loc 26 930 7
	.cfi_startproc
	pushq	%rbp
	.seh_pushreg	%rbp
	.cfi_def_cfa_offset 16
	.cfi_offset 6, -16
	movq	%rsp, %rbp
	.seh_setframe	%rbp, 0
	.cfi_def_cfa_register 6
	.seh_endprologue
	movq	%rcx, 16(%rbp)
	movq	%rdx, 24(%rbp)
	.loc 26 933 25
	movq	16(%rbp), %rax
	movq	(%rax), %rcx
	.loc 26 933 34
	movq	24(%rbp), %rdx
	movq	%rdx, %rax
	addq	%rax, %rax
	addq	%rdx, %rax
	salq	$5, %rax
	.loc 26 933 39
	addq	%rcx, %rax
	.loc 26 934 7
	popq	%rbp
	.cfi_restore 6
	.cfi_def_cfa 7, 8
	ret
	.cfi_endproc
.LFE18710:
	.seh_endproc
	.section	.text$_ZSt3powIdiEN9__gnu_cxx11__promote_2IT_T0_NS0_9__promoteIS2_XsrSt12__is_integerIS2_E7__valueEE6__typeENS4_IS3_XsrS5_IS3_E7__valueEE6__typeEE6__typeES2_S3_,"x"
	.linkonce discard
	.globl	_ZSt3powIdiEN9__gnu_cxx11__promote_2IT_T0_NS0_9__promoteIS2_XsrSt12__is_integerIS2_E7__valueEE6__typeENS4_IS3_XsrS5_IS3_E7__valueEE6__typeEE6__typeES2_S3_
	.def	_ZSt3powIdiEN9__gnu_cxx11__promote_2IT_T0_NS0_9__promoteIS2_XsrSt12__is_integerIS2_E7__valueEE6__typeENS4_IS3_XsrS5_IS3_E7__valueEE6__typeEE6__typeES2_S3_;	.scl	2;	.type	32;	.endef
	.seh_proc	_ZSt3powIdiEN9__gnu_cxx11__promote_2IT_T0_NS0_9__promoteIS2_XsrSt12__is_integerIS2_E7__valueEE6__typeENS4_IS3_XsrS5_IS3_E7__valueEE6__typeEE6__typeES2_S3_
_ZSt3powIdiEN9__gnu_cxx11__promote_2IT_T0_NS0_9__promoteIS2_XsrSt12__is_integerIS2_E7__valueEE6__typeENS4_IS3_XsrS5_IS3_E7__valueEE6__typeEE6__typeES2_S3_:
.LFB18711:
	.loc 24 415 5
	.cfi_startproc
	pushq	%rbp
	.seh_pushreg	%rbp
	.cfi_def_cfa_offset 16
	.cfi_offset 6, -16
	movq	%rsp, %rbp
	.seh_setframe	%rbp, 0
	.cfi_def_cfa_register 6
	subq	$32, %rsp
	.seh_stackalloc	32
	.seh_endprologue
	movsd	%xmm0, 16(%rbp)
	movl	%edx, 24(%rbp)
	.loc 24 418 17
	cvtsi2sd	24(%rbp), %xmm0
	movapd	%xmm0, %xmm1
	movsd	16(%rbp), %xmm0
	call	pow
	movq	%xmm0, %rax
	.loc 24 419 5
	movq	%rax, %xmm0
	addq	$32, %rsp
	popq	%rbp
	.cfi_restore 6
	.cfi_def_cfa 7, 8
	ret
	.cfi_endproc
.LFE18711:
	.seh_endproc
	.section	.text$_ZSt4moveIRdEONSt16remove_referenceIT_E4typeEOS2_,"x"
	.linkonce discard
	.globl	_ZSt4moveIRdEONSt16remove_referenceIT_E4typeEOS2_
	.def	_ZSt4moveIRdEONSt16remove_referenceIT_E4typeEOS2_;	.scl	2;	.type	32;	.endef
	.seh_proc	_ZSt4moveIRdEONSt16remove_referenceIT_E4typeEOS2_
_ZSt4moveIRdEONSt16remove_referenceIT_E4typeEOS2_:
.LFB18713:
	.file 29 "C:/Program Files/CodeBlocks/MinGW/lib/gcc/x86_64-w64-mingw32/8.1.0/include/c++/bits/move.h"
	.loc 29 99 5
	.cfi_startproc
	pushq	%rbp
	.seh_pushreg	%rbp
	.cfi_def_cfa_offset 16
	.cfi_offset 6, -16
	movq	%rsp, %rbp
	.seh_setframe	%rbp, 0
	.cfi_def_cfa_register 6
	.seh_endprologue
	movq	%rcx, 16(%rbp)
	.loc 29 100 74
	movq	16(%rbp), %rax
	.loc 29 100 77
	popq	%rbp
	.cfi_restore 6
	.cfi_def_cfa 7, 8
	ret
	.cfi_endproc
.LFE18713:
	.seh_endproc
	.section	.text$_ZNSt6vectorIdSaIdEE9push_backEOd,"x"
	.linkonce discard
	.align 2
	.globl	_ZNSt6vectorIdSaIdEE9push_backEOd
	.def	_ZNSt6vectorIdSaIdEE9push_backEOd;	.scl	2;	.type	32;	.endef
	.seh_proc	_ZNSt6vectorIdSaIdEE9push_backEOd
_ZNSt6vectorIdSaIdEE9push_backEOd:
.LFB18712:
	.loc 26 1090 7
	.cfi_startproc
	pushq	%rbp
	.seh_pushreg	%rbp
	.cfi_def_cfa_offset 16
	.cfi_offset 6, -16
	movq	%rsp, %rbp
	.seh_setframe	%rbp, 0
	.cfi_def_cfa_register 6
	subq	$32, %rsp
	.seh_stackalloc	32
	.seh_endprologue
	movq	%rcx, 16(%rbp)
	movq	%rdx, 24(%rbp)
	.loc 26 1091 31
	movq	24(%rbp), %rax
	movq	%rax, %rcx
	call	_ZSt4moveIRdEONSt16remove_referenceIT_E4typeEOS2_
	.loc 26 1091 9
	movq	%rax, %rdx
	movq	16(%rbp), %rcx
	call	_ZNSt6vectorIdSaIdEE12emplace_backIJdEEEvDpOT_
	.loc 26 1091 39
	nop
	addq	$32, %rsp
	popq	%rbp
	.cfi_restore 6
	.cfi_def_cfa 7, 8
	ret
	.cfi_endproc
.LFE18712:
	.seh_endproc
	.section	.text$_ZN22wxScopedCharTypeBufferIwE4DataD1Ev,"x"
	.linkonce discard
	.align 2
	.globl	_ZN22wxScopedCharTypeBufferIwE4DataD1Ev
	.def	_ZN22wxScopedCharTypeBufferIwE4DataD1Ev;	.scl	2;	.type	32;	.endef
	.seh_proc	_ZN22wxScopedCharTypeBufferIwE4DataD1Ev
_ZN22wxScopedCharTypeBufferIwE4DataD1Ev:
.LFB18727:
	.loc 4 164 12
	.cfi_startproc
	pushq	%rbp
	.seh_pushreg	%rbp
	.cfi_def_cfa_offset 16
	.cfi_offset 6, -16
	movq	%rsp, %rbp
	.seh_setframe	%rbp, 0
	.cfi_def_cfa_register 6
	subq	$32, %rsp
	.seh_stackalloc	32
	.seh_endprologue
	movq	%rcx, 16(%rbp)
.LBB87:
	.loc 4 164 12
	movq	16(%rbp), %rax
	movq	%rax, %rcx
	call	_ZN9wxPrivate17UntypedBufferDataD2Ev
.LBE87:
	nop
	addq	$32, %rsp
	popq	%rbp
	.cfi_restore 6
	.cfi_def_cfa 7, 8
	ret
	.cfi_endproc
.LFE18727:
	.seh_endproc
	.section	.text$_ZN22wxScopedCharTypeBufferIwE6DecRefEv,"x"
	.linkonce discard
	.align 2
	.globl	_ZN22wxScopedCharTypeBufferIwE6DecRefEv
	.def	_ZN22wxScopedCharTypeBufferIwE6DecRefEv;	.scl	2;	.type	32;	.endef
	.seh_proc	_ZN22wxScopedCharTypeBufferIwE6DecRefEv
_ZN22wxScopedCharTypeBufferIwE6DecRefEv:
.LFB18724:
	.loc 4 192 10
	.cfi_startproc
	pushq	%rbp
	.seh_pushreg	%rbp
	.cfi_def_cfa_offset 16
	.cfi_offset 6, -16
	pushq	%rbx
	.seh_pushreg	%rbx
	.cfi_def_cfa_offset 24
	.cfi_offset 3, -24
	subq	$40, %rsp
	.seh_stackalloc	40
	.cfi_def_cfa_offset 64
	leaq	128(%rsp), %rbp
	.seh_setframe	%rbp, 128
	.cfi_def_cfa 6, -64
	.seh_endprologue
	movq	%rcx, -64(%rbp)
	.loc 4 194 14
	movq	-64(%rbp), %rax
	movq	(%rax), %rbx
	.loc 4 194 35
	call	_ZN22wxScopedCharTypeBufferIwE11GetNullDataEv
	.loc 4 194 21
	cmpq	%rax, %rbx
	sete	%al
	.loc 4 194 9
	testb	%al, %al
	jne	.L531
	.loc 4 196 16
	movq	-64(%rbp), %rax
	movq	(%rax), %rax
	.loc 4 196 24
	movzwl	16(%rax), %edx
	.loc 4 196 30
	subl	$1, %edx
	movw	%dx, 16(%rax)
	.loc 4 196 24
	movzwl	16(%rax), %eax
	.loc 4 196 30
	testw	%ax, %ax
	sete	%al
	.loc 4 196 9
	testb	%al, %al
	je	.L530
	.loc 4 197 20
	movq	-64(%rbp), %rax
	movq	(%rax), %rbx
	.loc 4 197 13
	testq	%rbx, %rbx
	je	.L530
	.loc 4 197 13 is_stmt 0 discriminator 1
	movq	%rbx, %rcx
	call	_ZN22wxScopedCharTypeBufferIwE4DataD1Ev
	movq	%rbx, %rcx
	call	_ZdlPv
.L530:
	.loc 4 198 29 is_stmt 1
	call	_ZN22wxScopedCharTypeBufferIwE11GetNullDataEv
	movq	%rax, %rdx
	.loc 4 198 9
	movq	-64(%rbp), %rax
	movq	%rdx, (%rax)
	jmp	.L527
.L531:
	.loc 4 195 13
	nop
.L527:
	.loc 4 199 5
	addq	$40, %rsp
	popq	%rbx
	.cfi_restore 3
	popq	%rbp
	.cfi_restore 6
	.cfi_def_cfa 7, -24
	ret
	.cfi_endproc
.LFE18724:
	.seh_endproc
	.section	.text$_ZN22wxScopedCharTypeBufferIwE11GetNullDataEv,"x"
	.linkonce discard
	.globl	_ZN22wxScopedCharTypeBufferIwE11GetNullDataEv
	.def	_ZN22wxScopedCharTypeBufferIwE11GetNullDataEv;	.scl	2;	.type	32;	.endef
	.seh_proc	_ZN22wxScopedCharTypeBufferIwE11GetNullDataEv
_ZN22wxScopedCharTypeBufferIwE11GetNullDataEv:
.LFB18733:
	.loc 4 180 18
	.cfi_startproc
	pushq	%rbp
	.seh_pushreg	%rbp
	.cfi_def_cfa_offset 16
	.cfi_offset 6, -16
	movq	%rsp, %rbp
	.seh_setframe	%rbp, 0
	.cfi_def_cfa_register 6
	subq	$32, %rsp
	.seh_stackalloc	32
	.seh_endprologue
	.loc 4 182 65
	call	_ZN9wxPrivate18GetUntypedNullDataEv
	.loc 4 183 5
	addq	$32, %rsp
	popq	%rbp
	.cfi_restore 6
	.cfi_def_cfa 7, 8
	ret
	.cfi_endproc
.LFE18733:
	.seh_endproc
	.section	.text$_ZNK22wxScopedCharTypeBufferIwE4Data3GetEv,"x"
	.linkonce discard
	.align 2
	.globl	_ZNK22wxScopedCharTypeBufferIwE4Data3GetEv
	.def	_ZNK22wxScopedCharTypeBufferIwE4Data3GetEv;	.scl	2;	.type	32;	.endef
	.seh_proc	_ZNK22wxScopedCharTypeBufferIwE4Data3GetEv
_ZNK22wxScopedCharTypeBufferIwE4Data3GetEv:
.LFB18797:
	.loc 4 171 19
	.cfi_startproc
	pushq	%rbp
	.seh_pushreg	%rbp
	.cfi_def_cfa_offset 16
	.cfi_offset 6, -16
	movq	%rsp, %rbp
	.seh_setframe	%rbp, 0
	.cfi_def_cfa_register 6
	.seh_endprologue
	movq	%rcx, 16(%rbp)
	.loc 4 171 69
	movq	16(%rbp), %rax
	movq	(%rax), %rax
	.loc 4 171 72
	popq	%rbp
	.cfi_restore 6
	.cfi_def_cfa 7, 8
	ret
	.cfi_endproc
.LFE18797:
	.seh_endproc
	.section	.text$_ZStmiIP7mpLayerRS1_PS1_ENSt15_Deque_iteratorIT_T0_T1_E15difference_typeERKS8_SB_,"x"
	.linkonce discard
	.globl	_ZStmiIP7mpLayerRS1_PS1_ENSt15_Deque_iteratorIT_T0_T1_E15difference_typeERKS8_SB_
	.def	_ZStmiIP7mpLayerRS1_PS1_ENSt15_Deque_iteratorIT_T0_T1_E15difference_typeERKS8_SB_;	.scl	2;	.type	32;	.endef
	.seh_proc	_ZStmiIP7mpLayerRS1_PS1_ENSt15_Deque_iteratorIT_T0_T1_E15difference_typeERKS8_SB_
_ZStmiIP7mpLayerRS1_PS1_ENSt15_Deque_iteratorIT_T0_T1_E15difference_typeERKS8_SB_:
.LFB18914:
	.loc 18 352 5
	.cfi_startproc
	pushq	%rbp
	.seh_pushreg	%rbp
	.cfi_def_cfa_offset 16
	.cfi_offset 6, -16
	movq	%rsp, %rbp
	.seh_setframe	%rbp, 0
	.cfi_def_cfa_register 6
	subq	$32, %rsp
	.seh_stackalloc	32
	.seh_endprologue
	movq	%rcx, 16(%rbp)
	movq	%rdx, 24(%rbp)
	.loc 18 356 51
	call	_ZNSt15_Deque_iteratorIP7mpLayerRS1_PS1_E14_S_buffer_sizeEv
	movq	%rax, %rcx
	.loc 18 357 9
	movq	16(%rbp), %rax
	movq	24(%rax), %rdx
	.loc 18 357 23
	movq	24(%rbp), %rax
	movq	24(%rax), %rax
	.loc 18 357 17
	subq	%rax, %rdx
	movq	%rdx, %rax
	sarq	$3, %rax
	.loc 18 357 31
	subq	$1, %rax
	.loc 18 357 2
	imulq	%rcx, %rax
	.loc 18 357 43
	movq	16(%rbp), %rdx
	movq	(%rdx), %rcx
	.loc 18 357 56
	movq	16(%rbp), %rdx
	movq	8(%rdx), %rdx
	.loc 18 357 50
	subq	%rdx, %rcx
	movq	%rcx, %rdx
	sarq	$3, %rdx
	.loc 18 357 36
	addq	%rax, %rdx
	.loc 18 358 9
	movq	24(%rbp), %rax
	movq	16(%rax), %rcx
	.loc 18 358 23
	movq	24(%rbp), %rax
	movq	(%rax), %rax
	.loc 18 358 17
	subq	%rax, %rcx
	movq	%rcx, %rax
	sarq	$3, %rax
	.loc 18 358 29
	addq	%rdx, %rax
	.loc 18 359 5
	addq	$32, %rsp
	popq	%rbp
	.cfi_restore 6
	.cfi_def_cfa 7, 8
	ret
	.cfi_endproc
.LFE18914:
	.seh_endproc
	.section	.text$_ZN9__gnu_cxx13new_allocatorIdEC2Ev,"x"
	.linkonce discard
	.align 2
	.globl	_ZN9__gnu_cxx13new_allocatorIdEC2Ev
	.def	_ZN9__gnu_cxx13new_allocatorIdEC2Ev;	.scl	2;	.type	32;	.endef
	.seh_proc	_ZN9__gnu_cxx13new_allocatorIdEC2Ev
_ZN9__gnu_cxx13new_allocatorIdEC2Ev:
.LFB18916:
	.file 30 "C:/Program Files/CodeBlocks/MinGW/lib/gcc/x86_64-w64-mingw32/8.1.0/include/c++/ext/new_allocator.h"
	.loc 30 79 7
	.cfi_startproc
	pushq	%rbp
	.seh_pushreg	%rbp
	.cfi_def_cfa_offset 16
	.cfi_offset 6, -16
	movq	%rsp, %rbp
	.seh_setframe	%rbp, 0
	.cfi_def_cfa_register 6
	.seh_endprologue
	movq	%rcx, 16(%rbp)
	.loc 30 79 34
	nop
	popq	%rbp
	.cfi_restore 6
	.cfi_def_cfa 7, 8
	ret
	.cfi_endproc
.LFE18916:
	.seh_endproc
	.section	.text$_ZN9__gnu_cxx13new_allocatorIdED2Ev,"x"
	.linkonce discard
	.align 2
	.globl	_ZN9__gnu_cxx13new_allocatorIdED2Ev
	.def	_ZN9__gnu_cxx13new_allocatorIdED2Ev;	.scl	2;	.type	32;	.endef
	.seh_proc	_ZN9__gnu_cxx13new_allocatorIdED2Ev
_ZN9__gnu_cxx13new_allocatorIdED2Ev:
.LFB18919:
	.loc 30 86 7
	.cfi_startproc
	pushq	%rbp
	.seh_pushreg	%rbp
	.cfi_def_cfa_offset 16
	.cfi_offset 6, -16
	movq	%rsp, %rbp
	.seh_setframe	%rbp, 0
	.cfi_def_cfa_register 6
	.seh_endprologue
	movq	%rcx, 16(%rbp)
	.loc 30 86 35
	nop
	popq	%rbp
	.cfi_restore 6
	.cfi_def_cfa 7, 8
	ret
	.cfi_endproc
.LFE18919:
	.seh_endproc
	.section	.text$_ZNSt12_Vector_baseIdSaIdEE12_Vector_implD1Ev,"x"
	.linkonce discard
	.align 2
	.globl	_ZNSt12_Vector_baseIdSaIdEE12_Vector_implD1Ev
	.def	_ZNSt12_Vector_baseIdSaIdEE12_Vector_implD1Ev;	.scl	2;	.type	32;	.endef
	.seh_proc	_ZNSt12_Vector_baseIdSaIdEE12_Vector_implD1Ev
_ZNSt12_Vector_baseIdSaIdEE12_Vector_implD1Ev:
.LFB18924:
	.loc 26 88 14
	.cfi_startproc
	pushq	%rbp
	.seh_pushreg	%rbp
	.cfi_def_cfa_offset 16
	.cfi_offset 6, -16
	movq	%rsp, %rbp
	.seh_setframe	%rbp, 0
	.cfi_def_cfa_register 6
	subq	$32, %rsp
	.seh_stackalloc	32
	.seh_endprologue
	movq	%rcx, 16(%rbp)
.LBB88:
	.loc 26 88 14
	movq	16(%rbp), %rcx
	call	_ZNSaIdED2Ev
.LBE88:
	nop
	addq	$32, %rsp
	popq	%rbp
	.cfi_restore 6
	.cfi_def_cfa 7, 8
	ret
	.cfi_endproc
.LFE18924:
	.seh_endproc
	.section	.text$_ZNSt12_Vector_baseIdSaIdEEC2EyRKS0_,"x"
	.linkonce discard
	.align 2
	.globl	_ZNSt12_Vector_baseIdSaIdEEC2EyRKS0_
	.def	_ZNSt12_Vector_baseIdSaIdEEC2EyRKS0_;	.scl	2;	.type	32;	.endef
	.seh_proc	_ZNSt12_Vector_baseIdSaIdEEC2EyRKS0_
_ZNSt12_Vector_baseIdSaIdEEC2EyRKS0_:
.LFB18925:
	.loc 26 258 7
	.cfi_startproc
	pushq	%rbp
	.seh_pushreg	%rbp
	.cfi_def_cfa_offset 16
	.cfi_offset 6, -16
	pushq	%rbx
	.seh_pushreg	%rbx
	.cfi_def_cfa_offset 24
	.cfi_offset 3, -24
	subq	$40, %rsp
	.seh_stackalloc	40
	.cfi_def_cfa_offset 64
	leaq	128(%rsp), %rbp
	.seh_setframe	%rbp, 128
	.cfi_def_cfa 6, -64
	.seh_endprologue
	movq	%rcx, -64(%rbp)
	movq	%rdx, -56(%rbp)
	movq	%r8, -48(%rbp)
.LBB89:
	.loc 26 259 20
	movq	-64(%rbp), %rax
	movq	-48(%rbp), %rdx
	movq	%rax, %rcx
	call	_ZNSt12_Vector_baseIdSaIdEE12_Vector_implC1ERKS0_
	.loc 26 260 9
	movq	-56(%rbp), %rax
	movq	%rax, %rdx
	movq	-64(%rbp), %rcx
.LEHB165:
	call	_ZNSt12_Vector_baseIdSaIdEE17_M_create_storageEy
.LEHE165:
.LBE89:
	.loc 26 260 33
	jmp	.L544
.L543:
	movq	%rax, %rbx
.LBB90:
	.loc 26 259 20
	movq	-64(%rbp), %rax
	movq	%rax, %rcx
	call	_ZNSt12_Vector_baseIdSaIdEE12_Vector_implD1Ev
	movq	%rbx, %rax
	movq	%rax, %rcx
.LEHB166:
	call	_Unwind_Resume
	nop
.LEHE166:
.L544:
.LBE90:
	.loc 26 260 33
	addq	$40, %rsp
	popq	%rbx
	.cfi_restore 3
	popq	%rbp
	.cfi_restore 6
	.cfi_def_cfa 7, -24
	ret
	.cfi_endproc
.LFE18925:
	.seh_handler	__gxx_personality_seh0, @unwind, @except
	.seh_handlerdata
.LLSDA18925:
	.byte	0xff
	.byte	0xff
	.byte	0x1
	.uleb128 .LLSDACSE18925-.LLSDACSB18925
.LLSDACSB18925:
	.uleb128 .LEHB165-.LFB18925
	.uleb128 .LEHE165-.LEHB165
	.uleb128 .L543-.LFB18925
	.uleb128 0
	.uleb128 .LEHB166-.LFB18925
	.uleb128 .LEHE166-.LEHB166
	.uleb128 0
	.uleb128 0
.LLSDACSE18925:
	.section	.text$_ZNSt12_Vector_baseIdSaIdEEC2EyRKS0_,"x"
	.linkonce discard
	.seh_endproc
	.section	.text$_ZNSt12_Vector_baseIdSaIdEED2Ev,"x"
	.linkonce discard
	.align 2
	.globl	_ZNSt12_Vector_baseIdSaIdEED2Ev
	.def	_ZNSt12_Vector_baseIdSaIdEED2Ev;	.scl	2;	.type	32;	.endef
	.seh_proc	_ZNSt12_Vector_baseIdSaIdEED2Ev
_ZNSt12_Vector_baseIdSaIdEED2Ev:
.LFB18928:
	.loc 26 283 7
	.cfi_startproc
	pushq	%rbp
	.seh_pushreg	%rbp
	.cfi_def_cfa_offset 16
	.cfi_offset 6, -16
	movq	%rsp, %rbp
	.seh_setframe	%rbp, 0
	.cfi_def_cfa_register 6
	subq	$32, %rsp
	.seh_stackalloc	32
	.seh_endprologue
	movq	%rcx, 16(%rbp)
.LBB91:
	.loc 26 286 17
	movq	16(%rbp), %rax
	movq	16(%rax), %rdx
	.loc 26 286 45
	movq	16(%rbp), %rax
	movq	(%rax), %rax
	.loc 26 286 35
	subq	%rax, %rdx
	movq	%rdx, %rax
	sarq	$3, %rax
	.loc 26 285 2
	movq	%rax, %rdx
	movq	16(%rbp), %rax
	movq	(%rax), %rax
	movq	%rdx, %r8
	movq	%rax, %rdx
	movq	16(%rbp), %rcx
	call	_ZNSt12_Vector_baseIdSaIdEE13_M_deallocateEPdy
	.loc 26 287 7
	movq	16(%rbp), %rax
	movq	%rax, %rcx
	call	_ZNSt12_Vector_baseIdSaIdEE12_Vector_implD1Ev
.LBE91:
	nop
	addq	$32, %rsp
	popq	%rbp
	.cfi_restore 6
	.cfi_def_cfa 7, 8
	ret
	.cfi_endproc
.LFE18928:
	.seh_handler	__gxx_personality_seh0, @unwind, @except
	.seh_handlerdata
.LLSDA18928:
	.byte	0xff
	.byte	0xff
	.byte	0x1
	.uleb128 .LLSDACSE18928-.LLSDACSB18928
.LLSDACSB18928:
.LLSDACSE18928:
	.section	.text$_ZNSt12_Vector_baseIdSaIdEED2Ev,"x"
	.linkonce discard
	.seh_endproc
	.section	.text$_ZNSt12_Vector_baseIdSaIdEE19_M_get_Tp_allocatorEv,"x"
	.linkonce discard
	.align 2
	.globl	_ZNSt12_Vector_baseIdSaIdEE19_M_get_Tp_allocatorEv
	.def	_ZNSt12_Vector_baseIdSaIdEE19_M_get_Tp_allocatorEv;	.scl	2;	.type	32;	.endef
	.seh_proc	_ZNSt12_Vector_baseIdSaIdEE19_M_get_Tp_allocatorEv
_ZNSt12_Vector_baseIdSaIdEE19_M_get_Tp_allocatorEv:
.LFB18931:
	.loc 26 237 7
	.cfi_startproc
	pushq	%rbp
	.seh_pushreg	%rbp
	.cfi_def_cfa_offset 16
	.cfi_offset 6, -16
	movq	%rsp, %rbp
	.seh_setframe	%rbp, 0
	.cfi_def_cfa_register 6
	.seh_endprologue
	movq	%rcx, 16(%rbp)
	.loc 26 238 60
	movq	16(%rbp), %rax
	.loc 26 238 63
	popq	%rbp
	.cfi_restore 6
	.cfi_def_cfa 7, 8
	ret
	.cfi_endproc
.LFE18931:
	.seh_endproc
	.section	.text$_ZSt8_DestroyIPddEvT_S1_RSaIT0_E,"x"
	.linkonce discard
	.globl	_ZSt8_DestroyIPddEvT_S1_RSaIT0_E
	.def	_ZSt8_DestroyIPddEvT_S1_RSaIT0_E;	.scl	2;	.type	32;	.endef
	.seh_proc	_ZSt8_DestroyIPddEvT_S1_RSaIT0_E
_ZSt8_DestroyIPddEvT_S1_RSaIT0_E:
.LFB18932:
	.file 31 "C:/Program Files/CodeBlocks/MinGW/lib/gcc/x86_64-w64-mingw32/8.1.0/include/c++/bits/stl_construct.h"
	.loc 31 203 5
	.cfi_startproc
	pushq	%rbp
	.seh_pushreg	%rbp
	.cfi_def_cfa_offset 16
	.cfi_offset 6, -16
	movq	%rsp, %rbp
	.seh_setframe	%rbp, 0
	.cfi_def_cfa_register 6
	subq	$32, %rsp
	.seh_stackalloc	32
	.seh_endprologue
	movq	%rcx, 16(%rbp)
	movq	%rdx, 24(%rbp)
	movq	%r8, 32(%rbp)
	.loc 31 206 15
	movq	24(%rbp), %rax
	movq	%rax, %rdx
	movq	16(%rbp), %rcx
	call	_ZSt8_DestroyIPdEvT_S1_
	.loc 31 207 5
	nop
	addq	$32, %rsp
	popq	%rbp
	.cfi_restore 6
	.cfi_def_cfa 7, 8
	ret
	.cfi_endproc
.LFE18932:
	.seh_endproc
	.section	.text$_ZNSt12_Vector_baseIdSaIdEEC2Ev,"x"
	.linkonce discard
	.align 2
	.globl	_ZNSt12_Vector_baseIdSaIdEEC2Ev
	.def	_ZNSt12_Vector_baseIdSaIdEEC2Ev;	.scl	2;	.type	32;	.endef
	.seh_proc	_ZNSt12_Vector_baseIdSaIdEEC2Ev
_ZNSt12_Vector_baseIdSaIdEEC2Ev:
.LFB18934:
	.loc 26 248 7
	.cfi_startproc
	pushq	%rbp
	.seh_pushreg	%rbp
	.cfi_def_cfa_offset 16
	.cfi_offset 6, -16
	movq	%rsp, %rbp
	.seh_setframe	%rbp, 0
	.cfi_def_cfa_register 6
	subq	$32, %rsp
	.seh_stackalloc	32
	.seh_endprologue
	movq	%rcx, 16(%rbp)
.LBB92:
	.loc 26 249 17
	movq	16(%rbp), %rax
	movq	%rax, %rcx
	call	_ZNSt12_Vector_baseIdSaIdEE12_Vector_implC1Ev
.LBE92:
	.loc 26 249 21
	nop
	addq	$32, %rsp
	popq	%rbp
	.cfi_restore 6
	.cfi_def_cfa 7, 8
	ret
	.cfi_endproc
.LFE18934:
	.seh_endproc
	.section	.text$_ZN9__gnu_cxx14__alloc_traitsISaIdEdE17_S_select_on_copyERKS1_,"x"
	.linkonce discard
	.globl	_ZN9__gnu_cxx14__alloc_traitsISaIdEdE17_S_select_on_copyERKS1_
	.def	_ZN9__gnu_cxx14__alloc_traitsISaIdEdE17_S_select_on_copyERKS1_;	.scl	2;	.type	32;	.endef
	.seh_proc	_ZN9__gnu_cxx14__alloc_traitsISaIdEdE17_S_select_on_copyERKS1_
_ZN9__gnu_cxx14__alloc_traitsISaIdEdE17_S_select_on_copyERKS1_:
.LFB18948:
	.file 32 "C:/Program Files/CodeBlocks/MinGW/lib/gcc/x86_64-w64-mingw32/8.1.0/include/c++/ext/alloc_traits.h"
	.loc 32 94 19
	.cfi_startproc
	pushq	%rbp
	.seh_pushreg	%rbp
	.cfi_def_cfa_offset 16
	.cfi_offset 6, -16
	movq	%rsp, %rbp
	.seh_setframe	%rbp, 0
	.cfi_def_cfa_register 6
	subq	$32, %rsp
	.seh_stackalloc	32
	.seh_endprologue
	movq	%rcx, 16(%rbp)
	movq	%rdx, 24(%rbp)
	.loc 32 95 67
	movq	16(%rbp), %rax
	movq	24(%rbp), %rdx
	movq	%rax, %rcx
	call	_ZNSt16allocator_traitsISaIdEE37select_on_container_copy_constructionERKS0_
	.loc 32 95 70
	movq	16(%rbp), %rax
	addq	$32, %rsp
	popq	%rbp
	.cfi_restore 6
	.cfi_def_cfa 7, 8
	ret
	.cfi_endproc
.LFE18948:
	.seh_endproc
	.section	.text$_ZNKSt12_Vector_baseIdSaIdEE19_M_get_Tp_allocatorEv,"x"
	.linkonce discard
	.align 2
	.globl	_ZNKSt12_Vector_baseIdSaIdEE19_M_get_Tp_allocatorEv
	.def	_ZNKSt12_Vector_baseIdSaIdEE19_M_get_Tp_allocatorEv;	.scl	2;	.type	32;	.endef
	.seh_proc	_ZNKSt12_Vector_baseIdSaIdEE19_M_get_Tp_allocatorEv
_ZNKSt12_Vector_baseIdSaIdEE19_M_get_Tp_allocatorEv:
.LFB18949:
	.loc 26 241 7
	.cfi_startproc
	pushq	%rbp
	.seh_pushreg	%rbp
	.cfi_def_cfa_offset 16
	.cfi_offset 6, -16
	movq	%rsp, %rbp
	.seh_setframe	%rbp, 0
	.cfi_def_cfa_register 6
	.seh_endprologue
	movq	%rcx, 16(%rbp)
	.loc 26 242 66
	movq	16(%rbp), %rax
	.loc 26 242 69
	popq	%rbp
	.cfi_restore 6
	.cfi_def_cfa 7, 8
	ret
	.cfi_endproc
.LFE18949:
	.seh_endproc
	.section	.text$_ZNKSt6vectorIdSaIdEE5beginEv,"x"
	.linkonce discard
	.align 2
	.globl	_ZNKSt6vectorIdSaIdEE5beginEv
	.def	_ZNKSt6vectorIdSaIdEE5beginEv;	.scl	2;	.type	32;	.endef
	.seh_proc	_ZNKSt6vectorIdSaIdEE5beginEv
_ZNKSt6vectorIdSaIdEE5beginEv:
.LFB18950:
	.loc 26 707 7
	.cfi_startproc
	pushq	%rbp
	.seh_pushreg	%rbp
	.cfi_def_cfa_offset 16
	.cfi_offset 6, -16
	movq	%rsp, %rbp
	.seh_setframe	%rbp, 0
	.cfi_def_cfa_register 6
	subq	$48, %rsp
	.seh_stackalloc	48
	.seh_endprologue
	movq	%rcx, 16(%rbp)
	.loc 26 708 45
	movq	16(%rbp), %rax
	movq	(%rax), %rax
	movq	%rax, -8(%rbp)
	.loc 26 708 53
	leaq	-8(%rbp), %rdx
	leaq	-16(%rbp), %rax
	movq	%rax, %rcx
	call	_ZN9__gnu_cxx17__normal_iteratorIPKdSt6vectorIdSaIdEEEC1ERKS2_
	movq	-16(%rbp), %rax
	.loc 26 708 56
	addq	$48, %rsp
	popq	%rbp
	.cfi_restore 6
	.cfi_def_cfa 7, 8
	ret
	.cfi_endproc
.LFE18950:
	.seh_endproc
	.section	.text$_ZNKSt6vectorIdSaIdEE3endEv,"x"
	.linkonce discard
	.align 2
	.globl	_ZNKSt6vectorIdSaIdEE3endEv
	.def	_ZNKSt6vectorIdSaIdEE3endEv;	.scl	2;	.type	32;	.endef
	.seh_proc	_ZNKSt6vectorIdSaIdEE3endEv
_ZNKSt6vectorIdSaIdEE3endEv:
.LFB18951:
	.loc 26 725 7
	.cfi_startproc
	pushq	%rbp
	.seh_pushreg	%rbp
	.cfi_def_cfa_offset 16
	.cfi_offset 6, -16
	movq	%rsp, %rbp
	.seh_setframe	%rbp, 0
	.cfi_def_cfa_register 6
	subq	$48, %rsp
	.seh_stackalloc	48
	.seh_endprologue
	movq	%rcx, 16(%rbp)
	.loc 26 726 45
	movq	16(%rbp), %rax
	movq	8(%rax), %rax
	movq	%rax, -8(%rbp)
	.loc 26 726 54
	leaq	-8(%rbp), %rdx
	leaq	-16(%rbp), %rax
	movq	%rax, %rcx
	call	_ZN9__gnu_cxx17__normal_iteratorIPKdSt6vectorIdSaIdEEEC1ERKS2_
	movq	-16(%rbp), %rax
	.loc 26 726 57
	addq	$48, %rsp
	popq	%rbp
	.cfi_restore 6
	.cfi_def_cfa 7, 8
	ret
	.cfi_endproc
.LFE18951:
	.seh_endproc
	.section	.text$_ZSt22__uninitialized_copy_aIN9__gnu_cxx17__normal_iteratorIPKdSt6vectorIdSaIdEEEEPddET0_T_SA_S9_RSaIT1_E,"x"
	.linkonce discard
	.globl	_ZSt22__uninitialized_copy_aIN9__gnu_cxx17__normal_iteratorIPKdSt6vectorIdSaIdEEEEPddET0_T_SA_S9_RSaIT1_E
	.def	_ZSt22__uninitialized_copy_aIN9__gnu_cxx17__normal_iteratorIPKdSt6vectorIdSaIdEEEEPddET0_T_SA_S9_RSaIT1_E;	.scl	2;	.type	32;	.endef
	.seh_proc	_ZSt22__uninitialized_copy_aIN9__gnu_cxx17__normal_iteratorIPKdSt6vectorIdSaIdEEEEPddET0_T_SA_S9_RSaIT1_E
_ZSt22__uninitialized_copy_aIN9__gnu_cxx17__normal_iteratorIPKdSt6vectorIdSaIdEEEEPddET0_T_SA_S9_RSaIT1_E:
.LFB18952:
	.file 33 "C:/Program Files/CodeBlocks/MinGW/lib/gcc/x86_64-w64-mingw32/8.1.0/include/c++/bits/stl_uninitialized.h"
	.loc 33 287 5
	.cfi_startproc
	pushq	%rbp
	.seh_pushreg	%rbp
	.cfi_def_cfa_offset 16
	.cfi_offset 6, -16
	movq	%rsp, %rbp
	.seh_setframe	%rbp, 0
	.cfi_def_cfa_register 6
	subq	$32, %rsp
	.seh_stackalloc	32
	.seh_endprologue
	movq	%rcx, 16(%rbp)
	movq	%rdx, 24(%rbp)
	movq	%r8, 32(%rbp)
	movq	%r9, 40(%rbp)
	.loc 33 289 37
	movq	32(%rbp), %rdx
	movq	24(%rbp), %rax
	movq	%rdx, %r8
	movq	%rax, %rdx
	movq	16(%rbp), %rcx
	call	_ZSt18uninitialized_copyIN9__gnu_cxx17__normal_iteratorIPKdSt6vectorIdSaIdEEEEPdET0_T_SA_S9_
	.loc 33 289 66
	addq	$32, %rsp
	popq	%rbp
	.cfi_restore 6
	.cfi_def_cfa 7, 8
	ret
	.cfi_endproc
.LFE18952:
	.seh_endproc
	.section	.text$_ZNSt12_Vector_baseIdSaIdEE13_M_deallocateEPdy,"x"
	.linkonce discard
	.align 2
	.globl	_ZNSt12_Vector_baseIdSaIdEE13_M_deallocateEPdy
	.def	_ZNSt12_Vector_baseIdSaIdEE13_M_deallocateEPdy;	.scl	2;	.type	32;	.endef
	.seh_proc	_ZNSt12_Vector_baseIdSaIdEE13_M_deallocateEPdy
_ZNSt12_Vector_baseIdSaIdEE13_M_deallocateEPdy:
.LFB18978:
	.loc 26 300 7
	.cfi_startproc
	pushq	%rbp
	.seh_pushreg	%rbp
	.cfi_def_cfa_offset 16
	.cfi_offset 6, -16
	movq	%rsp, %rbp
	.seh_setframe	%rbp, 0
	.cfi_def_cfa_register 6
	subq	$32, %rsp
	.seh_stackalloc	32
	.seh_endprologue
	movq	%rcx, 16(%rbp)
	movq	%rdx, 24(%rbp)
	movq	%r8, 32(%rbp)
	.loc 26 303 2
	cmpq	$0, 24(%rbp)
	je	.L562
	.loc 26 304 20
	movq	16(%rbp), %rax
	.loc 26 304 19
	movq	32(%rbp), %rcx
	movq	24(%rbp), %rdx
	movq	%rcx, %r8
	movq	%rax, %rcx
	call	_ZNSt16allocator_traitsISaIdEE10deallocateERS0_Pdy
.L562:
	.loc 26 305 7
	nop
	addq	$32, %rsp
	popq	%rbp
	.cfi_restore 6
	.cfi_def_cfa 7, 8
	ret
	.cfi_endproc
.LFE18978:
	.seh_endproc
	.section	.text$_ZNSt6vectorIdSaIdEE5beginEv,"x"
	.linkonce discard
	.align 2
	.globl	_ZNSt6vectorIdSaIdEE5beginEv
	.def	_ZNSt6vectorIdSaIdEE5beginEv;	.scl	2;	.type	32;	.endef
	.seh_proc	_ZNSt6vectorIdSaIdEE5beginEv
_ZNSt6vectorIdSaIdEE5beginEv:
.LFB18982:
	.loc 26 698 7
	.cfi_startproc
	pushq	%rbp
	.seh_pushreg	%rbp
	.cfi_def_cfa_offset 16
	.cfi_offset 6, -16
	movq	%rsp, %rbp
	.seh_setframe	%rbp, 0
	.cfi_def_cfa_register 6
	subq	$48, %rsp
	.seh_stackalloc	48
	.seh_endprologue
	movq	%rcx, 16(%rbp)
	.loc 26 699 39
	movq	16(%rbp), %rdx
	.loc 26 699 47
	leaq	-8(%rbp), %rax
	movq	%rax, %rcx
	call	_ZN9__gnu_cxx17__normal_iteratorIPdSt6vectorIdSaIdEEEC1ERKS1_
	movq	-8(%rbp), %rax
	.loc 26 699 50
	addq	$48, %rsp
	popq	%rbp
	.cfi_restore 6
	.cfi_def_cfa 7, 8
	ret
	.cfi_endproc
.LFE18982:
	.seh_endproc
	.section	.text$_ZNSt6vectorIdSaIdEE3endEv,"x"
	.linkonce discard
	.align 2
	.globl	_ZNSt6vectorIdSaIdEE3endEv
	.def	_ZNSt6vectorIdSaIdEE3endEv;	.scl	2;	.type	32;	.endef
	.seh_proc	_ZNSt6vectorIdSaIdEE3endEv
_ZNSt6vectorIdSaIdEE3endEv:
.LFB18984:
	.loc 26 716 7
	.cfi_startproc
	pushq	%rbp
	.seh_pushreg	%rbp
	.cfi_def_cfa_offset 16
	.cfi_offset 6, -16
	movq	%rsp, %rbp
	.seh_setframe	%rbp, 0
	.cfi_def_cfa_register 6
	subq	$48, %rsp
	.seh_stackalloc	48
	.seh_endprologue
	movq	%rcx, 16(%rbp)
	.loc 26 717 39
	movq	16(%rbp), %rax
	leaq	8(%rax), %rdx
	.loc 26 717 48
	leaq	-8(%rbp), %rax
	movq	%rax, %rcx
	call	_ZN9__gnu_cxx17__normal_iteratorIPdSt6vectorIdSaIdEEEC1ERKS1_
	movq	-8(%rbp), %rax
	.loc 26 717 51
	addq	$48, %rsp
	popq	%rbp
	.cfi_restore 6
	.cfi_def_cfa 7, 8
	ret
	.cfi_endproc
.LFE18984:
	.seh_endproc
	.section .rdata,"dr"
	.align 8
.LC39:
	.ascii "vector::_M_range_check: __n (which is %zu) >= this->size() (which is %zu)\0"
	.section	.text$_ZNKSt6vectorIdSaIdEE14_M_range_checkEy,"x"
	.linkonce discard
	.align 2
	.globl	_ZNKSt6vectorIdSaIdEE14_M_range_checkEy
	.def	_ZNKSt6vectorIdSaIdEE14_M_range_checkEy;	.scl	2;	.type	32;	.endef
	.seh_proc	_ZNKSt6vectorIdSaIdEE14_M_range_checkEy
_ZNKSt6vectorIdSaIdEE14_M_range_checkEy:
.LFB18991:
	.loc 26 957 7
	.cfi_startproc
	pushq	%rbp
	.seh_pushreg	%rbp
	.cfi_def_cfa_offset 16
	.cfi_offset 6, -16
	movq	%rsp, %rbp
	.seh_setframe	%rbp, 0
	.cfi_def_cfa_register 6
	subq	$32, %rsp
	.seh_stackalloc	32
	.seh_endprologue
	movq	%rcx, 16(%rbp)
	movq	%rdx, 24(%rbp)
	.loc 26 959 10
	movq	16(%rbp), %rcx
	call	_ZNKSt6vectorIdSaIdEE4sizeEv
	cmpq	%rax, 24(%rbp)
	setnb	%al
	.loc 26 959 2
	testb	%al, %al
	je	.L569
	.loc 26 960 28
	movq	16(%rbp), %rcx
	call	_ZNKSt6vectorIdSaIdEE4sizeEv
	movq	%rax, %rdx
	movq	24(%rbp), %rax
	movq	%rdx, %r8
	movq	%rax, %rdx
	leaq	.LC39(%rip), %rcx
	call	_ZSt24__throw_out_of_range_fmtPKcz
.L569:
	.loc 26 964 7
	nop
	addq	$32, %rsp
	popq	%rbp
	.cfi_restore 6
	.cfi_def_cfa 7, 8
	ret
	.cfi_endproc
.LFE18991:
	.seh_endproc
	.section	.text$_ZSt7forwardIRKdEOT_RNSt16remove_referenceIS2_E4typeE,"x"
	.linkonce discard
	.globl	_ZSt7forwardIRKdEOT_RNSt16remove_referenceIS2_E4typeE
	.def	_ZSt7forwardIRKdEOT_RNSt16remove_referenceIS2_E4typeE;	.scl	2;	.type	32;	.endef
	.seh_proc	_ZSt7forwardIRKdEOT_RNSt16remove_referenceIS2_E4typeE
_ZSt7forwardIRKdEOT_RNSt16remove_referenceIS2_E4typeE:
.LFB18993:
	.loc 29 74 5
	.cfi_startproc
	pushq	%rbp
	.seh_pushreg	%rbp
	.cfi_def_cfa_offset 16
	.cfi_offset 6, -16
	movq	%rsp, %rbp
	.seh_setframe	%rbp, 0
	.cfi_def_cfa_register 6
	.seh_endprologue
	movq	%rcx, 16(%rbp)
	.loc 29 75 36
	movq	16(%rbp), %rax
	.loc 29 75 39
	popq	%rbp
	.cfi_restore 6
	.cfi_def_cfa 7, 8
	ret
	.cfi_endproc
.LFE18993:
	.seh_endproc
	.section	.text$_ZNSt16allocator_traitsISaIdEE9constructIdJRKdEEEvRS0_PT_DpOT0_,"x"
	.linkonce discard
	.globl	_ZNSt16allocator_traitsISaIdEE9constructIdJRKdEEEvRS0_PT_DpOT0_
	.def	_ZNSt16allocator_traitsISaIdEE9constructIdJRKdEEEvRS0_PT_DpOT0_;	.scl	2;	.type	32;	.endef
	.seh_proc	_ZNSt16allocator_traitsISaIdEE9constructIdJRKdEEEvRS0_PT_DpOT0_
_ZNSt16allocator_traitsISaIdEE9constructIdJRKdEEEvRS0_PT_DpOT0_:
.LFB18992:
	.file 34 "C:/Program Files/CodeBlocks/MinGW/lib/gcc/x86_64-w64-mingw32/8.1.0/include/c++/bits/alloc_traits.h"
	.loc 34 474 2
	.cfi_startproc
	pushq	%rbp
	.seh_pushreg	%rbp
	.cfi_def_cfa_offset 16
	.cfi_offset 6, -16
	movq	%rsp, %rbp
	.seh_setframe	%rbp, 0
	.cfi_def_cfa_register 6
	subq	$32, %rsp
	.seh_stackalloc	32
	.seh_endprologue
	movq	%rcx, 16(%rbp)
	movq	%rdx, 24(%rbp)
	movq	%r8, 32(%rbp)
	.loc 34 475 4
	movq	32(%rbp), %rax
	movq	%rax, %rcx
	call	_ZSt7forwardIRKdEOT_RNSt16remove_referenceIS2_E4typeE
	movq	%rax, %rdx
	movq	24(%rbp), %rax
	movq	%rdx, %r8
	movq	%rax, %rdx
	movq	16(%rbp), %rcx
	call	_ZN9__gnu_cxx13new_allocatorIdE9constructIdJRKdEEEvPT_DpOT0_
	.loc 34 475 56
	nop
	addq	$32, %rsp
	popq	%rbp
	.cfi_restore 6
	.cfi_def_cfa 7, 8
	ret
	.cfi_endproc
.LFE18992:
	.seh_endproc
	.section .rdata,"dr"
.LC40:
	.ascii "vector::_M_realloc_insert\0"
	.section	.text$_ZNSt6vectorIdSaIdEE17_M_realloc_insertIJRKdEEEvN9__gnu_cxx17__normal_iteratorIPdS1_EEDpOT_,"x"
	.linkonce discard
	.align 2
	.globl	_ZNSt6vectorIdSaIdEE17_M_realloc_insertIJRKdEEEvN9__gnu_cxx17__normal_iteratorIPdS1_EEDpOT_
	.def	_ZNSt6vectorIdSaIdEE17_M_realloc_insertIJRKdEEEvN9__gnu_cxx17__normal_iteratorIPdS1_EEDpOT_;	.scl	2;	.type	32;	.endef
	.seh_proc	_ZNSt6vectorIdSaIdEE17_M_realloc_insertIJRKdEEEvN9__gnu_cxx17__normal_iteratorIPdS1_EEDpOT_
_ZNSt6vectorIdSaIdEE17_M_realloc_insertIJRKdEEEvN9__gnu_cxx17__normal_iteratorIPdS1_EEDpOT_:
.LFB18994:
	.file 35 "C:/Program Files/CodeBlocks/MinGW/lib/gcc/x86_64-w64-mingw32/8.1.0/include/c++/bits/vector.tcc"
	.loc 35 413 7
	.cfi_startproc
	pushq	%rbp
	.seh_pushreg	%rbp
	.cfi_def_cfa_offset 16
	.cfi_offset 6, -16
	pushq	%rbx
	.seh_pushreg	%rbx
	.cfi_def_cfa_offset 24
	.cfi_offset 3, -24
	subq	$104, %rsp
	.seh_stackalloc	104
	.cfi_def_cfa_offset 128
	leaq	128(%rsp), %rbp
	.seh_setframe	%rbp, 128
	.cfi_def_cfa 6, 0
	.seh_endprologue
	movq	%rcx, 0(%rbp)
	movq	%rdx, 8(%rbp)
	movq	%r8, 16(%rbp)
	.loc 35 422 23
	leaq	.LC40(%rip), %r8
	movl	$1, %edx
	movq	0(%rbp), %rcx
.LEHB167:
	call	_ZNKSt6vectorIdSaIdEE12_M_check_lenEyPKc
	movq	%rax, -48(%rbp)
	.loc 35 424 15
	movq	0(%rbp), %rax
	movq	(%rax), %rax
	movq	%rax, -56(%rbp)
	.loc 35 425 15
	movq	0(%rbp), %rax
	movq	8(%rax), %rax
	movq	%rax, -64(%rbp)
	.loc 35 426 51
	movq	0(%rbp), %rcx
	call	_ZNSt6vectorIdSaIdEE5beginEv
	movq	%rax, -88(%rbp)
	leaq	-88(%rbp), %rdx
	leaq	8(%rbp), %rax
	movq	%rax, %rcx
	call	_ZN9__gnu_cxxmiIPdSt6vectorIdSaIdEEEENS_17__normal_iteratorIT_T0_E15difference_typeERKS8_SB_
	.loc 35 426 23
	movq	%rax, -72(%rbp)
	.loc 35 427 15
	movq	0(%rbp), %rax
	movq	-48(%rbp), %rdx
	movq	%rax, %rcx
	call	_ZNSt12_Vector_baseIdSaIdEE11_M_allocateEy
.LEHE167:
	movq	%rax, -80(%rbp)
	.loc 35 428 15
	movq	-80(%rbp), %rax
	movq	%rax, -40(%rbp)
	.loc 35 436 28
	movq	16(%rbp), %rax
	movq	%rax, %rcx
	call	_ZSt7forwardIRKdEOT_RNSt16remove_referenceIS2_E4typeE
	movq	%rax, %rcx
	.loc 35 437 20
	movq	-72(%rbp), %rax
	leaq	0(,%rax,8), %rdx
	.loc 35 436 28
	movq	-80(%rbp), %rax
	addq	%rax, %rdx
	.loc 35 436 35
	movq	0(%rbp), %rax
	.loc 35 436 28
	movq	%rcx, %r8
	movq	%rax, %rcx
	call	_ZNSt16allocator_traitsISaIdEE9constructIdJRKdEEEvRS0_PT_DpOT0_
	.loc 35 443 4
	movq	$0, -40(%rbp)
	.loc 35 448 39
	movq	0(%rbp), %rax
	movq	%rax, %rcx
	call	_ZNSt12_Vector_baseIdSaIdEE19_M_get_Tp_allocatorEv
	movq	%rax, %rbx
	.loc 35 447 6
	leaq	8(%rbp), %rax
	movq	%rax, %rcx
	call	_ZNK9__gnu_cxx17__normal_iteratorIPdSt6vectorIdSaIdEEE4baseEv
	movq	(%rax), %rdx
	movq	-80(%rbp), %rcx
	movq	-56(%rbp), %rax
	movq	%rbx, %r9
	movq	%rcx, %r8
	movq	%rax, %rcx
.LEHB168:
	call	_ZSt34__uninitialized_move_if_noexcept_aIPdS0_SaIdEET0_T_S3_S2_RT1_
	movq	%rax, -40(%rbp)
	.loc 35 450 4
	addq	$8, -40(%rbp)
	.loc 35 455 40
	movq	0(%rbp), %rax
	movq	%rax, %rcx
	call	_ZNSt12_Vector_baseIdSaIdEE19_M_get_Tp_allocatorEv
	movq	%rax, %rbx
	.loc 35 454 6
	leaq	8(%rbp), %rax
	movq	%rax, %rcx
	call	_ZNK9__gnu_cxx17__normal_iteratorIPdSt6vectorIdSaIdEEE4baseEv
	movq	(%rax), %rax
	movq	-40(%rbp), %rcx
	movq	-64(%rbp), %rdx
	movq	%rbx, %r9
	movq	%rcx, %r8
	movq	%rax, %rcx
	call	_ZSt34__uninitialized_move_if_noexcept_aIPdS0_SaIdEET0_T_S3_S2_RT1_
.LEHE168:
	.loc 35 454 6 is_stmt 0 discriminator 1
	movq	%rax, -40(%rbp)
	.loc 35 468 67 is_stmt 1 discriminator 1
	movq	0(%rbp), %rax
	movq	%rax, %rcx
	call	_ZNSt12_Vector_baseIdSaIdEE19_M_get_Tp_allocatorEv
	movq	%rax, %rcx
	.loc 35 468 20 discriminator 1
	movq	-64(%rbp), %rdx
	movq	-56(%rbp), %rax
	movq	%rcx, %r8
	movq	%rax, %rcx
.LEHB169:
	call	_ZSt8_DestroyIPddEvT_S1_RSaIT0_E
	.loc 35 469 20 discriminator 1
	movq	0(%rbp), %rax
	.loc 35 470 21 discriminator 1
	movq	0(%rbp), %rdx
	movq	16(%rdx), %rdx
	.loc 35 470 39 discriminator 1
	subq	-56(%rbp), %rdx
	sarq	$3, %rdx
	.loc 35 469 20 discriminator 1
	movq	%rdx, %rcx
	movq	-56(%rbp), %rdx
	movq	%rcx, %r8
	movq	%rax, %rcx
	call	_ZNSt12_Vector_baseIdSaIdEE13_M_deallocateEPdy
.LEHE169:
	.loc 35 471 7 discriminator 1
	movq	0(%rbp), %rax
	movq	-80(%rbp), %rdx
	movq	%rdx, (%rax)
	.loc 35 472 7 discriminator 1
	movq	0(%rbp), %rax
	movq	-40(%rbp), %rdx
	movq	%rdx, 8(%rax)
	.loc 35 473 53 discriminator 1
	movq	-48(%rbp), %rax
	leaq	0(,%rax,8), %rdx
	movq	-80(%rbp), %rax
	addq	%rax, %rdx
	.loc 35 473 7 discriminator 1
	movq	0(%rbp), %rax
	movq	%rdx, 16(%rax)
	.loc 35 474 5 discriminator 1
	jmp	.L580
.L578:
	.loc 35 457 7
	movq	%rax, %rcx
	call	__cxa_begin_catch
	.loc 35 459 4
	cmpq	$0, -40(%rbp)
	jne	.L575
	.loc 35 461 20
	movq	-72(%rbp), %rax
	leaq	0(,%rax,8), %rdx
	.loc 35 460 28
	movq	-80(%rbp), %rax
	addq	%rax, %rdx
	.loc 35 460 35
	movq	0(%rbp), %rax
	.loc 35 460 28
	movq	%rax, %rcx
.LEHB170:
	call	_ZNSt16allocator_traitsISaIdEE7destroyIdEEvRS0_PT_
	jmp	.L576
.L575:
	.loc 35 463 66
	movq	0(%rbp), %rax
	movq	%rax, %rcx
	call	_ZNSt12_Vector_baseIdSaIdEE19_M_get_Tp_allocatorEv
	movq	%rax, %rcx
	.loc 35 463 19
	movq	-40(%rbp), %rdx
	movq	-80(%rbp), %rax
	movq	%rcx, %r8
	movq	%rax, %rcx
	call	_ZSt8_DestroyIPddEvT_S1_RSaIT0_E
.L576:
	.loc 35 464 17
	movq	0(%rbp), %rax
	movq	-48(%rbp), %rcx
	movq	-80(%rbp), %rdx
	movq	%rcx, %r8
	movq	%rax, %rcx
	call	_ZNSt12_Vector_baseIdSaIdEE13_M_deallocateEPdy
	.loc 35 465 4
	call	__cxa_rethrow
.LEHE170:
.L579:
	movq	%rax, %rbx
	.loc 35 457 7
	call	__cxa_end_catch
	movq	%rbx, %rax
	movq	%rax, %rcx
.LEHB171:
	call	_Unwind_Resume
	nop
.LEHE171:
.L580:
	.loc 35 474 5
	addq	$104, %rsp
	popq	%rbx
	.cfi_restore 3
	popq	%rbp
	.cfi_restore 6
	.cfi_def_cfa 7, -88
	ret
	.cfi_endproc
.LFE18994:
	.seh_handler	__gxx_personality_seh0, @unwind, @except
	.seh_handlerdata
	.align 4
.LLSDA18994:
	.byte	0xff
	.byte	0x9b
	.uleb128 .LLSDATT18994-.LLSDATTD18994
.LLSDATTD18994:
	.byte	0x1
	.uleb128 .LLSDACSE18994-.LLSDACSB18994
.LLSDACSB18994:
	.uleb128 .LEHB167-.LFB18994
	.uleb128 .LEHE167-.LEHB167
	.uleb128 0
	.uleb128 0
	.uleb128 .LEHB168-.LFB18994
	.uleb128 .LEHE168-.LEHB168
	.uleb128 .L578-.LFB18994
	.uleb128 0x1
	.uleb128 .LEHB169-.LFB18994
	.uleb128 .LEHE169-.LEHB169
	.uleb128 0
	.uleb128 0
	.uleb128 .LEHB170-.LFB18994
	.uleb128 .LEHE170-.LEHB170
	.uleb128 .L579-.LFB18994
	.uleb128 0
	.uleb128 .LEHB171-.LFB18994
	.uleb128 .LEHE171-.LEHB171
	.uleb128 0
	.uleb128 0
.LLSDACSE18994:
	.byte	0x1
	.byte	0
	.align 4
	.long	0

.LLSDATT18994:
