	.file	"meuSobreDialog.cpp"
	.text
.Ltext0:
	.cfi_sections	.debug_frame
	.section .rdata,"dr"
_ZStL19piecewise_construct:
	.space 1
	.section	.text$_ZNKSt9type_info4nameEv,"x"
	.linkonce discard
	.align 2
	.globl	_ZNKSt9type_info4nameEv
	.def	_ZNKSt9type_info4nameEv;	.scl	2;	.type	32;	.endef
	.seh_proc	_ZNKSt9type_info4nameEv
_ZNKSt9type_info4nameEv:
.LFB711:
	.file 1 "C:/Program Files/CodeBlocks/MinGW/lib/gcc/x86_64-w64-mingw32/8.1.0/include/c++/typeinfo"
	.loc 1 99 17
	.cfi_startproc
	pushq	%rbp
	.seh_pushreg	%rbp
	.cfi_def_cfa_offset 16
	.cfi_offset 6, -16
	movq	%rsp, %rbp
	.seh_setframe	%rbp, 0
	.cfi_def_cfa_register 6
	.seh_endprologue
	movq	%rcx, 16(%rbp)
	.loc 1 100 14
	movq	16(%rbp), %rax
	movq	8(%rax), %rax
	.loc 1 100 22
	movzbl	(%rax), %eax
	.loc 1 100 31
	cmpb	$42, %al
	jne	.L2
	.loc 1 100 33 discriminator 1
	movq	16(%rbp), %rax
	movq	8(%rax), %rax
	.loc 1 100 31 discriminator 1
	addq	$1, %rax
	.loc 1 100 46 discriminator 1
	jmp	.L4
.L2:
	.loc 1 100 31 discriminator 2
	movq	16(%rbp), %rax
	movq	8(%rax), %rax
.L4:
	.loc 1 100 54 discriminator 5
	popq	%rbp
	.cfi_restore 6
	.cfi_def_cfa 7, 8
	ret
	.cfi_endproc
.LFE711:
	.seh_endproc
	.section .rdata,"dr"
	.align 2
.LC0:
	.ascii "\0\0"
	.section	.text$_ZN8wxString7ImplStrEPKw,"x"
	.linkonce discard
	.globl	_ZN8wxString7ImplStrEPKw
	.def	_ZN8wxString7ImplStrEPKw;	.scl	2;	.type	32;	.endef
	.seh_proc	_ZN8wxString7ImplStrEPKw
_ZN8wxString7ImplStrEPKw:
.LFB1709:
	.file 2 "../wxMSW-3.0.5_gcc810_x64_Dev/include/wx/string.h"
	.loc 2 471 25
	.cfi_startproc
	pushq	%rbp
	.seh_pushreg	%rbp
	.cfi_def_cfa_offset 16
	.cfi_offset 6, -16
	movq	%rsp, %rbp
	.seh_setframe	%rbp, 0
	.cfi_def_cfa_register 6
	.seh_endprologue
	movq	%rcx, 16(%rbp)
	.loc 2 472 18
	cmpq	$0, 16(%rbp)
	je	.L6
	.loc 2 472 18 is_stmt 0 discriminator 1
	movq	16(%rbp), %rax
	.loc 2 472 26 is_stmt 1 discriminator 1
	jmp	.L8
.L6:
	.loc 2 472 18 discriminator 2
	leaq	.LC0(%rip), %rax
.L8:
	.loc 2 472 31 discriminator 5
	popq	%rbp
	.cfi_restore 6
	.cfi_def_cfa 7, 8
	ret
	.cfi_endproc
.LFE1709:
	.seh_endproc
	.section	.text$_ZN8wxStringD1Ev,"x"
	.linkonce discard
	.align 2
	.globl	_ZN8wxStringD1Ev
	.def	_ZN8wxStringD1Ev;	.scl	2;	.type	32;	.endef
	.seh_proc	_ZN8wxStringD1Ev
_ZN8wxStringD1Ev:
.LFB1791:
	.loc 2 393 7
	.cfi_startproc
	pushq	%rbp
	.seh_pushreg	%rbp
	.cfi_def_cfa_offset 16
	.cfi_offset 6, -16
	movq	%rsp, %rbp
	.seh_setframe	%rbp, 0
	.cfi_def_cfa_register 6
	subq	$32, %rsp
	.seh_stackalloc	32
	.seh_endprologue
	movq	%rcx, 16(%rbp)
.LBB2:
	.loc 2 393 7
	movq	16(%rbp), %rax
	addq	$32, %rax
	movq	%rax, %rcx
	call	_ZN8wxString15ConvertedBufferIcED1Ev
	movq	16(%rbp), %rax
	movq	%rax, %rcx
	call	_ZNSt7__cxx1112basic_stringIwSt11char_traitsIwESaIwEED1Ev
.LBE2:
	nop
	addq	$32, %rsp
	popq	%rbp
	.cfi_restore 6
	.cfi_def_cfa 7, 8
	ret
	.cfi_endproc
.LFE1791:
	.seh_endproc
	.section	.text$_ZN8wxStringC1ERKS_,"x"
	.linkonce discard
	.align 2
	.globl	_ZN8wxStringC1ERKS_
	.def	_ZN8wxStringC1ERKS_;	.scl	2;	.type	32;	.endef
	.seh_proc	_ZN8wxStringC1ERKS_
_ZN8wxStringC1ERKS_:
.LFB1820:
	.loc 2 1220 3
	.cfi_startproc
	pushq	%rbp
	.seh_pushreg	%rbp
	.cfi_def_cfa_offset 16
	.cfi_offset 6, -16
	movq	%rsp, %rbp
	.seh_setframe	%rbp, 0
	.cfi_def_cfa_register 6
	subq	$32, %rsp
	.seh_stackalloc	32
	.seh_endprologue
	movq	%rcx, 16(%rbp)
	movq	%rdx, 24(%rbp)
.LBB3:
	.loc 2 1220 64
	movq	16(%rbp), %rax
	.loc 2 1220 58
	movq	24(%rbp), %rdx
	.loc 2 1220 64
	movq	%rax, %rcx
	call	_ZNSt7__cxx1112basic_stringIwSt11char_traitsIwESaIwEEC1ERKS4_
	movq	16(%rbp), %rax
	addq	$32, %rax
	movq	%rax, %rcx
	call	_ZN8wxString15ConvertedBufferIcEC1Ev
.LBE3:
	.loc 2 1220 68
	nop
	addq	$32, %rsp
	popq	%rbp
	.cfi_restore 6
	.cfi_def_cfa 7, 8
	ret
	.cfi_endproc
.LFE1820:
	.seh_endproc
	.section	.text$_ZN8wxStringC1EPKw,"x"
	.linkonce discard
	.align 2
	.globl	_ZN8wxStringC1EPKw
	.def	_ZN8wxStringC1EPKw;	.scl	2;	.type	32;	.endef
	.seh_proc	_ZN8wxStringC1EPKw
_ZN8wxStringC1EPKw:
.LFB1871:
	.loc 2 1267 3
	.cfi_startproc
	pushq	%rbp
	.seh_pushreg	%rbp
	.cfi_def_cfa_offset 16
	.cfi_offset 6, -16
	pushq	%rbx
	.seh_pushreg	%rbx
	.cfi_def_cfa_offset 24
	.cfi_offset 3, -24
	subq	$56, %rsp
	.seh_stackalloc	56
	.cfi_def_cfa_offset 80
	leaq	128(%rsp), %rbp
	.seh_setframe	%rbp, 128
	.cfi_def_cfa 6, -48
	.seh_endprologue
	movq	%rcx, -48(%rbp)
	movq	%rdx, -40(%rbp)
.LBB4:
	.loc 2 1268 26
	movq	-48(%rbp), %rbx
	leaq	-81(%rbp), %rax
	movq	%rax, %rcx
	call	_ZNSaIwEC1Ev
	movq	-40(%rbp), %rax
	movq	%rax, %rcx
	call	_ZN8wxString7ImplStrEPKw
	movq	%rax, %rdx
	leaq	-81(%rbp), %rax
	movq	%rax, %r8
	movq	%rbx, %rcx
.LEHB0:
	call	_ZNSt7__cxx1112basic_stringIwSt11char_traitsIwESaIwEEC1EPKwRKS3_
.LEHE0:
	.loc 2 1268 26 is_stmt 0 discriminator 2
	leaq	-81(%rbp), %rax
	movq	%rax, %rcx
	call	_ZNSaIwED1Ev
	movq	-48(%rbp), %rax
	addq	$32, %rax
	movq	%rax, %rcx
	call	_ZN8wxString15ConvertedBufferIcEC1Ev
.LBE4:
	.loc 2 1268 29 is_stmt 1 discriminator 2
	jmp	.L14
.L13:
	movq	%rax, %rbx
.LBB5:
	.loc 2 1268 26
	leaq	-81(%rbp), %rax
	movq	%rax, %rcx
	call	_ZNSaIwED1Ev
	movq	%rbx, %rax
	movq	%rax, %rcx
.LEHB1:
	call	_Unwind_Resume
	nop
.LEHE1:
.L14:
.LBE5:
	.loc 2 1268 29
	addq	$56, %rsp
	popq	%rbx
	.cfi_restore 3
	popq	%rbp
	.cfi_restore 6
	.cfi_def_cfa 7, -40
	ret
	.cfi_endproc
.LFE1871:
	.def	__gxx_personality_seh0;	.scl	2;	.type	32;	.endef
	.seh_handler	__gxx_personality_seh0, @unwind, @except
	.seh_handlerdata
.LLSDA1871:
	.byte	0xff
	.byte	0xff
	.byte	0x1
	.uleb128 .LLSDACSE1871-.LLSDACSB1871
.LLSDACSB1871:
	.uleb128 .LEHB0-.LFB1871
	.uleb128 .LEHE0-.LEHB0
	.uleb128 .L13-.LFB1871
	.uleb128 0
	.uleb128 .LEHB1-.LFB1871
	.uleb128 .LEHE1-.LEHB1
	.uleb128 0
	.uleb128 0
.LLSDACSE1871:
	.section	.text$_ZN8wxStringC1EPKw,"x"
	.linkonce discard
	.seh_endproc
	.section	.text$_ZN8wxStringaSERKS_,"x"
	.linkonce discard
	.align 2
	.globl	_ZN8wxStringaSERKS_
	.def	_ZN8wxStringaSERKS_;	.scl	2;	.type	32;	.endef
	.seh_proc	_ZN8wxStringaSERKS_
_ZN8wxStringaSERKS_:
.LFB1982:
	.loc 2 1877 13
	.cfi_startproc
	pushq	%rbp
	.seh_pushreg	%rbp
	.cfi_def_cfa_offset 16
	.cfi_offset 6, -16
	movq	%rsp, %rbp
	.seh_setframe	%rbp, 0
	.cfi_def_cfa_register 6
	subq	$32, %rsp
	.seh_stackalloc	32
	.seh_endprologue
	movq	%rcx, 16(%rbp)
	movq	%rdx, 24(%rbp)
	.loc 2 1879 5
	movq	16(%rbp), %rax
	cmpq	24(%rbp), %rax
	je	.L16
	.loc 2 1883 28
	movq	24(%rbp), %rdx
	movq	16(%rbp), %rax
	movq	%rax, %rcx
	call	_ZNSt7__cxx1112basic_stringIwSt11char_traitsIwESaIwEEaSERKS4_
.L16:
	.loc 2 1886 13
	movq	16(%rbp), %rax
	.loc 2 1887 3
	addq	$32, %rsp
	popq	%rbp
	.cfi_restore 6
	.cfi_def_cfa 7, 8
	ret
	.cfi_endproc
.LFE1982:
	.seh_endproc
	.section	.text$_ZN8wxObjectaSERKS_,"x"
	.linkonce discard
	.align 2
	.globl	_ZN8wxObjectaSERKS_
	.def	_ZN8wxObjectaSERKS_;	.scl	2;	.type	32;	.endef
	.seh_proc	_ZN8wxObjectaSERKS_
_ZN8wxObjectaSERKS_:
.LFB3714:
	.file 3 "../wxMSW-3.0.5_gcc810_x64_Dev/include/wx/object.h"
	.loc 3 370 15
	.cfi_startproc
	pushq	%rbp
	.seh_pushreg	%rbp
	.cfi_def_cfa_offset 16
	.cfi_offset 6, -16
	movq	%rsp, %rbp
	.seh_setframe	%rbp, 0
	.cfi_def_cfa_register 6
	subq	$32, %rsp
	.seh_stackalloc	32
	.seh_endprologue
	movq	%rcx, 16(%rbp)
	movq	%rdx, 24(%rbp)
	.loc 3 372 9
	movq	16(%rbp), %rax
	cmpq	24(%rbp), %rax
	je	.L19
	.loc 3 374 16
	movq	24(%rbp), %rax
	movq	%rax, %rdx
	movq	16(%rbp), %rcx
	call	_ZN8wxObject3RefERKS_
.L19:
	.loc 3 376 17
	movq	16(%rbp), %rax
	.loc 3 377 5
	addq	$32, %rsp
	popq	%rbp
	.cfi_restore 6
	.cfi_def_cfa 7, 8
	ret
	.cfi_endproc
.LFE3714:
	.seh_endproc
	.section	.text$_ZN6wxSizeC1Eii,"x"
	.linkonce discard
	.align 2
	.globl	_ZN6wxSizeC1Eii
	.def	_ZN6wxSizeC1Eii;	.scl	2;	.type	32;	.endef
	.seh_proc	_ZN6wxSizeC1Eii
_ZN6wxSizeC1Eii:
.LFB5030:
	.file 4 "../wxMSW-3.0.5_gcc810_x64_Dev/include/wx/gdicmn.h"
	.loc 4 258 5
	.cfi_startproc
	pushq	%rbp
	.seh_pushreg	%rbp
	.cfi_def_cfa_offset 16
	.cfi_offset 6, -16
	movq	%rsp, %rbp
	.seh_setframe	%rbp, 0
	.cfi_def_cfa_register 6
	.seh_endprologue
	movq	%rcx, 16(%rbp)
	movl	%edx, 24(%rbp)
	movl	%r8d, 32(%rbp)
.LBB6:
	.loc 4 258 41
	movq	16(%rbp), %rax
	movl	24(%rbp), %edx
	movl	%edx, (%rax)
	movq	16(%rbp), %rax
	movl	32(%rbp), %edx
	movl	%edx, 4(%rax)
.LBE6:
	.loc 4 258 45
	nop
	popq	%rbp
	.cfi_restore 6
	.cfi_def_cfa 7, 8
	ret
	.cfi_endproc
.LFE5030:
	.seh_endproc
	.section .rdata,"dr"
	.align 4
_ZL15wxInvalidOffset:
	.long	-1
	.section	.text$_ZN10wxArrayIntD1Ev,"x"
	.linkonce discard
	.align 2
	.globl	_ZN10wxArrayIntD1Ev
	.def	_ZN10wxArrayIntD1Ev;	.scl	2;	.type	32;	.endef
	.seh_proc	_ZN10wxArrayIntD1Ev
_ZN10wxArrayIntD1Ev:
.LFB7085:
	.file 5 "../wxMSW-3.0.5_gcc810_x64_Dev/include/wx/dynarray.h"
	.loc 5 1022 348
	.cfi_startproc
	pushq	%rbp
	.seh_pushreg	%rbp
	.cfi_def_cfa_offset 16
	.cfi_offset 6, -16
	movq	%rsp, %rbp
	.seh_setframe	%rbp, 0
	.cfi_def_cfa_register 6
	subq	$32, %rsp
	.seh_stackalloc	32
	.seh_endprologue
	movq	%rcx, 16(%rbp)
.LBB7:
	.loc 5 1022 362
	movq	16(%rbp), %rax
	movq	%rax, %rcx
	call	_ZN14wxBaseArrayIntD2Ev
.LBE7:
	.loc 5 1022 364
	nop
	addq	$32, %rsp
	popq	%rbp
	.cfi_restore 6
	.cfi_def_cfa 7, 8
	ret
	.cfi_endproc
.LFE7085:
	.seh_endproc
	.section	.text$_ZN23wxCriticalSectionLockerC1ER17wxCriticalSection,"x"
	.linkonce discard
	.align 2
	.globl	_ZN23wxCriticalSectionLockerC1ER17wxCriticalSection
	.def	_ZN23wxCriticalSectionLockerC1ER17wxCriticalSection;	.scl	2;	.type	32;	.endef
	.seh_proc	_ZN23wxCriticalSectionLockerC1ER17wxCriticalSection
_ZN23wxCriticalSectionLockerC1ER17wxCriticalSection:
.LFB7449:
	.file 6 "../wxMSW-3.0.5_gcc810_x64_Dev/include/wx/thread.h"
	.loc 6 304 5
	.cfi_startproc
	pushq	%rbp
	.seh_pushreg	%rbp
	.cfi_def_cfa_offset 16
	.cfi_offset 6, -16
	movq	%rsp, %rbp
	.seh_setframe	%rbp, 0
	.cfi_def_cfa_register 6
	subq	$32, %rsp
	.seh_stackalloc	32
	.seh_endprologue
	movq	%rcx, 16(%rbp)
	movq	%rdx, 24(%rbp)
.LBB8:
	.loc 6 305 24
	movq	16(%rbp), %rax
	movq	24(%rbp), %rdx
	movq	%rdx, (%rax)
	.loc 6 307 9
	movq	16(%rbp), %rax
	movq	(%rax), %rax
	.loc 6 307 25
	movq	%rax, %rcx
	call	_ZN17wxCriticalSection5EnterEv
.LBE8:
	.loc 6 308 5
	nop
	addq	$32, %rsp
	popq	%rbp
	.cfi_restore 6
	.cfi_def_cfa 7, 8
	ret
	.cfi_endproc
.LFE7449:
	.seh_endproc
	.section	.text$_ZN23wxCriticalSectionLockerD1Ev,"x"
	.linkonce discard
	.align 2
	.globl	_ZN23wxCriticalSectionLockerD1Ev
	.def	_ZN23wxCriticalSectionLockerD1Ev;	.scl	2;	.type	32;	.endef
	.seh_proc	_ZN23wxCriticalSectionLockerD1Ev
_ZN23wxCriticalSectionLockerD1Ev:
.LFB7452:
	.loc 6 310 5
	.cfi_startproc
	pushq	%rbp
	.seh_pushreg	%rbp
	.cfi_def_cfa_offset 16
	.cfi_offset 6, -16
	movq	%rsp, %rbp
	.seh_setframe	%rbp, 0
	.cfi_def_cfa_register 6
	subq	$32, %rsp
	.seh_stackalloc	32
	.seh_endprologue
	movq	%rcx, 16(%rbp)
.LBB9:
	.loc 6 312 9
	movq	16(%rbp), %rax
	movq	(%rax), %rax
	.loc 6 312 25
	movq	%rax, %rcx
	call	_ZN17wxCriticalSection5LeaveEv
.LBE9:
	.loc 6 313 5
	nop
	addq	$32, %rsp
	popq	%rbp
	.cfi_restore 6
	.cfi_def_cfa 7, 8
	ret
	.cfi_endproc
.LFE7452:
	.seh_handler	__gxx_personality_seh0, @unwind, @except
	.seh_handlerdata
.LLSDA7452:
	.byte	0xff
	.byte	0xff
	.byte	0x1
	.uleb128 .LLSDACSE7452-.LLSDACSB7452
.LLSDACSB7452:
.LLSDACSE7452:
	.section	.text$_ZN23wxCriticalSectionLockerD1Ev,"x"
	.linkonce discard
	.seh_endproc
	.section	.text$_ZN8wxThread8OnDeleteEv,"x"
	.linkonce discard
	.align 2
	.globl	_ZN8wxThread8OnDeleteEv
	.def	_ZN8wxThread8OnDeleteEv;	.scl	2;	.type	32;	.endef
	.seh_proc	_ZN8wxThread8OnDeleteEv
_ZN8wxThread8OnDeleteEv:
.LFB7458:
	.loc 6 627 18
	.cfi_startproc
	pushq	%rbp
	.seh_pushreg	%rbp
	.cfi_def_cfa_offset 16
	.cfi_offset 6, -16
	movq	%rsp, %rbp
	.seh_setframe	%rbp, 0
	.cfi_def_cfa_register 6
	.seh_endprologue
	movq	%rcx, 16(%rbp)
	.loc 6 627 30
	nop
	popq	%rbp
	.cfi_restore 6
	.cfi_def_cfa 7, 8
	ret
	.cfi_endproc
.LFE7458:
	.seh_endproc
	.section	.text$_ZN8wxThread6OnKillEv,"x"
	.linkonce discard
	.align 2
	.globl	_ZN8wxThread6OnKillEv
	.def	_ZN8wxThread6OnKillEv;	.scl	2;	.type	32;	.endef
	.seh_proc	_ZN8wxThread6OnKillEv
_ZN8wxThread6OnKillEv:
.LFB7459:
	.loc 6 631 18
	.cfi_startproc
	pushq	%rbp
	.seh_pushreg	%rbp
	.cfi_def_cfa_offset 16
	.cfi_offset 6, -16
	movq	%rsp, %rbp
	.seh_setframe	%rbp, 0
	.cfi_def_cfa_register 6
	.seh_endprologue
	movq	%rcx, 16(%rbp)
	.loc 6 631 28
	nop
	popq	%rbp
	.cfi_restore 6
	.cfi_def_cfa 7, 8
	ret
	.cfi_endproc
.LFE7459:
	.seh_endproc
	.section	.text$_ZN8wxThread6OnExitEv,"x"
	.linkonce discard
	.align 2
	.globl	_ZN8wxThread6OnExitEv
	.def	_ZN8wxThread6OnExitEv;	.scl	2;	.type	32;	.endef
	.seh_proc	_ZN8wxThread6OnExitEv
_ZN8wxThread6OnExitEv:
.LFB7460:
	.loc 6 641 18
	.cfi_startproc
	pushq	%rbp
	.seh_pushreg	%rbp
	.cfi_def_cfa_offset 16
	.cfi_offset 6, -16
	movq	%rsp, %rbp
	.seh_setframe	%rbp, 0
	.cfi_def_cfa_register 6
	.seh_endprologue
	movq	%rcx, 16(%rbp)
	.loc 6 641 29
	nop
	popq	%rbp
	.cfi_restore 6
	.cfi_def_cfa 7, 8
	ret
	.cfi_endproc
.LFE7460:
	.seh_endproc
	.section	.text$_ZN20wxThreadHelperThread5EntryEv,"x"
	.linkonce discard
	.align 2
	.globl	_ZN20wxThreadHelperThread5EntryEv
	.def	_ZN20wxThreadHelperThread5EntryEv;	.scl	2;	.type	32;	.endef
	.seh_proc	_ZN20wxThreadHelperThread5EntryEv
_ZN20wxThreadHelperThread5EntryEv:
.LFB7475:
	.loc 6 767 1
	.cfi_startproc
	pushq	%rbp
	.seh_pushreg	%rbp
	.cfi_def_cfa_offset 16
	.cfi_offset 6, -16
	pushq	%rbx
	.seh_pushreg	%rbx
	.cfi_def_cfa_offset 24
	.cfi_offset 3, -24
	subq	$56, %rsp
	.seh_stackalloc	56
	.cfi_def_cfa_offset 80
	leaq	128(%rsp), %rbp
	.seh_setframe	%rbp, 128
	.cfi_def_cfa 6, -48
	.seh_endprologue
	movq	%rcx, -48(%rbp)
	.loc 6 768 27
	movq	-48(%rbp), %rax
	movq	64(%rax), %rdx
	movq	-48(%rbp), %rax
	movq	64(%rax), %rax
	.loc 6 768 41
	movq	(%rax), %rax
	addq	$16, %rax
	movq	(%rax), %rax
	.loc 6 768 40
	movq	%rdx, %rcx
	call	*%rax
.LVL0:
	movq	%rax, -88(%rbp)
	.loc 6 770 36
	movq	-48(%rbp), %rax
	movq	64(%rax), %rax
	.loc 6 770 44
	leaq	24(%rax), %rdx
	.loc 6 770 57
	leaq	-96(%rbp), %rax
	movq	%rax, %rcx
	call	_ZN23wxCriticalSectionLockerC1ER17wxCriticalSection
	.loc 6 776 10
	movq	-48(%rbp), %rax
	movq	64(%rax), %rax
	.loc 6 776 18
	movl	16(%rax), %eax
	.loc 6 776 5
	testl	%eax, %eax
	jne	.L29
	.loc 6 777 9
	movq	-48(%rbp), %rax
	movq	64(%rax), %rax
	.loc 6 777 26
	movq	$0, 8(%rax)
.L29:
	.loc 6 779 12
	movq	-88(%rbp), %rbx
	.loc 6 770 57
	leaq	-96(%rbp), %rax
	movq	%rax, %rcx
	call	_ZN23wxCriticalSectionLockerD1Ev
	.loc 6 779 12
	movq	%rbx, %rax
	.loc 6 780 1
	addq	$56, %rsp
	popq	%rbx
	.cfi_restore 3
	popq	%rbp
	.cfi_restore 6
	.cfi_def_cfa 7, -40
	ret
	.cfi_endproc
.LFE7475:
	.seh_endproc
	.section	.text$_ZN16wxTypeIdentifierC1EPKc,"x"
	.linkonce discard
	.align 2
	.globl	_ZN16wxTypeIdentifierC1EPKc
	.def	_ZN16wxTypeIdentifierC1EPKc;	.scl	2;	.type	32;	.endef
	.seh_proc	_ZN16wxTypeIdentifierC1EPKc
_ZN16wxTypeIdentifierC1EPKc:
.LFB7506:
	.file 7 "../wxMSW-3.0.5_gcc810_x64_Dev/include/wx/typeinfo.h"
	.loc 7 66 5
	.cfi_startproc
	pushq	%rbp
	.seh_pushreg	%rbp
	.cfi_def_cfa_offset 16
	.cfi_offset 6, -16
	movq	%rsp, %rbp
	.seh_setframe	%rbp, 0
	.cfi_def_cfa_register 6
	.seh_endprologue
	movq	%rcx, 16(%rbp)
	movq	%rdx, 24(%rbp)
.LBB10:
	.loc 7 68 21
	movq	16(%rbp), %rax
	movq	24(%rbp), %rdx
	movq	%rdx, (%rax)
.LBE10:
	.loc 7 69 5
	nop
	popq	%rbp
	.cfi_restore 6
	.cfi_def_cfa 7, 8
	ret
	.cfi_endproc
.LFE7506:
	.seh_endproc
	.section	.text$_ZN16wxTypeIdentifiereqERKS_,"x"
	.linkonce discard
	.align 2
	.globl	_ZN16wxTypeIdentifiereqERKS_
	.def	_ZN16wxTypeIdentifiereqERKS_;	.scl	2;	.type	32;	.endef
	.seh_proc	_ZN16wxTypeIdentifiereqERKS_
_ZN16wxTypeIdentifiereqERKS_:
.LFB7507:
	.loc 7 71 10
	.cfi_startproc
	pushq	%rbp
	.seh_pushreg	%rbp
	.cfi_def_cfa_offset 16
	.cfi_offset 6, -16
	movq	%rsp, %rbp
	.seh_setframe	%rbp, 0
	.cfi_def_cfa_register 6
	subq	$32, %rsp
	.seh_stackalloc	32
	.seh_endprologue
	movq	%rcx, 16(%rbp)
	movq	%rdx, 24(%rbp)
	.loc 7 73 42
	movq	24(%rbp), %rax
	movq	(%rax), %rdx
	.loc 7 73 22
	movq	16(%rbp), %rax
	movq	(%rax), %rax
	movq	%rax, %rcx
	call	strcmp
	.loc 7 73 58
	testl	%eax, %eax
	sete	%al
	.loc 7 74 5
	addq	$32, %rsp
	popq	%rbp
	.cfi_restore 6
	.cfi_def_cfa 7, 8
	ret
	.cfi_endproc
.LFE7507:
	.seh_endproc
	.section	.text$_ZNK20wxObjectEventFunctor10IsMatchingERK14wxEventFunctor,"x"
	.linkonce discard
	.align 2
	.globl	_ZNK20wxObjectEventFunctor10IsMatchingERK14wxEventFunctor
	.def	_ZNK20wxObjectEventFunctor10IsMatchingERK14wxEventFunctor;	.scl	2;	.type	32;	.endef
	.seh_proc	_ZNK20wxObjectEventFunctor10IsMatchingERK14wxEventFunctor
_ZNK20wxObjectEventFunctor10IsMatchingERK14wxEventFunctor:
.LFB8538:
	.file 8 "../wxMSW-3.0.5_gcc810_x64_Dev/include/wx/event.h"
	.loc 8 249 18
	.cfi_startproc
	pushq	%rbp
	.seh_pushreg	%rbp
	.cfi_def_cfa_offset 16
	.cfi_offset 6, -16
	movq	%rsp, %rbp
	.seh_setframe	%rbp, 0
	.cfi_def_cfa_register 6
	subq	$64, %rsp
	.seh_stackalloc	64
	.seh_endprologue
	movq	%rcx, 16(%rbp)
	movq	%rdx, 24(%rbp)
.LBB11:
	.loc 8 251 83
	movq	16(%rbp), %rax
	movq	(%rax), %rax
	subq	$8, %rax
	.loc 8 251 58
	movq	(%rax), %rax
	movq	%rax, %rcx
	call	_ZNKSt9type_info4nameEv
	movq	%rax, %rdx
	leaq	-24(%rbp), %rax
	movq	%rax, %rcx
	call	_ZN16wxTypeIdentifierC1EPKc
	.loc 8 251 38
	movq	24(%rbp), %rax
	movq	(%rax), %rax
	subq	$8, %rax
	.loc 8 251 14
	movq	(%rax), %rax
	movq	%rax, %rcx
	call	_ZNKSt9type_info4nameEv
	movq	%rax, %rdx
	leaq	-16(%rbp), %rax
	movq	%rax, %rcx
	call	_ZN16wxTypeIdentifierC1EPKc
	.loc 8 251 55
	leaq	-24(%rbp), %rdx
	leaq	-16(%rbp), %rax
	movq	%rax, %rcx
	call	_ZN16wxTypeIdentifiereqERKS_
	.loc 8 251 9
	testb	%al, %al
	je	.L35
.LBB12:
	.loc 8 253 41
	movq	24(%rbp), %rax
	movq	%rax, -8(%rbp)
	.loc 8 262 40
	movq	16(%rbp), %rax
	movq	16(%rax), %rdx
	movq	-8(%rbp), %rax
	movq	16(%rax), %rax
	.loc 8 262 74
	cmpq	%rax, %rdx
	jne	.L36
	.loc 8 262 40 discriminator 1
	movq	16(%rbp), %rax
	movq	24(%rax), %rdx
	movq	-8(%rbp), %rax
	movq	24(%rax), %rax
	.loc 8 262 31 discriminator 1
	cmpq	%rax, %rdx
	je	.L37
	.loc 8 262 40 discriminator 4
	movq	16(%rbp), %rax
	movq	16(%rax), %rax
	.loc 8 262 31 discriminator 4
	testq	%rax, %rax
	je	.L37
.L36:
	.loc 8 262 70 discriminator 6
	movq	-8(%rbp), %rax
	movq	16(%rax), %rax
	.loc 8 262 49 discriminator 6
	testq	%rax, %rax
	jne	.L38
.L37:
	.loc 8 263 22 discriminator 7
	movq	16(%rbp), %rax
	movq	8(%rax), %rdx
	.loc 8 263 41 discriminator 7
	movq	-8(%rbp), %rax
	movq	8(%rax), %rax
	.loc 8 262 74 discriminator 7
	cmpq	%rax, %rdx
	je	.L39
	.loc 8 263 60
	movq	-8(%rbp), %rax
	movq	8(%rax), %rax
	.loc 8 263 51
	testq	%rax, %rax
	jne	.L38
.L39:
	.loc 8 262 74 discriminator 9
	movl	$1, %eax
	.loc 8 263 77 discriminator 9
	jmp	.L41
.L38:
	.loc 8 262 74 discriminator 8
	movl	$0, %eax
	.loc 8 263 77 discriminator 8
	jmp	.L41
.L35:
.LBE12:
	.loc 8 266 20
	movl	$0, %eax
.L41:
.LBE11:
	.loc 8 267 5
	addq	$64, %rsp
	popq	%rbp
	.cfi_restore 6
	.cfi_def_cfa 7, 8
	ret
	.cfi_endproc
.LFE8538:
	.seh_endproc
	.section	.text$_ZNK20wxObjectEventFunctor13GetEvtHandlerEv,"x"
	.linkonce discard
	.align 2
	.globl	_ZNK20wxObjectEventFunctor13GetEvtHandlerEv
	.def	_ZNK20wxObjectEventFunctor13GetEvtHandlerEv;	.scl	2;	.type	32;	.endef
	.seh_proc	_ZNK20wxObjectEventFunctor13GetEvtHandlerEv
_ZNK20wxObjectEventFunctor13GetEvtHandlerEv:
.LFB8539:
	.loc 8 269 27
	.cfi_startproc
	pushq	%rbp
	.seh_pushreg	%rbp
	.cfi_def_cfa_offset 16
	.cfi_offset 6, -16
	movq	%rsp, %rbp
	.seh_setframe	%rbp, 0
	.cfi_def_cfa_register 6
	.seh_endprologue
	movq	%rcx, 16(%rbp)
	.loc 8 270 18
	movq	16(%rbp), %rax
	movq	8(%rax), %rax
	.loc 8 270 29
	popq	%rbp
	.cfi_restore 6
	.cfi_def_cfa 7, 8
	ret
	.cfi_endproc
.LFE8539:
	.seh_endproc
	.section	.text$_ZNK20wxObjectEventFunctor12GetEvtMethodEv,"x"
	.linkonce discard
	.align 2
	.globl	_ZNK20wxObjectEventFunctor12GetEvtMethodEv
	.def	_ZNK20wxObjectEventFunctor12GetEvtMethodEv;	.scl	2;	.type	32;	.endef
	.seh_proc	_ZNK20wxObjectEventFunctor12GetEvtMethodEv
_ZNK20wxObjectEventFunctor12GetEvtMethodEv:
.LFB8540:
	.loc 8 272 29
	.cfi_startproc
	pushq	%rbp
	.seh_pushreg	%rbp
	.cfi_def_cfa_offset 16
	.cfi_offset 6, -16
	movq	%rsp, %rbp
	.seh_setframe	%rbp, 0
	.cfi_def_cfa_register 6
	.seh_endprologue
	movq	%rcx, 16(%rbp)
	movq	%rdx, 24(%rbp)
	.loc 8 273 18
	movq	16(%rbp), %rcx
	movq	24(%rbp), %rax
	movq	24(%rax), %rdx
	movq	16(%rax), %rax
	movq	%rax, (%rcx)
	movq	%rdx, 8(%rcx)
	.loc 8 273 28
	movq	16(%rbp), %rax
	popq	%rbp
	.cfi_restore 6
	.cfi_def_cfa 7, 8
	ret
	.cfi_endproc
.LFE8540:
	.seh_endproc
	.section	.text$_ZN12wxEvtHandler15AddPendingEventERK7wxEvent,"x"
	.linkonce discard
	.align 2
	.globl	_ZN12wxEvtHandler15AddPendingEventERK7wxEvent
	.def	_ZN12wxEvtHandler15AddPendingEventERK7wxEvent;	.scl	2;	.type	32;	.endef
	.seh_proc	_ZN12wxEvtHandler15AddPendingEventERK7wxEvent
_ZN12wxEvtHandler15AddPendingEventERK7wxEvent:
.LFB9222:
	.loc 8 3408 18
	.cfi_startproc
	pushq	%rbp
	.seh_pushreg	%rbp
	.cfi_def_cfa_offset 16
	.cfi_offset 6, -16
	pushq	%rbx
	.seh_pushreg	%rbx
	.cfi_def_cfa_offset 24
	.cfi_offset 3, -24
	subq	$40, %rsp
	.seh_stackalloc	40
	.cfi_def_cfa_offset 64
	leaq	128(%rsp), %rbp
	.seh_setframe	%rbp, 128
	.cfi_def_cfa 6, -64
	.seh_endprologue
	movq	%rcx, -64(%rbp)
	movq	%rdx, -56(%rbp)
	.loc 8 3416 33
	movq	-64(%rbp), %rax
	movq	(%rax), %rax
	addq	$64, %rax
	movq	(%rax), %rbx
	.loc 8 3416 32
	movq	-56(%rbp), %rax
	movq	(%rax), %rax
	addq	$40, %rax
	movq	(%rax), %rax
	.loc 8 3416 19
	movq	-56(%rbp), %rdx
	movq	%rdx, %rcx
	call	*%rax
.LVL1:
	movq	%rax, %rdx
	movq	-64(%rbp), %rcx
	call	*%rbx
.LVL2:
	.loc 8 3417 5
	nop
	addq	$40, %rsp
	popq	%rbx
	.cfi_restore 3
	popq	%rbp
	.cfi_restore 6
	.cfi_def_cfa 7, -24
	ret
	.cfi_endproc
.LFE9222:
	.seh_endproc
	.section	.text$_ZN12wxEvtHandler12TryValidatorER7wxEvent,"x"
	.linkonce discard
	.align 2
	.globl	_ZN12wxEvtHandler12TryValidatorER7wxEvent
	.def	_ZN12wxEvtHandler12TryValidatorER7wxEvent;	.scl	2;	.type	32;	.endef
	.seh_proc	_ZN12wxEvtHandler12TryValidatorER7wxEvent
_ZN12wxEvtHandler12TryValidatorER7wxEvent:
.LFB9246:
	.loc 8 3703 46
	.cfi_startproc
	pushq	%rbp
	.seh_pushreg	%rbp
	.cfi_def_cfa_offset 16
	.cfi_offset 6, -16
	movq	%rsp, %rbp
	.seh_setframe	%rbp, 0
	.cfi_def_cfa_register 6
	.seh_endprologue
	movq	%rcx, 16(%rbp)
	movq	%rdx, 24(%rbp)
	.loc 8 3703 79
	movl	$0, %eax
	.loc 8 3703 86
	popq	%rbp
	.cfi_restore 6
	.cfi_def_cfa 7, 8
	ret
	.cfi_endproc
.LFE9246:
	.seh_endproc
	.section	.text$_ZN12wxEvtHandler9TryParentER7wxEvent,"x"
	.linkonce discard
	.align 2
	.globl	_ZN12wxEvtHandler9TryParentER7wxEvent
	.def	_ZN12wxEvtHandler9TryParentER7wxEvent;	.scl	2;	.type	32;	.endef
	.seh_proc	_ZN12wxEvtHandler9TryParentER7wxEvent
_ZN12wxEvtHandler9TryParentER7wxEvent:
.LFB9247:
	.loc 8 3706 46
	.cfi_startproc
	pushq	%rbp
	.seh_pushreg	%rbp
	.cfi_def_cfa_offset 16
	.cfi_offset 6, -16
	movq	%rsp, %rbp
	.seh_setframe	%rbp, 0
	.cfi_def_cfa_register 6
	subq	$32, %rsp
	.seh_stackalloc	32
	.seh_endprologue
	movq	%rcx, 16(%rbp)
	movq	%rdx, 24(%rbp)
	.loc 8 3706 89
	movq	24(%rbp), %rax
	movq	%rax, %rdx
	movq	16(%rbp), %rcx
	call	_ZN12wxEvtHandler8DoTryAppER7wxEvent
	.loc 8 3706 98
	addq	$32, %rsp
	popq	%rbp
	.cfi_restore 6
	.cfi_def_cfa 7, 8
	ret
	.cfi_endproc
.LFE9247:
	.seh_endproc
	.section	.text$_ZN20wxObjectEventFunctorclEP12wxEvtHandlerR7wxEvent,"x"
	.linkonce discard
	.align 2
	.globl	_ZN20wxObjectEventFunctorclEP12wxEvtHandlerR7wxEvent
	.def	_ZN20wxObjectEventFunctorclEP12wxEvtHandlerR7wxEvent;	.scl	2;	.type	32;	.endef
	.seh_proc	_ZN20wxObjectEventFunctorclEP12wxEvtHandlerR7wxEvent
_ZN20wxObjectEventFunctorclEP12wxEvtHandlerR7wxEvent:
.LFB9338:
	.loc 8 3775 1
	.cfi_startproc
	pushq	%rbp
	.seh_pushreg	%rbp
	.cfi_def_cfa_offset 16
	.cfi_offset 6, -16
	movq	%rsp, %rbp
	.seh_setframe	%rbp, 0
	.cfi_def_cfa_register 6
	subq	$48, %rsp
	.seh_stackalloc	48
	.seh_endprologue
	movq	%rcx, 16(%rbp)
	movq	%rdx, 24(%rbp)
	movq	%r8, 32(%rbp)
	.loc 8 3776 40
	movq	16(%rbp), %rax
	movq	8(%rax), %rax
	.loc 8 3776 50
	testq	%rax, %rax
	je	.L52
	.loc 8 3776 50 is_stmt 0 discriminator 1
	movq	16(%rbp), %rax
	movq	8(%rax), %rax
	jmp	.L53
.L52:
	.loc 8 3776 50 discriminator 2
	movq	24(%rbp), %rax
.L53:
	.loc 8 3776 26 is_stmt 1 discriminator 4
	movq	%rax, -8(%rbp)
	.loc 8 3778 35 discriminator 4
	movq	16(%rbp), %rax
	movq	24(%rax), %rax
	.loc 8 3778 29 discriminator 4
	movq	%rax, %rdx
	movq	-8(%rbp), %rax
	leaq	(%rdx,%rax), %rcx
	.loc 8 3778 35 discriminator 4
	movq	16(%rbp), %rax
	movq	16(%rax), %rax
	andl	$1, %eax
	testq	%rax, %rax
	je	.L54
	.loc 8 3778 35 is_stmt 0 discriminator 1
	movq	16(%rbp), %rax
	movq	24(%rax), %rax
	movq	%rax, %rdx
	movq	-8(%rbp), %rax
	addq	%rdx, %rax
	movq	(%rax), %rdx
	movq	16(%rbp), %rax
	movq	16(%rax), %rax
	subq	$1, %rax
	addq	%rdx, %rax
	movq	(%rax), %rax
	jmp	.L55
.L54:
	.loc 8 3778 35 discriminator 2
	movq	16(%rbp), %rax
	movq	16(%rax), %rax
.L55:
	.loc 8 3778 29 is_stmt 1 discriminator 4
	movq	32(%rbp), %rdx
	call	*%rax
.LVL3:
	.loc 8 3779 1 discriminator 4
	nop
	addq	$48, %rsp
	popq	%rbp
	.cfi_restore 6
	.cfi_def_cfa 7, 8
	ret
	.cfi_endproc
.LFE9338:
	.seh_endproc
	.section .rdata,"dr"
_ZL19wxALPHA_TRANSPARENT:
	.space 1
_ZL14wxALPHA_OPAQUE:
	.byte	-1
	.section	.text$_ZN12wxWindowBase7SetNameERK8wxString,"x"
	.linkonce discard
	.align 2
	.globl	_ZN12wxWindowBase7SetNameERK8wxString
	.def	_ZN12wxWindowBase7SetNameERK8wxString;	.scl	2;	.type	32;	.endef
	.seh_proc	_ZN12wxWindowBase7SetNameERK8wxString
_ZN12wxWindowBase7SetNameERK8wxString:
.LFB9788:
	.file 9 "../wxMSW-3.0.5_gcc810_x64_Dev/include/wx/window.h"
	.loc 9 215 18
	.cfi_startproc
	pushq	%rbp
	.seh_pushreg	%rbp
	.cfi_def_cfa_offset 16
	.cfi_offset 6, -16
	movq	%rsp, %rbp
	.seh_setframe	%rbp, 0
	.cfi_def_cfa_register 6
	subq	$32, %rsp
	.seh_stackalloc	32
	.seh_endprologue
	movq	%rcx, 16(%rbp)
	movq	%rdx, 24(%rbp)
	.loc 9 215 67
	movq	16(%rbp), %rax
	addq	$408, %rax
	movq	24(%rbp), %rdx
	movq	%rax, %rcx
	call	_ZN8wxStringaSERKS_
	.loc 9 215 73
	nop
	addq	$32, %rsp
	popq	%rbp
	.cfi_restore 6
	.cfi_def_cfa 7, 8
	ret
	.cfi_endproc
.LFE9788:
	.seh_endproc
	.section	.text$_ZNK12wxWindowBase7GetNameEv,"x"
	.linkonce discard
	.align 2
	.globl	_ZNK12wxWindowBase7GetNameEv
	.def	_ZNK12wxWindowBase7GetNameEv;	.scl	2;	.type	32;	.endef
	.seh_proc	_ZNK12wxWindowBase7GetNameEv
_ZNK12wxWindowBase7GetNameEv:
.LFB9789:
	.loc 9 216 22
	.cfi_startproc
	pushq	%rbp
	.seh_pushreg	%rbp
	.cfi_def_cfa_offset 16
	.cfi_offset 6, -16
	movq	%rsp, %rbp
	.seh_setframe	%rbp, 0
	.cfi_def_cfa_register 6
	subq	$32, %rsp
	.seh_stackalloc	32
	.seh_endprologue
	movq	%rcx, 16(%rbp)
	movq	%rdx, 24(%rbp)
	.loc 9 216 47
	movq	24(%rbp), %rax
	addq	$408, %rax
	movq	%rax, %rdx
	movq	16(%rbp), %rcx
	call	_ZN8wxStringC1ERKS_
	.loc 9 216 61
	movq	16(%rbp), %rax
	addq	$32, %rsp
	popq	%rbp
	.cfi_restore 6
	.cfi_def_cfa 7, 8
	ret
	.cfi_endproc
.LFE9789:
	.seh_endproc
	.section	.text$_ZNK12wxWindowBase16GetWindowVariantEv,"x"
	.linkonce discard
	.align 2
	.globl	_ZNK12wxWindowBase16GetWindowVariantEv
	.def	_ZNK12wxWindowBase16GetWindowVariantEv;	.scl	2;	.type	32;	.endef
	.seh_proc	_ZNK12wxWindowBase16GetWindowVariantEv
_ZNK12wxWindowBase16GetWindowVariantEv:
.LFB9790:
	.loc 9 221 21
	.cfi_startproc
	pushq	%rbp
	.seh_pushreg	%rbp
	.cfi_def_cfa_offset 16
	.cfi_offset 6, -16
	movq	%rsp, %rbp
	.seh_setframe	%rbp, 0
	.cfi_def_cfa_register 6
	.seh_endprologue
	movq	%rcx, 16(%rbp)
	.loc 9 221 55
	movq	16(%rbp), %rax
	movl	504(%rax), %eax
	.loc 9 221 72
	popq	%rbp
	.cfi_restore 6
	.cfi_def_cfa 7, 8
	ret
	.cfi_endproc
.LFE9790:
	.seh_endproc
	.section	.text$_ZNK12wxWindowBase13GetClientSizeEv,"x"
	.linkonce discard
	.align 2
	.globl	_ZNK12wxWindowBase13GetClientSizeEv
	.def	_ZNK12wxWindowBase13GetClientSizeEv;	.scl	2;	.type	32;	.endef
	.seh_proc	_ZNK12wxWindowBase13GetClientSizeEv
_ZNK12wxWindowBase13GetClientSizeEv:
.LFB9814:
	.loc 9 332 12
	.cfi_startproc
	pushq	%rbp
	.seh_pushreg	%rbp
	.cfi_def_cfa_offset 16
	.cfi_offset 6, -16
	movq	%rsp, %rbp
	.seh_setframe	%rbp, 0
	.cfi_def_cfa_register 6
	subq	$48, %rsp
	.seh_stackalloc	48
	.seh_endprologue
	movq	%rcx, 16(%rbp)
	.loc 9 335 31
	movq	16(%rbp), %rax
	movq	(%rax), %rax
	addq	$1328, %rax
	movq	(%rax), %r9
	.loc 9 335 24
	leaq	-16(%rbp), %rdx
	leaq	-12(%rbp), %rax
	movq	%rdx, %r8
	movq	%rax, %rdx
	movq	16(%rbp), %rcx
	call	*%r9
.LVL4:
	.loc 9 337 16
	movl	-16(%rbp), %ecx
	movl	-12(%rbp), %edx
	leaq	-8(%rbp), %rax
	movl	%ecx, %r8d
	movq	%rax, %rcx
	call	_ZN6wxSizeC1Eii
	.loc 9 337 27
	movq	-8(%rbp), %rax
	.loc 9 338 5
	addq	$48, %rsp
	popq	%rbp
	.cfi_restore 6
	.cfi_def_cfa 7, 8
	ret
	.cfi_endproc
.LFE9814:
	.seh_endproc
	.section	.text$_ZN12wxWindowBase12SetSizeHintsEiiiiii,"x"
	.linkonce discard
	.align 2
	.globl	_ZN12wxWindowBase12SetSizeHintsEiiiiii
	.def	_ZN12wxWindowBase12SetSizeHintsEiiiiii;	.scl	2;	.type	32;	.endef
	.seh_proc	_ZN12wxWindowBase12SetSizeHintsEiiiiii
_ZN12wxWindowBase12SetSizeHintsEiiiiii:
.LFB9826:
	.loc 9 446 18
	.cfi_startproc
	pushq	%rbp
	.seh_pushreg	%rbp
	.cfi_def_cfa_offset 16
	.cfi_offset 6, -16
	movq	%rsp, %rbp
	.seh_setframe	%rbp, 0
	.cfi_def_cfa_register 6
	subq	$64, %rsp
	.seh_stackalloc	64
	.seh_endprologue
	movq	%rcx, 16(%rbp)
	movl	%edx, 24(%rbp)
	movl	%r8d, 32(%rbp)
	movl	%r9d, 40(%rbp)
	.loc 9 449 56
	movq	16(%rbp), %rax
	movq	(%rax), %rax
	addq	$1384, %rax
	movq	(%rax), %rax
	.loc 9 449 21
	movl	40(%rbp), %r9d
	movl	32(%rbp), %r8d
	movl	24(%rbp), %edx
	movl	64(%rbp), %ecx
	movl	%ecx, 48(%rsp)
	movl	56(%rbp), %ecx
	movl	%ecx, 40(%rsp)
	movl	48(%rbp), %ecx
	movl	%ecx, 32(%rsp)
	movq	16(%rbp), %rcx
	call	*%rax
.LVL5:
	.loc 9 449 59
	nop
	addq	$64, %rsp
	popq	%rbp
	.cfi_restore 6
	.cfi_def_cfa 7, 8
	ret
	.cfi_endproc
.LFE9826:
	.seh_endproc
	.section	.text$_ZN12wxWindowBase16SetMinClientSizeERK6wxSize,"x"
	.linkonce discard
	.align 2
	.globl	_ZN12wxWindowBase16SetMinClientSizeERK6wxSize
	.def	_ZN12wxWindowBase16SetMinClientSizeERK6wxSize;	.scl	2;	.type	32;	.endef
	.seh_proc	_ZN12wxWindowBase16SetMinClientSizeERK6wxSize
_ZN12wxWindowBase16SetMinClientSizeERK6wxSize:
.LFB9828:
	.loc 9 473 18
	.cfi_startproc
	pushq	%rbp
	.seh_pushreg	%rbp
	.cfi_def_cfa_offset 16
	.cfi_offset 6, -16
	pushq	%rbx
	.seh_pushreg	%rbx
	.cfi_def_cfa_offset 24
	.cfi_offset 3, -24
	subq	$56, %rsp
	.seh_stackalloc	56
	.cfi_def_cfa_offset 80
	leaq	128(%rsp), %rbp
	.seh_setframe	%rbp, 128
	.cfi_def_cfa 6, -48
	.seh_endprologue
	movq	%rcx, -48(%rbp)
	movq	%rdx, -40(%rbp)
	.loc 9 474 46
	movq	-48(%rbp), %rax
	movq	(%rax), %rax
	addq	$312, %rax
	movq	(%rax), %rbx
	.loc 9 474 45
	movq	-48(%rbp), %rax
	movq	(%rax), %rax
	addq	$256, %rax
	movq	(%rax), %rax
	movq	-40(%rbp), %rdx
	movq	-48(%rbp), %rcx
	call	*%rax
.LVL6:
	movq	%rax, -88(%rbp)
	.loc 9 474 21
	leaq	-88(%rbp), %rax
	movq	%rax, %rdx
	movq	-48(%rbp), %rcx
	call	*%rbx
.LVL7:
	.loc 9 474 49
	nop
	addq	$56, %rsp
	popq	%rbx
	.cfi_restore 3
	popq	%rbp
	.cfi_restore 6
	.cfi_def_cfa 7, -40
	ret
	.cfi_endproc
.LFE9828:
	.seh_endproc
	.section	.text$_ZN12wxWindowBase16SetMaxClientSizeERK6wxSize,"x"
	.linkonce discard
	.align 2
	.globl	_ZN12wxWindowBase16SetMaxClientSizeERK6wxSize
	.def	_ZN12wxWindowBase16SetMaxClientSizeERK6wxSize;	.scl	2;	.type	32;	.endef
	.seh_proc	_ZN12wxWindowBase16SetMaxClientSizeERK6wxSize
_ZN12wxWindowBase16SetMaxClientSizeERK6wxSize:
.LFB9829:
	.loc 9 475 18
	.cfi_startproc
	pushq	%rbp
	.seh_pushreg	%rbp
	.cfi_def_cfa_offset 16
	.cfi_offset 6, -16
	pushq	%rbx
	.seh_pushreg	%rbx
	.cfi_def_cfa_offset 24
	.cfi_offset 3, -24
	subq	$56, %rsp
	.seh_stackalloc	56
	.cfi_def_cfa_offset 80
	leaq	128(%rsp), %rbp
	.seh_setframe	%rbp, 128
	.cfi_def_cfa 6, -48
	.seh_endprologue
	movq	%rcx, -48(%rbp)
	movq	%rdx, -40(%rbp)
	.loc 9 476 46
	movq	-48(%rbp), %rax
	movq	(%rax), %rax
	addq	$320, %rax
	movq	(%rax), %rbx
	.loc 9 476 45
	movq	-48(%rbp), %rax
	movq	(%rax), %rax
	addq	$256, %rax
	movq	(%rax), %rax
	movq	-40(%rbp), %rdx
	movq	-48(%rbp), %rcx
	call	*%rax
.LVL8:
	movq	%rax, -88(%rbp)
	.loc 9 476 21
	leaq	-88(%rbp), %rax
	movq	%rax, %rdx
	movq	-48(%rbp), %rcx
	call	*%rbx
.LVL9:
	.loc 9 476 49
	nop
	addq	$56, %rsp
	popq	%rbx
	.cfi_restore 3
	popq	%rbp
	.cfi_restore 6
	.cfi_def_cfa 7, -40
	ret
	.cfi_endproc
.LFE9829:
	.seh_endproc
	.section	.text$_ZNK12wxWindowBase10GetMinSizeEv,"x"
	.linkonce discard
	.align 2
	.globl	_ZNK12wxWindowBase10GetMinSizeEv
	.def	_ZNK12wxWindowBase10GetMinSizeEv;	.scl	2;	.type	32;	.endef
	.seh_proc	_ZNK12wxWindowBase10GetMinSizeEv
_ZNK12wxWindowBase10GetMinSizeEv:
.LFB9830:
	.loc 9 481 20
	.cfi_startproc
	pushq	%rbp
	.seh_pushreg	%rbp
	.cfi_def_cfa_offset 16
	.cfi_offset 6, -16
	movq	%rsp, %rbp
	.seh_setframe	%rbp, 0
	.cfi_def_cfa_register 6
	subq	$48, %rsp
	.seh_stackalloc	48
	.seh_endprologue
	movq	%rcx, 16(%rbp)
	.loc 9 481 67
	movq	16(%rbp), %rax
	movl	180(%rax), %ecx
	.loc 9 481 55
	movq	16(%rbp), %rax
	movl	176(%rax), %edx
	.loc 9 481 48
	leaq	-8(%rbp), %rax
	movl	%ecx, %r8d
	movq	%rax, %rcx
	call	_ZN6wxSizeC1Eii
	.loc 9 481 78
	movq	-8(%rbp), %rax
	.loc 9 481 81
	addq	$48, %rsp
	popq	%rbp
	.cfi_restore 6
	.cfi_def_cfa 7, 8
	ret
	.cfi_endproc
.LFE9830:
	.seh_endproc
	.section	.text$_ZNK12wxWindowBase10GetMaxSizeEv,"x"
	.linkonce discard
	.align 2
	.globl	_ZNK12wxWindowBase10GetMaxSizeEv
	.def	_ZNK12wxWindowBase10GetMaxSizeEv;	.scl	2;	.type	32;	.endef
	.seh_proc	_ZNK12wxWindowBase10GetMaxSizeEv
_ZNK12wxWindowBase10GetMaxSizeEv:
.LFB9831:
	.loc 9 482 20
	.cfi_startproc
	pushq	%rbp
	.seh_pushreg	%rbp
	.cfi_def_cfa_offset 16
	.cfi_offset 6, -16
	movq	%rsp, %rbp
	.seh_setframe	%rbp, 0
	.cfi_def_cfa_register 6
	subq	$48, %rsp
	.seh_stackalloc	48
	.seh_endprologue
	movq	%rcx, 16(%rbp)
	.loc 9 482 67
	movq	16(%rbp), %rax
	movl	188(%rax), %ecx
	.loc 9 482 55
	movq	16(%rbp), %rax
	movl	184(%rax), %edx
	.loc 9 482 48
	leaq	-8(%rbp), %rax
	movl	%ecx, %r8d
	movq	%rax, %rcx
	call	_ZN6wxSizeC1Eii
	.loc 9 482 78
	movq	-8(%rbp), %rax
	.loc 9 482 81
	addq	$48, %rsp
	popq	%rbp
	.cfi_restore 6
	.cfi_def_cfa 7, 8
	ret
	.cfi_endproc
.LFE9831:
	.seh_endproc
	.section	.text$_ZNK12wxWindowBase16GetMinClientSizeEv,"x"
	.linkonce discard
	.align 2
	.globl	_ZNK12wxWindowBase16GetMinClientSizeEv
	.def	_ZNK12wxWindowBase16GetMinClientSizeEv;	.scl	2;	.type	32;	.endef
	.seh_proc	_ZNK12wxWindowBase16GetMinClientSizeEv
_ZNK12wxWindowBase16GetMinClientSizeEv:
.LFB9832:
	.loc 9 485 20
	.cfi_startproc
	pushq	%rbp
	.seh_pushreg	%rbp
	.cfi_def_cfa_offset 16
	.cfi_offset 6, -16
	pushq	%rbx
	.seh_pushreg	%rbx
	.cfi_def_cfa_offset 24
	.cfi_offset 3, -24
	subq	$56, %rsp
	.seh_stackalloc	56
	.cfi_def_cfa_offset 80
	leaq	128(%rsp), %rbp
	.seh_setframe	%rbp, 128
	.cfi_def_cfa 6, -48
	.seh_endprologue
	movq	%rcx, -48(%rbp)
	.loc 9 486 49
	movq	-48(%rbp), %rax
	movq	(%rax), %rax
	addq	$264, %rax
	movq	(%rax), %rbx
	.loc 9 486 48
	movq	-48(%rbp), %rax
	movq	(%rax), %rax
	addq	$344, %rax
	movq	(%rax), %rax
	movq	-48(%rbp), %rcx
	call	*%rax
.LVL10:
	movq	%rax, -88(%rbp)
	.loc 9 486 49
	leaq	-88(%rbp), %rax
	movq	%rax, %rdx
	movq	-48(%rbp), %rcx
	call	*%rbx
.LVL11:
	.loc 9 486 52
	addq	$56, %rsp
	popq	%rbx
	.cfi_restore 3
	popq	%rbp
	.cfi_restore 6
	.cfi_def_cfa 7, -40
	ret
	.cfi_endproc
.LFE9832:
	.seh_endproc
	.section	.text$_ZNK12wxWindowBase16GetMaxClientSizeEv,"x"
	.linkonce discard
	.align 2
	.globl	_ZNK12wxWindowBase16GetMaxClientSizeEv
	.def	_ZNK12wxWindowBase16GetMaxClientSizeEv;	.scl	2;	.type	32;	.endef
	.seh_proc	_ZNK12wxWindowBase16GetMaxClientSizeEv
_ZNK12wxWindowBase16GetMaxClientSizeEv:
.LFB9833:
	.loc 9 487 20
	.cfi_startproc
	pushq	%rbp
	.seh_pushreg	%rbp
	.cfi_def_cfa_offset 16
	.cfi_offset 6, -16
	pushq	%rbx
	.seh_pushreg	%rbx
	.cfi_def_cfa_offset 24
	.cfi_offset 3, -24
	subq	$56, %rsp
	.seh_stackalloc	56
	.cfi_def_cfa_offset 80
	leaq	128(%rsp), %rbp
	.seh_setframe	%rbp, 128
	.cfi_def_cfa 6, -48
	.seh_endprologue
	movq	%rcx, -48(%rbp)
	.loc 9 488 49
	movq	-48(%rbp), %rax
	movq	(%rax), %rax
	addq	$264, %rax
	movq	(%rax), %rbx
	.loc 9 488 48
	movq	-48(%rbp), %rax
	movq	(%rax), %rax
	addq	$352, %rax
	movq	(%rax), %rax
	movq	-48(%rbp), %rcx
	call	*%rax
.LVL12:
	movq	%rax, -88(%rbp)
	.loc 9 488 49
	leaq	-88(%rbp), %rax
	movq	%rax, %rdx
	movq	-48(%rbp), %rcx
	call	*%rbx
.LVL13:
	.loc 9 488 52
	addq	$56, %rsp
	popq	%rbx
	.cfi_restore 3
	popq	%rbp
	.cfi_restore 6
	.cfi_def_cfa 7, -40
	ret
	.cfi_endproc
.LFE9833:
	.seh_endproc
	.section	.text$_ZNK12wxWindowBase18GetBestVirtualSizeEv,"x"
	.linkonce discard
	.align 2
	.globl	_ZNK12wxWindowBase18GetBestVirtualSizeEv
	.def	_ZNK12wxWindowBase18GetBestVirtualSizeEv;	.scl	2;	.type	32;	.endef
	.seh_proc	_ZNK12wxWindowBase18GetBestVirtualSizeEv
_ZNK12wxWindowBase18GetBestVirtualSizeEv:
.LFB9842:
	.loc 9 527 20
	.cfi_startproc
	pushq	%rbp
	.seh_pushreg	%rbp
	.cfi_def_cfa_offset 16
	.cfi_offset 6, -16
	pushq	%rbx
	.seh_pushreg	%rbx
	.cfi_def_cfa_offset 24
	.cfi_offset 3, -24
	subq	$72, %rsp
	.seh_stackalloc	72
	.cfi_def_cfa_offset 96
	leaq	128(%rsp), %rbp
	.seh_setframe	%rbp, 128
	.cfi_def_cfa 6, -32
	.seh_endprologue
	movq	%rcx, -32(%rbp)
	.loc 9 529 38
	movq	-32(%rbp), %rcx
	call	_ZNK12wxWindowBase13GetClientSizeEv
	movq	%rax, -80(%rbp)
	.loc 9 530 34
	movq	-32(%rbp), %rcx
	call	_ZNK12wxWindowBase11GetBestSizeEv
	movq	%rax, -88(%rbp)
	.loc 9 532 16
	movl	-84(%rbp), %edx
	movl	-76(%rbp), %eax
	movl	%eax, %ecx
	call	_Z5wxMaxIiiEN24wxImplicitConversionTypeIT_T0_E5valueES1_S2_
	movl	%eax, %ebx
	movl	-88(%rbp), %edx
	movl	-80(%rbp), %eax
	movl	%eax, %ecx
	call	_Z5wxMaxIiiEN24wxImplicitConversionTypeIT_T0_E5valueES1_S2_
	movl	%eax, %edx
	leaq	-72(%rbp), %rax
	movl	%ebx, %r8d
	movq	%rax, %rcx
	call	_ZN6wxSizeC1Eii
	.loc 9 532 77
	movq	-72(%rbp), %rax
	.loc 9 533 5
	addq	$72, %rsp
	popq	%rbx
	.cfi_restore 3
	popq	%rbp
	.cfi_restore 6
	.cfi_def_cfa 7, -56
	ret
	.cfi_endproc
.LFE9842:
	.seh_endproc
	.section	.text$_ZNK12wxWindowBase21GetContentScaleFactorEv,"x"
	.linkonce discard
	.align 2
	.globl	_ZNK12wxWindowBase21GetContentScaleFactorEv
	.def	_ZNK12wxWindowBase21GetContentScaleFactorEv;	.scl	2;	.type	32;	.endef
	.seh_proc	_ZNK12wxWindowBase21GetContentScaleFactorEv
_ZNK12wxWindowBase21GetContentScaleFactorEv:
.LFB9843:
	.loc 9 537 20
	.cfi_startproc
	pushq	%rbp
	.seh_pushreg	%rbp
	.cfi_def_cfa_offset 16
	.cfi_offset 6, -16
	movq	%rsp, %rbp
	.seh_setframe	%rbp, 0
	.cfi_def_cfa_register 6
	.seh_endprologue
	movq	%rcx, 16(%rbp)
	.loc 9 538 14
	movsd	.LC1(%rip), %xmm0
	movq	%xmm0, %rax
	.loc 9 538 19
	movq	%rax, %xmm0
	popq	%rbp
	.cfi_restore 6
	.cfi_def_cfa 7, 8
	ret
	.cfi_endproc
.LFE9843:
	.seh_endproc
	.section	.text$_ZNK12wxWindowBase7IsShownEv,"x"
	.linkonce discard
	.align 2
	.globl	_ZNK12wxWindowBase7IsShownEv
	.def	_ZNK12wxWindowBase7IsShownEv;	.scl	2;	.type	32;	.endef
	.seh_proc	_ZNK12wxWindowBase7IsShownEv
_ZNK12wxWindowBase7IsShownEv:
.LFB9858:
	.loc 9 641 18
	.cfi_startproc
	pushq	%rbp
	.seh_pushreg	%rbp
	.cfi_def_cfa_offset 16
	.cfi_offset 6, -16
	movq	%rsp, %rbp
	.seh_setframe	%rbp, 0
	.cfi_def_cfa_register 6
	.seh_endprologue
	movq	%rcx, 16(%rbp)
	.loc 9 641 43
	movq	16(%rbp), %rax
	movzbl	392(%rax), %eax
	shrb	%al
	andl	$1, %eax
	.loc 9 641 54
	popq	%rbp
	.cfi_restore 6
	.cfi_def_cfa 7, 8
	ret
	.cfi_endproc
.LFE9858:
	.seh_endproc
	.section	.text$_ZNK12wxWindowBase18GetWindowStyleFlagEv,"x"
	.linkonce discard
	.align 2
	.globl	_ZNK12wxWindowBase18GetWindowStyleFlagEv
	.def	_ZNK12wxWindowBase18GetWindowStyleFlagEv;	.scl	2;	.type	32;	.endef
	.seh_proc	_ZNK12wxWindowBase18GetWindowStyleFlagEv
_ZNK12wxWindowBase18GetWindowStyleFlagEv:
.LFB9861:
	.loc 9 665 18
	.cfi_startproc
	pushq	%rbp
	.seh_pushreg	%rbp
	.cfi_def_cfa_offset 16
	.cfi_offset 6, -16
	movq	%rsp, %rbp
	.seh_setframe	%rbp, 0
	.cfi_def_cfa_register 6
	.seh_endprologue
	movq	%rcx, 16(%rbp)
	.loc 9 665 54
	movq	16(%rbp), %rax
	movl	396(%rax), %eax
	.loc 9 665 69
	popq	%rbp
	.cfi_restore 6
	.cfi_def_cfa 7, 8
	ret
	.cfi_endproc
.LFE9861:
	.seh_endproc
	.section	.text$_ZNK12wxWindowBase7HasFlagEi,"x"
	.linkonce discard
	.align 2
	.globl	_ZNK12wxWindowBase7HasFlagEi
	.def	_ZNK12wxWindowBase7HasFlagEi;	.scl	2;	.type	32;	.endef
	.seh_proc	_ZNK12wxWindowBase7HasFlagEi
_ZNK12wxWindowBase7HasFlagEi:
.LFB9864:
	.loc 9 672 10
	.cfi_startproc
	pushq	%rbp
	.seh_pushreg	%rbp
	.cfi_def_cfa_offset 16
	.cfi_offset 6, -16
	movq	%rsp, %rbp
	.seh_setframe	%rbp, 0
	.cfi_def_cfa_register 6
	.seh_endprologue
	movq	%rcx, 16(%rbp)
	movl	%edx, 24(%rbp)
	.loc 9 672 44
	movq	16(%rbp), %rax
	movl	396(%rax), %eax
	.loc 9 672 58
	andl	24(%rbp), %eax
	.loc 9 672 69
	testl	%eax, %eax
	setne	%al
	.loc 9 672 72
	popq	%rbp
	.cfi_restore 6
	.cfi_def_cfa 7, 8
	ret
	.cfi_endproc
.LFE9864:
	.seh_endproc
	.section	.text$_ZNK12wxWindowBase10IsRetainedEv,"x"
	.linkonce discard
	.align 2
	.globl	_ZNK12wxWindowBase10IsRetainedEv
	.def	_ZNK12wxWindowBase10IsRetainedEv;	.scl	2;	.type	32;	.endef
	.seh_proc	_ZNK12wxWindowBase10IsRetainedEv
_ZNK12wxWindowBase10IsRetainedEv:
.LFB9865:
	.loc 9 673 18
	.cfi_startproc
	pushq	%rbp
	.seh_pushreg	%rbp
	.cfi_def_cfa_offset 16
	.cfi_offset 6, -16
	movq	%rsp, %rbp
	.seh_setframe	%rbp, 0
	.cfi_def_cfa_register 6
	subq	$32, %rsp
	.seh_stackalloc	32
	.seh_endprologue
	movq	%rcx, 16(%rbp)
	.loc 9 673 53
	movl	$0, %edx
	movq	16(%rbp), %rcx
	call	_ZNK12wxWindowBase7HasFlagEi
	.loc 9 673 67
	addq	$32, %rsp
	popq	%rbp
	.cfi_restore 6
	.cfi_def_cfa 7, 8
	ret
	.cfi_endproc
.LFE9865:
	.seh_endproc
	.section	.text$_ZN12wxWindowBase15SetThemeEnabledEb,"x"
	.linkonce discard
	.align 2
	.globl	_ZN12wxWindowBase15SetThemeEnabledEb
	.def	_ZN12wxWindowBase15SetThemeEnabledEb;	.scl	2;	.type	32;	.endef
	.seh_proc	_ZN12wxWindowBase15SetThemeEnabledEb
_ZN12wxWindowBase15SetThemeEnabledEb:
.LFB9869:
	.loc 9 694 18
	.cfi_startproc
	pushq	%rbp
	.seh_pushreg	%rbp
	.cfi_def_cfa_offset 16
	.cfi_offset 6, -16
	movq	%rsp, %rbp
	.seh_setframe	%rbp, 0
	.cfi_def_cfa_register 6
	.seh_endprologue
	movq	%rcx, 16(%rbp)
	movl	%edx, %eax
	movb	%al, 24(%rbp)
	.loc 9 694 69
	movq	16(%rbp), %rdx
	movzbl	24(%rbp), %eax
	movb	%al, 456(%rdx)
	.loc 9 694 84
	nop
	popq	%rbp
	.cfi_restore 6
	.cfi_def_cfa 7, 8
	ret
	.cfi_endproc
.LFE9869:
	.seh_endproc
	.section	.text$_ZNK12wxWindowBase15GetThemeEnabledEv,"x"
	.linkonce discard
	.align 2
	.globl	_ZNK12wxWindowBase15GetThemeEnabledEv
	.def	_ZNK12wxWindowBase15GetThemeEnabledEv;	.scl	2;	.type	32;	.endef
	.seh_proc	_ZNK12wxWindowBase15GetThemeEnabledEv
_ZNK12wxWindowBase15GetThemeEnabledEv:
.LFB9870:
	.loc 9 695 18
	.cfi_startproc
	pushq	%rbp
	.seh_pushreg	%rbp
	.cfi_def_cfa_offset 16
	.cfi_offset 6, -16
	movq	%rsp, %rbp
	.seh_setframe	%rbp, 0
	.cfi_def_cfa_register 6
	.seh_endprologue
	movq	%rcx, 16(%rbp)
	.loc 9 695 51
	movq	16(%rbp), %rax
	movzbl	456(%rax), %eax
	.loc 9 695 67
	popq	%rbp
	.cfi_restore 6
	.cfi_def_cfa 7, 8
	ret
	.cfi_endproc
.LFE9870:
	.seh_endproc
	.section	.text$_ZNK12wxWindowBase12CanBeFocusedEv,"x"
	.linkonce discard
	.align 2
	.globl	_ZNK12wxWindowBase12CanBeFocusedEv
	.def	_ZNK12wxWindowBase12CanBeFocusedEv;	.scl	2;	.type	32;	.endef
	.seh_proc	_ZNK12wxWindowBase12CanBeFocusedEv
_ZNK12wxWindowBase12CanBeFocusedEv:
.LFB9875:
	.loc 9 744 18
	.cfi_startproc
	pushq	%rbp
	.seh_pushreg	%rbp
	.cfi_def_cfa_offset 16
	.cfi_offset 6, -16
	movq	%rsp, %rbp
	.seh_setframe	%rbp, 0
	.cfi_def_cfa_register 6
	subq	$32, %rsp
	.seh_stackalloc	32
	.seh_endprologue
	movq	%rcx, 16(%rbp)
	.loc 9 744 56
	movq	16(%rbp), %rax
	movq	(%rax), %rax
	addq	$480, %rax
	movq	(%rax), %rax
	.loc 9 744 55
	movq	16(%rbp), %rcx
	call	*%rax
.LVL14:
	.loc 9 744 58
	testb	%al, %al
	je	.L90
	.loc 9 744 70 discriminator 1
	movq	16(%rbp), %rcx
	call	_ZNK12wxWindowBase9IsEnabledEv
	.loc 9 744 58 discriminator 1
	testb	%al, %al
	je	.L90
	.loc 9 744 58 is_stmt 0 discriminator 3
	movl	$1, %eax
	jmp	.L91
.L90:
	.loc 9 744 58 discriminator 4
	movl	$0, %eax
.L91:
	.loc 9 744 74 is_stmt 1 discriminator 6
	addq	$32, %rsp
	popq	%rbp
	.cfi_restore 6
	.cfi_def_cfa 7, 8
	ret
	.cfi_endproc
.LFE9875:
	.seh_endproc
	.section	.text$_ZN12wxWindowBase11SetCanFocusEb,"x"
	.linkonce discard
	.align 2
	.globl	_ZN12wxWindowBase11SetCanFocusEb
	.def	_ZN12wxWindowBase11SetCanFocusEb;	.scl	2;	.type	32;	.endef
	.seh_proc	_ZN12wxWindowBase11SetCanFocusEb
_ZN12wxWindowBase11SetCanFocusEb:
.LFB9879:
	.loc 9 762 18
	.cfi_startproc
	pushq	%rbp
	.seh_pushreg	%rbp
	.cfi_def_cfa_offset 16
	.cfi_offset 6, -16
	movq	%rsp, %rbp
	.seh_setframe	%rbp, 0
	.cfi_def_cfa_register 6
	.seh_endprologue
	movq	%rcx, 16(%rbp)
	movl	%edx, %eax
	movb	%al, 24(%rbp)
	.loc 9 762 39
	nop
	popq	%rbp
	.cfi_restore 6
	.cfi_def_cfa 7, 8
	ret
	.cfi_endproc
.LFE9879:
	.seh_endproc
	.section	.text$_ZNK12wxWindowBase17IsClientAreaChildEPK8wxWindow,"x"
	.linkonce discard
	.align 2
	.globl	_ZNK12wxWindowBase17IsClientAreaChildEPK8wxWindow
	.def	_ZNK12wxWindowBase17IsClientAreaChildEPK8wxWindow;	.scl	2;	.type	32;	.endef
	.seh_proc	_ZNK12wxWindowBase17IsClientAreaChildEPK8wxWindow
_ZNK12wxWindowBase17IsClientAreaChildEPK8wxWindow:
.LFB9890:
	.loc 9 824 18
	.cfi_startproc
	pushq	%rbp
	.seh_pushreg	%rbp
	.cfi_def_cfa_offset 16
	.cfi_offset 6, -16
	movq	%rsp, %rbp
	.seh_setframe	%rbp, 0
	.cfi_def_cfa_register 6
	.seh_endprologue
	movq	%rcx, 16(%rbp)
	movq	%rdx, 24(%rbp)
	.loc 9 825 18
	movl	$1, %eax
	.loc 9 825 24
	popq	%rbp
	.cfi_restore 6
	.cfi_def_cfa 7, 8
	ret
	.cfi_endproc
.LFE9890:
	.seh_endproc
	.section	.text$_ZN12wxWindowBase12GetValidatorEv,"x"
	.linkonce discard
	.align 2
	.globl	_ZN12wxWindowBase12GetValidatorEv
	.def	_ZN12wxWindowBase12GetValidatorEv;	.scl	2;	.type	32;	.endef
	.seh_proc	_ZN12wxWindowBase12GetValidatorEv
_ZN12wxWindowBase12GetValidatorEv:
.LFB9894:
	.loc 9 924 26
	.cfi_startproc
	pushq	%rbp
	.seh_pushreg	%rbp
	.cfi_def_cfa_offset 16
	.cfi_offset 6, -16
	movq	%rsp, %rbp
	.seh_setframe	%rbp, 0
	.cfi_def_cfa_register 6
	.seh_endprologue
	movq	%rcx, 16(%rbp)
	.loc 9 924 50
	movq	16(%rbp), %rax
	movq	200(%rax), %rax
	.loc 9 924 69
	popq	%rbp
	.cfi_restore 6
	.cfi_def_cfa 7, 8
	ret
	.cfi_endproc
.LFE9894:
	.seh_endproc
	.section	.text$_ZN18wxAcceleratorTableaSERKS_,"x"
	.linkonce discard
	.align 2
	.globl	_ZN18wxAcceleratorTableaSERKS_
	.def	_ZN18wxAcceleratorTableaSERKS_;	.scl	2;	.type	32;	.endef
	.seh_proc	_ZN18wxAcceleratorTableaSERKS_
_ZN18wxAcceleratorTableaSERKS_:
.LFB9896:
	.file 10 "../wxMSW-3.0.5_gcc810_x64_Dev/include/wx/msw/accel.h"
	.loc 10 20 7
	.cfi_startproc
	pushq	%rbp
	.seh_pushreg	%rbp
	.cfi_def_cfa_offset 16
	.cfi_offset 6, -16
	movq	%rsp, %rbp
	.seh_setframe	%rbp, 0
	.cfi_def_cfa_register 6
	subq	$32, %rsp
	.seh_stackalloc	32
	.seh_endprologue
	movq	%rcx, 16(%rbp)
	movq	%rdx, 24(%rbp)
	.loc 10 20 7
	movq	16(%rbp), %rax
	movq	24(%rbp), %rdx
	movq	%rax, %rcx
	call	_ZN8wxObjectaSERKS_
	movq	16(%rbp), %rax
	addq	$32, %rsp
	popq	%rbp
	.cfi_restore 6
	.cfi_def_cfa 7, 8
	ret
	.cfi_endproc
.LFE9896:
	.seh_endproc
	.section	.text$_ZN12wxWindowBase19SetAcceleratorTableERK18wxAcceleratorTable,"x"
	.linkonce discard
	.align 2
	.globl	_ZN12wxWindowBase19SetAcceleratorTableERK18wxAcceleratorTable
	.def	_ZN12wxWindowBase19SetAcceleratorTableERK18wxAcceleratorTable;	.scl	2;	.type	32;	.endef
	.seh_proc	_ZN12wxWindowBase19SetAcceleratorTableERK18wxAcceleratorTable
_ZN12wxWindowBase19SetAcceleratorTableERK18wxAcceleratorTable:
.LFB9895:
	.loc 9 943 18
	.cfi_startproc
	pushq	%rbp
	.seh_pushreg	%rbp
	.cfi_def_cfa_offset 16
	.cfi_offset 6, -16
	movq	%rsp, %rbp
	.seh_setframe	%rbp, 0
	.cfi_def_cfa_register 6
	subq	$32, %rsp
	.seh_stackalloc	32
	.seh_endprologue
	movq	%rcx, 16(%rbp)
	movq	%rdx, 24(%rbp)
	.loc 9 944 32
	movq	16(%rbp), %rax
	addq	$336, %rax
	movq	24(%rbp), %rdx
	movq	%rax, %rcx
	call	_ZN18wxAcceleratorTableaSERKS_
	.loc 9 944 39
	nop
	addq	$32, %rsp
	popq	%rbp
	.cfi_restore 6
	.cfi_def_cfa 7, 8
	ret
	.cfi_endproc
.LFE9895:
	.seh_endproc
	.section	.text$_ZNK12wxWindowBase10HasCaptureEv,"x"
	.linkonce discard
	.align 2
	.globl	_ZNK12wxWindowBase10HasCaptureEv
	.def	_ZNK12wxWindowBase10HasCaptureEv;	.scl	2;	.type	32;	.endef
	.seh_proc	_ZNK12wxWindowBase10HasCaptureEv
_ZNK12wxWindowBase10HasCaptureEv:
.LFB9900:
	.loc 9 995 18
	.cfi_startproc
	pushq	%rbp
	.seh_pushreg	%rbp
	.cfi_def_cfa_offset 16
	.cfi_offset 6, -16
	movq	%rsp, %rbp
	.seh_setframe	%rbp, 0
	.cfi_def_cfa_register 6
	subq	$32, %rsp
	.seh_stackalloc	32
	.seh_endprologue
	movq	%rcx, 16(%rbp)
	.loc 9 996 48
	call	_ZN12wxWindowBase10GetCaptureEv
	.loc 9 996 49
	cmpq	%rax, 16(%rbp)
	sete	%al
	.loc 9 996 52
	addq	$32, %rsp
	popq	%rbp
	.cfi_restore 6
	.cfi_def_cfa 7, 8
	ret
	.cfi_endproc
.LFE9900:
	.seh_endproc
	.section	.text$_ZN12wxWindowBase9PrepareDCER4wxDC,"x"
	.linkonce discard
	.align 2
	.globl	_ZN12wxWindowBase9PrepareDCER4wxDC
	.def	_ZN12wxWindowBase9PrepareDCER4wxDC;	.scl	2;	.type	32;	.endef
	.seh_proc	_ZN12wxWindowBase9PrepareDCER4wxDC
_ZN12wxWindowBase9PrepareDCER4wxDC:
.LFB9904:
	.loc 9 1028 18
	.cfi_startproc
	pushq	%rbp
	.seh_pushreg	%rbp
	.cfi_def_cfa_offset 16
	.cfi_offset 6, -16
	movq	%rsp, %rbp
	.seh_setframe	%rbp, 0
	.cfi_def_cfa_register 6
	.seh_endprologue
	movq	%rcx, 16(%rbp)
	movq	%rdx, 24(%rbp)
	.loc 9 1028 40
	nop
	popq	%rbp
	.cfi_restore 6
	.cfi_def_cfa 7, 8
	ret
	.cfi_endproc
.LFE9904:
	.seh_endproc
	.section	.text$_ZNK12wxWindowBase20GetDefaultAttributesEv,"x"
	.linkonce discard
	.align 2
	.globl	_ZNK12wxWindowBase20GetDefaultAttributesEv
	.def	_ZNK12wxWindowBase20GetDefaultAttributesEv;	.scl	2;	.type	32;	.endef
	.seh_proc	_ZNK12wxWindowBase20GetDefaultAttributesEv
_ZNK12wxWindowBase20GetDefaultAttributesEv:
.LFB9912:
	.loc 9 1065 32
	.cfi_startproc
	pushq	%rbp
	.seh_pushreg	%rbp
	.cfi_def_cfa_offset 16
	.cfi_offset 6, -16
	movq	%rsp, %rbp
	.seh_setframe	%rbp, 0
	.cfi_def_cfa_register 6
	subq	$32, %rsp
	.seh_stackalloc	32
	.seh_endprologue
	movq	%rcx, 16(%rbp)
	movq	%rdx, 24(%rbp)
	.loc 9 1067 60
	movq	24(%rbp), %rax
	movq	%rax, %rcx
	call	_ZNK12wxWindowBase16GetWindowVariantEv
	movl	%eax, %edx
	movq	16(%rbp), %rax
	movq	%rax, %rcx
	call	_ZN12wxWindowBase25GetClassDefaultAttributesE15wxWindowVariant
	.loc 9 1068 5
	movq	16(%rbp), %rax
	addq	$32, %rsp
	popq	%rbp
	.cfi_restore 6
	.cfi_def_cfa 7, 8
	ret
	.cfi_endproc
.LFE9912:
	.seh_endproc
	.section	.text$_ZNK12wxWindowBase24InheritsBackgroundColourEv,"x"
	.linkonce discard
	.align 2
	.globl	_ZNK12wxWindowBase24InheritsBackgroundColourEv
	.def	_ZNK12wxWindowBase24InheritsBackgroundColourEv;	.scl	2;	.type	32;	.endef
	.seh_proc	_ZNK12wxWindowBase24InheritsBackgroundColourEv
_ZNK12wxWindowBase24InheritsBackgroundColourEv:
.LFB9926:
	.loc 9 1084 10
	.cfi_startproc
	pushq	%rbp
	.seh_pushreg	%rbp
	.cfi_def_cfa_offset 16
	.cfi_offset 6, -16
	movq	%rsp, %rbp
	.seh_setframe	%rbp, 0
	.cfi_def_cfa_register 6
	.seh_endprologue
	movq	%rcx, 16(%rbp)
	.loc 9 1086 16
	movq	16(%rbp), %rax
	movzbl	392(%rax), %eax
	shrb	$7, %al
	.loc 9 1087 5
	popq	%rbp
	.cfi_restore 6
	.cfi_def_cfa 7, 8
	ret
	.cfi_endproc
.LFE9926:
	.seh_endproc
	.section	.text$_ZN12wxWindowBase24HasTransparentBackgroundEv,"x"
	.linkonce discard
	.align 2
	.globl	_ZN12wxWindowBase24HasTransparentBackgroundEv
	.def	_ZN12wxWindowBase24HasTransparentBackgroundEv;	.scl	2;	.type	32;	.endef
	.seh_proc	_ZN12wxWindowBase24HasTransparentBackgroundEv
_ZN12wxWindowBase24HasTransparentBackgroundEv:
.LFB9930:
	.loc 9 1109 18
	.cfi_startproc
	pushq	%rbp
	.seh_pushreg	%rbp
	.cfi_def_cfa_offset 16
	.cfi_offset 6, -16
	movq	%rsp, %rbp
	.seh_setframe	%rbp, 0
	.cfi_def_cfa_register 6
	.seh_endprologue
	movq	%rcx, 16(%rbp)
	.loc 9 1109 54
	movl	$0, %eax
	.loc 9 1109 61
	popq	%rbp
	.cfi_restore 6
	.cfi_def_cfa 7, 8
	ret
	.cfi_endproc
.LFE9930:
	.seh_endproc
	.section	.text$_ZNK12wxWindowBase16HasMultiplePagesEv,"x"
	.linkonce discard
	.align 2
	.globl	_ZNK12wxWindowBase16HasMultiplePagesEv
	.def	_ZNK12wxWindowBase16HasMultiplePagesEv;	.scl	2;	.type	32;	.endef
	.seh_proc	_ZNK12wxWindowBase16HasMultiplePagesEv
_ZNK12wxWindowBase16HasMultiplePagesEv:
.LFB9946:
	.loc 9 1229 18
	.cfi_startproc
	pushq	%rbp
	.seh_pushreg	%rbp
	.cfi_def_cfa_offset 16
	.cfi_offset 6, -16
	movq	%rsp, %rbp
	.seh_setframe	%rbp, 0
	.cfi_def_cfa_register 6
	.seh_endprologue
	movq	%rcx, 16(%rbp)
	.loc 9 1229 52
	movl	$0, %eax
	.loc 9 1229 59
	popq	%rbp
	.cfi_restore 6
	.cfi_def_cfa 7, 8
	ret
	.cfi_endproc
.LFE9946:
	.seh_endproc
	.section	.text$_ZN12wxWindowBase20AlwaysShowScrollbarsEbb,"x"
	.linkonce discard
	.align 2
	.globl	_ZN12wxWindowBase20AlwaysShowScrollbarsEbb
	.def	_ZN12wxWindowBase20AlwaysShowScrollbarsEbb;	.scl	2;	.type	32;	.endef
	.seh_proc	_ZN12wxWindowBase20AlwaysShowScrollbarsEbb
_ZN12wxWindowBase20AlwaysShowScrollbarsEbb:
.LFB9953:
	.loc 9 1270 18
	.cfi_startproc
	pushq	%rbp
	.seh_pushreg	%rbp
	.cfi_def_cfa_offset 16
	.cfi_offset 6, -16
	movq	%rsp, %rbp
	.seh_setframe	%rbp, 0
	.cfi_def_cfa_register 6
	.seh_endprologue
	movq	%rcx, 16(%rbp)
	movl	%edx, %eax
	movl	%r8d, %edx
	movb	%al, 24(%rbp)
	movl	%edx, %eax
	movb	%al, 32(%rbp)
	.loc 9 1273 5
	nop
	popq	%rbp
	.cfi_restore 6
	.cfi_def_cfa 7, 8
	ret
	.cfi_endproc
.LFE9953:
	.seh_endproc
	.section	.text$_ZNK12wxWindowBase22IsScrollbarAlwaysShownEi,"x"
	.linkonce discard
	.align 2
	.globl	_ZNK12wxWindowBase22IsScrollbarAlwaysShownEi
	.def	_ZNK12wxWindowBase22IsScrollbarAlwaysShownEi;	.scl	2;	.type	32;	.endef
	.seh_proc	_ZNK12wxWindowBase22IsScrollbarAlwaysShownEi
_ZNK12wxWindowBase22IsScrollbarAlwaysShownEi:
.LFB9954:
	.loc 9 1277 18
	.cfi_startproc
	pushq	%rbp
	.seh_pushreg	%rbp
	.cfi_def_cfa_offset 16
	.cfi_offset 6, -16
	movq	%rsp, %rbp
	.seh_setframe	%rbp, 0
	.cfi_def_cfa_register 6
	.seh_endprologue
	movq	%rcx, 16(%rbp)
	movl	%edx, 24(%rbp)
	.loc 9 1279 16
	movl	$0, %eax
	.loc 9 1280 5
	popq	%rbp
	.cfi_restore 6
	.cfi_def_cfa 7, 8
	ret
	.cfi_endproc
.LFE9954:
	.seh_endproc
	.section	.text$_ZNK12wxWindowBase10GetToolTipEv,"x"
	.linkonce discard
	.align 2
	.globl	_ZNK12wxWindowBase10GetToolTipEv
	.def	_ZNK12wxWindowBase10GetToolTipEv;	.scl	2;	.type	32;	.endef
	.seh_proc	_ZNK12wxWindowBase10GetToolTipEv
_ZNK12wxWindowBase10GetToolTipEv:
.LFB9958:
	.loc 9 1327 16
	.cfi_startproc
	pushq	%rbp
	.seh_pushreg	%rbp
	.cfi_def_cfa_offset 16
	.cfi_offset 6, -16
	movq	%rsp, %rbp
	.seh_setframe	%rbp, 0
	.cfi_def_cfa_register 6
	.seh_endprologue
	movq	%rcx, 16(%rbp)
	.loc 9 1327 44
	movq	16(%rbp), %rax
	movq	352(%rax), %rax
	.loc 9 1327 55
	popq	%rbp
	.cfi_restore 6
	.cfi_def_cfa 7, 8
	ret
	.cfi_endproc
.LFE9958:
	.seh_endproc
	.section	.text$_ZNK12wxWindowBase13GetDropTargetEv,"x"
	.linkonce discard
	.align 2
	.globl	_ZNK12wxWindowBase13GetDropTargetEv
	.def	_ZNK12wxWindowBase13GetDropTargetEv;	.scl	2;	.type	32;	.endef
	.seh_proc	_ZNK12wxWindowBase13GetDropTargetEv
_ZNK12wxWindowBase13GetDropTargetEv:
.LFB9959:
	.loc 9 1351 27
	.cfi_startproc
	pushq	%rbp
	.seh_pushreg	%rbp
	.cfi_def_cfa_offset 16
	.cfi_offset 6, -16
	movq	%rsp, %rbp
	.seh_setframe	%rbp, 0
	.cfi_def_cfa_register 6
	.seh_endprologue
	movq	%rcx, 16(%rbp)
	.loc 9 1351 58
	movq	16(%rbp), %rax
	movq	208(%rax), %rax
	.loc 9 1351 72
	popq	%rbp
	.cfi_restore 6
	.cfi_def_cfa 7, 8
	ret
	.cfi_endproc
.LFE9959:
	.seh_endproc
	.section	.text$_ZNK12wxWindowBase20ShouldInheritColoursEv,"x"
	.linkonce discard
	.align 2
	.globl	_ZNK12wxWindowBase20ShouldInheritColoursEv
	.def	_ZNK12wxWindowBase20ShouldInheritColoursEv;	.scl	2;	.type	32;	.endef
	.seh_proc	_ZNK12wxWindowBase20ShouldInheritColoursEv
_ZNK12wxWindowBase20ShouldInheritColoursEv:
.LFB9978:
	.loc 9 1490 18
	.cfi_startproc
	pushq	%rbp
	.seh_pushreg	%rbp
	.cfi_def_cfa_offset 16
	.cfi_offset 6, -16
	movq	%rsp, %rbp
	.seh_setframe	%rbp, 0
	.cfi_def_cfa_register 6
	.seh_endprologue
	movq	%rcx, 16(%rbp)
	.loc 9 1490 56
	movl	$0, %eax
	.loc 9 1490 63
	popq	%rbp
	.cfi_restore 6
	.cfi_def_cfa 7, 8
	ret
	.cfi_endproc
.LFE9978:
	.seh_endproc
	.section	.text$_ZNK12wxWindowBase22CanBeOutsideClientAreaEv,"x"
	.linkonce discard
	.align 2
	.globl	_ZNK12wxWindowBase22CanBeOutsideClientAreaEv
	.def	_ZNK12wxWindowBase22CanBeOutsideClientAreaEv;	.scl	2;	.type	32;	.endef
	.seh_proc	_ZNK12wxWindowBase22CanBeOutsideClientAreaEv
_ZNK12wxWindowBase22CanBeOutsideClientAreaEv:
.LFB9979:
	.loc 9 1494 18
	.cfi_startproc
	pushq	%rbp
	.seh_pushreg	%rbp
	.cfi_def_cfa_offset 16
	.cfi_offset 6, -16
	movq	%rsp, %rbp
	.seh_setframe	%rbp, 0
	.cfi_def_cfa_register 6
	.seh_endprologue
	movq	%rcx, 16(%rbp)
	.loc 9 1494 58
	movl	$0, %eax
	.loc 9 1494 65
	popq	%rbp
	.cfi_restore 6
	.cfi_def_cfa 7, 8
	ret
	.cfi_endproc
.LFE9979:
	.seh_endproc
	.section	.text$_ZN12wxWindowBase31GetMainWindowOfCompositeControlEv,"x"
	.linkonce discard
	.align 2
	.globl	_ZN12wxWindowBase31GetMainWindowOfCompositeControlEv
	.def	_ZN12wxWindowBase31GetMainWindowOfCompositeControlEv;	.scl	2;	.type	32;	.endef
	.seh_proc	_ZN12wxWindowBase31GetMainWindowOfCompositeControlEv
_ZN12wxWindowBase31GetMainWindowOfCompositeControlEv:
.LFB9981:
	.loc 9 1503 23
	.cfi_startproc
	pushq	%rbp
	.seh_pushreg	%rbp
	.cfi_def_cfa_offset 16
	.cfi_offset 6, -16
	movq	%rsp, %rbp
	.seh_setframe	%rbp, 0
	.cfi_def_cfa_register 6
	.seh_endprologue
	movq	%rcx, 16(%rbp)
	.loc 9 1504 29
	movq	16(%rbp), %rax
	.loc 9 1504 35
	popq	%rbp
	.cfi_restore 6
	.cfi_def_cfa 7, 8
	ret
	.cfi_endproc
.LFE9981:
	.seh_endproc
	.section	.text$_ZNK12wxWindowBase19DoGetBestClientSizeEv,"x"
	.linkonce discard
	.align 2
	.globl	_ZNK12wxWindowBase19DoGetBestClientSizeEv
	.def	_ZNK12wxWindowBase19DoGetBestClientSizeEv;	.scl	2;	.type	32;	.endef
	.seh_proc	_ZNK12wxWindowBase19DoGetBestClientSizeEv
_ZNK12wxWindowBase19DoGetBestClientSizeEv:
.LFB9987:
	.loc 9 1746 20
	.cfi_startproc
	pushq	%rbp
	.seh_pushreg	%rbp
	.cfi_def_cfa_offset 16
	.cfi_offset 6, -16
	movq	%rsp, %rbp
	.seh_setframe	%rbp, 0
	.cfi_def_cfa_register 6
	.seh_endprologue
	movq	%rcx, 16(%rbp)
	.loc 9 1746 57
	movq	.refptr.wxDefaultSize(%rip), %rax
	movq	(%rax), %rax
	.loc 9 1746 72
	popq	%rbp
	.cfi_restore 6
	.cfi_def_cfa 7, 8
	ret
	.cfi_endproc
.LFE9987:
	.seh_endproc
	.section	.text$_ZNK12wxWindowBase21DoGetBestClientHeightEi,"x"
	.linkonce discard
	.align 2
	.globl	_ZNK12wxWindowBase21DoGetBestClientHeightEi
	.def	_ZNK12wxWindowBase21DoGetBestClientHeightEi;	.scl	2;	.type	32;	.endef
	.seh_proc	_ZNK12wxWindowBase21DoGetBestClientHeightEi
_ZNK12wxWindowBase21DoGetBestClientHeightEi:
.LFB9988:
	.loc 9 1751 17
	.cfi_startproc
	pushq	%rbp
	.seh_pushreg	%rbp
	.cfi_def_cfa_offset 16
	.cfi_offset 6, -16
	movq	%rsp, %rbp
	.seh_setframe	%rbp, 0
	.cfi_def_cfa_register 6
	.seh_endprologue
	movq	%rcx, 16(%rbp)
	movl	%edx, 24(%rbp)
	.loc 9 1752 18
	movl	$-1, %eax
	.loc 9 1752 34
	popq	%rbp
	.cfi_restore 6
	.cfi_def_cfa 7, 8
	ret
	.cfi_endproc
.LFE9988:
	.seh_endproc
	.section	.text$_ZNK12wxWindowBase20DoGetBestClientWidthEi,"x"
	.linkonce discard
	.align 2
	.globl	_ZNK12wxWindowBase20DoGetBestClientWidthEi
	.def	_ZNK12wxWindowBase20DoGetBestClientWidthEi;	.scl	2;	.type	32;	.endef
	.seh_proc	_ZNK12wxWindowBase20DoGetBestClientWidthEi
_ZNK12wxWindowBase20DoGetBestClientWidthEi:
.LFB9989:
	.loc 9 1753 17
	.cfi_startproc
	pushq	%rbp
	.seh_pushreg	%rbp
	.cfi_def_cfa_offset 16
	.cfi_offset 6, -16
	movq	%rsp, %rbp
	.seh_setframe	%rbp, 0
	.cfi_def_cfa_register 6
	.seh_endprologue
	movq	%rcx, 16(%rbp)
	movl	%edx, 24(%rbp)
	.loc 9 1754 18
	movl	$-1, %eax
	.loc 9 1754 34
	popq	%rbp
	.cfi_restore 6
	.cfi_def_cfa 7, 8
	ret
	.cfi_endproc
.LFE9989:
	.seh_endproc
	.section	.text$_ZN12wxWindowBase18SetInitialBestSizeERK6wxSize,"x"
	.linkonce discard
	.align 2
	.globl	_ZN12wxWindowBase18SetInitialBestSizeERK6wxSize
	.def	_ZN12wxWindowBase18SetInitialBestSizeERK6wxSize;	.scl	2;	.type	32;	.endef
	.seh_proc	_ZN12wxWindowBase18SetInitialBestSizeERK6wxSize
_ZN12wxWindowBase18SetInitialBestSizeERK6wxSize:
.LFB9995:
	.loc 9 1873 1
	.cfi_startproc
	pushq	%rbp
	.seh_pushreg	%rbp
	.cfi_def_cfa_offset 16
	.cfi_offset 6, -16
	movq	%rsp, %rbp
	.seh_setframe	%rbp, 0
	.cfi_def_cfa_register 6
	subq	$32, %rsp
	.seh_stackalloc	32
	.seh_endprologue
	movq	%rcx, 16(%rbp)
	movq	%rdx, 24(%rbp)
	.loc 9 1874 19
	movq	24(%rbp), %rax
	movq	%rax, %rdx
	movq	16(%rbp), %rcx
	call	_ZN12wxWindowBase14SetInitialSizeERK6wxSize
	.loc 9 1875 1
	nop
	addq	$32, %rsp
	popq	%rbp
	.cfi_restore 6
	.cfi_def_cfa 7, 8
	ret
	.cfi_endproc
.LFE9995:
	.seh_endproc
	.section	.text$_ZN8wxWindow14ShowWithEffectE12wxShowEffectj,"x"
	.linkonce discard
	.align 2
	.globl	_ZN8wxWindow14ShowWithEffectE12wxShowEffectj
	.def	_ZN8wxWindow14ShowWithEffectE12wxShowEffectj;	.scl	2;	.type	32;	.endef
	.seh_proc	_ZN8wxWindow14ShowWithEffectE12wxShowEffectj
_ZN8wxWindow14ShowWithEffectE12wxShowEffectj:
.LFB10002:
	.file 11 "../wxMSW-3.0.5_gcc810_x64_Dev/include/wx/msw/window.h"
	.loc 11 73 18
	.cfi_startproc
	pushq	%rbp
	.seh_pushreg	%rbp
	.cfi_def_cfa_offset 16
	.cfi_offset 6, -16
	movq	%rsp, %rbp
	.seh_setframe	%rbp, 0
	.cfi_def_cfa_register 6
	subq	$32, %rsp
	.seh_stackalloc	32
	.seh_endprologue
	movq	%rcx, 16(%rbp)
	movl	%edx, 24(%rbp)
	movl	%r8d, 32(%rbp)
	.loc 11 76 33
	movl	32(%rbp), %edx
	movl	24(%rbp), %eax
	movl	%edx, %r9d
	movl	%eax, %r8d
	movl	$1, %edx
	movq	16(%rbp), %rcx
	call	_ZN8wxWindow17MSWShowWithEffectEb12wxShowEffectj
	.loc 11 77 5
	addq	$32, %rsp
	popq	%rbp
	.cfi_restore 6
	.cfi_def_cfa 7, 8
	ret
	.cfi_endproc
.LFE10002:
	.seh_endproc
	.section	.text$_ZN8wxWindow14HideWithEffectE12wxShowEffectj,"x"
	.linkonce discard
	.align 2
	.globl	_ZN8wxWindow14HideWithEffectE12wxShowEffectj
	.def	_ZN8wxWindow14HideWithEffectE12wxShowEffectj;	.scl	2;	.type	32;	.endef
	.seh_proc	_ZN8wxWindow14HideWithEffectE12wxShowEffectj
_ZN8wxWindow14HideWithEffectE12wxShowEffectj:
.LFB10003:
	.loc 11 78 18
	.cfi_startproc
	pushq	%rbp
	.seh_pushreg	%rbp
	.cfi_def_cfa_offset 16
	.cfi_offset 6, -16
	movq	%rsp, %rbp
	.seh_setframe	%rbp, 0
	.cfi_def_cfa_register 6
	subq	$32, %rsp
	.seh_stackalloc	32
	.seh_endprologue
	movq	%rcx, 16(%rbp)
	movl	%edx, 24(%rbp)
	movl	%r8d, 32(%rbp)
	.loc 11 81 33
	movl	32(%rbp), %edx
	movl	24(%rbp), %eax
	movl	%edx, %r9d
	movl	%eax, %r8d
	movl	$0, %edx
	movq	16(%rbp), %rcx
	call	_ZN8wxWindow17MSWShowWithEffectEb12wxShowEffectj
	.loc 11 82 5
	addq	$32, %rsp
	popq	%rbp
	.cfi_restore 6
	.cfi_def_cfa 7, 8
	ret
	.cfi_endproc
.LFE10003:
	.seh_endproc
	.section	.text$_ZNK8wxWindow7GetHWNDEv,"x"
	.linkonce discard
	.align 2
	.globl	_ZNK8wxWindow7GetHWNDEv
	.def	_ZNK8wxWindow7GetHWNDEv;	.scl	2;	.type	32;	.endef
	.seh_proc	_ZNK8wxWindow7GetHWNDEv
_ZNK8wxWindow7GetHWNDEv:
.LFB10004:
	.loc 11 151 12
	.cfi_startproc
	pushq	%rbp
	.seh_pushreg	%rbp
	.cfi_def_cfa_offset 16
	.cfi_offset 6, -16
	movq	%rsp, %rbp
	.seh_setframe	%rbp, 0
	.cfi_def_cfa_register 6
	.seh_endprologue
	movq	%rcx, 16(%rbp)
	.loc 11 151 37
	movq	16(%rbp), %rax
	movq	520(%rax), %rax
	.loc 11 151 45
	popq	%rbp
	.cfi_restore 6
	.cfi_def_cfa 7, 8
	ret
	.cfi_endproc
.LFE10004:
	.seh_endproc
	.section	.text$_ZNK8wxWindow9GetHandleEv,"x"
	.linkonce discard
	.align 2
	.globl	_ZNK8wxWindow9GetHandleEv
	.def	_ZNK8wxWindow9GetHandleEv;	.scl	2;	.type	32;	.endef
	.seh_proc	_ZNK8wxWindow9GetHandleEv
_ZNK8wxWindow9GetHandleEv:
.LFB10006:
	.loc 11 153 22
	.cfi_startproc
	pushq	%rbp
	.seh_pushreg	%rbp
	.cfi_def_cfa_offset 16
	.cfi_offset 6, -16
	movq	%rsp, %rbp
	.seh_setframe	%rbp, 0
	.cfi_def_cfa_register 6
	subq	$32, %rsp
	.seh_stackalloc	32
	.seh_endprologue
	movq	%rcx, 16(%rbp)
	.loc 11 153 56
	movq	16(%rbp), %rcx
	call	_ZNK8wxWindow7GetHWNDEv
	.loc 11 153 60
	addq	$32, %rsp
	popq	%rbp
	.cfi_restore 6
	.cfi_def_cfa 7, 8
	ret
	.cfi_endproc
.LFE10006:
	.seh_endproc
	.section	.text$_ZNK8wxWindow12ContainsHWNDEP6HWND__,"x"
	.linkonce discard
	.align 2
	.globl	_ZNK8wxWindow12ContainsHWNDEP6HWND__
	.def	_ZNK8wxWindow12ContainsHWNDEP6HWND__;	.scl	2;	.type	32;	.endef
	.seh_proc	_ZNK8wxWindow12ContainsHWNDEP6HWND__
_ZNK8wxWindow12ContainsHWNDEP6HWND__:
.LFB10010:
	.loc 11 213 18
	.cfi_startproc
	pushq	%rbp
	.seh_pushreg	%rbp
	.cfi_def_cfa_offset 16
	.cfi_offset 6, -16
	movq	%rsp, %rbp
	.seh_setframe	%rbp, 0
	.cfi_def_cfa_register 6
	.seh_endprologue
	movq	%rcx, 16(%rbp)
	movq	%rdx, 24(%rbp)
	.loc 11 213 55
	movl	$0, %eax
	.loc 11 213 62
	popq	%rbp
	.cfi_restore 6
	.cfi_def_cfa 7, 8
	ret
	.cfi_endproc
.LFE10010:
	.seh_endproc
	.section	.text$_ZNK8wxWindow11HasToolTipsEv,"x"
	.linkonce discard
	.align 2
	.globl	_ZNK8wxWindow11HasToolTipsEv
	.def	_ZNK8wxWindow11HasToolTipsEv;	.scl	2;	.type	32;	.endef
	.seh_proc	_ZNK8wxWindow11HasToolTipsEv
_ZNK8wxWindow11HasToolTipsEv:
.LFB10011:
	.loc 11 217 18
	.cfi_startproc
	pushq	%rbp
	.seh_pushreg	%rbp
	.cfi_def_cfa_offset 16
	.cfi_offset 6, -16
	movq	%rsp, %rbp
	.seh_setframe	%rbp, 0
	.cfi_def_cfa_register 6
	subq	$32, %rsp
	.seh_stackalloc	32
	.seh_endprologue
	movq	%rcx, 16(%rbp)
	.loc 11 217 57
	movq	16(%rbp), %rax
	movq	%rax, %rcx
	call	_ZNK12wxWindowBase10GetToolTipEv
	.loc 11 217 62
	testq	%rax, %rax
	setne	%al
	.loc 11 217 68
	addq	$32, %rsp
	popq	%rbp
	.cfi_restore 6
	.cfi_def_cfa 7, 8
	ret
	.cfi_endproc
.LFE10011:
	.seh_endproc
	.section	.text$_ZNK8wxWindow17MSWAdjustBrushOrgEPiS0_,"x"
	.linkonce discard
	.align 2
	.globl	_ZNK8wxWindow17MSWAdjustBrushOrgEPiS0_
	.def	_ZNK8wxWindow17MSWAdjustBrushOrgEPiS0_;	.scl	2;	.type	32;	.endef
	.seh_proc	_ZNK8wxWindow17MSWAdjustBrushOrgEPiS0_
_ZNK8wxWindow17MSWAdjustBrushOrgEPiS0_:
.LFB10013:
	.loc 11 421 18
	.cfi_startproc
	pushq	%rbp
	.seh_pushreg	%rbp
	.cfi_def_cfa_offset 16
	.cfi_offset 6, -16
	movq	%rsp, %rbp
	.seh_setframe	%rbp, 0
	.cfi_def_cfa_register 6
	.seh_endprologue
	movq	%rcx, 16(%rbp)
	movq	%rdx, 24(%rbp)
	movq	%r8, 32(%rbp)
	.loc 11 424 5
	nop
	popq	%rbp
	.cfi_restore 6
	.cfi_def_cfa 7, 8
	ret
	.cfi_endproc
.LFE10013:
	.seh_endproc
	.section	.text$_ZN8wxWindow19MSWGetCustomBgBrushEv,"x"
	.linkonce discard
	.align 2
	.globl	_ZN8wxWindow19MSWGetCustomBgBrushEv
	.def	_ZN8wxWindow19MSWGetCustomBgBrushEv;	.scl	2;	.type	32;	.endef
	.seh_proc	_ZN8wxWindow19MSWGetCustomBgBrushEv
_ZN8wxWindow19MSWGetCustomBgBrushEv:
.LFB10014:
	.loc 11 429 22
	.cfi_startproc
	pushq	%rbp
	.seh_pushreg	%rbp
	.cfi_def_cfa_offset 16
	.cfi_offset 6, -16
	movq	%rsp, %rbp
	.seh_setframe	%rbp, 0
	.cfi_def_cfa_register 6
	.seh_endprologue
	movq	%rcx, 16(%rbp)
	.loc 11 429 53
	movl	$0, %eax
	.loc 11 429 56
	popq	%rbp
	.cfi_restore 6
	.cfi_def_cfa 7, 8
	ret
	.cfi_endproc
.LFE10014:
	.seh_endproc
	.section	.text$_ZN8wxWindow13MSWPrintChildEP5HDC__PS_,"x"
	.linkonce discard
	.align 2
	.globl	_ZN8wxWindow13MSWPrintChildEP5HDC__PS_
	.def	_ZN8wxWindow13MSWPrintChildEP5HDC__PS_;	.scl	2;	.type	32;	.endef
	.seh_proc	_ZN8wxWindow13MSWPrintChildEP5HDC__PS_
_ZN8wxWindow13MSWPrintChildEP5HDC__PS_:
.LFB10015:
	.loc 11 468 18
	.cfi_startproc
	pushq	%rbp
	.seh_pushreg	%rbp
	.cfi_def_cfa_offset 16
	.cfi_offset 6, -16
	movq	%rsp, %rbp
	.seh_setframe	%rbp, 0
	.cfi_def_cfa_register 6
	.seh_endprologue
	movq	%rcx, 16(%rbp)
	movq	%rdx, 24(%rbp)
	movq	%r8, 32(%rbp)
	.loc 11 470 16
	movl	$0, %eax
	.loc 11 471 5
	popq	%rbp
	.cfi_restore 6
	.cfi_def_cfa 7, 8
	ret
	.cfi_endproc
.LFE10015:
	.seh_endproc
	.section	.text$_ZN8wxWindow28MSWShouldPropagatePrintChildEv,"x"
	.linkonce discard
	.align 2
	.globl	_ZN8wxWindow28MSWShouldPropagatePrintChildEv
	.def	_ZN8wxWindow28MSWShouldPropagatePrintChildEv;	.scl	2;	.type	32;	.endef
	.seh_proc	_ZN8wxWindow28MSWShouldPropagatePrintChildEv
_ZN8wxWindow28MSWShouldPropagatePrintChildEv:
.LFB10016:
	.loc 11 476 18
	.cfi_startproc
	pushq	%rbp
	.seh_pushreg	%rbp
	.cfi_def_cfa_offset 16
	.cfi_offset 6, -16
	movq	%rsp, %rbp
	.seh_setframe	%rbp, 0
	.cfi_def_cfa_register 6
	.seh_endprologue
	movq	%rcx, 16(%rbp)
	.loc 11 478 16
	movl	$1, %eax
	.loc 11 479 5
	popq	%rbp
	.cfi_restore 6
	.cfi_def_cfa 7, 8
	ret
	.cfi_endproc
.LFE10016:
	.seh_endproc
	.section	.text$_ZNK8wxWindow27MSWHasInheritableBackgroundEv,"x"
	.linkonce discard
	.align 2
	.globl	_ZNK8wxWindow27MSWHasInheritableBackgroundEv
	.def	_ZNK8wxWindow27MSWHasInheritableBackgroundEv;	.scl	2;	.type	32;	.endef
	.seh_proc	_ZNK8wxWindow27MSWHasInheritableBackgroundEv
_ZNK8wxWindow27MSWHasInheritableBackgroundEv:
.LFB10017:
	.loc 11 487 18
	.cfi_startproc
	pushq	%rbp
	.seh_pushreg	%rbp
	.cfi_def_cfa_offset 16
	.cfi_offset 6, -16
	movq	%rsp, %rbp
	.seh_setframe	%rbp, 0
	.cfi_def_cfa_register 6
	subq	$32, %rsp
	.seh_stackalloc	32
	.seh_endprologue
	movq	%rcx, 16(%rbp)
	.loc 11 489 40
	movq	16(%rbp), %rax
	movq	%rax, %rcx
	call	_ZNK12wxWindowBase24InheritsBackgroundColourEv
	.loc 11 490 5
	addq	$32, %rsp
	popq	%rbp
	.cfi_restore 6
	.cfi_def_cfa 7, 8
	ret
	.cfi_endproc
.LFE10017:
	.seh_endproc
	.section	.text$_ZN8wxWindow14MSWEraseBgHookEP5HDC__,"x"
	.linkonce discard
	.align 2
	.globl	_ZN8wxWindow14MSWEraseBgHookEP5HDC__
	.def	_ZN8wxWindow14MSWEraseBgHookEP5HDC__;	.scl	2;	.type	32;	.endef
	.seh_proc	_ZN8wxWindow14MSWEraseBgHookEP5HDC__
_ZN8wxWindow14MSWEraseBgHookEP5HDC__:
.LFB10018:
	.loc 11 510 18
	.cfi_startproc
	pushq	%rbp
	.seh_pushreg	%rbp
	.cfi_def_cfa_offset 16
	.cfi_offset 6, -16
	movq	%rsp, %rbp
	.seh_setframe	%rbp, 0
	.cfi_def_cfa_register 6
	.seh_endprologue
	movq	%rcx, 16(%rbp)
	movq	%rdx, 24(%rbp)
	.loc 11 510 50
	movl	$0, %eax
	.loc 11 510 57
	popq	%rbp
	.cfi_restore 6
	.cfi_def_cfa 7, 8
	ret
	.cfi_endproc
.LFE10018:
	.seh_endproc
	.section	.text$_ZNK8wxWindow11MSWFindItemElP6HWND__,"x"
	.linkonce discard
	.align 2
	.globl	_ZNK8wxWindow11MSWFindItemElP6HWND__
	.def	_ZNK8wxWindow11MSWFindItemElP6HWND__;	.scl	2;	.type	32;	.endef
	.seh_proc	_ZNK8wxWindow11MSWFindItemElP6HWND__
_ZNK8wxWindow11MSWFindItemElP6HWND__:
.LFB10019:
	.loc 11 670 23
	.cfi_startproc
	pushq	%rbp
	.seh_pushreg	%rbp
	.cfi_def_cfa_offset 16
	.cfi_offset 6, -16
	movq	%rsp, %rbp
	.seh_setframe	%rbp, 0
	.cfi_def_cfa_register 6
	.seh_endprologue
	movq	%rcx, 16(%rbp)
	movl	%edx, 24(%rbp)
	movq	%r8, 32(%rbp)
	.loc 11 672 15
	movl	$0, %eax
	.loc 11 673 5
	popq	%rbp
	.cfi_restore 6
	.cfi_def_cfa 7, 8
	ret
	.cfi_endproc
.LFE10019:
	.seh_endproc
	.section	.text$_ZN8wxWindow20MSWEndDeferWindowPosEv,"x"
	.linkonce discard
	.align 2
	.globl	_ZN8wxWindow20MSWEndDeferWindowPosEv
	.def	_ZN8wxWindow20MSWEndDeferWindowPosEv;	.scl	2;	.type	32;	.endef
	.seh_proc	_ZN8wxWindow20MSWEndDeferWindowPosEv
_ZN8wxWindow20MSWEndDeferWindowPosEv:
.LFB10020:
	.loc 11 695 18
	.cfi_startproc
	pushq	%rbp
	.seh_pushreg	%rbp
	.cfi_def_cfa_offset 16
	.cfi_offset 6, -16
	movq	%rsp, %rbp
	.seh_setframe	%rbp, 0
	.cfi_def_cfa_register 6
	.seh_endprologue
	movq	%rcx, 16(%rbp)
	.loc 11 697 27
	movq	16(%rbp), %rax
	movq	.refptr.wxDefaultPosition(%rip), %rdx
	movq	(%rdx), %rdx
	movq	%rdx, 560(%rax)
	.loc 11 698 23
	movq	16(%rbp), %rax
	movq	.refptr.wxDefaultSize(%rip), %rdx
	movq	(%rdx), %rdx
	movq	%rdx, 568(%rax)
	.loc 11 699 5
	nop
	popq	%rbp
	.cfi_restore 6
	.cfi_def_cfa 7, 8
	ret
	.cfi_endproc
.LFE10020:
	.seh_endproc
	.section	.text$_ZNK20wxNonOwnedWindowBase27AdjustForParentClientOriginERiS0_i,"x"
	.linkonce discard
	.align 2
	.globl	_ZNK20wxNonOwnedWindowBase27AdjustForParentClientOriginERiS0_i
	.def	_ZNK20wxNonOwnedWindowBase27AdjustForParentClientOriginERiS0_i;	.scl	2;	.type	32;	.endef
	.seh_proc	_ZNK20wxNonOwnedWindowBase27AdjustForParentClientOriginERiS0_i
_ZNK20wxNonOwnedWindowBase27AdjustForParentClientOriginERiS0_i:
.LFB10023:
	.file 12 "../wxMSW-3.0.5_gcc810_x64_Dev/include/wx/nonownedwnd.h"
	.loc 12 64 18
	.cfi_startproc
	pushq	%rbp
	.seh_pushreg	%rbp
	.cfi_def_cfa_offset 16
	.cfi_offset 6, -16
	movq	%rsp, %rbp
	.seh_setframe	%rbp, 0
	.cfi_def_cfa_register 6
	.seh_endprologue
	movq	%rcx, 16(%rbp)
	movq	%rdx, 24(%rbp)
	movq	%r8, 32(%rbp)
	movl	%r9d, 40(%rbp)
	.loc 12 69 5
	nop
	popq	%rbp
	.cfi_restore 6
	.cfi_def_cfa 7, 8
	ret
	.cfi_endproc
.LFE10023:
	.seh_endproc
	.section	.text$_ZN20wxNonOwnedWindowBase17InheritAttributesEv,"x"
	.linkonce discard
	.align 2
	.globl	_ZN20wxNonOwnedWindowBase17InheritAttributesEv
	.def	_ZN20wxNonOwnedWindowBase17InheritAttributesEv;	.scl	2;	.type	32;	.endef
	.seh_proc	_ZN20wxNonOwnedWindowBase17InheritAttributesEv
_ZN20wxNonOwnedWindowBase17InheritAttributesEv:
.LFB10024:
	.loc 12 71 18
	.cfi_startproc
	pushq	%rbp
	.seh_pushreg	%rbp
	.cfi_def_cfa_offset 16
	.cfi_offset 6, -16
	movq	%rsp, %rbp
	.seh_setframe	%rbp, 0
	.cfi_def_cfa_register 6
	.seh_endprologue
	movq	%rcx, 16(%rbp)
	.loc 12 76 5
	nop
	popq	%rbp
	.cfi_restore 6
	.cfi_def_cfa 7, 8
	ret
	.cfi_endproc
.LFE10024:
	.seh_endproc
	.section	.text$_ZN20wxTopLevelWindowBase8IsActiveEv,"x"
	.linkonce discard
	.align 2
	.globl	_ZN20wxTopLevelWindowBase8IsActiveEv
	.def	_ZN20wxTopLevelWindowBase8IsActiveEv;	.scl	2;	.type	32;	.endef
	.seh_proc	_ZN20wxTopLevelWindowBase8IsActiveEv
_ZN20wxTopLevelWindowBase8IsActiveEv:
.LFB10135:
	.file 13 "../wxMSW-3.0.5_gcc810_x64_Dev/include/wx/toplevel.h"
	.loc 13 226 18
	.cfi_startproc
	pushq	%rbp
	.seh_pushreg	%rbp
	.cfi_def_cfa_offset 16
	.cfi_offset 6, -16
	pushq	%rbx
	.seh_pushreg	%rbx
	.cfi_def_cfa_offset 24
	.cfi_offset 3, -24
	subq	$40, %rsp
	.seh_stackalloc	40
	.cfi_def_cfa_offset 64
	leaq	128(%rsp), %rbp
	.seh_setframe	%rbp, 128
	.cfi_def_cfa 6, -64
	.seh_endprologue
	movq	%rcx, -64(%rbp)
	.loc 13 226 50
	movq	-64(%rbp), %rbx
	.loc 13 226 60
	call	_ZN12wxWindowBase9FindFocusEv
	.loc 13 226 50
	movq	%rax, %rdx
	movq	%rbx, %rcx
	call	_ZNK12wxWindowBase12IsDescendantEPS_
	.loc 13 226 65
	addq	$40, %rsp
	popq	%rbx
	.cfi_restore 3
	popq	%rbp
	.cfi_restore 6
	.cfi_def_cfa 7, -24
	ret
	.cfi_endproc
.LFE10135:
	.seh_endproc
	.section	.text$_ZNK20wxTopLevelWindowBase20ShouldPreventAppExitEv,"x"
	.linkonce discard
	.align 2
	.globl	_ZNK20wxTopLevelWindowBase20ShouldPreventAppExitEv
	.def	_ZNK20wxTopLevelWindowBase20ShouldPreventAppExitEv;	.scl	2;	.type	32;	.endef
	.seh_proc	_ZNK20wxTopLevelWindowBase20ShouldPreventAppExitEv
_ZNK20wxTopLevelWindowBase20ShouldPreventAppExitEv:
.LFB10136:
	.loc 13 233 18
	.cfi_startproc
	pushq	%rbp
	.seh_pushreg	%rbp
	.cfi_def_cfa_offset 16
	.cfi_offset 6, -16
	movq	%rsp, %rbp
	.seh_setframe	%rbp, 0
	.cfi_def_cfa_register 6
	.seh_endprologue
	movq	%rcx, 16(%rbp)
	.loc 13 233 56
	movl	$1, %eax
	.loc 13 233 62
	popq	%rbp
	.cfi_restore 6
	.cfi_def_cfa 7, 8
	ret
	.cfi_endproc
.LFE10136:
	.seh_endproc
	.section	.text$_ZNK20wxTopLevelWindowBase10IsTopLevelEv,"x"
	.linkonce discard
	.align 2
	.globl	_ZNK20wxTopLevelWindowBase10IsTopLevelEv
	.def	_ZNK20wxTopLevelWindowBase10IsTopLevelEv;	.scl	2;	.type	32;	.endef
	.seh_proc	_ZNK20wxTopLevelWindowBase10IsTopLevelEv
_ZNK20wxTopLevelWindowBase10IsTopLevelEv:
.LFB10143:
	.loc 13 277 18
	.cfi_startproc
	pushq	%rbp
	.seh_pushreg	%rbp
	.cfi_def_cfa_offset 16
	.cfi_offset 6, -16
	movq	%rsp, %rbp
	.seh_setframe	%rbp, 0
	.cfi_def_cfa_register 6
	.seh_endprologue
	movq	%rcx, 16(%rbp)
	.loc 13 277 46
	movl	$1, %eax
	.loc 13 277 52
	popq	%rbp
	.cfi_restore 6
	.cfi_def_cfa 7, 8
	ret
	.cfi_endproc
.LFE10143:
	.seh_endproc
	.section	.text$_ZNK20wxTopLevelWindowBase21IsTopNavigationDomainEv,"x"
	.linkonce discard
	.align 2
	.globl	_ZNK20wxTopLevelWindowBase21IsTopNavigationDomainEv
	.def	_ZNK20wxTopLevelWindowBase21IsTopNavigationDomainEv;	.scl	2;	.type	32;	.endef
	.seh_proc	_ZNK20wxTopLevelWindowBase21IsTopNavigationDomainEv
_ZNK20wxTopLevelWindowBase21IsTopNavigationDomainEv:
.LFB10144:
	.loc 13 278 18
	.cfi_startproc
	pushq	%rbp
	.seh_pushreg	%rbp
	.cfi_def_cfa_offset 16
	.cfi_offset 6, -16
	movq	%rsp, %rbp
	.seh_setframe	%rbp, 0
	.cfi_def_cfa_register 6
	.seh_endprologue
	movq	%rcx, 16(%rbp)
	.loc 13 278 57
	movl	$1, %eax
	.loc 13 278 63
	popq	%rbp
	.cfi_restore 6
	.cfi_def_cfa 7, 8
	ret
	.cfi_endproc
.LFE10144:
	.seh_endproc
	.section	.text$_ZNK20wxTopLevelWindowBase9IsVisibleEv,"x"
	.linkonce discard
	.align 2
	.globl	_ZNK20wxTopLevelWindowBase9IsVisibleEv
	.def	_ZNK20wxTopLevelWindowBase9IsVisibleEv;	.scl	2;	.type	32;	.endef
	.seh_proc	_ZNK20wxTopLevelWindowBase9IsVisibleEv
_ZNK20wxTopLevelWindowBase9IsVisibleEv:
.LFB10145:
	.loc 13 279 18
	.cfi_startproc
	pushq	%rbp
	.seh_pushreg	%rbp
	.cfi_def_cfa_offset 16
	.cfi_offset 6, -16
	movq	%rsp, %rbp
	.seh_setframe	%rbp, 0
	.cfi_def_cfa_register 6
	subq	$32, %rsp
	.seh_stackalloc	32
	.seh_endprologue
	movq	%rcx, 16(%rbp)
	.loc 13 279 52
	movq	16(%rbp), %rdx
	.loc 13 279 53
	movq	16(%rbp), %rax
	movq	(%rax), %rax
	addq	$480, %rax
	movq	(%rax), %rax
	.loc 13 279 52
	movq	%rdx, %rcx
	call	*%rax
.LVL15:
	.loc 13 279 56
	addq	$32, %rsp
	popq	%rbp
	.cfi_restore 6
	.cfi_def_cfa 7, 8
	ret
	.cfi_endproc
.LFE10145:
	.seh_endproc
	.section	.text$_ZN20wxTopLevelWindowBase14OSXSetModifiedEb,"x"
	.linkonce discard
	.align 2
	.globl	_ZN20wxTopLevelWindowBase14OSXSetModifiedEb
	.def	_ZN20wxTopLevelWindowBase14OSXSetModifiedEb;	.scl	2;	.type	32;	.endef
	.seh_proc	_ZN20wxTopLevelWindowBase14OSXSetModifiedEb
_ZN20wxTopLevelWindowBase14OSXSetModifiedEb:
.LFB10148:
	.loc 13 299 18
	.cfi_startproc
	pushq	%rbp
	.seh_pushreg	%rbp
	.cfi_def_cfa_offset 16
	.cfi_offset 6, -16
	movq	%rsp, %rbp
	.seh_setframe	%rbp, 0
	.cfi_def_cfa_register 6
	.seh_endprologue
	movq	%rcx, 16(%rbp)
	movl	%edx, %eax
	movb	%al, 24(%rbp)
	.loc 13 299 61
	movq	16(%rbp), %rdx
	movzbl	24(%rbp), %eax
	movb	%al, 640(%rdx)
	.loc 13 299 73
	nop
	popq	%rbp
	.cfi_restore 6
	.cfi_def_cfa 7, 8
	ret
	.cfi_endproc
.LFE10148:
	.seh_endproc
	.section	.text$_ZNK20wxTopLevelWindowBase13OSXIsModifiedEv,"x"
	.linkonce discard
	.align 2
	.globl	_ZNK20wxTopLevelWindowBase13OSXIsModifiedEv
	.def	_ZNK20wxTopLevelWindowBase13OSXIsModifiedEv;	.scl	2;	.type	32;	.endef
	.seh_proc	_ZNK20wxTopLevelWindowBase13OSXIsModifiedEv
_ZNK20wxTopLevelWindowBase13OSXIsModifiedEv:
.LFB10149:
	.loc 13 300 18
	.cfi_startproc
	pushq	%rbp
	.seh_pushreg	%rbp
	.cfi_def_cfa_offset 16
	.cfi_offset 6, -16
	movq	%rsp, %rbp
	.seh_setframe	%rbp, 0
	.cfi_def_cfa_register 6
	.seh_endprologue
	movq	%rcx, 16(%rbp)
	.loc 13 300 49
	movq	16(%rbp), %rax
	movzbl	640(%rax), %eax
	.loc 13 300 61
	popq	%rbp
	.cfi_restore 6
	.cfi_def_cfa 7, 8
	ret
	.cfi_endproc
.LFE10149:
	.seh_endproc
	.section	.text$_ZN20wxTopLevelWindowBase22SetRepresentedFilenameERK8wxString,"x"
	.linkonce discard
	.align 2
	.globl	_ZN20wxTopLevelWindowBase22SetRepresentedFilenameERK8wxString
	.def	_ZN20wxTopLevelWindowBase22SetRepresentedFilenameERK8wxString;	.scl	2;	.type	32;	.endef
	.seh_proc	_ZN20wxTopLevelWindowBase22SetRepresentedFilenameERK8wxString
_ZN20wxTopLevelWindowBase22SetRepresentedFilenameERK8wxString:
.LFB10150:
	.loc 13 302 18
	.cfi_startproc
	pushq	%rbp
	.seh_pushreg	%rbp
	.cfi_def_cfa_offset 16
	.cfi_offset 6, -16
	movq	%rsp, %rbp
	.seh_setframe	%rbp, 0
	.cfi_def_cfa_register 6
	.seh_endprologue
	movq	%rcx, 16(%rbp)
	movq	%rdx, 24(%rbp)
	.loc 13 302 61
	nop
	popq	%rbp
	.cfi_restore 6
	.cfi_def_cfa 7, 8
	ret
	.cfi_endproc
.LFE10150:
	.seh_endproc
	.section	.text$_ZN20wxTopLevelWindowBase10DoGiveHelpERK8wxStringb,"x"
	.linkonce discard
	.align 2
	.globl	_ZN20wxTopLevelWindowBase10DoGiveHelpERK8wxStringb
	.def	_ZN20wxTopLevelWindowBase10DoGiveHelpERK8wxStringb;	.scl	2;	.type	32;	.endef
	.seh_proc	_ZN20wxTopLevelWindowBase10DoGiveHelpERK8wxStringb
_ZN20wxTopLevelWindowBase10DoGiveHelpERK8wxStringb:
.LFB10151:
	.loc 13 308 18
	.cfi_startproc
	pushq	%rbp
	.seh_pushreg	%rbp
	.cfi_def_cfa_offset 16
	.cfi_offset 6, -16
	movq	%rsp, %rbp
	.seh_setframe	%rbp, 0
	.cfi_def_cfa_register 6
	.seh_endprologue
	movq	%rcx, 16(%rbp)
	movq	%rdx, 24(%rbp)
	movl	%r8d, %eax
	movb	%al, 32(%rbp)
	.loc 13 308 55
	nop
	popq	%rbp
	.cfi_restore 6
	.cfi_def_cfa 7, 8
	ret
	.cfi_endproc
.LFE10151:
	.seh_endproc
	.section	.text$_ZNK20wxTopLevelWindowBase19DoGetScreenPositionEPiS0_,"x"
	.linkonce discard
	.align 2
	.globl	_ZNK20wxTopLevelWindowBase19DoGetScreenPositionEPiS0_
	.def	_ZNK20wxTopLevelWindowBase19DoGetScreenPositionEPiS0_;	.scl	2;	.type	32;	.endef
	.seh_proc	_ZNK20wxTopLevelWindowBase19DoGetScreenPositionEPiS0_
_ZNK20wxTopLevelWindowBase19DoGetScreenPositionEPiS0_:
.LFB10152:
	.loc 13 322 18
	.cfi_startproc
	pushq	%rbp
	.seh_pushreg	%rbp
	.cfi_def_cfa_offset 16
	.cfi_offset 6, -16
	movq	%rsp, %rbp
	.seh_setframe	%rbp, 0
	.cfi_def_cfa_register 6
	subq	$32, %rsp
	.seh_stackalloc	32
	.seh_endprologue
	movq	%rcx, 16(%rbp)
	movq	%rdx, 24(%rbp)
	movq	%r8, 32(%rbp)
	.loc 13 324 22
	movq	16(%rbp), %rcx
	.loc 13 324 27
	movq	16(%rbp), %rax
	movq	(%rax), %rax
	addq	$1304, %rax
	movq	(%rax), %rax
	.loc 13 324 22
	movq	32(%rbp), %r8
	movq	24(%rbp), %rdx
	call	*%rax
.LVL16:
	.loc 13 325 5
	nop
	addq	$32, %rsp
	popq	%rbp
	.cfi_restore 6
	.cfi_def_cfa 7, 8
	ret
	.cfi_endproc
.LFE10152:
	.seh_endproc
	.section	.text$_ZNK20wxTopLevelWindowBase11IsOneOfBarsEPK8wxWindow,"x"
	.linkonce discard
	.align 2
	.globl	_ZNK20wxTopLevelWindowBase11IsOneOfBarsEPK8wxWindow
	.def	_ZNK20wxTopLevelWindowBase11IsOneOfBarsEPK8wxWindow;	.scl	2;	.type	32;	.endef
	.seh_proc	_ZNK20wxTopLevelWindowBase11IsOneOfBarsEPK8wxWindow
_ZNK20wxTopLevelWindowBase11IsOneOfBarsEPK8wxWindow:
.LFB10153:
	.loc 13 329 18
	.cfi_startproc
	pushq	%rbp
	.seh_pushreg	%rbp
	.cfi_def_cfa_offset 16
	.cfi_offset 6, -16
	movq	%rsp, %rbp
	.seh_setframe	%rbp, 0
	.cfi_def_cfa_register 6
	.seh_endprologue
	movq	%rcx, 16(%rbp)
	movq	%rdx, 24(%rbp)
	.loc 13 330 18
	movl	$0, %eax
	.loc 13 330 25
	popq	%rbp
	.cfi_restore 6
	.cfi_def_cfa 7, 8
	ret
	.cfi_endproc
.LFE10153:
	.seh_endproc
	.section	.text$_ZNK19wxTopLevelWindowMSW12IsFullScreenEv,"x"
	.linkonce discard
	.align 2
	.globl	_ZNK19wxTopLevelWindowMSW12IsFullScreenEv
	.def	_ZNK19wxTopLevelWindowMSW12IsFullScreenEv;	.scl	2;	.type	32;	.endef
	.seh_proc	_ZNK19wxTopLevelWindowMSW12IsFullScreenEv
_ZNK19wxTopLevelWindowMSW12IsFullScreenEv:
.LFB10162:
	.file 14 "../wxMSW-3.0.5_gcc810_x64_Dev/include/wx/msw/toplevel.h"
	.loc 14 66 18
	.cfi_startproc
	pushq	%rbp
	.seh_pushreg	%rbp
	.cfi_def_cfa_offset 16
	.cfi_offset 6, -16
	movq	%rsp, %rbp
	.seh_setframe	%rbp, 0
	.cfi_def_cfa_register 6
	.seh_endprologue
	movq	%rcx, 16(%rbp)
	.loc 14 66 48
	movq	16(%rbp), %rax
	movzbl	669(%rax), %eax
	.loc 14 66 63
	popq	%rbp
	.cfi_restore 6
	.cfi_def_cfa 7, 8
	ret
	.cfi_endproc
.LFE10162:
	.seh_endproc
	.section	.text$_ZNK19wxTopLevelWindowMSW19CanApplyThemeBorderEv,"x"
	.linkonce discard
	.align 2
	.globl	_ZNK19wxTopLevelWindowMSW19CanApplyThemeBorderEv
	.def	_ZNK19wxTopLevelWindowMSW19CanApplyThemeBorderEv;	.scl	2;	.type	32;	.endef
	.seh_proc	_ZNK19wxTopLevelWindowMSW19CanApplyThemeBorderEv
_ZNK19wxTopLevelWindowMSW19CanApplyThemeBorderEv:
.LFB10165:
	.loc 14 122 18
	.cfi_startproc
	pushq	%rbp
	.seh_pushreg	%rbp
	.cfi_def_cfa_offset 16
	.cfi_offset 6, -16
	movq	%rsp, %rbp
	.seh_setframe	%rbp, 0
	.cfi_def_cfa_register 6
	.seh_endprologue
	movq	%rcx, 16(%rbp)
	.loc 14 122 55
	movl	$0, %eax
	.loc 14 122 62
	popq	%rbp
	.cfi_restore 6
	.cfi_def_cfa 7, 8
	ret
	.cfi_endproc
.LFE10165:
	.seh_endproc
	.section	.text$_ZN22wxControlContainerBaseD2Ev,"x"
	.linkonce discard
	.align 2
	.globl	_ZN22wxControlContainerBaseD2Ev
	.def	_ZN22wxControlContainerBaseD2Ev;	.scl	2;	.type	32;	.endef
	.seh_proc	_ZN22wxControlContainerBaseD2Ev
_ZN22wxControlContainerBaseD2Ev:
.LFB10176:
	.file 15 "../wxMSW-3.0.5_gcc810_x64_Dev/include/wx/containr.h"
	.loc 15 53 13
	.cfi_startproc
	pushq	%rbp
	.seh_pushreg	%rbp
	.cfi_def_cfa_offset 16
	.cfi_offset 6, -16
	movq	%rsp, %rbp
	.seh_setframe	%rbp, 0
	.cfi_def_cfa_register 6
	.seh_endprologue
	movq	%rcx, 16(%rbp)
.LBB13:
	.loc 15 53 39
	movq	.refptr._ZTV22wxControlContainerBase(%rip), %rax
	leaq	16(%rax), %rdx
	movq	16(%rbp), %rax
	movq	%rdx, (%rax)
.LBE13:
	.loc 15 53 40
	nop
	popq	%rbp
	.cfi_restore 6
	.cfi_def_cfa 7, 8
	ret
	.cfi_endproc
.LFE10176:
	.seh_endproc
	.section	.text$_ZNK22wxControlContainerBase23AcceptsFocusRecursivelyEv,"x"
	.linkonce discard
	.align 2
	.globl	_ZNK22wxControlContainerBase23AcceptsFocusRecursivelyEv
	.def	_ZNK22wxControlContainerBase23AcceptsFocusRecursivelyEv;	.scl	2;	.type	32;	.endef
	.seh_proc	_ZNK22wxControlContainerBase23AcceptsFocusRecursivelyEv
_ZNK22wxControlContainerBase23AcceptsFocusRecursivelyEv:
.LFB10182:
	.loc 15 81 10
	.cfi_startproc
	pushq	%rbp
	.seh_pushreg	%rbp
	.cfi_def_cfa_offset 16
	.cfi_offset 6, -16
	movq	%rsp, %rbp
	.seh_setframe	%rbp, 0
	.cfi_def_cfa_register 6
	subq	$32, %rsp
	.seh_stackalloc	32
	.seh_endprologue
	movq	%rcx, 16(%rbp)
	.loc 15 82 30
	movq	16(%rbp), %rcx
	call	_ZNK22wxControlContainerBase12AcceptsFocusEv
	.loc 15 82 33
	testb	%al, %al
	jne	.L184
	.loc 15 83 14 discriminator 2
	movq	16(%rbp), %rax
	movzbl	25(%rax), %eax
	.loc 15 82 33 discriminator 2
	testb	%al, %al
	je	.L185
	.loc 15 83 68
	movq	16(%rbp), %rcx
	call	_ZNK22wxControlContainerBase28HasAnyChildrenAcceptingFocusEv
	.loc 15 83 37
	testb	%al, %al
	je	.L185
.L184:
	.loc 15 82 33 discriminator 1
	movl	$1, %eax
	jmp	.L186
.L185:
	.loc 15 82 33 is_stmt 0 discriminator 3
	movl	$0, %eax
.L186:
	.loc 15 83 73 is_stmt 1
	addq	$32, %rsp
	popq	%rbp
	.cfi_restore 6
	.cfi_def_cfa 7, 8
	ret
	.cfi_endproc
.LFE10182:
	.seh_endproc
	.section	.text$_ZNK22wxControlContainerBase24AcceptsFocusFromKeyboardEv,"x"
	.linkonce discard
	.align 2
	.globl	_ZNK22wxControlContainerBase24AcceptsFocusFromKeyboardEv
	.def	_ZNK22wxControlContainerBase24AcceptsFocusFromKeyboardEv;	.scl	2;	.type	32;	.endef
	.seh_proc	_ZNK22wxControlContainerBase24AcceptsFocusFromKeyboardEv
_ZNK22wxControlContainerBase24AcceptsFocusFromKeyboardEv:
.LFB10183:
	.loc 15 86 10
	.cfi_startproc
	pushq	%rbp
	.seh_pushreg	%rbp
	.cfi_def_cfa_offset 16
	.cfi_offset 6, -16
	movq	%rsp, %rbp
	.seh_setframe	%rbp, 0
	.cfi_def_cfa_register 6
	subq	$32, %rsp
	.seh_stackalloc	32
	.seh_endprologue
	movq	%rcx, 16(%rbp)
	.loc 15 86 75
	movq	16(%rbp), %rcx
	call	_ZNK22wxControlContainerBase23AcceptsFocusRecursivelyEv
	.loc 15 86 79
	addq	$32, %rsp
	popq	%rbp
	.cfi_restore 6
	.cfi_def_cfa 7, 8
	ret
	.cfi_endproc
.LFE10183:
	.seh_endproc
	.section	.text$_ZN16wxTopLevelWindowD2Ev,"x"
	.linkonce discard
	.align 2
	.globl	_ZN16wxTopLevelWindowD2Ev
	.def	_ZN16wxTopLevelWindowD2Ev;	.scl	2;	.type	32;	.endef
	.seh_proc	_ZN16wxTopLevelWindowD2Ev
_ZN16wxTopLevelWindowD2Ev:
.LFB14928:
	.loc 13 395 11
	.cfi_startproc
	pushq	%rbp
	.seh_pushreg	%rbp
	.cfi_def_cfa_offset 16
	.cfi_offset 6, -16
	movq	%rsp, %rbp
	.seh_setframe	%rbp, 0
	.cfi_def_cfa_register 6
	subq	$32, %rsp
	.seh_stackalloc	32
	.seh_endprologue
	movq	%rcx, 16(%rbp)
.LBB14:
	.loc 13 395 11
	movq	.refptr._ZTV16wxTopLevelWindow(%rip), %rax
	leaq	16(%rax), %rdx
	movq	16(%rbp), %rax
	movq	%rdx, (%rax)
	movq	16(%rbp), %rax
	movq	%rax, %rcx
	call	_ZN19wxTopLevelWindowMSWD2Ev
.LBE14:
	nop
	addq	$32, %rsp
	popq	%rbp
	.cfi_restore 6
	.cfi_def_cfa 7, 8
	ret
	.cfi_endproc
.LFE14928:
	.seh_endproc
	.section	.text$_ZN19wxNavigationEnabledI16wxTopLevelWindowED2Ev,"x"
	.linkonce discard
	.align 2
	.globl	_ZN19wxNavigationEnabledI16wxTopLevelWindowED2Ev
	.def	_ZN19wxNavigationEnabledI16wxTopLevelWindowED2Ev;	.scl	2;	.type	32;	.endef
	.seh_proc	_ZN19wxNavigationEnabledI16wxTopLevelWindowED2Ev
_ZN19wxNavigationEnabledI16wxTopLevelWindowED2Ev:
.LFB14931:
	.loc 15 182 7
	.cfi_startproc
	pushq	%rbp
	.seh_pushreg	%rbp
	.cfi_def_cfa_offset 16
	.cfi_offset 6, -16
	movq	%rsp, %rbp
	.seh_setframe	%rbp, 0
	.cfi_def_cfa_register 6
	subq	$32, %rsp
	.seh_stackalloc	32
	.seh_endprologue
	movq	%rcx, 16(%rbp)
.LBB15:
	.loc 15 182 7
	leaq	16+_ZTV19wxNavigationEnabledI16wxTopLevelWindowE(%rip), %rdx
	movq	16(%rbp), %rax
	movq	%rdx, (%rax)
	movq	16(%rbp), %rax
	addq	$696, %rax
	movq	%rax, %rcx
	call	_ZN18wxControlContainerD1Ev
	movq	16(%rbp), %rax
	movq	%rax, %rcx
	call	_ZN16wxTopLevelWindowD2Ev
.LBE15:
	nop
	addq	$32, %rsp
	popq	%rbp
	.cfi_restore 6
	.cfi_def_cfa 7, 8
	ret
	.cfi_endproc
.LFE14931:
	.seh_endproc
	.section	.text$_ZN19wxNavigationEnabledI16wxTopLevelWindowED1Ev,"x"
	.linkonce discard
	.align 2
	.globl	_ZN19wxNavigationEnabledI16wxTopLevelWindowED1Ev
	.def	_ZN19wxNavigationEnabledI16wxTopLevelWindowED1Ev;	.scl	2;	.type	32;	.endef
	.seh_proc	_ZN19wxNavigationEnabledI16wxTopLevelWindowED1Ev
_ZN19wxNavigationEnabledI16wxTopLevelWindowED1Ev:
.LFB14932:
	.loc 15 182 7
	.cfi_startproc
	pushq	%rbp
	.seh_pushreg	%rbp
	.cfi_def_cfa_offset 16
	.cfi_offset 6, -16
	movq	%rsp, %rbp
	.seh_setframe	%rbp, 0
	.cfi_def_cfa_register 6
	subq	$32, %rsp
	.seh_stackalloc	32
	.seh_endprologue
	movq	%rcx, 16(%rbp)
.LBB16:
	.loc 15 182 7
	leaq	16+_ZTV19wxNavigationEnabledI16wxTopLevelWindowE(%rip), %rdx
	movq	16(%rbp), %rax
	movq	%rdx, (%rax)
	movq	16(%rbp), %rax
	addq	$696, %rax
	movq	%rax, %rcx
	call	_ZN18wxControlContainerD1Ev
	movq	16(%rbp), %rax
	movq	%rax, %rcx
	call	_ZN16wxTopLevelWindowD2Ev
.LBE16:
	nop
	addq	$32, %rsp
	popq	%rbp
	.cfi_restore 6
	.cfi_def_cfa 7, 8
	ret
	.cfi_endproc
.LFE14932:
	.seh_endproc
	.section	.text$_ZN19wxNavigationEnabledI16wxTopLevelWindowED0Ev,"x"
	.linkonce discard
	.align 2
	.globl	_ZN19wxNavigationEnabledI16wxTopLevelWindowED0Ev
	.def	_ZN19wxNavigationEnabledI16wxTopLevelWindowED0Ev;	.scl	2;	.type	32;	.endef
	.seh_proc	_ZN19wxNavigationEnabledI16wxTopLevelWindowED0Ev
_ZN19wxNavigationEnabledI16wxTopLevelWindowED0Ev:
.LFB14933:
	.loc 15 182 7
	.cfi_startproc
	pushq	%rbp
	.seh_pushreg	%rbp
	.cfi_def_cfa_offset 16
	.cfi_offset 6, -16
	movq	%rsp, %rbp
	.seh_setframe	%rbp, 0
	.cfi_def_cfa_register 6
	subq	$32, %rsp
	.seh_stackalloc	32
	.seh_endprologue
	movq	%rcx, 16(%rbp)
	.loc 15 182 7
	movq	16(%rbp), %rcx
	call	_ZN19wxNavigationEnabledI16wxTopLevelWindowED1Ev
	movq	16(%rbp), %rcx
	call	_ZdlPv
	nop
	addq	$32, %rsp
	popq	%rbp
	.cfi_restore 6
	.cfi_def_cfa 7, 8
	ret
	.cfi_endproc
.LFE14933:
	.seh_endproc
	.section	.text$_ZN12wxDialogBaseD2Ev,"x"
	.linkonce discard
	.align 2
	.globl	_ZN12wxDialogBaseD2Ev
	.def	_ZN12wxDialogBaseD2Ev;	.scl	2;	.type	32;	.endef
	.seh_proc	_ZN12wxDialogBaseD2Ev
_ZN12wxDialogBaseD2Ev:
.LFB14934:
	.file 16 "../wxMSW-3.0.5_gcc810_x64_Dev/include/wx/dialog.h"
	.loc 16 72 13
	.cfi_startproc
	pushq	%rbp
	.seh_pushreg	%rbp
	.cfi_def_cfa_offset 16
	.cfi_offset 6, -16
	movq	%rsp, %rbp
	.seh_setframe	%rbp, 0
	.cfi_def_cfa_register 6
	subq	$32, %rsp
	.seh_stackalloc	32
	.seh_endprologue
	movq	%rcx, 16(%rbp)
.LBB17:
	.loc 16 72 29
	movq	.refptr._ZTV12wxDialogBase(%rip), %rax
	leaq	16(%rax), %rdx
	movq	16(%rbp), %rax
	movq	%rdx, (%rax)
	movq	16(%rbp), %rax
	addq	$744, %rax
	movq	%rax, %rcx
	call	_ZN10wxArrayIntD1Ev
	movq	16(%rbp), %rax
	movq	%rax, %rcx
	call	_ZN19wxNavigationEnabledI16wxTopLevelWindowED2Ev
.LBE17:
	.loc 16 72 31
	nop
	addq	$32, %rsp
	popq	%rbp
	.cfi_restore 6
	.cfi_def_cfa 7, 8
	ret
	.cfi_endproc
.LFE14934:
	.seh_endproc
	.section	.text$_ZNK12wxDialogBase16GetContentWindowEv,"x"
	.linkonce discard
	.align 2
	.globl	_ZNK12wxDialogBase16GetContentWindowEv
	.def	_ZNK12wxDialogBase16GetContentWindowEv;	.scl	2;	.type	32;	.endef
	.seh_proc	_ZNK12wxDialogBase16GetContentWindowEv
_ZNK12wxDialogBase16GetContentWindowEv:
.LFB14942:
	.loc 16 165 23
	.cfi_startproc
	pushq	%rbp
	.seh_pushreg	%rbp
	.cfi_def_cfa_offset 16
	.cfi_offset 6, -16
	movq	%rsp, %rbp
	.seh_setframe	%rbp, 0
	.cfi_def_cfa_register 6
	.seh_endprologue
	movq	%rcx, 16(%rbp)
	.loc 16 165 56
	movl	$0, %eax
	.loc 16 165 62
	popq	%rbp
	.cfi_restore 6
	.cfi_def_cfa 7, 8
	ret
	.cfi_endproc
.LFE14942:
	.seh_endproc
	.section	.text$_ZN8wxDialogC2Ev,"x"
	.linkonce discard
	.align 2
	.globl	_ZN8wxDialogC2Ev
	.def	_ZN8wxDialogC2Ev;	.scl	2;	.type	32;	.endef
	.seh_proc	_ZN8wxDialogC2Ev
_ZN8wxDialogC2Ev:
.LFB14986:
	.file 17 "../wxMSW-3.0.5_gcc810_x64_Dev/include/wx/msw/dialog.h"
	.loc 17 38 5
	.cfi_startproc
	pushq	%rbp
	.seh_pushreg	%rbp
	.cfi_def_cfa_offset 16
	.cfi_offset 6, -16
	pushq	%rbx
	.seh_pushreg	%rbx
	.cfi_def_cfa_offset 24
	.cfi_offset 3, -24
	subq	$40, %rsp
	.seh_stackalloc	40
	.cfi_def_cfa_offset 64
	leaq	128(%rsp), %rbp
	.seh_setframe	%rbp, 128
	.cfi_def_cfa 6, -64
	.seh_endprologue
	movq	%rcx, -64(%rbp)
.LBB18:
	.loc 17 38 16
	movq	-64(%rbp), %rax
	movq	%rax, %rcx
.LEHB2:
	call	_ZN12wxDialogBaseC2Ev
.LEHE2:
	movq	.refptr._ZTV8wxDialog(%rip), %rax
	leaq	16(%rax), %rdx
	movq	-64(%rbp), %rax
	movq	%rdx, (%rax)
	.loc 17 38 22
	movq	-64(%rbp), %rcx
.LEHB3:
	call	_ZN8wxDialog4InitEv
.LEHE3:
.LBE18:
	.loc 17 38 26
	jmp	.L200
.L199:
	movq	%rax, %rbx
.LBB19:
	.loc 17 38 16
	movq	-64(%rbp), %rax
	movq	%rax, %rcx
	call	_ZN12wxDialogBaseD2Ev
	movq	%rbx, %rax
	movq	%rax, %rcx
.LEHB4:
	call	_Unwind_Resume
	nop
.LEHE4:
.L200:
.LBE19:
	.loc 17 38 26
	addq	$40, %rsp
	popq	%rbx
	.cfi_restore 3
	popq	%rbp
	.cfi_restore 6
	.cfi_def_cfa 7, -24
	ret
	.cfi_endproc
.LFE14986:
	.seh_handler	__gxx_personality_seh0, @unwind, @except
	.seh_handlerdata
.LLSDA14986:
	.byte	0xff
	.byte	0xff
	.byte	0x1
	.uleb128 .LLSDACSE14986-.LLSDACSB14986
.LLSDACSB14986:
	.uleb128 .LEHB2-.LFB14986
	.uleb128 .LEHE2-.LEHB2
	.uleb128 0
	.uleb128 0
	.uleb128 .LEHB3-.LFB14986
	.uleb128 .LEHE3-.LEHB3
	.uleb128 .L199-.LFB14986
	.uleb128 0
	.uleb128 .LEHB4-.LFB14986
	.uleb128 .LEHE4-.LEHB4
	.uleb128 0
	.uleb128 0
.LLSDACSE14986:
	.section	.text$_ZN8wxDialogC2Ev,"x"
	.linkonce discard
	.seh_endproc
	.section	.text$_ZNK8wxDialog7IsModalEv,"x"
	.linkonce discard
	.align 2
	.globl	_ZNK8wxDialog7IsModalEv
	.def	_ZNK8wxDialog7IsModalEv;	.scl	2;	.type	32;	.endef
	.seh_proc	_ZNK8wxDialog7IsModalEv
_ZNK8wxDialog7IsModalEv:
.LFB14991:
	.loc 17 63 18
	.cfi_startproc
	pushq	%rbp
	.seh_pushreg	%rbp
	.cfi_def_cfa_offset 16
	.cfi_offset 6, -16
	movq	%rsp, %rbp
	.seh_setframe	%rbp, 0
	.cfi_def_cfa_register 6
	.seh_endprologue
	movq	%rcx, 16(%rbp)
	.loc 17 63 43
	movq	16(%rbp), %rax
	movq	784(%rax), %rax
	.loc 17 63 57
	testq	%rax, %rax
	setne	%al
	.loc 17 63 63
	popq	%rbp
	.cfi_restore 6
	.cfi_def_cfa 7, 8
	ret
	.cfi_endproc
.LFE14991:
	.seh_endproc
	.section	.text$_ZN20wxGenericAboutDialogC2Ev,"x"
	.linkonce discard
	.align 2
	.globl	_ZN20wxGenericAboutDialogC2Ev
	.def	_ZN20wxGenericAboutDialogC2Ev;	.scl	2;	.type	32;	.endef
	.seh_proc	_ZN20wxGenericAboutDialogC2Ev
_ZN20wxGenericAboutDialogC2Ev:
.LFB15005:
	.file 18 "../wxMSW-3.0.5_gcc810_x64_Dev/include/wx/generic/aboutdlgg.h"
	.loc 18 44 5
	.cfi_startproc
	pushq	%rbp
	.seh_pushreg	%rbp
	.cfi_def_cfa_offset 16
	.cfi_offset 6, -16
	movq	%rsp, %rbp
	.seh_setframe	%rbp, 0
	.cfi_def_cfa_register 6
	subq	$32, %rsp
	.seh_stackalloc	32
	.seh_endprologue
	movq	%rcx, 16(%rbp)
.LBB20:
	.loc 18 44 28
	movq	16(%rbp), %rax
	movq	%rax, %rcx
	call	_ZN8wxDialogC2Ev
	leaq	16+_ZTV20wxGenericAboutDialog(%rip), %rdx
	movq	16(%rbp), %rax
	movq	%rdx, (%rax)
	.loc 18 44 34
	movq	16(%rbp), %rcx
	call	_ZN20wxGenericAboutDialog4InitEv
.LBE20:
	.loc 18 44 38
	nop
	addq	$32, %rsp
	popq	%rbp
	.cfi_restore 6
	.cfi_def_cfa 7, 8
	ret
	.cfi_endproc
.LFE15005:
	.seh_endproc
	.section	.text$_ZN20wxGenericAboutDialog19DoAddCustomControlsEv,"x"
	.linkonce discard
	.align 2
	.globl	_ZN20wxGenericAboutDialog19DoAddCustomControlsEv
	.def	_ZN20wxGenericAboutDialog19DoAddCustomControlsEv;	.scl	2;	.type	32;	.endef
	.seh_proc	_ZN20wxGenericAboutDialog19DoAddCustomControlsEv
_ZN20wxGenericAboutDialog19DoAddCustomControlsEv:
.LFB15010:
	.loc 18 64 18
	.cfi_startproc
	pushq	%rbp
	.seh_pushreg	%rbp
	.cfi_def_cfa_offset 16
	.cfi_offset 6, -16
	movq	%rsp, %rbp
	.seh_setframe	%rbp, 0
	.cfi_def_cfa_register 6
	.seh_endprologue
	movq	%rcx, 16(%rbp)
	.loc 18 64 42
	nop
	popq	%rbp
	.cfi_restore 6
	.cfi_def_cfa 7, 8
	ret
	.cfi_endproc
.LFE15010:
	.seh_endproc
	.section	.text$_ZN20wxGenericAboutDialog4InitEv,"x"
	.linkonce discard
	.align 2
	.globl	_ZN20wxGenericAboutDialog4InitEv
	.def	_ZN20wxGenericAboutDialog4InitEv;	.scl	2;	.type	32;	.endef
	.seh_proc	_ZN20wxGenericAboutDialog4InitEv
_ZN20wxGenericAboutDialog4InitEv:
.LFB15011:
	.loc 18 83 10
	.cfi_startproc
	pushq	%rbp
	.seh_pushreg	%rbp
	.cfi_def_cfa_offset 16
	.cfi_offset 6, -16
	movq	%rsp, %rbp
	.seh_setframe	%rbp, 0
	.cfi_def_cfa_register 6
	.seh_endprologue
	movq	%rcx, 16(%rbp)
	.loc 18 83 31
	movq	16(%rbp), %rax
	movq	$0, 792(%rax)
	.loc 18 83 38
	nop
	popq	%rbp
	.cfi_restore 6
	.cfi_def_cfa 7, 8
	ret
	.cfi_endproc
.LFE15011:
	.seh_endproc
	.section	.text$_ZN20wxGenericAboutDialogD2Ev,"x"
	.linkonce discard
	.align 2
	.globl	_ZN20wxGenericAboutDialogD2Ev
	.def	_ZN20wxGenericAboutDialogD2Ev;	.scl	2;	.type	32;	.endef
	.seh_proc	_ZN20wxGenericAboutDialogD2Ev
_ZN20wxGenericAboutDialogD2Ev:
.LFB15014:
	.loc 18 37 7
	.cfi_startproc
	pushq	%rbp
	.seh_pushreg	%rbp
	.cfi_def_cfa_offset 16
	.cfi_offset 6, -16
	movq	%rsp, %rbp
	.seh_setframe	%rbp, 0
	.cfi_def_cfa_register 6
	subq	$32, %rsp
	.seh_stackalloc	32
	.seh_endprologue
	movq	%rcx, 16(%rbp)
.LBB21:
	.loc 18 37 7
	leaq	16+_ZTV20wxGenericAboutDialog(%rip), %rdx
	movq	16(%rbp), %rax
	movq	%rdx, (%rax)
	movq	16(%rbp), %rax
	movq	%rax, %rcx
	call	_ZN8wxDialogD2Ev
.LBE21:
	nop
	addq	$32, %rsp
	popq	%rbp
	.cfi_restore 6
	.cfi_def_cfa 7, 8
	ret
	.cfi_endproc
.LFE15014:
	.seh_endproc
	.section	.text$_ZN20wxGenericAboutDialogD1Ev,"x"
	.linkonce discard
	.align 2
	.globl	_ZN20wxGenericAboutDialogD1Ev
	.def	_ZN20wxGenericAboutDialogD1Ev;	.scl	2;	.type	32;	.endef
	.seh_proc	_ZN20wxGenericAboutDialogD1Ev
_ZN20wxGenericAboutDialogD1Ev:
.LFB15015:
	.loc 18 37 7
	.cfi_startproc
	pushq	%rbp
	.seh_pushreg	%rbp
	.cfi_def_cfa_offset 16
	.cfi_offset 6, -16
	movq	%rsp, %rbp
	.seh_setframe	%rbp, 0
	.cfi_def_cfa_register 6
	subq	$32, %rsp
	.seh_stackalloc	32
	.seh_endprologue
	movq	%rcx, 16(%rbp)
.LBB22:
	.loc 18 37 7
	leaq	16+_ZTV20wxGenericAboutDialog(%rip), %rdx
	movq	16(%rbp), %rax
	movq	%rdx, (%rax)
	movq	16(%rbp), %rax
	movq	%rax, %rcx
	call	_ZN8wxDialogD2Ev
.LBE22:
	nop
	addq	$32, %rsp
	popq	%rbp
	.cfi_restore 6
	.cfi_def_cfa 7, 8
	ret
	.cfi_endproc
.LFE15015:
	.seh_endproc
	.section	.text$_ZN20wxGenericAboutDialogD0Ev,"x"
	.linkonce discard
	.align 2
	.globl	_ZN20wxGenericAboutDialogD0Ev
	.def	_ZN20wxGenericAboutDialogD0Ev;	.scl	2;	.type	32;	.endef
	.seh_proc	_ZN20wxGenericAboutDialogD0Ev
_ZN20wxGenericAboutDialogD0Ev:
.LFB15016:
	.loc 18 37 7
	.cfi_startproc
	pushq	%rbp
	.seh_pushreg	%rbp
	.cfi_def_cfa_offset 16
	.cfi_offset 6, -16
	movq	%rsp, %rbp
	.seh_setframe	%rbp, 0
	.cfi_def_cfa_register 6
	subq	$32, %rsp
	.seh_stackalloc	32
	.seh_endprologue
	movq	%rcx, 16(%rbp)
	.loc 18 37 7
	movq	16(%rbp), %rcx
	call	_ZN20wxGenericAboutDialogD1Ev
	movq	16(%rbp), %rcx
	call	_ZdlPv
	nop
	addq	$32, %rsp
	popq	%rbp
	.cfi_restore 6
	.cfi_def_cfa 7, 8
	ret
	.cfi_endproc
.LFE15016:
	.seh_endproc
	.text
	.align 2
	.globl	_ZN14MeuSobreDialogC2Ev
	.def	_ZN14MeuSobreDialogC2Ev;	.scl	2;	.type	32;	.endef
	.seh_proc	_ZN14MeuSobreDialogC2Ev
_ZN14MeuSobreDialogC2Ev:
.LFB15017:
	.file 19 "C:/temp/ballisticKernelCpp/interfaceGrafica/calculadorBalisiticaGraficoWindows/meuSobreDialog.cpp"
	.loc 19 3 1
	.cfi_startproc
	pushq	%rbp
	.seh_pushreg	%rbp
	.cfi_def_cfa_offset 16
	.cfi_offset 6, -16
	movq	%rsp, %rbp
	.seh_setframe	%rbp, 0
	.cfi_def_cfa_register 6
	subq	$32, %rsp
	.seh_stackalloc	32
	.seh_endprologue
	movq	%rcx, 16(%rbp)
.LBB23:
	.loc 19 3 32
	movq	16(%rbp), %rax
	movq	%rax, %rcx
	call	_ZN20wxGenericAboutDialogC2Ev
	leaq	16+_ZTV14MeuSobreDialog(%rip), %rdx
	movq	16(%rbp), %rax
	movq	%rdx, (%rax)
.LBE23:
	.loc 19 6 1
	nop
	addq	$32, %rsp
	popq	%rbp
	.cfi_restore 6
	.cfi_def_cfa 7, 8
	ret
	.cfi_endproc
.LFE15017:
	.seh_endproc
	.globl	_ZN14MeuSobreDialogC1Ev
	.def	_ZN14MeuSobreDialogC1Ev;	.scl	2;	.type	32;	.endef
	.set	_ZN14MeuSobreDialogC1Ev,_ZN14MeuSobreDialogC2Ev
	.align 2
	.globl	_ZN14MeuSobreDialogC2ERK17wxAboutDialogInfoP8wxWindow
	.def	_ZN14MeuSobreDialogC2ERK17wxAboutDialogInfoP8wxWindow;	.scl	2;	.type	32;	.endef
	.seh_proc	_ZN14MeuSobreDialogC2ERK17wxAboutDialogInfoP8wxWindow
_ZN14MeuSobreDialogC2ERK17wxAboutDialogInfoP8wxWindow:
.LFB15020:
	.loc 19 8 1
	.cfi_startproc
	pushq	%rbp
	.seh_pushreg	%rbp
	.cfi_def_cfa_offset 16
	.cfi_offset 6, -16
	movq	%rsp, %rbp
	.seh_setframe	%rbp, 0
	.cfi_def_cfa_register 6
	subq	$32, %rsp
	.seh_stackalloc	32
	.seh_endprologue
	movq	%rcx, 16(%rbp)
	movq	%rdx, 24(%rbp)
	movq	%r8, 32(%rbp)
.LBB24:
	.loc 19 8 79
	movq	16(%rbp), %rax
	movq	%rax, %rcx
	call	_ZN20wxGenericAboutDialogC2Ev
	leaq	16+_ZTV14MeuSobreDialog(%rip), %rdx
	movq	16(%rbp), %rax
	movq	%rdx, (%rax)
.LBE24:
	.loc 19 11 1
	nop
	addq	$32, %rsp
	popq	%rbp
	.cfi_restore 6
	.cfi_def_cfa 7, 8
	ret
	.cfi_endproc
.LFE15020:
	.seh_endproc
	.globl	_ZN14MeuSobreDialogC1ERK17wxAboutDialogInfoP8wxWindow
	.def	_ZN14MeuSobreDialogC1ERK17wxAboutDialogInfoP8wxWindow;	.scl	2;	.type	32;	.endef
	.set	_ZN14MeuSobreDialogC1ERK17wxAboutDialogInfoP8wxWindow,_ZN14MeuSobreDialogC2ERK17wxAboutDialogInfoP8wxWindow
	.section .rdata,"dr"
	.align 2
.LC2:
	.ascii "S\0o\0b\0r\0e\0\0\0"
	.text
	.align 2
	.globl	_ZN14MeuSobreDialog19DoAddCustomControlsEv
	.def	_ZN14MeuSobreDialog19DoAddCustomControlsEv;	.scl	2;	.type	32;	.endef
	.seh_proc	_ZN14MeuSobreDialog19DoAddCustomControlsEv
_ZN14MeuSobreDialog19DoAddCustomControlsEv:
.LFB15022:
	.loc 19 13 1
	.cfi_startproc
	pushq	%rbp
	.seh_pushreg	%rbp
	.cfi_def_cfa_offset 16
	.cfi_offset 6, -16
	pushq	%rsi
	.seh_pushreg	%rsi
	.cfi_def_cfa_offset 24
	.cfi_offset 4, -24
	pushq	%rbx
	.seh_pushreg	%rbx
	.cfi_def_cfa_offset 32
	.cfi_offset 3, -32
	movq	%rsp, %rbp
	.seh_setframe	%rbp, 0
	.cfi_def_cfa_register 6
	subq	$80, %rsp
	.seh_stackalloc	80
	.seh_endprologue
	movq	%rcx, 32(%rbp)
	.loc 19 14 13
	movq	32(%rbp), %rsi
	.loc 19 14 22
	movq	32(%rbp), %rax
	movq	(%rax), %rax
	addq	$1824, %rax
	movq	(%rax), %rbx
	.loc 19 14 13
	leaq	-48(%rbp), %rax
	leaq	.LC2(%rip), %rdx
	movq	%rax, %rcx
.LEHB5:
	call	_ZN8wxStringC1EPKw
.LEHE5:
	leaq	-48(%rbp), %rax
	movq	%rax, %rdx
	movq	%rsi, %rcx
.LEHB6:
	call	*%rbx
.LVL17:
.LEHE6:
	.loc 19 14 13 is_stmt 0 discriminator 2
	leaq	-48(%rbp), %rax
	movq	%rax, %rcx
	call	_ZN8wxStringD1Ev
	.loc 19 15 1 is_stmt 1 discriminator 2
	jmp	.L214
.L213:
	movq	%rax, %rbx
	.loc 19 14 13
	leaq	-48(%rbp), %rax
	movq	%rax, %rcx
	call	_ZN8wxStringD1Ev
	movq	%rbx, %rax
	movq	%rax, %rcx
.LEHB7:
	call	_Unwind_Resume
	nop
.LEHE7:
.L214:
	.loc 19 15 1
	addq	$80, %rsp
	popq	%rbx
	.cfi_restore 3
	popq	%rsi
	.cfi_restore 4
	popq	%rbp
	.cfi_restore 6
	.cfi_def_cfa 7, 24
	ret
	.cfi_endproc
.LFE15022:
	.seh_handler	__gxx_personality_seh0, @unwind, @except
	.seh_handlerdata
.LLSDA15022:
	.byte	0xff
	.byte	0xff
	.byte	0x1
	.uleb128 .LLSDACSE15022-.LLSDACSB15022
.LLSDACSB15022:
	.uleb128 .LEHB5-.LFB15022
	.uleb128 .LEHE5-.LEHB5
	.uleb128 0
	.uleb128 0
	.uleb128 .LEHB6-.LFB15022
	.uleb128 .LEHE6-.LEHB6
	.uleb128 .L213-.LFB15022
	.uleb128 0
	.uleb128 .LEHB7-.LFB15022
	.uleb128 .LEHE7-.LEHB7
	.uleb128 0
	.uleb128 0
.LLSDACSE15022:
	.text
	.seh_endproc
	.section	.text$_ZN8wxString15ConvertedBufferIcED1Ev,"x"
	.linkonce discard
	.align 2
	.globl	_ZN8wxString15ConvertedBufferIcED1Ev
	.def	_ZN8wxString15ConvertedBufferIcED1Ev;	.scl	2;	.type	32;	.endef
	.seh_proc	_ZN8wxString15ConvertedBufferIcED1Ev
_ZN8wxString15ConvertedBufferIcED1Ev:
.LFB15312:
	.loc 2 3489 7
	.cfi_startproc
	pushq	%rbp
	.seh_pushreg	%rbp
	.cfi_def_cfa_offset 16
	.cfi_offset 6, -16
	movq	%rsp, %rbp
	.seh_setframe	%rbp, 0
	.cfi_def_cfa_register 6
	subq	$32, %rsp
	.seh_stackalloc	32
	.seh_endprologue
	movq	%rcx, 16(%rbp)
.LBB25:
	.loc 2 3490 18
	movq	16(%rbp), %rax
	movq	(%rax), %rax
	.loc 2 3490 17
	movq	%rax, %rcx
	call	free
.LBE25:
	.loc 2 3490 26
	nop
	addq	$32, %rsp
	popq	%rbp
	.cfi_restore 6
	.cfi_def_cfa 7, 8
	ret
	.cfi_endproc
.LFE15312:
	.seh_endproc
	.section	.text$_ZN8wxString15ConvertedBufferIcEC1Ev,"x"
	.linkonce discard
	.align 2
	.globl	_ZN8wxString15ConvertedBufferIcEC1Ev
	.def	_ZN8wxString15ConvertedBufferIcEC1Ev;	.scl	2;	.type	32;	.endef
	.seh_proc	_ZN8wxString15ConvertedBufferIcEC1Ev
_ZN8wxString15ConvertedBufferIcEC1Ev:
.LFB15318:
	.loc 2 3488 7
	.cfi_startproc
	pushq	%rbp
	.seh_pushreg	%rbp
	.cfi_def_cfa_offset 16
	.cfi_offset 6, -16
	movq	%rsp, %rbp
	.seh_setframe	%rbp, 0
	.cfi_def_cfa_register 6
	.seh_endprologue
	movq	%rcx, 16(%rbp)
.LBB26:
	.loc 2 3488 36
	movq	16(%rbp), %rax
	movq	$0, (%rax)
.LBE26:
	.loc 2 3488 39
	nop
	popq	%rbp
	.cfi_restore 6
	.cfi_def_cfa 7, 8
	ret
	.cfi_endproc
.LFE15318:
	.seh_endproc
	.section	.text$_Z5wxMaxIiiEN24wxImplicitConversionTypeIT_T0_E5valueES1_S2_,"x"
	.linkonce discard
	.globl	_Z5wxMaxIiiEN24wxImplicitConversionTypeIT_T0_E5valueES1_S2_
	.def	_Z5wxMaxIiiEN24wxImplicitConversionTypeIT_T0_E5valueES1_S2_;	.scl	2;	.type	32;	.endef
	.seh_proc	_Z5wxMaxIiiEN24wxImplicitConversionTypeIT_T0_E5valueES1_S2_
_Z5wxMaxIiiEN24wxImplicitConversionTypeIT_T0_E5valueES1_S2_:
.LFB15625:
	.file 20 "../wxMSW-3.0.5_gcc810_x64_Dev/include/wx/utils.h"
	.loc 20 65 1
	.cfi_startproc
	pushq	%rbp
	.seh_pushreg	%rbp
	.cfi_def_cfa_offset 16
	.cfi_offset 6, -16
	movq	%rsp, %rbp
	.seh_setframe	%rbp, 0
	.cfi_def_cfa_register 6
	.seh_endprologue
	movl	%ecx, 16(%rbp)
	movl	%edx, 24(%rbp)
	.loc 20 71 68
	movl	16(%rbp), %eax
	cmpl	24(%rbp), %eax
	jle	.L218
	.loc 20 71 68 is_stmt 0 discriminator 1
	movl	16(%rbp), %eax
	.loc 20 71 74 is_stmt 1 discriminator 1
	jmp	.L220
.L218:
	.loc 20 71 68 discriminator 2
	movl	24(%rbp), %eax
.L220:
	.loc 20 72 1 discriminator 5
	popq	%rbp
	.cfi_restore 6
	.cfi_def_cfa 7, 8
	ret
	.cfi_endproc
.LFE15625:
	.seh_endproc
	.globl	_ZTV14MeuSobreDialog
	.section	.rdata$_ZTV14MeuSobreDialog,"dr"
	.linkonce same_size
	.align 8
_ZTV14MeuSobreDialog:
	.quad	0
	.quad	_ZTI14MeuSobreDialog
	.quad	_ZNK8wxDialog12GetClassInfoEv
	.quad	_ZN14MeuSobreDialogD1Ev
	.quad	_ZN14MeuSobreDialogD0Ev
	.quad	_ZNK8wxObject13CreateRefDataEv
	.quad	_ZNK8wxObject12CloneRefDataEPK12wxRefCounter
	.quad	_ZN12wxWindowBase14SetNextHandlerEP12wxEvtHandler
	.quad	_ZN12wxWindowBase18SetPreviousHandlerEP12wxEvtHandler
	.quad	_ZN12wxEvtHandler12ProcessEventER7wxEvent
	.quad	_ZN12wxEvtHandler10QueueEventEP7wxEvent
	.quad	_ZN12wxEvtHandler15AddPendingEventERK7wxEvent
	.quad	_ZN12wxEvtHandler16SearchEventTableER12wxEventTableR7wxEvent
	.quad	_ZN12wxWindowBase9TryBeforeER7wxEvent
	.quad	_ZN12wxWindowBase8TryAfterER7wxEvent
	.quad	_ZN12wxEvtHandler12TryValidatorER7wxEvent
	.quad	_ZN12wxEvtHandler9TryParentER7wxEvent
	.quad	_ZNK12wxDialogBase13GetEventTableEv
	.quad	_ZNK12wxDialogBase17GetEventHashTableEv
	.quad	_ZN12wxEvtHandler17DoSetClientObjectEP12wxClientData
	.quad	_ZNK12wxEvtHandler17DoGetClientObjectEv
	.quad	_ZN12wxEvtHandler15DoSetClientDataEPv
	.quad	_ZNK12wxEvtHandler15DoGetClientDataEv
	.quad	_ZN20wxTopLevelWindowBase7DestroyEv
	.quad	_ZN8wxWindow8SetLabelERK8wxString
	.quad	_ZNK8wxWindow8GetLabelEv
	.quad	_ZN12wxWindowBase7SetNameERK8wxString
	.quad	_ZNK12wxWindowBase7GetNameEv
	.quad	_ZNK8wxWindow18GetLayoutDirectionEv
	.quad	_ZN19wxTopLevelWindowMSW18SetLayoutDirectionE17wxLayoutDirection
	.quad	_ZNK8wxWindow24AdjustForLayoutDirectionEiii
	.quad	_ZN19wxTopLevelWindowMSW5RaiseEv
	.quad	_ZN8wxWindow5LowerEv
	.quad	_ZNK12wxWindowBase19GetClientAreaOriginEv
	.quad	_ZNK12wxWindowBase18ClientToWindowSizeERK6wxSize
	.quad	_ZNK12wxWindowBase18WindowToClientSizeERK6wxSize
	.quad	_ZNK12wxWindowBase19GetEffectiveMinSizeEv
	.quad	_ZN12wxWindowBase3FitEv
	.quad	_ZN12wxWindowBase9FitInsideEv
	.quad	_ZN12wxWindowBase12SetSizeHintsEiiiiii
	.quad	_ZN12wxWindowBase19SetVirtualSizeHintsEiiii
	.quad	_ZN20wxTopLevelWindowBase10SetMinSizeERK6wxSize
	.quad	_ZN20wxTopLevelWindowBase10SetMaxSizeERK6wxSize
	.quad	_ZN12wxWindowBase16SetMinClientSizeERK6wxSize
	.quad	_ZN12wxWindowBase16SetMaxClientSizeERK6wxSize
	.quad	_ZNK12wxWindowBase10GetMinSizeEv
	.quad	_ZNK12wxWindowBase10GetMaxSizeEv
	.quad	_ZNK12wxWindowBase16GetMinClientSizeEv
	.quad	_ZNK12wxWindowBase16GetMaxClientSizeEv
	.quad	_ZN12wxWindowBase16DoSetVirtualSizeEii
	.quad	_ZNK12wxWindowBase16DoGetVirtualSizeEv
	.quad	_ZNK12wxWindowBase18GetBestVirtualSizeEv
	.quad	_ZNK12wxWindowBase21GetContentScaleFactorEv
	.quad	_ZNK12wxWindowBase19GetWindowBorderSizeEv
	.quad	_ZN12wxWindowBase20InformFirstDirectionEiii
	.quad	_ZN12wxWindowBase13SendSizeEventEi
	.quad	_ZN8wxWindow26BeginRepositioningChildrenEv
	.quad	_ZN8wxWindow24EndRepositioningChildrenEv
	.quad	_ZN8wxDialog4ShowEb
	.quad	_ZN8wxWindow14ShowWithEffectE12wxShowEffectj
	.quad	_ZN8wxWindow14HideWithEffectE12wxShowEffectj
	.quad	_ZN12wxWindowBase6EnableEb
	.quad	_ZNK12wxWindowBase7IsShownEv
	.quad	_ZNK12wxWindowBase15IsShownOnScreenEv
	.quad	_ZN8wxDialog18SetWindowStyleFlagEl
	.quad	_ZNK12wxWindowBase18GetWindowStyleFlagEv
	.quad	_ZNK12wxWindowBase10IsRetainedEv
	.quad	_ZN8wxWindow13SetExtraStyleEl
	.quad	_ZN12wxWindowBase9MakeModalEb
	.quad	_ZN12wxWindowBase15SetThemeEnabledEb
	.quad	_ZNK12wxWindowBase15GetThemeEnabledEv
	.quad	_ZN19wxNavigationEnabledI16wxTopLevelWindowE8SetFocusEv
	.quad	_ZN8wxWindow15SetFocusFromKbdEv
	.quad	_ZNK12wxWindowBase8HasFocusEv
	.quad	_ZNK19wxNavigationEnabledI16wxTopLevelWindowE12AcceptsFocusEv
	.quad	_ZNK19wxNavigationEnabledI16wxTopLevelWindowE23AcceptsFocusRecursivelyEv
	.quad	_ZNK19wxNavigationEnabledI16wxTopLevelWindowE24AcceptsFocusFromKeyboardEv
	.quad	_ZNK12wxWindowBase12CanBeFocusedEv
	.quad	_ZN12wxWindowBase11SetCanFocusEb
	.quad	_ZNK20wxTopLevelWindowBase10IsTopLevelEv
	.quad	_ZN8wxWindow8ReparentEP12wxWindowBase
	.quad	_ZN19wxNavigationEnabledI16wxTopLevelWindowE8AddChildEP12wxWindowBase
	.quad	_ZN19wxNavigationEnabledI16wxTopLevelWindowE11RemoveChildEP12wxWindowBase
	.quad	_ZNK12wxWindowBase17IsClientAreaChildEPK8wxWindow
	.quad	_ZN12wxWindowBase12SetValidatorERK11wxValidator
	.quad	_ZN12wxWindowBase12GetValidatorEv
	.quad	_ZN12wxWindowBase8ValidateEv
	.quad	_ZN12wxWindowBase20TransferDataToWindowEv
	.quad	_ZN12wxWindowBase22TransferDataFromWindowEv
	.quad	_ZN12wxWindowBase10InitDialogEv
	.quad	_ZN12wxWindowBase19SetAcceleratorTableERK18wxAcceleratorTable
	.quad	_ZN8wxWindow14RegisterHotKeyEiii
	.quad	_ZN8wxWindow16UnregisterHotKeyEi
	.quad	_ZN8wxWindow11WarpPointerEii
	.quad	_ZNK12wxWindowBase10HasCaptureEv
	.quad	_ZN8wxWindow7RefreshEbPK6wxRect
	.quad	_ZN8wxWindow6UpdateEv
	.quad	_ZN12wxWindowBase15ClearBackgroundEv
	.quad	_ZN12wxWindowBase9PrepareDCER4wxDC
	.quad	_ZNK8wxWindow16IsDoubleBufferedEv
	.quad	_ZNK12wxWindowBase11DoIsExposedEii
	.quad	_ZNK12wxWindowBase11DoIsExposedEiiii
	.quad	_ZNK12wxWindowBase20GetDefaultAttributesEv
	.quad	_ZN12wxWindowBase19SetBackgroundColourERK8wxColour
	.quad	_ZN12wxWindowBase19SetForegroundColourERK8wxColour
	.quad	_ZN12wxWindowBase18SetBackgroundStyleE17wxBackgroundStyle
	.quad	_ZN12wxWindowBase24HasTransparentBackgroundEv
	.quad	_ZNK12wxWindowBase32IsTransparentBackgroundSupportedEP8wxString
	.quad	_ZN8wxWindow7SetFontERK6wxFont
	.quad	_ZN8wxWindow9SetCursorERK8wxCursor
	.quad	_ZNK8wxWindow13GetCharHeightEv
	.quad	_ZNK8wxWindow12GetCharWidthEv
	.quad	_ZN12wxWindowBase14UpdateWindowUIEl
	.quad	_ZN20wxTopLevelWindowBase16DoUpdateWindowUIER15wxUpdateUIEvent
	.quad	_ZNK12wxWindowBase16HasMultiplePagesEv
	.quad	_ZNK12wxWindowBase9CanScrollEi
	.quad	_ZN8wxWindow12SetScrollbarEiiiib
	.quad	_ZN8wxWindow12SetScrollPosEiib
	.quad	_ZNK8wxWindow12GetScrollPosEi
	.quad	_ZNK8wxWindow14GetScrollThumbEi
	.quad	_ZNK8wxWindow14GetScrollRangeEi
	.quad	_ZN8wxWindow12ScrollWindowEiiPK6wxRect
	.quad	_ZN8wxWindow11ScrollLinesEi
	.quad	_ZN8wxWindow11ScrollPagesEi
	.quad	_ZN12wxWindowBase20AlwaysShowScrollbarsEbb
	.quad	_ZNK12wxWindowBase22IsScrollbarAlwaysShownEi
	.quad	_ZNK12wxWindowBase18GetHelpTextAtPointERK7wxPointN11wxHelpEvent6OriginE
	.quad	_ZN8wxWindow13SetDropTargetEP12wxDropTarget
	.quad	_ZNK12wxWindowBase13GetDropTargetEv
	.quad	_ZN8wxWindow15DragAcceptFilesEb
	.quad	_ZN12wxWindowBase18SetConstraintSizesEb
	.quad	_ZN12wxWindowBase12LayoutPhase1EPi
	.quad	_ZN12wxWindowBase12LayoutPhase2EPi
	.quad	_ZN12wxWindowBase7DoPhaseEi
	.quad	_ZN12wxWindowBase17SetSizeConstraintEiiii
	.quad	_ZN12wxWindowBase14MoveConstraintEii
	.quad	_ZNK12wxWindowBase17GetSizeConstraintEPiS0_
	.quad	_ZNK12wxWindowBase23GetClientSizeConstraintEPiS0_
	.quad	_ZNK12wxWindowBase21GetPositionConstraintEPiS0_
	.quad	_ZN12wxWindowBase6LayoutEv
	.quad	_ZN19wxTopLevelWindowMSW14SetTransparentEh
	.quad	_ZN19wxTopLevelWindowMSW17CanSetTransparentEv
	.quad	_ZN8wxWindow14OnInternalIdleEv
	.quad	_ZN12wxWindowBase14SendIdleEventsER11wxIdleEvent
	.quad	_ZNK8wxWindow9GetHandleEv
	.quad	_ZN8wxWindow15AssociateHandleEP6HWND__
	.quad	_ZN8wxWindow16DissociateHandleEv
	.quad	_ZN20wxNonOwnedWindowBase17InheritAttributesEv
	.quad	_ZNK12wxWindowBase20ShouldInheritColoursEv
	.quad	_ZNK12wxWindowBase22CanBeOutsideClientAreaEv
	.quad	_ZNK19wxTopLevelWindowMSW19CanApplyThemeBorderEv
	.quad	_ZN12wxWindowBase31GetMainWindowOfCompositeControlEv
	.quad	_ZNK20wxTopLevelWindowBase21IsTopNavigationDomainEv
	.quad	_ZN12wxWindowBase16DoMoveInTabOrderEP8wxWindowNS_11WindowOrderE
	.quad	_ZN12wxWindowBase12DoNavigateInEi
	.quad	_ZN8wxWindow8DoEnableEb
	.quad	_ZNK8wxWindow16GetDefaultBorderEv
	.quad	_ZNK8wxWindow26GetDefaultBorderForControlEv
	.quad	_ZN12wxWindowBase18SetInitialBestSizeERK6wxSize
	.quad	_ZNK8wxWindow15DoGetTextExtentERK8wxStringPiS3_S3_S3_PK6wxFont
	.quad	_ZNK20wxTopLevelWindowBase16DoClientToScreenEPiS0_
	.quad	_ZNK20wxTopLevelWindowBase16DoScreenToClientEPiS0_
	.quad	_ZNK12wxWindowBase9DoHitTestEii
	.quad	_ZN8wxWindow14DoCaptureMouseEv
	.quad	_ZN8wxWindow14DoReleaseMouseEv
	.quad	_ZNK19wxTopLevelWindowMSW13DoGetPositionEPiS0_
	.quad	_ZNK20wxTopLevelWindowBase19DoGetScreenPositionEPiS0_
	.quad	_ZNK19wxTopLevelWindowMSW9DoGetSizeEPiS0_
	.quad	_ZNK8wxWindow15DoGetClientSizeEPiS0_
	.quad	_ZNK12wxWindowBase13DoGetBestSizeEv
	.quad	_ZNK12wxWindowBase19DoGetBestClientSizeEv
	.quad	_ZNK12wxWindowBase21DoGetBestClientHeightEi
	.quad	_ZNK12wxWindowBase20DoGetBestClientWidthEi
	.quad	_ZN8wxWindow9DoSetSizeEiiiii
	.quad	_ZN8wxWindow15DoSetClientSizeEii
	.quad	_ZN12wxWindowBase14DoSetSizeHintsEiiiiii
	.quad	_ZNK8wxWindow15DoGetBorderSizeEv
	.quad	_ZN8wxWindow12DoMoveWindowEiiii
	.quad	_ZN20wxTopLevelWindowBase8DoCentreEi
	.quad	_ZN8wxWindow12DoSetToolTipEP9wxToolTip
	.quad	_ZN8wxWindow11DoPopupMenuEP6wxMenuii
	.quad	_ZNK20wxNonOwnedWindowBase27AdjustForParentClientOriginERiS0_i
	.quad	_ZN12wxWindowBase18DoSetWindowVariantE15wxWindowVariant
	.quad	_ZN19wxTopLevelWindowMSW8DoFreezeEv
	.quad	_ZN19wxTopLevelWindowMSW6DoThawEv
	.quad	_ZN8wxWindow16LoadNativeDialogEPS_Ri
	.quad	_ZN8wxWindow16LoadNativeDialogEPS_RK8wxString
	.quad	_ZNK8wxWindow12ContainsHWNDEP6HWND__
	.quad	_ZNK8wxWindow11HasToolTipsEv
	.quad	_ZNK19wxTopLevelWindowMSW11MSWGetStyleElPm
	.quad	_ZNK19wxTopLevelWindowMSW12MSWGetParentEv
	.quad	_ZN8wxWindow10MSWCommandEjt
	.quad	_ZN8wxWindow20CreateWindowFromHWNDEPS_P6HWND__
	.quad	_ZN8wxWindow23AdoptAttributesFromHWNDEv
	.quad	_ZN8wxWindow12SetupColoursEv
	.quad	_ZN8wxWindow11MSWOnScrollEittP6HWND__
	.quad	_ZN8wxWindow11MSWOnNotifyEixPx
	.quad	_ZN8wxWindow13MSWOnDrawItemEiPPv
	.quad	_ZN8wxWindow16MSWOnMeasureItemEiPPv
	.quad	_ZN8wxWindow19HandleSettingChangeEyx
	.quad	_ZN8wxWindow16MSWHandleMessageEPxjyx
	.quad	_ZN8wxDialog13MSWWindowProcEjyx
	.quad	_ZN8wxWindow16MSWDefWindowProcEjyx
	.quad	_ZN8wxWindow26MSWShouldPreProcessMessageEP6tagMSG
	.quad	_ZN8wxWindow17MSWProcessMessageEP6tagMSG
	.quad	_ZN8wxWindow19MSWTranslateMessageEP6tagMSG
	.quad	_ZN8wxWindow16MSWDestroyWindowEv
	.quad	_ZNK8wxWindow17MSWAdjustBrushOrgEPiS0_
	.quad	_ZN8wxWindow19MSWGetCustomBgBrushEv
	.quad	_ZN8wxWindow21MSWGetBgBrushForChildEP5HDC__PS_
	.quad	_ZN8wxWindow13MSWPrintChildEP5HDC__PS_
	.quad	_ZN8wxWindow28MSWShouldPropagatePrintChildEv
	.quad	_ZNK8wxWindow27MSWHasInheritableBackgroundEv
	.quad	_ZN8wxWindow14MSWEraseBgHookEP5HDC__
	.quad	_ZNK8wxWindow15TranslateBorderE8wxBorder
	.quad	_ZNK19wxTopLevelWindowMSW24MSWGetCreateWindowCoordsERK7wxPointRK6wxSizeRiS6_S6_S6_
	.quad	_ZNK8wxWindow11MSWFindItemElP6HWND__
	.quad	_ZN8wxWindow20MSWEndDeferWindowPosEv
	.quad	_ZN16wxNonOwnedWindow12DoClearShapeEv
	.quad	_ZN16wxNonOwnedWindow16DoSetRegionShapeERK8wxRegion
	.quad	_ZN19wxTopLevelWindowMSW8MaximizeEb
	.quad	_ZN19wxTopLevelWindowMSW7RestoreEv
	.quad	_ZN19wxTopLevelWindowMSW7IconizeEb
	.quad	_ZNK19wxTopLevelWindowMSW11IsMaximizedEv
	.quad	_ZNK20wxTopLevelWindowBase17IsAlwaysMaximizedEv
	.quad	_ZNK19wxTopLevelWindowMSW10IsIconizedEv
	.quad	_ZN19wxTopLevelWindowMSW8SetIconsERK12wxIconBundle
	.quad	_ZN19wxTopLevelWindowMSW14ShowFullScreenEbl
	.quad	_ZN19wxTopLevelWindowMSW21ShowWithoutActivatingEv
	.quad	_ZNK19wxTopLevelWindowMSW12IsFullScreenEv
	.quad	_ZN19wxTopLevelWindowMSW8SetTitleERK8wxString
	.quad	_ZNK19wxTopLevelWindowMSW8GetTitleEv
	.quad	_ZN19wxTopLevelWindowMSW17EnableCloseButtonEb
	.quad	_ZN19wxTopLevelWindowMSW20RequestUserAttentionEi
	.quad	_ZN20wxTopLevelWindowBase8IsActiveEv
	.quad	_ZNK20wxTopLevelWindowBase20ShouldPreventAppExitEv
	.quad	_ZNK20wxTopLevelWindowBase9IsVisibleEv
	.quad	_ZN20wxTopLevelWindowBase26GetRectForTopLevelChildrenEPiS0_S0_S0_
	.quad	_ZN20wxTopLevelWindowBase14OSXSetModifiedEb
	.quad	_ZNK20wxTopLevelWindowBase13OSXIsModifiedEv
	.quad	_ZN20wxTopLevelWindowBase22SetRepresentedFilenameERK8wxString
	.quad	_ZN20wxTopLevelWindowBase10DoGiveHelpERK8wxStringb
	.quad	_ZNK20wxTopLevelWindowBase11IsOneOfBarsEPK8wxWindow
	.quad	_ZN19wxTopLevelWindowMSW20MSWFindMenuFromHMENUEP7HMENU__
	.quad	_ZN8wxDialog9ShowModalEv
	.quad	_ZN8wxDialog8EndModalEi
	.quad	_ZNK8wxDialog7IsModalEv
	.quad	_ZN12wxDialogBase15ShowWindowModalEv
	.quad	_ZN12wxDialogBase26SendWindowModalDialogEventEi
	.quad	_ZN12wxDialogBase18DoLayoutAdaptationEv
	.quad	_ZN12wxDialogBase21CanDoLayoutAdaptationEv
	.quad	_ZNK12wxDialogBase16GetContentWindowEv
	.quad	_ZNK12wxDialogBase11GetModalityEv
	.quad	_ZN12wxDialogBase11IsEscapeKeyERK10wxKeyEvent
	.quad	_ZN14MeuSobreDialog19DoAddCustomControlsEv
	.section	.text$_ZN14MeuSobreDialogD1Ev,"x"
	.linkonce discard
	.align 2
	.globl	_ZN14MeuSobreDialogD1Ev
	.def	_ZN14MeuSobreDialogD1Ev;	.scl	2;	.type	32;	.endef
	.seh_proc	_ZN14MeuSobreDialogD1Ev
_ZN14MeuSobreDialogD1Ev:
.LFB15944:
	.file 21 "C:/temp/ballisticKernelCpp/interfaceGrafica/calculadorBalisiticaGraficoWindows/MeuSobreDialog.h"
	.loc 21 7 7
	.cfi_startproc
	pushq	%rbp
	.seh_pushreg	%rbp
	.cfi_def_cfa_offset 16
	.cfi_offset 6, -16
	movq	%rsp, %rbp
	.seh_setframe	%rbp, 0
	.cfi_def_cfa_register 6
	subq	$32, %rsp
	.seh_stackalloc	32
	.seh_endprologue
	movq	%rcx, 16(%rbp)
.LBB27:
	.loc 21 7 7
	leaq	16+_ZTV14MeuSobreDialog(%rip), %rdx
	movq	16(%rbp), %rax
	movq	%rdx, (%rax)
	movq	16(%rbp), %rax
	movq	%rax, %rcx
	call	_ZN20wxGenericAboutDialogD2Ev
.LBE27:
	nop
	addq	$32, %rsp
	popq	%rbp
	.cfi_restore 6
	.cfi_def_cfa 7, 8
	ret
	.cfi_endproc
.LFE15944:
	.seh_endproc
	.section	.text$_ZN14MeuSobreDialogD0Ev,"x"
	.linkonce discard
	.align 2
	.globl	_ZN14MeuSobreDialogD0Ev
	.def	_ZN14MeuSobreDialogD0Ev;	.scl	2;	.type	32;	.endef
	.seh_proc	_ZN14MeuSobreDialogD0Ev
_ZN14MeuSobreDialogD0Ev:
.LFB15945:
	.loc 21 7 7
	.cfi_startproc
	pushq	%rbp
	.seh_pushreg	%rbp
	.cfi_def_cfa_offset 16
	.cfi_offset 6, -16
	movq	%rsp, %rbp
	.seh_setframe	%rbp, 0
	.cfi_def_cfa_register 6
	subq	$32, %rsp
	.seh_stackalloc	32
	.seh_endprologue
	movq	%rcx, 16(%rbp)
	.loc 21 7 7
	movq	16(%rbp), %rcx
	call	_ZN14MeuSobreDialogD1Ev
	movq	16(%rbp), %rcx
	call	_ZdlPv
	nop
	addq	$32, %rsp
	popq	%rbp
	.cfi_restore 6
	.cfi_def_cfa 7, 8
	ret
	.cfi_endproc
.LFE15945:
	.seh_endproc
	.globl	_ZTV20wxGenericAboutDialog
	.section	.rdata$_ZTV20wxGenericAboutDialog,"dr"
	.linkonce same_size
	.align 8
_ZTV20wxGenericAboutDialog:
	.quad	0
	.quad	_ZTI20wxGenericAboutDialog
	.quad	_ZNK8wxDialog12GetClassInfoEv
	.quad	_ZN20wxGenericAboutDialogD1Ev
	.quad	_ZN20wxGenericAboutDialogD0Ev
	.quad	_ZNK8wxObject13CreateRefDataEv
	.quad	_ZNK8wxObject12CloneRefDataEPK12wxRefCounter
	.quad	_ZN12wxWindowBase14SetNextHandlerEP12wxEvtHandler
	.quad	_ZN12wxWindowBase18SetPreviousHandlerEP12wxEvtHandler
	.quad	_ZN12wxEvtHandler12ProcessEventER7wxEvent
	.quad	_ZN12wxEvtHandler10QueueEventEP7wxEvent
	.quad	_ZN12wxEvtHandler15AddPendingEventERK7wxEvent
	.quad	_ZN12wxEvtHandler16SearchEventTableER12wxEventTableR7wxEvent
	.quad	_ZN12wxWindowBase9TryBeforeER7wxEvent
	.quad	_ZN12wxWindowBase8TryAfterER7wxEvent
	.quad	_ZN12wxEvtHandler12TryValidatorER7wxEvent
	.quad	_ZN12wxEvtHandler9TryParentER7wxEvent
	.quad	_ZNK12wxDialogBase13GetEventTableEv
	.quad	_ZNK12wxDialogBase17GetEventHashTableEv
	.quad	_ZN12wxEvtHandler17DoSetClientObjectEP12wxClientData
	.quad	_ZNK12wxEvtHandler17DoGetClientObjectEv
	.quad	_ZN12wxEvtHandler15DoSetClientDataEPv
	.quad	_ZNK12wxEvtHandler15DoGetClientDataEv
	.quad	_ZN20wxTopLevelWindowBase7DestroyEv
	.quad	_ZN8wxWindow8SetLabelERK8wxString
	.quad	_ZNK8wxWindow8GetLabelEv
	.quad	_ZN12wxWindowBase7SetNameERK8wxString
	.quad	_ZNK12wxWindowBase7GetNameEv
	.quad	_ZNK8wxWindow18GetLayoutDirectionEv
	.quad	_ZN19wxTopLevelWindowMSW18SetLayoutDirectionE17wxLayoutDirection
	.quad	_ZNK8wxWindow24AdjustForLayoutDirectionEiii
	.quad	_ZN19wxTopLevelWindowMSW5RaiseEv
	.quad	_ZN8wxWindow5LowerEv
	.quad	_ZNK12wxWindowBase19GetClientAreaOriginEv
	.quad	_ZNK12wxWindowBase18ClientToWindowSizeERK6wxSize
	.quad	_ZNK12wxWindowBase18WindowToClientSizeERK6wxSize
	.quad	_ZNK12wxWindowBase19GetEffectiveMinSizeEv
	.quad	_ZN12wxWindowBase3FitEv
	.quad	_ZN12wxWindowBase9FitInsideEv
	.quad	_ZN12wxWindowBase12SetSizeHintsEiiiiii
	.quad	_ZN12wxWindowBase19SetVirtualSizeHintsEiiii
	.quad	_ZN20wxTopLevelWindowBase10SetMinSizeERK6wxSize
	.quad	_ZN20wxTopLevelWindowBase10SetMaxSizeERK6wxSize
	.quad	_ZN12wxWindowBase16SetMinClientSizeERK6wxSize
	.quad	_ZN12wxWindowBase16SetMaxClientSizeERK6wxSize
	.quad	_ZNK12wxWindowBase10GetMinSizeEv
	.quad	_ZNK12wxWindowBase10GetMaxSizeEv
	.quad	_ZNK12wxWindowBase16GetMinClientSizeEv
	.quad	_ZNK12wxWindowBase16GetMaxClientSizeEv
	.quad	_ZN12wxWindowBase16DoSetVirtualSizeEii
	.quad	_ZNK12wxWindowBase16DoGetVirtualSizeEv
	.quad	_ZNK12wxWindowBase18GetBestVirtualSizeEv
	.quad	_ZNK12wxWindowBase21GetContentScaleFactorEv
	.quad	_ZNK12wxWindowBase19GetWindowBorderSizeEv
	.quad	_ZN12wxWindowBase20InformFirstDirectionEiii
	.quad	_ZN12wxWindowBase13SendSizeEventEi
	.quad	_ZN8wxWindow26BeginRepositioningChildrenEv
	.quad	_ZN8wxWindow24EndRepositioningChildrenEv
	.quad	_ZN8wxDialog4ShowEb
	.quad	_ZN8wxWindow14ShowWithEffectE12wxShowEffectj
	.quad	_ZN8wxWindow14HideWithEffectE12wxShowEffectj
	.quad	_ZN12wxWindowBase6EnableEb
	.quad	_ZNK12wxWindowBase7IsShownEv
	.quad	_ZNK12wxWindowBase15IsShownOnScreenEv
	.quad	_ZN8wxDialog18SetWindowStyleFlagEl
	.quad	_ZNK12wxWindowBase18GetWindowStyleFlagEv
	.quad	_ZNK12wxWindowBase10IsRetainedEv
	.quad	_ZN8wxWindow13SetExtraStyleEl
	.quad	_ZN12wxWindowBase9MakeModalEb
	.quad	_ZN12wxWindowBase15SetThemeEnabledEb
	.quad	_ZNK12wxWindowBase15GetThemeEnabledEv
	.quad	_ZN19wxNavigationEnabledI16wxTopLevelWindowE8SetFocusEv
	.quad	_ZN8wxWindow15SetFocusFromKbdEv
	.quad	_ZNK12wxWindowBase8HasFocusEv
	.quad	_ZNK19wxNavigationEnabledI16wxTopLevelWindowE12AcceptsFocusEv
	.quad	_ZNK19wxNavigationEnabledI16wxTopLevelWindowE23AcceptsFocusRecursivelyEv
	.quad	_ZNK19wxNavigationEnabledI16wxTopLevelWindowE24AcceptsFocusFromKeyboardEv
	.quad	_ZNK12wxWindowBase12CanBeFocusedEv
	.quad	_ZN12wxWindowBase11SetCanFocusEb
	.quad	_ZNK20wxTopLevelWindowBase10IsTopLevelEv
	.quad	_ZN8wxWindow8ReparentEP12wxWindowBase
	.quad	_ZN19wxNavigationEnabledI16wxTopLevelWindowE8AddChildEP12wxWindowBase
	.quad	_ZN19wxNavigationEnabledI16wxTopLevelWindowE11RemoveChildEP12wxWindowBase
	.quad	_ZNK12wxWindowBase17IsClientAreaChildEPK8wxWindow
	.quad	_ZN12wxWindowBase12SetValidatorERK11wxValidator
	.quad	_ZN12wxWindowBase12GetValidatorEv
	.quad	_ZN12wxWindowBase8ValidateEv
	.quad	_ZN12wxWindowBase20TransferDataToWindowEv
	.quad	_ZN12wxWindowBase22TransferDataFromWindowEv
	.quad	_ZN12wxWindowBase10InitDialogEv
	.quad	_ZN12wxWindowBase19SetAcceleratorTableERK18wxAcceleratorTable
	.quad	_ZN8wxWindow14RegisterHotKeyEiii
	.quad	_ZN8wxWindow16UnregisterHotKeyEi
	.quad	_ZN8wxWindow11WarpPointerEii
	.quad	_ZNK12wxWindowBase10HasCaptureEv
	.quad	_ZN8wxWindow7RefreshEbPK6wxRect
	.quad	_ZN8wxWindow6UpdateEv
	.quad	_ZN12wxWindowBase15ClearBackgroundEv
	.quad	_ZN12wxWindowBase9PrepareDCER4wxDC
	.quad	_ZNK8wxWindow16IsDoubleBufferedEv
	.quad	_ZNK12wxWindowBase11DoIsExposedEii
	.quad	_ZNK12wxWindowBase11DoIsExposedEiiii
	.quad	_ZNK12wxWindowBase20GetDefaultAttributesEv
	.quad	_ZN12wxWindowBase19SetBackgroundColourERK8wxColour
	.quad	_ZN12wxWindowBase19SetForegroundColourERK8wxColour
	.quad	_ZN12wxWindowBase18SetBackgroundStyleE17wxBackgroundStyle
	.quad	_ZN12wxWindowBase24HasTransparentBackgroundEv
	.quad	_ZNK12wxWindowBase32IsTransparentBackgroundSupportedEP8wxString
	.quad	_ZN8wxWindow7SetFontERK6wxFont
	.quad	_ZN8wxWindow9SetCursorERK8wxCursor
	.quad	_ZNK8wxWindow13GetCharHeightEv
	.quad	_ZNK8wxWindow12GetCharWidthEv
	.quad	_ZN12wxWindowBase14UpdateWindowUIEl
	.quad	_ZN20wxTopLevelWindowBase16DoUpdateWindowUIER15wxUpdateUIEvent
	.quad	_ZNK12wxWindowBase16HasMultiplePagesEv
	.quad	_ZNK12wxWindowBase9CanScrollEi
	.quad	_ZN8wxWindow12SetScrollbarEiiiib
	.quad	_ZN8wxWindow12SetScrollPosEiib
	.quad	_ZNK8wxWindow12GetScrollPosEi
	.quad	_ZNK8wxWindow14GetScrollThumbEi
	.quad	_ZNK8wxWindow14GetScrollRangeEi
	.quad	_ZN8wxWindow12ScrollWindowEiiPK6wxRect
	.quad	_ZN8wxWindow11ScrollLinesEi
	.quad	_ZN8wxWindow11ScrollPagesEi
	.quad	_ZN12wxWindowBase20AlwaysShowScrollbarsEbb
	.quad	_ZNK12wxWindowBase22IsScrollbarAlwaysShownEi
	.quad	_ZNK12wxWindowBase18GetHelpTextAtPointERK7wxPointN11wxHelpEvent6OriginE
	.quad	_ZN8wxWindow13SetDropTargetEP12wxDropTarget
	.quad	_ZNK12wxWindowBase13GetDropTargetEv
	.quad	_ZN8wxWindow15DragAcceptFilesEb
	.quad	_ZN12wxWindowBase18SetConstraintSizesEb
	.quad	_ZN12wxWindowBase12LayoutPhase1EPi
	.quad	_ZN12wxWindowBase12LayoutPhase2EPi
	.quad	_ZN12wxWindowBase7DoPhaseEi
	.quad	_ZN12wxWindowBase17SetSizeConstraintEiiii
	.quad	_ZN12wxWindowBase14MoveConstraintEii
	.quad	_ZNK12wxWindowBase17GetSizeConstraintEPiS0_
	.quad	_ZNK12wxWindowBase23GetClientSizeConstraintEPiS0_
	.quad	_ZNK12wxWindowBase21GetPositionConstraintEPiS0_
	.quad	_ZN12wxWindowBase6LayoutEv
	.quad	_ZN19wxTopLevelWindowMSW14SetTransparentEh
	.quad	_ZN19wxTopLevelWindowMSW17CanSetTransparentEv
	.quad	_ZN8wxWindow14OnInternalIdleEv
	.quad	_ZN12wxWindowBase14SendIdleEventsER11wxIdleEvent
	.quad	_ZNK8wxWindow9GetHandleEv
	.quad	_ZN8wxWindow15AssociateHandleEP6HWND__
	.quad	_ZN8wxWindow16DissociateHandleEv
	.quad	_ZN20wxNonOwnedWindowBase17InheritAttributesEv
	.quad	_ZNK12wxWindowBase20ShouldInheritColoursEv
	.quad	_ZNK12wxWindowBase22CanBeOutsideClientAreaEv
	.quad	_ZNK19wxTopLevelWindowMSW19CanApplyThemeBorderEv
	.quad	_ZN12wxWindowBase31GetMainWindowOfCompositeControlEv
	.quad	_ZNK20wxTopLevelWindowBase21IsTopNavigationDomainEv
	.quad	_ZN12wxWindowBase16DoMoveInTabOrderEP8wxWindowNS_11WindowOrderE
	.quad	_ZN12wxWindowBase12DoNavigateInEi
	.quad	_ZN8wxWindow8DoEnableEb
	.quad	_ZNK8wxWindow16GetDefaultBorderEv
	.quad	_ZNK8wxWindow26GetDefaultBorderForControlEv
	.quad	_ZN12wxWindowBase18SetInitialBestSizeERK6wxSize
	.quad	_ZNK8wxWindow15DoGetTextExtentERK8wxStringPiS3_S3_S3_PK6wxFont
	.quad	_ZNK20wxTopLevelWindowBase16DoClientToScreenEPiS0_
	.quad	_ZNK20wxTopLevelWindowBase16DoScreenToClientEPiS0_
	.quad	_ZNK12wxWindowBase9DoHitTestEii
	.quad	_ZN8wxWindow14DoCaptureMouseEv
	.quad	_ZN8wxWindow14DoReleaseMouseEv
	.quad	_ZNK19wxTopLevelWindowMSW13DoGetPositionEPiS0_
	.quad	_ZNK20wxTopLevelWindowBase19DoGetScreenPositionEPiS0_
	.quad	_ZNK19wxTopLevelWindowMSW9DoGetSizeEPiS0_
	.quad	_ZNK8wxWindow15DoGetClientSizeEPiS0_
	.quad	_ZNK12wxWindowBase13DoGetBestSizeEv
	.quad	_ZNK12wxWindowBase19DoGetBestClientSizeEv
	.quad	_ZNK12wxWindowBase21DoGetBestClientHeightEi
	.quad	_ZNK12wxWindowBase20DoGetBestClientWidthEi
	.quad	_ZN8wxWindow9DoSetSizeEiiiii
	.quad	_ZN8wxWindow15DoSetClientSizeEii
	.quad	_ZN12wxWindowBase14DoSetSizeHintsEiiiiii
	.quad	_ZNK8wxWindow15DoGetBorderSizeEv
	.quad	_ZN8wxWindow12DoMoveWindowEiiii
	.quad	_ZN20wxTopLevelWindowBase8DoCentreEi
	.quad	_ZN8wxWindow12DoSetToolTipEP9wxToolTip
	.quad	_ZN8wxWindow11DoPopupMenuEP6wxMenuii
	.quad	_ZNK20wxNonOwnedWindowBase27AdjustForParentClientOriginERiS0_i
	.quad	_ZN12wxWindowBase18DoSetWindowVariantE15wxWindowVariant
	.quad	_ZN19wxTopLevelWindowMSW8DoFreezeEv
	.quad	_ZN19wxTopLevelWindowMSW6DoThawEv
	.quad	_ZN8wxWindow16LoadNativeDialogEPS_Ri
	.quad	_ZN8wxWindow16LoadNativeDialogEPS_RK8wxString
	.quad	_ZNK8wxWindow12ContainsHWNDEP6HWND__
	.quad	_ZNK8wxWindow11HasToolTipsEv
	.quad	_ZNK19wxTopLevelWindowMSW11MSWGetStyleElPm
	.quad	_ZNK19wxTopLevelWindowMSW12MSWGetParentEv
	.quad	_ZN8wxWindow10MSWCommandEjt
	.quad	_ZN8wxWindow20CreateWindowFromHWNDEPS_P6HWND__
	.quad	_ZN8wxWindow23AdoptAttributesFromHWNDEv
	.quad	_ZN8wxWindow12SetupColoursEv
	.quad	_ZN8wxWindow11MSWOnScrollEittP6HWND__
	.quad	_ZN8wxWindow11MSWOnNotifyEixPx
	.quad	_ZN8wxWindow13MSWOnDrawItemEiPPv
	.quad	_ZN8wxWindow16MSWOnMeasureItemEiPPv
	.quad	_ZN8wxWindow19HandleSettingChangeEyx
	.quad	_ZN8wxWindow16MSWHandleMessageEPxjyx
	.quad	_ZN8wxDialog13MSWWindowProcEjyx
	.quad	_ZN8wxWindow16MSWDefWindowProcEjyx
	.quad	_ZN8wxWindow26MSWShouldPreProcessMessageEP6tagMSG
	.quad	_ZN8wxWindow17MSWProcessMessageEP6tagMSG
	.quad	_ZN8wxWindow19MSWTranslateMessageEP6tagMSG
	.quad	_ZN8wxWindow16MSWDestroyWindowEv
	.quad	_ZNK8wxWindow17MSWAdjustBrushOrgEPiS0_
	.quad	_ZN8wxWindow19MSWGetCustomBgBrushEv
	.quad	_ZN8wxWindow21MSWGetBgBrushForChildEP5HDC__PS_
	.quad	_ZN8wxWindow13MSWPrintChildEP5HDC__PS_
	.quad	_ZN8wxWindow28MSWShouldPropagatePrintChildEv
	.quad	_ZNK8wxWindow27MSWHasInheritableBackgroundEv
	.quad	_ZN8wxWindow14MSWEraseBgHookEP5HDC__
	.quad	_ZNK8wxWindow15TranslateBorderE8wxBorder
	.quad	_ZNK19wxTopLevelWindowMSW24MSWGetCreateWindowCoordsERK7wxPointRK6wxSizeRiS6_S6_S6_
	.quad	_ZNK8wxWindow11MSWFindItemElP6HWND__
	.quad	_ZN8wxWindow20MSWEndDeferWindowPosEv
	.quad	_ZN16wxNonOwnedWindow12DoClearShapeEv
	.quad	_ZN16wxNonOwnedWindow16DoSetRegionShapeERK8wxRegion
	.quad	_ZN19wxTopLevelWindowMSW8MaximizeEb
	.quad	_ZN19wxTopLevelWindowMSW7RestoreEv
	.quad	_ZN19wxTopLevelWindowMSW7IconizeEb
	.quad	_ZNK19wxTopLevelWindowMSW11IsMaximizedEv
	.quad	_ZNK20wxTopLevelWindowBase17IsAlwaysMaximizedEv
	.quad	_ZNK19wxTopLevelWindowMSW10IsIconizedEv
	.quad	_ZN19wxTopLevelWindowMSW8SetIconsERK12wxIconBundle
	.quad	_ZN19wxTopLevelWindowMSW14ShowFullScreenEbl
	.quad	_ZN19wxTopLevelWindowMSW21ShowWithoutActivatingEv
	.quad	_ZNK19wxTopLevelWindowMSW12IsFullScreenEv
	.quad	_ZN19wxTopLevelWindowMSW8SetTitleERK8wxString
	.quad	_ZNK19wxTopLevelWindowMSW8GetTitleEv
	.quad	_ZN19wxTopLevelWindowMSW17EnableCloseButtonEb
	.quad	_ZN19wxTopLevelWindowMSW20RequestUserAttentionEi
	.quad	_ZN20wxTopLevelWindowBase8IsActiveEv
	.quad	_ZNK20wxTopLevelWindowBase20ShouldPreventAppExitEv
	.quad	_ZNK20wxTopLevelWindowBase9IsVisibleEv
	.quad	_ZN20wxTopLevelWindowBase26GetRectForTopLevelChildrenEPiS0_S0_S0_
	.quad	_ZN20wxTopLevelWindowBase14OSXSetModifiedEb
	.quad	_ZNK20wxTopLevelWindowBase13OSXIsModifiedEv
	.quad	_ZN20wxTopLevelWindowBase22SetRepresentedFilenameERK8wxString
	.quad	_ZN20wxTopLevelWindowBase10DoGiveHelpERK8wxStringb
	.quad	_ZNK20wxTopLevelWindowBase11IsOneOfBarsEPK8wxWindow
	.quad	_ZN19wxTopLevelWindowMSW20MSWFindMenuFromHMENUEP7HMENU__
	.quad	_ZN8wxDialog9ShowModalEv
	.quad	_ZN8wxDialog8EndModalEi
	.quad	_ZNK8wxDialog7IsModalEv
	.quad	_ZN12wxDialogBase15ShowWindowModalEv
	.quad	_ZN12wxDialogBase26SendWindowModalDialogEventEi
	.quad	_ZN12wxDialogBase18DoLayoutAdaptationEv
	.quad	_ZN12wxDialogBase21CanDoLayoutAdaptationEv
	.quad	_ZNK12wxDialogBase16GetContentWindowEv
	.quad	_ZNK12wxDialogBase11GetModalityEv
	.quad	_ZN12wxDialogBase11IsEscapeKeyERK10wxKeyEvent
	.quad	_ZN20wxGenericAboutDialog19DoAddCustomControlsEv
	.globl	_ZTV19wxNavigationEnabledI16wxTopLevelWindowE
	.section	.rdata$_ZTV19wxNavigationEnabledI16wxTopLevelWindowE,"dr"
	.linkonce same_size
	.align 8
_ZTV19wxNavigationEnabledI16wxTopLevelWindowE:
	.quad	0
	.quad	_ZTI19wxNavigationEnabledI16wxTopLevelWindowE
	.quad	_ZNK16wxTopLevelWindow12GetClassInfoEv
	.quad	_ZN19wxNavigationEnabledI16wxTopLevelWindowED1Ev
	.quad	_ZN19wxNavigationEnabledI16wxTopLevelWindowED0Ev
	.quad	_ZNK8wxObject13CreateRefDataEv
	.quad	_ZNK8wxObject12CloneRefDataEPK12wxRefCounter
	.quad	_ZN12wxWindowBase14SetNextHandlerEP12wxEvtHandler
	.quad	_ZN12wxWindowBase18SetPreviousHandlerEP12wxEvtHandler
	.quad	_ZN12wxEvtHandler12ProcessEventER7wxEvent
	.quad	_ZN12wxEvtHandler10QueueEventEP7wxEvent
	.quad	_ZN12wxEvtHandler15AddPendingEventERK7wxEvent
	.quad	_ZN12wxEvtHandler16SearchEventTableER12wxEventTableR7wxEvent
	.quad	_ZN12wxWindowBase9TryBeforeER7wxEvent
	.quad	_ZN12wxWindowBase8TryAfterER7wxEvent
	.quad	_ZN12wxEvtHandler12TryValidatorER7wxEvent
	.quad	_ZN12wxEvtHandler9TryParentER7wxEvent
	.quad	_ZNK19wxTopLevelWindowMSW13GetEventTableEv
	.quad	_ZNK19wxTopLevelWindowMSW17GetEventHashTableEv
	.quad	_ZN12wxEvtHandler17DoSetClientObjectEP12wxClientData
	.quad	_ZNK12wxEvtHandler17DoGetClientObjectEv
	.quad	_ZN12wxEvtHandler15DoSetClientDataEPv
	.quad	_ZNK12wxEvtHandler15DoGetClientDataEv
	.quad	_ZN20wxTopLevelWindowBase7DestroyEv
	.quad	_ZN8wxWindow8SetLabelERK8wxString
	.quad	_ZNK8wxWindow8GetLabelEv
	.quad	_ZN12wxWindowBase7SetNameERK8wxString
	.quad	_ZNK12wxWindowBase7GetNameEv
	.quad	_ZNK8wxWindow18GetLayoutDirectionEv
	.quad	_ZN19wxTopLevelWindowMSW18SetLayoutDirectionE17wxLayoutDirection
	.quad	_ZNK8wxWindow24AdjustForLayoutDirectionEiii
	.quad	_ZN19wxTopLevelWindowMSW5RaiseEv
	.quad	_ZN8wxWindow5LowerEv
	.quad	_ZNK12wxWindowBase19GetClientAreaOriginEv
	.quad	_ZNK12wxWindowBase18ClientToWindowSizeERK6wxSize
	.quad	_ZNK12wxWindowBase18WindowToClientSizeERK6wxSize
	.quad	_ZNK12wxWindowBase19GetEffectiveMinSizeEv
	.quad	_ZN12wxWindowBase3FitEv
	.quad	_ZN12wxWindowBase9FitInsideEv
	.quad	_ZN12wxWindowBase12SetSizeHintsEiiiiii
	.quad	_ZN12wxWindowBase19SetVirtualSizeHintsEiiii
	.quad	_ZN20wxTopLevelWindowBase10SetMinSizeERK6wxSize
	.quad	_ZN20wxTopLevelWindowBase10SetMaxSizeERK6wxSize
	.quad	_ZN12wxWindowBase16SetMinClientSizeERK6wxSize
	.quad	_ZN12wxWindowBase16SetMaxClientSizeERK6wxSize
	.quad	_ZNK12wxWindowBase10GetMinSizeEv
	.quad	_ZNK12wxWindowBase10GetMaxSizeEv
	.quad	_ZNK12wxWindowBase16GetMinClientSizeEv
	.quad	_ZNK12wxWindowBase16GetMaxClientSizeEv
	.quad	_ZN12wxWindowBase16DoSetVirtualSizeEii
	.quad	_ZNK12wxWindowBase16DoGetVirtualSizeEv
	.quad	_ZNK12wxWindowBase18GetBestVirtualSizeEv
	.quad	_ZNK12wxWindowBase21GetContentScaleFactorEv
	.quad	_ZNK12wxWindowBase19GetWindowBorderSizeEv
	.quad	_ZN12wxWindowBase20InformFirstDirectionEiii
	.quad	_ZN12wxWindowBase13SendSizeEventEi
	.quad	_ZN8wxWindow26BeginRepositioningChildrenEv
	.quad	_ZN8wxWindow24EndRepositioningChildrenEv
	.quad	_ZN19wxTopLevelWindowMSW4ShowEb
	.quad	_ZN8wxWindow14ShowWithEffectE12wxShowEffectj
	.quad	_ZN8wxWindow14HideWithEffectE12wxShowEffectj
	.quad	_ZN12wxWindowBase6EnableEb
	.quad	_ZNK12wxWindowBase7IsShownEv
	.quad	_ZNK12wxWindowBase15IsShownOnScreenEv
	.quad	_ZN8wxWindow18SetWindowStyleFlagEl
	.quad	_ZNK12wxWindowBase18GetWindowStyleFlagEv
	.quad	_ZNK12wxWindowBase10IsRetainedEv
	.quad	_ZN8wxWindow13SetExtraStyleEl
	.quad	_ZN12wxWindowBase9MakeModalEb
	.quad	_ZN12wxWindowBase15SetThemeEnabledEb
	.quad	_ZNK12wxWindowBase15GetThemeEnabledEv
	.quad	_ZN19wxNavigationEnabledI16wxTopLevelWindowE8SetFocusEv
	.quad	_ZN8wxWindow15SetFocusFromKbdEv
	.quad	_ZNK12wxWindowBase8HasFocusEv
	.quad	_ZNK19wxNavigationEnabledI16wxTopLevelWindowE12AcceptsFocusEv
	.quad	_ZNK19wxNavigationEnabledI16wxTopLevelWindowE23AcceptsFocusRecursivelyEv
	.quad	_ZNK19wxNavigationEnabledI16wxTopLevelWindowE24AcceptsFocusFromKeyboardEv
	.quad	_ZNK12wxWindowBase12CanBeFocusedEv
	.quad	_ZN12wxWindowBase11SetCanFocusEb
	.quad	_ZNK20wxTopLevelWindowBase10IsTopLevelEv
	.quad	_ZN8wxWindow8ReparentEP12wxWindowBase
	.quad	_ZN19wxNavigationEnabledI16wxTopLevelWindowE8AddChildEP12wxWindowBase
	.quad	_ZN19wxNavigationEnabledI16wxTopLevelWindowE11RemoveChildEP12wxWindowBase
	.quad	_ZNK12wxWindowBase17IsClientAreaChildEPK8wxWindow
	.quad	_ZN12wxWindowBase12SetValidatorERK11wxValidator
	.quad	_ZN12wxWindowBase12GetValidatorEv
	.quad	_ZN12wxWindowBase8ValidateEv
	.quad	_ZN12wxWindowBase20TransferDataToWindowEv
	.quad	_ZN12wxWindowBase22TransferDataFromWindowEv
	.quad	_ZN12wxWindowBase10InitDialogEv
	.quad	_ZN12wxWindowBase19SetAcceleratorTableERK18wxAcceleratorTable
	.quad	_ZN8wxWindow14RegisterHotKeyEiii
	.quad	_ZN8wxWindow16UnregisterHotKeyEi
	.quad	_ZN8wxWindow11WarpPointerEii
	.quad	_ZNK12wxWindowBase10HasCaptureEv
	.quad	_ZN8wxWindow7RefreshEbPK6wxRect
	.quad	_ZN8wxWindow6UpdateEv
	.quad	_ZN12wxWindowBase15ClearBackgroundEv
	.quad	_ZN12wxWindowBase9PrepareDCER4wxDC
	.quad	_ZNK8wxWindow16IsDoubleBufferedEv
	.quad	_ZNK12wxWindowBase11DoIsExposedEii
	.quad	_ZNK12wxWindowBase11DoIsExposedEiiii
	.quad	_ZNK12wxWindowBase20GetDefaultAttributesEv
	.quad	_ZN12wxWindowBase19SetBackgroundColourERK8wxColour
	.quad	_ZN12wxWindowBase19SetForegroundColourERK8wxColour
	.quad	_ZN12wxWindowBase18SetBackgroundStyleE17wxBackgroundStyle
	.quad	_ZN12wxWindowBase24HasTransparentBackgroundEv
	.quad	_ZNK12wxWindowBase32IsTransparentBackgroundSupportedEP8wxString
	.quad	_ZN8wxWindow7SetFontERK6wxFont
	.quad	_ZN8wxWindow9SetCursorERK8wxCursor
	.quad	_ZNK8wxWindow13GetCharHeightEv
	.quad	_ZNK8wxWindow12GetCharWidthEv
	.quad	_ZN12wxWindowBase14UpdateWindowUIEl
	.quad	_ZN20wxTopLevelWindowBase16DoUpdateWindowUIER15wxUpdateUIEvent
	.quad	_ZNK12wxWindowBase16HasMultiplePagesEv
	.quad	_ZNK12wxWindowBase9CanScrollEi
	.quad	_ZN8wxWindow12SetScrollbarEiiiib
	.quad	_ZN8wxWindow12SetScrollPosEiib
	.quad	_ZNK8wxWindow12GetScrollPosEi
	.quad	_ZNK8wxWindow14GetScrollThumbEi
	.quad	_ZNK8wxWindow14GetScrollRangeEi
	.quad	_ZN8wxWindow12ScrollWindowEiiPK6wxRect
	.quad	_ZN8wxWindow11ScrollLinesEi
	.quad	_ZN8wxWindow11ScrollPagesEi
	.quad	_ZN12wxWindowBase20AlwaysShowScrollbarsEbb
	.quad	_ZNK12wxWindowBase22IsScrollbarAlwaysShownEi
	.quad	_ZNK12wxWindowBase18GetHelpTextAtPointERK7wxPointN11wxHelpEvent6OriginE
	.quad	_ZN8wxWindow13SetDropTargetEP12wxDropTarget
	.quad	_ZNK12wxWindowBase13GetDropTargetEv
	.quad	_ZN8wxWindow15DragAcceptFilesEb
	.quad	_ZN12wxWindowBase18SetConstraintSizesEb
	.quad	_ZN12wxWindowBase12LayoutPhase1EPi
	.quad	_ZN12wxWindowBase12LayoutPhase2EPi
	.quad	_ZN12wxWindowBase7DoPhaseEi
	.quad	_ZN12wxWindowBase17SetSizeConstraintEiiii
	.quad	_ZN12wxWindowBase14MoveConstraintEii
	.quad	_ZNK12wxWindowBase17GetSizeConstraintEPiS0_
	.quad	_ZNK12wxWindowBase23GetClientSizeConstraintEPiS0_
	.quad	_ZNK12wxWindowBase21GetPositionConstraintEPiS0_
	.quad	_ZN12wxWindowBase6LayoutEv
	.quad	_ZN19wxTopLevelWindowMSW14SetTransparentEh
	.quad	_ZN19wxTopLevelWindowMSW17CanSetTransparentEv
	.quad	_ZN8wxWindow14OnInternalIdleEv
	.quad	_ZN12wxWindowBase14SendIdleEventsER11wxIdleEvent
	.quad	_ZNK8wxWindow9GetHandleEv
	.quad	_ZN8wxWindow15AssociateHandleEP6HWND__
	.quad	_ZN8wxWindow16DissociateHandleEv
	.quad	_ZN20wxNonOwnedWindowBase17InheritAttributesEv
	.quad	_ZNK12wxWindowBase20ShouldInheritColoursEv
	.quad	_ZNK12wxWindowBase22CanBeOutsideClientAreaEv
	.quad	_ZNK19wxTopLevelWindowMSW19CanApplyThemeBorderEv
	.quad	_ZN12wxWindowBase31GetMainWindowOfCompositeControlEv
	.quad	_ZNK20wxTopLevelWindowBase21IsTopNavigationDomainEv
	.quad	_ZN12wxWindowBase16DoMoveInTabOrderEP8wxWindowNS_11WindowOrderE
	.quad	_ZN12wxWindowBase12DoNavigateInEi
	.quad	_ZN8wxWindow8DoEnableEb
	.quad	_ZNK8wxWindow16GetDefaultBorderEv
	.quad	_ZNK8wxWindow26GetDefaultBorderForControlEv
	.quad	_ZN12wxWindowBase18SetInitialBestSizeERK6wxSize
	.quad	_ZNK8wxWindow15DoGetTextExtentERK8wxStringPiS3_S3_S3_PK6wxFont
	.quad	_ZNK20wxTopLevelWindowBase16DoClientToScreenEPiS0_
	.quad	_ZNK20wxTopLevelWindowBase16DoScreenToClientEPiS0_
	.quad	_ZNK12wxWindowBase9DoHitTestEii
	.quad	_ZN8wxWindow14DoCaptureMouseEv
	.quad	_ZN8wxWindow14DoReleaseMouseEv
	.quad	_ZNK19wxTopLevelWindowMSW13DoGetPositionEPiS0_
	.quad	_ZNK20wxTopLevelWindowBase19DoGetScreenPositionEPiS0_
	.quad	_ZNK19wxTopLevelWindowMSW9DoGetSizeEPiS0_
	.quad	_ZNK8wxWindow15DoGetClientSizeEPiS0_
	.quad	_ZNK12wxWindowBase13DoGetBestSizeEv
	.quad	_ZNK12wxWindowBase19DoGetBestClientSizeEv
	.quad	_ZNK12wxWindowBase21DoGetBestClientHeightEi
	.quad	_ZNK12wxWindowBase20DoGetBestClientWidthEi
	.quad	_ZN8wxWindow9DoSetSizeEiiiii
	.quad	_ZN8wxWindow15DoSetClientSizeEii
	.quad	_ZN12wxWindowBase14DoSetSizeHintsEiiiiii
	.quad	_ZNK8wxWindow15DoGetBorderSizeEv
	.quad	_ZN8wxWindow12DoMoveWindowEiiii
	.quad	_ZN20wxTopLevelWindowBase8DoCentreEi
	.quad	_ZN8wxWindow12DoSetToolTipEP9wxToolTip
	.quad	_ZN8wxWindow11DoPopupMenuEP6wxMenuii
	.quad	_ZNK20wxNonOwnedWindowBase27AdjustForParentClientOriginERiS0_i
	.quad	_ZN12wxWindowBase18DoSetWindowVariantE15wxWindowVariant
	.quad	_ZN19wxTopLevelWindowMSW8DoFreezeEv
	.quad	_ZN19wxTopLevelWindowMSW6DoThawEv
	.quad	_ZN8wxWindow16LoadNativeDialogEPS_Ri
	.quad	_ZN8wxWindow16LoadNativeDialogEPS_RK8wxString
	.quad	_ZNK8wxWindow12ContainsHWNDEP6HWND__
	.quad	_ZNK8wxWindow11HasToolTipsEv
	.quad	_ZNK19wxTopLevelWindowMSW11MSWGetStyleElPm
	.quad	_ZNK19wxTopLevelWindowMSW12MSWGetParentEv
	.quad	_ZN8wxWindow10MSWCommandEjt
	.quad	_ZN8wxWindow20CreateWindowFromHWNDEPS_P6HWND__
	.quad	_ZN8wxWindow23AdoptAttributesFromHWNDEv
	.quad	_ZN8wxWindow12SetupColoursEv
	.quad	_ZN8wxWindow11MSWOnScrollEittP6HWND__
	.quad	_ZN8wxWindow11MSWOnNotifyEixPx
	.quad	_ZN8wxWindow13MSWOnDrawItemEiPPv
	.quad	_ZN8wxWindow16MSWOnMeasureItemEiPPv
	.quad	_ZN8wxWindow19HandleSettingChangeEyx
	.quad	_ZN8wxWindow16MSWHandleMessageEPxjyx
	.quad	_ZN19wxTopLevelWindowMSW13MSWWindowProcEjyx
	.quad	_ZN8wxWindow16MSWDefWindowProcEjyx
	.quad	_ZN8wxWindow26MSWShouldPreProcessMessageEP6tagMSG
	.quad	_ZN8wxWindow17MSWProcessMessageEP6tagMSG
	.quad	_ZN8wxWindow19MSWTranslateMessageEP6tagMSG
	.quad	_ZN8wxWindow16MSWDestroyWindowEv
	.quad	_ZNK8wxWindow17MSWAdjustBrushOrgEPiS0_
	.quad	_ZN8wxWindow19MSWGetCustomBgBrushEv
	.quad	_ZN8wxWindow21MSWGetBgBrushForChildEP5HDC__PS_
	.quad	_ZN8wxWindow13MSWPrintChildEP5HDC__PS_
	.quad	_ZN8wxWindow28MSWShouldPropagatePrintChildEv
	.quad	_ZNK8wxWindow27MSWHasInheritableBackgroundEv
	.quad	_ZN8wxWindow14MSWEraseBgHookEP5HDC__
	.quad	_ZNK8wxWindow15TranslateBorderE8wxBorder
	.quad	_ZNK19wxTopLevelWindowMSW24MSWGetCreateWindowCoordsERK7wxPointRK6wxSizeRiS6_S6_S6_
	.quad	_ZNK8wxWindow11MSWFindItemElP6HWND__
	.quad	_ZN8wxWindow20MSWEndDeferWindowPosEv
	.quad	_ZN16wxNonOwnedWindow12DoClearShapeEv
	.quad	_ZN16wxNonOwnedWindow16DoSetRegionShapeERK8wxRegion
	.quad	_ZN19wxTopLevelWindowMSW8MaximizeEb
	.quad	_ZN19wxTopLevelWindowMSW7RestoreEv
	.quad	_ZN19wxTopLevelWindowMSW7IconizeEb
	.quad	_ZNK19wxTopLevelWindowMSW11IsMaximizedEv
	.quad	_ZNK20wxTopLevelWindowBase17IsAlwaysMaximizedEv
	.quad	_ZNK19wxTopLevelWindowMSW10IsIconizedEv
	.quad	_ZN19wxTopLevelWindowMSW8SetIconsERK12wxIconBundle
	.quad	_ZN19wxTopLevelWindowMSW14ShowFullScreenEbl
	.quad	_ZN19wxTopLevelWindowMSW21ShowWithoutActivatingEv
	.quad	_ZNK19wxTopLevelWindowMSW12IsFullScreenEv
	.quad	_ZN19wxTopLevelWindowMSW8SetTitleERK8wxString
	.quad	_ZNK19wxTopLevelWindowMSW8GetTitleEv
	.quad	_ZN19wxTopLevelWindowMSW17EnableCloseButtonEb
	.quad	_ZN19wxTopLevelWindowMSW20RequestUserAttentionEi
	.quad	_ZN20wxTopLevelWindowBase8IsActiveEv
	.quad	_ZNK20wxTopLevelWindowBase20ShouldPreventAppExitEv
	.quad	_ZNK20wxTopLevelWindowBase9IsVisibleEv
	.quad	_ZN20wxTopLevelWindowBase26GetRectForTopLevelChildrenEPiS0_S0_S0_
	.quad	_ZN20wxTopLevelWindowBase14OSXSetModifiedEb
	.quad	_ZNK20wxTopLevelWindowBase13OSXIsModifiedEv
	.quad	_ZN20wxTopLevelWindowBase22SetRepresentedFilenameERK8wxString
	.quad	_ZN20wxTopLevelWindowBase10DoGiveHelpERK8wxStringb
	.quad	_ZNK20wxTopLevelWindowBase11IsOneOfBarsEPK8wxWindow
	.quad	_ZN19wxTopLevelWindowMSW20MSWFindMenuFromHMENUEP7HMENU__
	.globl	_ZTV18wxControlContainer
	.section	.rdata$_ZTV18wxControlContainer,"dr"
	.linkonce same_size
	.align 8
_ZTV18wxControlContainer:
	.quad	0
	.quad	_ZTI18wxControlContainer
	.quad	_ZN18wxControlContainerD1Ev
	.quad	_ZN18wxControlContainerD0Ev
	.quad	_ZN22wxControlContainerBase15SetFocusToChildEv
	.globl	_ZTV20wxObjectEventFunctor
	.section	.rdata$_ZTV20wxObjectEventFunctor,"dr"
	.linkonce same_size
	.align 8
_ZTV20wxObjectEventFunctor:
	.quad	0
	.quad	_ZTI20wxObjectEventFunctor
	.quad	_ZN20wxObjectEventFunctorD1Ev
	.quad	_ZN20wxObjectEventFunctorD0Ev
	.quad	_ZN20wxObjectEventFunctorclEP12wxEvtHandlerR7wxEvent
	.quad	_ZNK20wxObjectEventFunctor10IsMatchingERK14wxEventFunctor
	.quad	_ZNK20wxObjectEventFunctor13GetEvtHandlerEv
	.quad	_ZNK20wxObjectEventFunctor12GetEvtMethodEv
	.section	.text$_ZN20wxObjectEventFunctorD1Ev,"x"
	.linkonce discard
	.align 2
	.globl	_ZN20wxObjectEventFunctorD1Ev
	.def	_ZN20wxObjectEventFunctorD1Ev;	.scl	2;	.type	32;	.endef
	.seh_proc	_ZN20wxObjectEventFunctorD1Ev
_ZN20wxObjectEventFunctorD1Ev:
.LFB15956:
	.loc 8 240 7
	.cfi_startproc
	pushq	%rbp
	.seh_pushreg	%rbp
	.cfi_def_cfa_offset 16
	.cfi_offset 6, -16
	movq	%rsp, %rbp
	.seh_setframe	%rbp, 0
	.cfi_def_cfa_register 6
	subq	$32, %rsp
	.seh_stackalloc	32
	.seh_endprologue
	movq	%rcx, 16(%rbp)
.LBB28:
	.loc 8 240 7
	leaq	16+_ZTV20wxObjectEventFunctor(%rip), %rdx
	movq	16(%rbp), %rax
	movq	%rdx, (%rax)
	movq	16(%rbp), %rax
	movq	%rax, %rcx
	call	_ZN14wxEventFunctorD2Ev
.LBE28:
	nop
	addq	$32, %rsp
	popq	%rbp
	.cfi_restore 6
	.cfi_def_cfa 7, 8
	ret
	.cfi_endproc
.LFE15956:
	.seh_endproc
	.section	.text$_ZN20wxObjectEventFunctorD0Ev,"x"
	.linkonce discard
	.align 2
	.globl	_ZN20wxObjectEventFunctorD0Ev
	.def	_ZN20wxObjectEventFunctorD0Ev;	.scl	2;	.type	32;	.endef
	.seh_proc	_ZN20wxObjectEventFunctorD0Ev
_ZN20wxObjectEventFunctorD0Ev:
.LFB15957:
	.loc 8 240 7
	.cfi_startproc
	pushq	%rbp
	.seh_pushreg	%rbp
	.cfi_def_cfa_offset 16
	.cfi_offset 6, -16
	movq	%rsp, %rbp
	.seh_setframe	%rbp, 0
	.cfi_def_cfa_register 6
	subq	$32, %rsp
	.seh_stackalloc	32
	.seh_endprologue
	movq	%rcx, 16(%rbp)
	.loc 8 240 7
	movq	16(%rbp), %rcx
	call	_ZN20wxObjectEventFunctorD1Ev
	movq	16(%rbp), %rcx
	call	_ZdlPv
	nop
	addq	$32, %rsp
	popq	%rbp
	.cfi_restore 6
	.cfi_def_cfa 7, 8
	ret
	.cfi_endproc
.LFE15957:
	.seh_endproc
	.globl	_ZTV20wxThreadHelperThread
	.section	.rdata$_ZTV20wxThreadHelperThread,"dr"
	.linkonce same_size
	.align 8
_ZTV20wxThreadHelperThread:
	.quad	0
	.quad	_ZTI20wxThreadHelperThread
	.quad	_ZN8wxThread11TestDestroyEv
	.quad	_ZN20wxThreadHelperThreadD1Ev
	.quad	_ZN20wxThreadHelperThreadD0Ev
	.quad	_ZN20wxThreadHelperThread5EntryEv
	.quad	_ZN8wxThread8OnDeleteEv
	.quad	_ZN8wxThread6OnKillEv
	.quad	_ZN8wxThread6OnExitEv
	.section	.text$_ZN20wxThreadHelperThreadD1Ev,"x"
	.linkonce discard
	.align 2
	.globl	_ZN20wxThreadHelperThreadD1Ev
	.def	_ZN20wxThreadHelperThreadD1Ev;	.scl	2;	.type	32;	.endef
	.seh_proc	_ZN20wxThreadHelperThreadD1Ev
_ZN20wxThreadHelperThreadD1Ev:
.LFB15968:
	.loc 6 663 7
	.cfi_startproc
	pushq	%rbp
	.seh_pushreg	%rbp
	.cfi_def_cfa_offset 16
	.cfi_offset 6, -16
	movq	%rsp, %rbp
	.seh_setframe	%rbp, 0
	.cfi_def_cfa_register 6
	subq	$32, %rsp
	.seh_stackalloc	32
	.seh_endprologue
	movq	%rcx, 16(%rbp)
.LBB29:
	.loc 6 663 7
	leaq	16+_ZTV20wxThreadHelperThread(%rip), %rdx
	movq	16(%rbp), %rax
	movq	%rdx, (%rax)
	movq	16(%rbp), %rax
	movq	%rax, %rcx
	call	_ZN8wxThreadD2Ev
.LBE29:
	nop
	addq	$32, %rsp
	popq	%rbp
	.cfi_restore 6
	.cfi_def_cfa 7, 8
	ret
	.cfi_endproc
.LFE15968:
	.seh_endproc
	.section	.text$_ZN20wxThreadHelperThreadD0Ev,"x"
	.linkonce discard
	.align 2
	.globl	_ZN20wxThreadHelperThreadD0Ev
	.def	_ZN20wxThreadHelperThreadD0Ev;	.scl	2;	.type	32;	.endef
	.seh_proc	_ZN20wxThreadHelperThreadD0Ev
_ZN20wxThreadHelperThreadD0Ev:
.LFB15969:
	.loc 6 663 7
	.cfi_startproc
	pushq	%rbp
	.seh_pushreg	%rbp
	.cfi_def_cfa_offset 16
	.cfi_offset 6, -16
	movq	%rsp, %rbp
	.seh_setframe	%rbp, 0
	.cfi_def_cfa_register 6
	subq	$32, %rsp
	.seh_stackalloc	32
	.seh_endprologue
	movq	%rcx, 16(%rbp)
	.loc 6 663 7
	movq	16(%rbp), %rcx
	call	_ZN20wxThreadHelperThreadD1Ev
	movq	16(%rbp), %rcx
	call	_ZdlPv
	nop
	addq	$32, %rsp
	popq	%rbp
	.cfi_restore 6
	.cfi_def_cfa 7, 8
	ret
	.cfi_endproc
.LFE15969:
	.seh_endproc
	.globl	_ZTI14MeuSobreDialog
	.section	.rdata$_ZTI14MeuSobreDialog,"dr"
	.linkonce same_size
	.align 8
_ZTI14MeuSobreDialog:
	.quad	_ZTVN10__cxxabiv120__si_class_type_infoE+16
	.quad	_ZTS14MeuSobreDialog
	.quad	_ZTI20wxGenericAboutDialog
	.globl	_ZTS14MeuSobreDialog
	.section	.rdata$_ZTS14MeuSobreDialog,"dr"
	.linkonce same_size
	.align 16
_ZTS14MeuSobreDialog:
	.ascii "14MeuSobreDialog\0"
	.globl	_ZTI20wxGenericAboutDialog
	.section	.rdata$_ZTI20wxGenericAboutDialog,"dr"
	.linkonce same_size
	.align 8
_ZTI20wxGenericAboutDialog:
	.quad	_ZTVN10__cxxabiv120__si_class_type_infoE+16
	.quad	_ZTS20wxGenericAboutDialog
	.quad	_ZTI8wxDialog
	.globl	_ZTS20wxGenericAboutDialog
	.section	.rdata$_ZTS20wxGenericAboutDialog,"dr"
	.linkonce same_size
	.align 16
_ZTS20wxGenericAboutDialog:
	.ascii "20wxGenericAboutDialog\0"
	.globl	_ZTI8wxDialog
	.section	.rdata$_ZTI8wxDialog,"dr"
	.linkonce same_size
	.align 8
_ZTI8wxDialog:
	.quad	_ZTVN10__cxxabiv120__si_class_type_infoE+16
	.quad	_ZTS8wxDialog
	.quad	_ZTI12wxDialogBase
	.globl	_ZTS8wxDialog
	.section	.rdata$_ZTS8wxDialog,"dr"
	.linkonce same_size
	.align 8
_ZTS8wxDialog:
	.ascii "8wxDialog\0"
	.globl	_ZTI12wxDialogBase
	.section	.rdata$_ZTI12wxDialogBase,"dr"
	.linkonce same_size
	.align 8
_ZTI12wxDialogBase:
	.quad	_ZTVN10__cxxabiv120__si_class_type_infoE+16
	.quad	_ZTS12wxDialogBase
	.quad	_ZTI19wxNavigationEnabledI16wxTopLevelWindowE
	.globl	_ZTS12wxDialogBase
	.section	.rdata$_ZTS12wxDialogBase,"dr"
	.linkonce same_size
	.align 8
_ZTS12wxDialogBase:
	.ascii "12wxDialogBase\0"
	.globl	_ZTI19wxNavigationEnabledI16wxTopLevelWindowE
	.section	.rdata$_ZTI19wxNavigationEnabledI16wxTopLevelWindowE,"dr"
	.linkonce same_size
	.align 8
_ZTI19wxNavigationEnabledI16wxTopLevelWindowE:
	.quad	_ZTVN10__cxxabiv120__si_class_type_infoE+16
	.quad	_ZTS19wxNavigationEnabledI16wxTopLevelWindowE
	.quad	_ZTI16wxTopLevelWindow
	.globl	_ZTS19wxNavigationEnabledI16wxTopLevelWindowE
	.section	.rdata$_ZTS19wxNavigationEnabledI16wxTopLevelWindowE,"dr"
	.linkonce same_size
	.align 32
_ZTS19wxNavigationEnabledI16wxTopLevelWindowE:
	.ascii "19wxNavigationEnabledI16wxTopLevelWindowE\0"
	.globl	_ZTI18wxControlContainer
	.section	.rdata$_ZTI18wxControlContainer,"dr"
	.linkonce same_size
	.align 8
_ZTI18wxControlContainer:
	.quad	_ZTVN10__cxxabiv120__si_class_type_infoE+16
	.quad	_ZTS18wxControlContainer
	.quad	_ZTI22wxControlContainerBase
	.globl	_ZTI22wxControlContainerBase
	.section	.rdata$_ZTI22wxControlContainerBase,"dr"
	.linkonce same_size
	.align 8
_ZTI22wxControlContainerBase:
	.quad	_ZTVN10__cxxabiv117__class_type_infoE+16
	.quad	_ZTS22wxControlContainerBase
	.globl	_ZTI16wxTopLevelWindow
	.section	.rdata$_ZTI16wxTopLevelWindow,"dr"
	.linkonce same_size
	.align 8
_ZTI16wxTopLevelWindow:
	.quad	_ZTVN10__cxxabiv120__si_class_type_infoE+16
	.quad	_ZTS16wxTopLevelWindow
	.quad	_ZTI19wxTopLevelWindowMSW
	.globl	_ZTS16wxTopLevelWindow
	.section	.rdata$_ZTS16wxTopLevelWindow,"dr"
	.linkonce same_size
	.align 16
_ZTS16wxTopLevelWindow:
	.ascii "16wxTopLevelWindow\0"
	.globl	_ZTI19wxTopLevelWindowMSW
	.section	.rdata$_ZTI19wxTopLevelWindowMSW,"dr"
	.linkonce same_size
	.align 8
_ZTI19wxTopLevelWindowMSW:
	.quad	_ZTVN10__cxxabiv120__si_class_type_infoE+16
	.quad	_ZTS19wxTopLevelWindowMSW
	.quad	_ZTI20wxTopLevelWindowBase
	.globl	_ZTS19wxTopLevelWindowMSW
	.section	.rdata$_ZTS19wxTopLevelWindowMSW,"dr"
	.linkonce same_size
	.align 16
_ZTS19wxTopLevelWindowMSW:
	.ascii "19wxTopLevelWindowMSW\0"
	.globl	_ZTI20wxTopLevelWindowBase
	.section	.rdata$_ZTI20wxTopLevelWindowBase,"dr"
	.linkonce same_size
	.align 8
_ZTI20wxTopLevelWindowBase:
	.quad	_ZTVN10__cxxabiv120__si_class_type_infoE+16
	.quad	_ZTS20wxTopLevelWindowBase
	.quad	_ZTI16wxNonOwnedWindow
	.globl	_ZTS20wxTopLevelWindowBase
	.section	.rdata$_ZTS20wxTopLevelWindowBase,"dr"
	.linkonce same_size
	.align 16
_ZTS20wxTopLevelWindowBase:
	.ascii "20wxTopLevelWindowBase\0"
	.globl	_ZTI16wxNonOwnedWindow
	.section	.rdata$_ZTI16wxNonOwnedWindow,"dr"
	.linkonce same_size
	.align 8
_ZTI16wxNonOwnedWindow:
	.quad	_ZTVN10__cxxabiv120__si_class_type_infoE+16
	.quad	_ZTS16wxNonOwnedWindow
	.quad	_ZTI20wxNonOwnedWindowBase
	.globl	_ZTS16wxNonOwnedWindow
	.section	.rdata$_ZTS16wxNonOwnedWindow,"dr"
	.linkonce same_size
	.align 16
_ZTS16wxNonOwnedWindow:
	.ascii "16wxNonOwnedWindow\0"
	.globl	_ZTI20wxNonOwnedWindowBase
	.section	.rdata$_ZTI20wxNonOwnedWindowBase,"dr"
	.linkonce same_size
	.align 8
_ZTI20wxNonOwnedWindowBase:
	.quad	_ZTVN10__cxxabiv120__si_class_type_infoE+16
	.quad	_ZTS20wxNonOwnedWindowBase
	.quad	_ZTI8wxWindow
	.globl	_ZTS20wxNonOwnedWindowBase
	.section	.rdata$_ZTS20wxNonOwnedWindowBase,"dr"
	.linkonce same_size
	.align 16
_ZTS20wxNonOwnedWindowBase:
	.ascii "20wxNonOwnedWindowBase\0"
	.globl	_ZTI8wxWindow
	.section	.rdata$_ZTI8wxWindow,"dr"
	.linkonce same_size
	.align 8
_ZTI8wxWindow:
	.quad	_ZTVN10__cxxabiv120__si_class_type_infoE+16
	.quad	_ZTS8wxWindow
	.quad	_ZTI12wxWindowBase
	.globl	_ZTS8wxWindow
	.section	.rdata$_ZTS8wxWindow,"dr"
	.linkonce same_size
	.align 8
_ZTS8wxWindow:
	.ascii "8wxWindow\0"
	.globl	_ZTI12wxWindowBase
	.section	.rdata$_ZTI12wxWindowBase,"dr"
	.linkonce same_size
	.align 8
_ZTI12wxWindowBase:
	.quad	_ZTVN10__cxxabiv120__si_class_type_infoE+16
	.quad	_ZTS12wxWindowBase
	.quad	_ZTI12wxEvtHandler
	.globl	_ZTS12wxWindowBase
	.section	.rdata$_ZTS12wxWindowBase,"dr"
	.linkonce same_size
	.align 8
_ZTS12wxWindowBase:
	.ascii "12wxWindowBase\0"
	.globl	_ZTI12wxEvtHandler
	.section	.rdata$_ZTI12wxEvtHandler,"dr"
	.linkonce same_size
	.align 8
_ZTI12wxEvtHandler:
	.quad	_ZTVN10__cxxabiv121__vmi_class_type_infoE+16
	.quad	_ZTS12wxEvtHandler
	.long	0
	.long	2
	.quad	_ZTI8wxObject
	.quad	2
	.quad	_ZTI11wxTrackable
	.quad	4098
	.globl	_ZTS12wxEvtHandler
	.section	.rdata$_ZTS12wxEvtHandler,"dr"
	.linkonce same_size
	.align 8
_ZTS12wxEvtHandler:
	.ascii "12wxEvtHandler\0"
	.globl	_ZTI20wxObjectEventFunctor
	.section	.rdata$_ZTI20wxObjectEventFunctor,"dr"
	.linkonce same_size
	.align 8
_ZTI20wxObjectEventFunctor:
	.quad	_ZTVN10__cxxabiv120__si_class_type_infoE+16
	.quad	_ZTS20wxObjectEventFunctor
	.quad	_ZTI14wxEventFunctor
	.globl	_ZTS20wxObjectEventFunctor
	.section	.rdata$_ZTS20wxObjectEventFunctor,"dr"
	.linkonce same_size
	.align 16
_ZTS20wxObjectEventFunctor:
	.ascii "20wxObjectEventFunctor\0"
	.globl	_ZTI14wxEventFunctor
	.section	.rdata$_ZTI14wxEventFunctor,"dr"
	.linkonce same_size
	.align 8
_ZTI14wxEventFunctor:
	.quad	_ZTVN10__cxxabiv117__class_type_infoE+16
	.quad	_ZTS14wxEventFunctor
	.globl	_ZTS14wxEventFunctor
	.section	.rdata$_ZTS14wxEventFunctor,"dr"
	.linkonce same_size
	.align 16
_ZTS14wxEventFunctor:
	.ascii "14wxEventFunctor\0"
	.globl	_ZTI20wxThreadHelperThread
	.section	.rdata$_ZTI20wxThreadHelperThread,"dr"
	.linkonce same_size
	.align 8
_ZTI20wxThreadHelperThread:
	.quad	_ZTVN10__cxxabiv120__si_class_type_infoE+16
	.quad	_ZTS20wxThreadHelperThread
	.quad	_ZTI8wxThread
	.globl	_ZTS20wxThreadHelperThread
	.section	.rdata$_ZTS20wxThreadHelperThread,"dr"
	.linkonce same_size
	.align 16
_ZTS20wxThreadHelperThread:
	.ascii "20wxThreadHelperThread\0"
	.globl	_ZTI8wxThread
	.section	.rdata$_ZTI8wxThread,"dr"
	.linkonce same_size
	.align 8
_ZTI8wxThread:
	.quad	_ZTVN10__cxxabiv117__class_type_infoE+16
	.quad	_ZTS8wxThread
	.globl	_ZTS8wxThread
	.section	.rdata$_ZTS8wxThread,"dr"
	.linkonce same_size
	.align 8
_ZTS8wxThread:
	.ascii "8wxThread\0"
	.globl	_ZTI8wxObject
	.section	.rdata$_ZTI8wxObject,"dr"
	.linkonce same_size
	.align 8
_ZTI8wxObject:
	.quad	_ZTVN10__cxxabiv117__class_type_infoE+16
	.quad	_ZTS8wxObject
	.globl	_ZTS8wxObject
	.section	.rdata$_ZTS8wxObject,"dr"
	.linkonce same_size
	.align 8
_ZTS8wxObject:
	.ascii "8wxObject\0"
	.section	.text$_ZN18wxControlContainerD1Ev,"x"
	.linkonce discard
	.align 2
	.globl	_ZN18wxControlContainerD1Ev
	.def	_ZN18wxControlContainerD1Ev;	.scl	2;	.type	32;	.endef
	.seh_proc	_ZN18wxControlContainerD1Ev
_ZN18wxControlContainerD1Ev:
.LFB16000:
	.loc 15 149 7
	.cfi_startproc
	pushq	%rbp
	.seh_pushreg	%rbp
	.cfi_def_cfa_offset 16
	.cfi_offset 6, -16
	movq	%rsp, %rbp
	.seh_setframe	%rbp, 0
	.cfi_def_cfa_register 6
	subq	$32, %rsp
	.seh_stackalloc	32
	.seh_endprologue
	movq	%rcx, 16(%rbp)
.LBB30:
	.loc 15 149 7
	leaq	16+_ZTV18wxControlContainer(%rip), %rdx
	movq	16(%rbp), %rax
	movq	%rdx, (%rax)
	movq	16(%rbp), %rax
	movq	%rax, %rcx
	call	_ZN22wxControlContainerBaseD2Ev
.LBE30:
	nop
	addq	$32, %rsp
	popq	%rbp
	.cfi_restore 6
	.cfi_def_cfa 7, 8
	ret
	.cfi_endproc
.LFE16000:
	.seh_endproc
	.section	.text$_ZN18wxControlContainerD0Ev,"x"
	.linkonce discard
	.align 2
	.globl	_ZN18wxControlContainerD0Ev
	.def	_ZN18wxControlContainerD0Ev;	.scl	2;	.type	32;	.endef
	.seh_proc	_ZN18wxControlContainerD0Ev
_ZN18wxControlContainerD0Ev:
.LFB16001:
	.loc 15 149 7
	.cfi_startproc
	pushq	%rbp
	.seh_pushreg	%rbp
	.cfi_def_cfa_offset 16
	.cfi_offset 6, -16
	movq	%rsp, %rbp
	.seh_setframe	%rbp, 0
	.cfi_def_cfa_register 6
	subq	$32, %rsp
	.seh_stackalloc	32
	.seh_endprologue
	movq	%rcx, 16(%rbp)
	.loc 15 149 7
	movq	16(%rbp), %rcx
	call	_ZN18wxControlContainerD1Ev
	movq	16(%rbp), %rcx
	call	_ZdlPv
	nop
	addq	$32, %rsp
	popq	%rbp
	.cfi_restore 6
	.cfi_def_cfa 7, 8
	ret
	.cfi_endproc
.LFE16001:
	.seh_endproc
	.section	.text$_ZN19wxNavigationEnabledI16wxTopLevelWindowE8SetFocusEv,"x"
	.linkonce discard
	.align 2
	.globl	_ZN19wxNavigationEnabledI16wxTopLevelWindowE8SetFocusEv
	.def	_ZN19wxNavigationEnabledI16wxTopLevelWindowE8SetFocusEv;	.scl	2;	.type	32;	.endef
	.seh_proc	_ZN19wxNavigationEnabledI16wxTopLevelWindowE8SetFocusEv
_ZN19wxNavigationEnabledI16wxTopLevelWindowE8SetFocusEv:
.LFB16002:
	.loc 15 244 18
	.cfi_startproc
	pushq	%rbp
	.seh_pushreg	%rbp
	.cfi_def_cfa_offset 16
	.cfi_offset 6, -16
	movq	%rsp, %rbp
	.seh_setframe	%rbp, 0
	.cfi_def_cfa_register 6
	subq	$32, %rsp
	.seh_stackalloc	32
	.seh_endprologue
	movq	%rcx, 16(%rbp)
	.loc 15 246 37
	movq	16(%rbp), %rax
	addq	$696, %rax
	movq	%rax, %rcx
	call	_ZN22wxControlContainerBase10DoSetFocusEv
	.loc 15 246 14
	xorl	$1, %eax
	.loc 15 246 9
	testb	%al, %al
	je	.L231
	.loc 15 247 38
	movq	16(%rbp), %rax
	movq	%rax, %rcx
	call	_ZN8wxWindow8SetFocusEv
.L231:
	.loc 15 248 5
	nop
	addq	$32, %rsp
	popq	%rbp
	.cfi_restore 6
	.cfi_def_cfa 7, 8
	ret
	.cfi_endproc
.LFE16002:
	.seh_endproc
	.section	.text$_ZNK19wxNavigationEnabledI16wxTopLevelWindowE12AcceptsFocusEv,"x"
	.linkonce discard
	.align 2
	.globl	_ZNK19wxNavigationEnabledI16wxTopLevelWindowE12AcceptsFocusEv
	.def	_ZNK19wxNavigationEnabledI16wxTopLevelWindowE12AcceptsFocusEv;	.scl	2;	.type	32;	.endef
	.seh_proc	_ZNK19wxNavigationEnabledI16wxTopLevelWindowE12AcceptsFocusEv
_ZNK19wxNavigationEnabledI16wxTopLevelWindowE12AcceptsFocusEv:
.LFB16003:
	.loc 15 203 18
	.cfi_startproc
	pushq	%rbp
	.seh_pushreg	%rbp
	.cfi_def_cfa_offset 16
	.cfi_offset 6, -16
	movq	%rsp, %rbp
	.seh_setframe	%rbp, 0
	.cfi_def_cfa_register 6
	subq	$32, %rsp
	.seh_stackalloc	32
	.seh_endprologue
	movq	%rcx, 16(%rbp)
	.loc 15 205 40
	movq	16(%rbp), %rax
	addq	$696, %rax
	movq	%rax, %rcx
	call	_ZNK22wxControlContainerBase12AcceptsFocusEv
	.loc 15 206 5
	addq	$32, %rsp
	popq	%rbp
	.cfi_restore 6
	.cfi_def_cfa 7, 8
	ret
	.cfi_endproc
.LFE16003:
	.seh_endproc
	.section	.text$_ZNK19wxNavigationEnabledI16wxTopLevelWindowE23AcceptsFocusRecursivelyEv,"x"
	.linkonce discard
	.align 2
	.globl	_ZNK19wxNavigationEnabledI16wxTopLevelWindowE23AcceptsFocusRecursivelyEv
	.def	_ZNK19wxNavigationEnabledI16wxTopLevelWindowE23AcceptsFocusRecursivelyEv;	.scl	2;	.type	32;	.endef
	.seh_proc	_ZNK19wxNavigationEnabledI16wxTopLevelWindowE23AcceptsFocusRecursivelyEv
_ZNK19wxNavigationEnabledI16wxTopLevelWindowE23AcceptsFocusRecursivelyEv:
.LFB16004:
	.loc 15 208 18
	.cfi_startproc
	pushq	%rbp
	.seh_pushreg	%rbp
	.cfi_def_cfa_offset 16
	.cfi_offset 6, -16
	movq	%rsp, %rbp
	.seh_setframe	%rbp, 0
	.cfi_def_cfa_register 6
	subq	$32, %rsp
	.seh_stackalloc	32
	.seh_endprologue
	movq	%rcx, 16(%rbp)
	.loc 15 210 51
	movq	16(%rbp), %rax
	addq	$696, %rax
	movq	%rax, %rcx
	call	_ZNK22wxControlContainerBase23AcceptsFocusRecursivelyEv
	.loc 15 211 5
	addq	$32, %rsp
	popq	%rbp
	.cfi_restore 6
	.cfi_def_cfa 7, 8
	ret
	.cfi_endproc
.LFE16004:
	.seh_endproc
	.section	.text$_ZNK19wxNavigationEnabledI16wxTopLevelWindowE24AcceptsFocusFromKeyboardEv,"x"
	.linkonce discard
	.align 2
	.globl	_ZNK19wxNavigationEnabledI16wxTopLevelWindowE24AcceptsFocusFromKeyboardEv
	.def	_ZNK19wxNavigationEnabledI16wxTopLevelWindowE24AcceptsFocusFromKeyboardEv;	.scl	2;	.type	32;	.endef
	.seh_proc	_ZNK19wxNavigationEnabledI16wxTopLevelWindowE24AcceptsFocusFromKeyboardEv
_ZNK19wxNavigationEnabledI16wxTopLevelWindowE24AcceptsFocusFromKeyboardEv:
.LFB16005:
	.loc 15 213 18
	.cfi_startproc
	pushq	%rbp
	.seh_pushreg	%rbp
	.cfi_def_cfa_offset 16
	.cfi_offset 6, -16
	movq	%rsp, %rbp
	.seh_setframe	%rbp, 0
	.cfi_def_cfa_register 6
	subq	$32, %rsp
	.seh_stackalloc	32
	.seh_endprologue
	movq	%rcx, 16(%rbp)
	.loc 15 215 52
	movq	16(%rbp), %rax
	addq	$696, %rax
	movq	%rax, %rcx
	call	_ZNK22wxControlContainerBase24AcceptsFocusFromKeyboardEv
	.loc 15 216 5
	addq	$32, %rsp
	popq	%rbp
	.cfi_restore 6
	.cfi_def_cfa 7, 8
	ret
	.cfi_endproc
.LFE16005:
	.seh_endproc
	.section	.text$_ZN19wxNavigationEnabledI16wxTopLevelWindowE8AddChildEP12wxWindowBase,"x"
	.linkonce discard
	.align 2
	.globl	_ZN19wxNavigationEnabledI16wxTopLevelWindowE8AddChildEP12wxWindowBase
	.def	_ZN19wxNavigationEnabledI16wxTopLevelWindowE8AddChildEP12wxWindowBase;	.scl	2;	.type	32;	.endef
	.seh_proc	_ZN19wxNavigationEnabledI16wxTopLevelWindowE8AddChildEP12wxWindowBase
_ZN19wxNavigationEnabledI16wxTopLevelWindowE8AddChildEP12wxWindowBase:
.LFB16006:
	.loc 15 218 18
	.cfi_startproc
	pushq	%rbp
	.seh_pushreg	%rbp
	.cfi_def_cfa_offset 16
	.cfi_offset 6, -16
	movq	%rsp, %rbp
	.seh_setframe	%rbp, 0
	.cfi_def_cfa_register 6
	subq	$32, %rsp
	.seh_stackalloc	32
	.seh_endprologue
	movq	%rcx, 16(%rbp)
	movq	%rdx, 24(%rbp)
	.loc 15 220 34
	movq	16(%rbp), %rax
	movq	24(%rbp), %rdx
	movq	%rax, %rcx
	call	_ZN12wxWindowBase8AddChildEPS_
	.loc 15 222 48
	movq	16(%rbp), %rax
	addq	$696, %rax
	movq	%rax, %rcx
	call	_ZN22wxControlContainerBase22UpdateCanFocusChildrenEv
	.loc 15 222 9
	testb	%al, %al
	je	.L240
	.loc 15 226 43
	movq	16(%rbp), %rax
	movl	$524288, %edx
	movq	%rax, %rcx
	call	_ZNK12wxWindowBase7HasFlagEi
	.loc 15 226 18
	xorl	$1, %eax
	.loc 15 226 13
	testb	%al, %al
	je	.L240
	.loc 15 227 51
	movq	16(%rbp), %rax
	movl	$524288, %edx
	movq	%rax, %rcx
	call	_ZN12wxWindowBase17ToggleWindowStyleEi
.L240:
	.loc 15 229 5
	nop
	addq	$32, %rsp
	popq	%rbp
	.cfi_restore 6
	.cfi_def_cfa 7, 8
	ret
	.cfi_endproc
.LFE16006:
	.seh_endproc
	.section	.text$_ZN19wxNavigationEnabledI16wxTopLevelWindowE11RemoveChildEP12wxWindowBase,"x"
	.linkonce discard
	.align 2
	.globl	_ZN19wxNavigationEnabledI16wxTopLevelWindowE11RemoveChildEP12wxWindowBase
	.def	_ZN19wxNavigationEnabledI16wxTopLevelWindowE11RemoveChildEP12wxWindowBase;	.scl	2;	.type	32;	.endef
	.seh_proc	_ZN19wxNavigationEnabledI16wxTopLevelWindowE11RemoveChildEP12wxWindowBase
_ZN19wxNavigationEnabledI16wxTopLevelWindowE11RemoveChildEP12wxWindowBase:
.LFB16007:
	.loc 15 231 18
	.cfi_startproc
	pushq	%rbp
	.seh_pushreg	%rbp
	.cfi_def_cfa_offset 16
	.cfi_offset 6, -16
	movq	%rsp, %rbp
	.seh_setframe	%rbp, 0
	.cfi_def_cfa_register 6
	subq	$32, %rsp
	.seh_stackalloc	32
	.seh_endprologue
	movq	%rcx, 16(%rbp)
	movq	%rdx, 24(%rbp)
	.loc 15 234 42
	movq	16(%rbp), %rax
	addq	$696, %rax
	movq	24(%rbp), %rdx
	movq	%rax, %rcx
	call	_ZN18wxControlContainer21HandleOnWindowDestroyEP12wxWindowBase
	.loc 15 237 37
	movq	16(%rbp), %rax
	movq	24(%rbp), %rdx
	movq	%rax, %rcx
	call	_ZN12wxWindowBase11RemoveChildEPS_
	.loc 15 241 43
	movq	16(%rbp), %rax
	addq	$696, %rax
	movq	%rax, %rcx
	call	_ZN22wxControlContainerBase22UpdateCanFocusChildrenEv
	.loc 15 242 5
	nop
	addq	$32, %rsp
	popq	%rbp
	.cfi_restore 6
	.cfi_def_cfa 7, 8
	ret
	.cfi_endproc
.LFE16007:
	.seh_endproc
	.globl	_ZTS18wxControlContainer
	.section	.rdata$_ZTS18wxControlContainer,"dr"
	.linkonce same_size
	.align 16
_ZTS18wxControlContainer:
	.ascii "18wxControlContainer\0"
	.globl	_ZTS22wxControlContainerBase
	.section	.rdata$_ZTS22wxControlContainerBase,"dr"
	.linkonce same_size
	.align 16
_ZTS22wxControlContainerBase:
	.ascii "22wxControlContainerBase\0"
	.globl	_ZTI11wxTrackable
	.section	.rdata$_ZTI11wxTrackable,"dr"
	.linkonce same_size
	.align 8
_ZTI11wxTrackable:
	.quad	_ZTVN10__cxxabiv117__class_type_infoE+16
	.quad	_ZTS11wxTrackable
	.globl	_ZTS11wxTrackable
	.section	.rdata$_ZTS11wxTrackable,"dr"
	.linkonce same_size
	.align 8
_ZTS11wxTrackable:
	.ascii "11wxTrackable\0"
	.section .rdata,"dr"
	.align 8
.LC1:
	.long	0
	.long	1072693248
	.text
.Letext0:
	.file 22 "C:/Program Files/CodeBlocks/MinGW/x86_64-w64-mingw32/include/vadefs.h"
	.file 23 "C:/Program Files/CodeBlocks/MinGW/x86_64-w64-mingw32/include/crtdefs.h"
	.file 24 "C:/Program Files/CodeBlocks/MinGW/x86_64-w64-mingw32/include/locale.h"
	.file 25 "C:/Program Files/CodeBlocks/MinGW/lib/gcc/x86_64-w64-mingw32/8.1.0/include/c++/bits/basic_string.h"
	.file 26 "C:/Program Files/CodeBlocks/MinGW/lib/gcc/x86_64-w64-mingw32/8.1.0/include/c++/bits/basic_string.tcc"
	.file 27 "C:/Program Files/CodeBlocks/MinGW/lib/gcc/x86_64-w64-mingw32/8.1.0/include/c++/bits/stringfwd.h"
	.file 28 "C:/Program Files/CodeBlocks/MinGW/lib/gcc/x86_64-w64-mingw32/8.1.0/include/c++/cstdlib"
	.file 29 "C:/Program Files/CodeBlocks/MinGW/lib/gcc/x86_64-w64-mingw32/8.1.0/include/c++/bits/std_abs.h"
	.file 30 "C:/Program Files/CodeBlocks/MinGW/lib/gcc/x86_64-w64-mingw32/8.1.0/include/c++/type_traits"
	.file 31 "C:/Program Files/CodeBlocks/MinGW/lib/gcc/x86_64-w64-mingw32/8.1.0/include/c++/bits/stl_pair.h"
	.file 32 "C:/Program Files/CodeBlocks/MinGW/lib/gcc/x86_64-w64-mingw32/8.1.0/include/c++/bits/cpp_type_traits.h"
	.file 33 "C:/Program Files/CodeBlocks/MinGW/lib/gcc/x86_64-w64-mingw32/8.1.0/include/c++/bits/stl_iterator_base_types.h"
	.file 34 "C:/Program Files/CodeBlocks/MinGW/lib/gcc/x86_64-w64-mingw32/8.1.0/include/c++/debug/debug.h"
	.file 35 "C:/Program Files/CodeBlocks/MinGW/lib/gcc/x86_64-w64-mingw32/8.1.0/include/c++/cwchar"
	.file 36 "C:/Program Files/CodeBlocks/MinGW/lib/gcc/x86_64-w64-mingw32/8.1.0/include/c++/bits/char_traits.h"
	.file 37 "C:/Program Files/CodeBlocks/MinGW/lib/gcc/x86_64-w64-mingw32/8.1.0/include/c++/x86_64-w64-mingw32/bits/c++config.h"
	.file 38 "C:/Program Files/CodeBlocks/MinGW/lib/gcc/x86_64-w64-mingw32/8.1.0/include/c++/cstdint"
	.file 39 "C:/Program Files/CodeBlocks/MinGW/lib/gcc/x86_64-w64-mingw32/8.1.0/include/c++/bits/exception_ptr.h"
	.file 40 "C:/Program Files/CodeBlocks/MinGW/lib/gcc/x86_64-w64-mingw32/8.1.0/include/c++/new"
	.file 41 "C:/Program Files/CodeBlocks/MinGW/lib/gcc/x86_64-w64-mingw32/8.1.0/include/c++/bits/allocator.h"
	.file 42 "C:/Program Files/CodeBlocks/MinGW/lib/gcc/x86_64-w64-mingw32/8.1.0/include/c++/clocale"
	.file 43 "C:/Program Files/CodeBlocks/MinGW/lib/gcc/x86_64-w64-mingw32/8.1.0/include/c++/cstdio"
	.file 44 "C:/Program Files/CodeBlocks/MinGW/lib/gcc/x86_64-w64-mingw32/8.1.0/include/c++/bits/alloc_traits.h"
	.file 45 "C:/Program Files/CodeBlocks/MinGW/lib/gcc/x86_64-w64-mingw32/8.1.0/include/c++/initializer_list"
	.file 46 "C:/Program Files/CodeBlocks/MinGW/lib/gcc/x86_64-w64-mingw32/8.1.0/include/c++/cmath"
	.file 47 "C:/Program Files/CodeBlocks/MinGW/lib/gcc/x86_64-w64-mingw32/8.1.0/include/c++/system_error"
	.file 48 "C:/Program Files/CodeBlocks/MinGW/lib/gcc/x86_64-w64-mingw32/8.1.0/include/c++/cwctype"
	.file 49 "C:/Program Files/CodeBlocks/MinGW/lib/gcc/x86_64-w64-mingw32/8.1.0/include/c++/iosfwd"
	.file 50 "C:/Program Files/CodeBlocks/MinGW/lib/gcc/x86_64-w64-mingw32/8.1.0/include/c++/bits/stl_iterator_base_funcs.h"
	.file 51 "C:/Program Files/CodeBlocks/MinGW/lib/gcc/x86_64-w64-mingw32/8.1.0/include/c++/bits/move.h"
	.file 52 "C:/Program Files/CodeBlocks/MinGW/lib/gcc/x86_64-w64-mingw32/8.1.0/include/c++/bits/predefined_ops.h"
	.file 53 "C:/Program Files/CodeBlocks/MinGW/lib/gcc/x86_64-w64-mingw32/8.1.0/include/c++/ext/new_allocator.h"
	.file 54 "C:/Program Files/CodeBlocks/MinGW/lib/gcc/x86_64-w64-mingw32/8.1.0/include/c++/ext/numeric_traits.h"
	.file 55 "C:/Program Files/CodeBlocks/MinGW/lib/gcc/x86_64-w64-mingw32/8.1.0/include/c++/ext/alloc_traits.h"
	.file 56 "C:/Program Files/CodeBlocks/MinGW/lib/gcc/x86_64-w64-mingw32/8.1.0/include/c++/bits/stl_iterator.h"
	.file 57 "C:/Program Files/CodeBlocks/MinGW/lib/gcc/x86_64-w64-mingw32/8.1.0/include/c++/ext/type_traits.h"
	.file 58 "C:/Program Files/CodeBlocks/MinGW/x86_64-w64-mingw32/include/stdlib.h"
	.file 59 "C:/Program Files/CodeBlocks/MinGW/x86_64-w64-mingw32/include/malloc.h"
	.file 60 "C:/Program Files/CodeBlocks/MinGW/lib/gcc/x86_64-w64-mingw32/8.1.0/include/c++/stdlib.h"
	.file 61 "C:/Program Files/CodeBlocks/MinGW/x86_64-w64-mingw32/include/wchar.h"
	.file 62 "C:/Program Files/CodeBlocks/MinGW/x86_64-w64-mingw32/include/ctype.h"
	.file 63 "../wxMSW-3.0.5_gcc810_x64_Dev/include/wx/chartype.h"
	.file 64 "../wxMSW-3.0.5_gcc810_x64_Dev/include/wx/debug.h"
	.file 65 "../wxMSW-3.0.5_gcc810_x64_Dev/include/wx/defs.h"
	.file 66 "C:/Program Files/CodeBlocks/MinGW/x86_64-w64-mingw32/include/windef.h"
	.file 67 "C:/Program Files/CodeBlocks/MinGW/x86_64-w64-mingw32/include/stdio.h"
	.file 68 "C:/Program Files/CodeBlocks/MinGW/x86_64-w64-mingw32/include/wctype.h"
	.file 69 "C:/Program Files/CodeBlocks/MinGW/x86_64-w64-mingw32/include/time.h"
	.file 70 "../wxMSW-3.0.5_gcc810_x64_Dev/include/wx/buffer.h"
	.file 71 "../wxMSW-3.0.5_gcc810_x64_Dev/include/wx/meta/if.h"
	.file 72 "../wxMSW-3.0.5_gcc810_x64_Dev/include/wx/fontenc.h"
	.file 73 "../wxMSW-3.0.5_gcc810_x64_Dev/include/wx/strconv.h"
	.file 74 "../wxMSW-3.0.5_gcc810_x64_Dev/include/wx/stringimpl.h"
	.file 75 "C:/Program Files/CodeBlocks/MinGW/x86_64-w64-mingw32/include/swprintf.inl"
	.file 76 "C:/Program Files/CodeBlocks/MinGW/x86_64-w64-mingw32/include/stdint.h"
	.file 77 "C:/Program Files/CodeBlocks/MinGW/x86_64-w64-mingw32/include/process.h"
	.file 78 "C:/Program Files/CodeBlocks/MinGW/x86_64-w64-mingw32/include/pthread.h"
	.file 79 "../wxMSW-3.0.5_gcc810_x64_Dev/include/wx/unichar.h"
	.file 80 "../wxMSW-3.0.5_gcc810_x64_Dev/include/wx/strvararg.h"
	.file 81 "../wxMSW-3.0.5_gcc810_x64_Dev/include/wx/rtti.h"
	.file 82 "../wxMSW-3.0.5_gcc810_x64_Dev/include/wx/hashmap.h"
	.file 83 "../wxMSW-3.0.5_gcc810_x64_Dev/include/wx/list.h"
	.file 84 "C:/Program Files/CodeBlocks/MinGW/x86_64-w64-mingw32/include/math.h"
	.file 85 "C:/Program Files/CodeBlocks/MinGW/lib/gcc/x86_64-w64-mingw32/8.1.0/include/c++/math.h"
	.file 86 "../wxMSW-3.0.5_gcc810_x64_Dev/include/wx/msw/gdiimage.h"
	.file 87 "../wxMSW-3.0.5_gcc810_x64_Dev/include/wx/filefn.h"
	.file 88 "../wxMSW-3.0.5_gcc810_x64_Dev/include/wx/longlong.h"
	.file 89 "../wxMSW-3.0.5_gcc810_x64_Dev/include/wx/tracker.h"
	.file 90 "../wxMSW-3.0.5_gcc810_x64_Dev/include/wx/any.h"
	.file 91 "../wxMSW-3.0.5_gcc810_x64_Dev/include/wx/anystr.h"
	.file 92 "../wxMSW-3.0.5_gcc810_x64_Dev/include/wx/datetime.h"
	.file 93 "C:/Program Files/CodeBlocks/MinGW/x86_64-w64-mingw32/include/minwinbase.h"
	.file 94 "../wxMSW-3.0.5_gcc810_x64_Dev/include/wx/variant.h"
	.file 95 "../wxMSW-3.0.5_gcc810_x64_Dev/include/wx/font.h"
	.file 96 "../wxMSW-3.0.5_gcc810_x64_Dev/include/wx/colour.h"
	.file 97 "../wxMSW-3.0.5_gcc810_x64_Dev/include/wx/validate.h"
	.file 98 "../wxMSW-3.0.5_gcc810_x64_Dev/include/wx/accel.h"
	.file 99 "../wxMSW-3.0.5_gcc810_x64_Dev/include/wx/meta/implicitconversion.h"
	.file 100 "C:/Program Files/CodeBlocks/MinGW/x86_64-w64-mingw32/include/excpt.h"
	.file 101 "C:/Program Files/CodeBlocks/MinGW/x86_64-w64-mingw32/include/minwindef.h"
	.file 102 "C:/Program Files/CodeBlocks/MinGW/x86_64-w64-mingw32/include/guiddef.h"
	.file 103 "C:/Program Files/CodeBlocks/MinGW/x86_64-w64-mingw32/include/winnt.h"
	.file 104 "C:/Program Files/CodeBlocks/MinGW/x86_64-w64-mingw32/include/rpcdce.h"
	.file 105 "C:/Program Files/CodeBlocks/MinGW/x86_64-w64-mingw32/include/wtypesbase.h"
	.file 106 "C:/Program Files/CodeBlocks/MinGW/x86_64-w64-mingw32/include/unknwnbase.h"
	.file 107 "C:/Program Files/CodeBlocks/MinGW/x86_64-w64-mingw32/include/objidlbase.h"
	.file 108 "C:/Program Files/CodeBlocks/MinGW/x86_64-w64-mingw32/include/cguid.h"
	.file 109 "C:/Program Files/CodeBlocks/MinGW/x86_64-w64-mingw32/include/wtypes.h"
	.file 110 "C:/Program Files/CodeBlocks/MinGW/x86_64-w64-mingw32/include/objidl.h"
	.file 111 "C:/Program Files/CodeBlocks/MinGW/x86_64-w64-mingw32/include/oleidl.h"
	.file 112 "C:/Program Files/CodeBlocks/MinGW/x86_64-w64-mingw32/include/servprov.h"
	.file 113 "C:/Program Files/CodeBlocks/MinGW/x86_64-w64-mingw32/include/oaidl.h"
	.file 114 "C:/Program Files/CodeBlocks/MinGW/x86_64-w64-mingw32/include/msxml.h"
	.file 115 "C:/Program Files/CodeBlocks/MinGW/x86_64-w64-mingw32/include/urlmon.h"
	.file 116 "C:/Program Files/CodeBlocks/MinGW/x86_64-w64-mingw32/include/propidl.h"
	.file 117 "C:/Program Files/CodeBlocks/MinGW/x86_64-w64-mingw32/include/oleauto.h"
	.file 118 "C:/Program Files/CodeBlocks/MinGW/x86_64-w64-mingw32/include/winioctl.h"
	.file 119 "C:/Program Files/CodeBlocks/MinGW/x86_64-w64-mingw32/include/winsmcrd.h"
	.file 120 "C:/Program Files/CodeBlocks/MinGW/x86_64-w64-mingw32/include/winscard.h"
	.file 121 "C:/Program Files/CodeBlocks/MinGW/x86_64-w64-mingw32/include/commdlg.h"
	.file 122 "<built-in>"