	.file	"minhaPrintout.cpp"
	.text
.Ltext0:
	.cfi_sections	.debug_frame
	.section .rdata,"dr"
_ZStL19piecewise_construct:
	.space 1
	.section	.text$_ZNKSt9type_info4nameEv,"x"
	.linkonce discard
	.align 2
	.globl	_ZNKSt9type_info4nameEv
	.def	_ZNKSt9type_info4nameEv;	.scl	2;	.type	32;	.endef
	.seh_proc	_ZNKSt9type_info4nameEv
_ZNKSt9type_info4nameEv:
.LFB711:
	.file 1 "C:/Program Files/CodeBlocks/MinGW/lib/gcc/x86_64-w64-mingw32/8.1.0/include/c++/typeinfo"
	.loc 1 99 17
	.cfi_startproc
	pushq	%rbp
	.seh_pushreg	%rbp
	.cfi_def_cfa_offset 16
	.cfi_offset 6, -16
	movq	%rsp, %rbp
	.seh_setframe	%rbp, 0
	.cfi_def_cfa_register 6
	.seh_endprologue
	movq	%rcx, 16(%rbp)
	.loc 1 100 14
	movq	16(%rbp), %rax
	movq	8(%rax), %rax
	.loc 1 100 22
	movzbl	(%rax), %eax
	.loc 1 100 31
	cmpb	$42, %al
	jne	.L2
	.loc 1 100 33 discriminator 1
	movq	16(%rbp), %rax
	movq	8(%rax), %rax
	.loc 1 100 31 discriminator 1
	addq	$1, %rax
	.loc 1 100 46 discriminator 1
	jmp	.L4
.L2:
	.loc 1 100 31 discriminator 2
	movq	16(%rbp), %rax
	movq	8(%rax), %rax
.L4:
	.loc 1 100 54 discriminator 5
	popq	%rbp
	.cfi_restore 6
	.cfi_def_cfa 7, 8
	ret
	.cfi_endproc
.LFE711:
	.seh_endproc
	.section .rdata,"dr"
	.align 2
.LC0:
	.ascii "\0\0"
	.section	.text$_ZN8wxString7ImplStrEPKw,"x"
	.linkonce discard
	.globl	_ZN8wxString7ImplStrEPKw
	.def	_ZN8wxString7ImplStrEPKw;	.scl	2;	.type	32;	.endef
	.seh_proc	_ZN8wxString7ImplStrEPKw
_ZN8wxString7ImplStrEPKw:
.LFB1709:
	.file 2 "../wxMSW-3.0.5_gcc810_x64_Dev/include/wx/string.h"
	.loc 2 471 25
	.cfi_startproc
	pushq	%rbp
	.seh_pushreg	%rbp
	.cfi_def_cfa_offset 16
	.cfi_offset 6, -16
	movq	%rsp, %rbp
	.seh_setframe	%rbp, 0
	.cfi_def_cfa_register 6
	.seh_endprologue
	movq	%rcx, 16(%rbp)
	.loc 2 472 18
	cmpq	$0, 16(%rbp)
	je	.L6
	.loc 2 472 18 is_stmt 0 discriminator 1
	movq	16(%rbp), %rax
	.loc 2 472 26 is_stmt 1 discriminator 1
	jmp	.L8
.L6:
	.loc 2 472 18 discriminator 2
	leaq	.LC0(%rip), %rax
.L8:
	.loc 2 472 31 discriminator 5
	popq	%rbp
	.cfi_restore 6
	.cfi_def_cfa 7, 8
	ret
	.cfi_endproc
.LFE1709:
	.seh_endproc
	.section	.text$_ZN8wxStringD1Ev,"x"
	.linkonce discard
	.align 2
	.globl	_ZN8wxStringD1Ev
	.def	_ZN8wxStringD1Ev;	.scl	2;	.type	32;	.endef
	.seh_proc	_ZN8wxStringD1Ev
_ZN8wxStringD1Ev:
.LFB1791:
	.loc 2 393 7
	.cfi_startproc
	pushq	%rbp
	.seh_pushreg	%rbp
	.cfi_def_cfa_offset 16
	.cfi_offset 6, -16
	movq	%rsp, %rbp
	.seh_setframe	%rbp, 0
	.cfi_def_cfa_register 6
	subq	$32, %rsp
	.seh_stackalloc	32
	.seh_endprologue
	movq	%rcx, 16(%rbp)
.LBB2:
	.loc 2 393 7
	movq	16(%rbp), %rax
	addq	$32, %rax
	movq	%rax, %rcx
	call	_ZN8wxString15ConvertedBufferIcED1Ev
	movq	16(%rbp), %rax
	movq	%rax, %rcx
	call	_ZNSt7__cxx1112basic_stringIwSt11char_traitsIwESaIwEED1Ev
.LBE2:
	nop
	addq	$32, %rsp
	popq	%rbp
	.cfi_restore 6
	.cfi_def_cfa 7, 8
	ret
	.cfi_endproc
.LFE1791:
	.seh_endproc
	.section	.text$_ZN8wxStringC1ERKS_,"x"
	.linkonce discard
	.align 2
	.globl	_ZN8wxStringC1ERKS_
	.def	_ZN8wxStringC1ERKS_;	.scl	2;	.type	32;	.endef
	.seh_proc	_ZN8wxStringC1ERKS_
_ZN8wxStringC1ERKS_:
.LFB1820:
	.loc 2 1220 3
	.cfi_startproc
	pushq	%rbp
	.seh_pushreg	%rbp
	.cfi_def_cfa_offset 16
	.cfi_offset 6, -16
	movq	%rsp, %rbp
	.seh_setframe	%rbp, 0
	.cfi_def_cfa_register 6
	subq	$32, %rsp
	.seh_stackalloc	32
	.seh_endprologue
	movq	%rcx, 16(%rbp)
	movq	%rdx, 24(%rbp)
.LBB3:
	.loc 2 1220 64
	movq	16(%rbp), %rax
	.loc 2 1220 58
	movq	24(%rbp), %rdx
	.loc 2 1220 64
	movq	%rax, %rcx
	call	_ZNSt7__cxx1112basic_stringIwSt11char_traitsIwESaIwEEC1ERKS4_
	movq	16(%rbp), %rax
	addq	$32, %rax
	movq	%rax, %rcx
	call	_ZN8wxString15ConvertedBufferIcEC1Ev
.LBE3:
	.loc 2 1220 68
	nop
	addq	$32, %rsp
	popq	%rbp
	.cfi_restore 6
	.cfi_def_cfa 7, 8
	ret
	.cfi_endproc
.LFE1820:
	.seh_endproc
	.section	.text$_ZN8wxStringC1EPKw,"x"
	.linkonce discard
	.align 2
	.globl	_ZN8wxStringC1EPKw
	.def	_ZN8wxStringC1EPKw;	.scl	2;	.type	32;	.endef
	.seh_proc	_ZN8wxStringC1EPKw
_ZN8wxStringC1EPKw:
.LFB1871:
	.loc 2 1267 3
	.cfi_startproc
	pushq	%rbp
	.seh_pushreg	%rbp
	.cfi_def_cfa_offset 16
	.cfi_offset 6, -16
	pushq	%rbx
	.seh_pushreg	%rbx
	.cfi_def_cfa_offset 24
	.cfi_offset 3, -24
	subq	$56, %rsp
	.seh_stackalloc	56
	.cfi_def_cfa_offset 80
	leaq	128(%rsp), %rbp
	.seh_setframe	%rbp, 128
	.cfi_def_cfa 6, -48
	.seh_endprologue
	movq	%rcx, -48(%rbp)
	movq	%rdx, -40(%rbp)
.LBB4:
	.loc 2 1268 26
	movq	-48(%rbp), %rbx
	leaq	-81(%rbp), %rax
	movq	%rax, %rcx
	call	_ZNSaIwEC1Ev
	movq	-40(%rbp), %rax
	movq	%rax, %rcx
	call	_ZN8wxString7ImplStrEPKw
	movq	%rax, %rdx
	leaq	-81(%rbp), %rax
	movq	%rax, %r8
	movq	%rbx, %rcx
.LEHB0:
	call	_ZNSt7__cxx1112basic_stringIwSt11char_traitsIwESaIwEEC1EPKwRKS3_
.LEHE0:
	.loc 2 1268 26 is_stmt 0 discriminator 2
	leaq	-81(%rbp), %rax
	movq	%rax, %rcx
	call	_ZNSaIwED1Ev
	movq	-48(%rbp), %rax
	addq	$32, %rax
	movq	%rax, %rcx
	call	_ZN8wxString15ConvertedBufferIcEC1Ev
.LBE4:
	.loc 2 1268 29 is_stmt 1 discriminator 2
	jmp	.L14
.L13:
	movq	%rax, %rbx
.LBB5:
	.loc 2 1268 26
	leaq	-81(%rbp), %rax
	movq	%rax, %rcx
	call	_ZNSaIwED1Ev
	movq	%rbx, %rax
	movq	%rax, %rcx
.LEHB1:
	call	_Unwind_Resume
	nop
.LEHE1:
.L14:
.LBE5:
	.loc 2 1268 29
	addq	$56, %rsp
	popq	%rbx
	.cfi_restore 3
	popq	%rbp
	.cfi_restore 6
	.cfi_def_cfa 7, -40
	ret
	.cfi_endproc
.LFE1871:
	.def	__gxx_personality_seh0;	.scl	2;	.type	32;	.endef
	.seh_handler	__gxx_personality_seh0, @unwind, @except
	.seh_handlerdata
.LLSDA1871:
	.byte	0xff
	.byte	0xff
	.byte	0x1
	.uleb128 .LLSDACSE1871-.LLSDACSB1871
.LLSDACSB1871:
	.uleb128 .LEHB0-.LFB1871
	.uleb128 .LEHE0-.LEHB0
	.uleb128 .L13-.LFB1871
	.uleb128 0
	.uleb128 .LEHB1-.LFB1871
	.uleb128 .LEHE1-.LEHB1
	.uleb128 0
	.uleb128 0
.LLSDACSE1871:
	.section	.text$_ZN8wxStringC1EPKw,"x"
	.linkonce discard
	.seh_endproc
	.section	.text$_ZN8wxObjectD2Ev,"x"
	.linkonce discard
	.align 2
	.globl	_ZN8wxObjectD2Ev
	.def	_ZN8wxObjectD2Ev;	.scl	2;	.type	32;	.endef
	.seh_proc	_ZN8wxObjectD2Ev
_ZN8wxObjectD2Ev:
.LFB3708:
	.file 3 "../wxMSW-3.0.5_gcc810_x64_Dev/include/wx/object.h"
	.loc 3 361 13
	.cfi_startproc
	pushq	%rbp
	.seh_pushreg	%rbp
	.cfi_def_cfa_offset 16
	.cfi_offset 6, -16
	movq	%rsp, %rbp
	.seh_setframe	%rbp, 0
	.cfi_def_cfa_register 6
	subq	$32, %rsp
	.seh_stackalloc	32
	.seh_endprologue
	movq	%rcx, 16(%rbp)
.LBB6:
	.loc 3 361 25
	movq	.refptr._ZTV8wxObject(%rip), %rax
	leaq	16(%rax), %rdx
	movq	16(%rbp), %rax
	movq	%rdx, (%rax)
	.loc 3 361 32
	movq	16(%rbp), %rcx
	call	_ZN8wxObject5UnRefEv
.LBE6:
	.loc 3 361 36
	nop
	addq	$32, %rsp
	popq	%rbp
	.cfi_restore 6
	.cfi_def_cfa 7, 8
	ret
	.cfi_endproc
.LFE3708:
	.seh_handler	__gxx_personality_seh0, @unwind, @except
	.seh_handlerdata
.LLSDA3708:
	.byte	0xff
	.byte	0xff
	.byte	0x1
	.uleb128 .LLSDACSE3708-.LLSDACSB3708
.LLSDACSB3708:
.LLSDACSE3708:
	.section	.text$_ZN8wxObjectD2Ev,"x"
	.linkonce discard
	.seh_endproc
	.section .rdata,"dr"
	.align 4
_ZL15wxInvalidOffset:
	.long	-1
	.section	.text$_ZN23wxCriticalSectionLockerC1ER17wxCriticalSection,"x"
	.linkonce discard
	.align 2
	.globl	_ZN23wxCriticalSectionLockerC1ER17wxCriticalSection
	.def	_ZN23wxCriticalSectionLockerC1ER17wxCriticalSection;	.scl	2;	.type	32;	.endef
	.seh_proc	_ZN23wxCriticalSectionLockerC1ER17wxCriticalSection
_ZN23wxCriticalSectionLockerC1ER17wxCriticalSection:
.LFB7449:
	.file 4 "../wxMSW-3.0.5_gcc810_x64_Dev/include/wx/thread.h"
	.loc 4 304 5
	.cfi_startproc
	pushq	%rbp
	.seh_pushreg	%rbp
	.cfi_def_cfa_offset 16
	.cfi_offset 6, -16
	movq	%rsp, %rbp
	.seh_setframe	%rbp, 0
	.cfi_def_cfa_register 6
	subq	$32, %rsp
	.seh_stackalloc	32
	.seh_endprologue
	movq	%rcx, 16(%rbp)
	movq	%rdx, 24(%rbp)
.LBB7:
	.loc 4 305 24
	movq	16(%rbp), %rax
	movq	24(%rbp), %rdx
	movq	%rdx, (%rax)
	.loc 4 307 9
	movq	16(%rbp), %rax
	movq	(%rax), %rax
	.loc 4 307 25
	movq	%rax, %rcx
	call	_ZN17wxCriticalSection5EnterEv
.LBE7:
	.loc 4 308 5
	nop
	addq	$32, %rsp
	popq	%rbp
	.cfi_restore 6
	.cfi_def_cfa 7, 8
	ret
	.cfi_endproc
.LFE7449:
	.seh_endproc
	.section	.text$_ZN23wxCriticalSectionLockerD1Ev,"x"
	.linkonce discard
	.align 2
	.globl	_ZN23wxCriticalSectionLockerD1Ev
	.def	_ZN23wxCriticalSectionLockerD1Ev;	.scl	2;	.type	32;	.endef
	.seh_proc	_ZN23wxCriticalSectionLockerD1Ev
_ZN23wxCriticalSectionLockerD1Ev:
.LFB7452:
	.loc 4 310 5
	.cfi_startproc
	pushq	%rbp
	.seh_pushreg	%rbp
	.cfi_def_cfa_offset 16
	.cfi_offset 6, -16
	movq	%rsp, %rbp
	.seh_setframe	%rbp, 0
	.cfi_def_cfa_register 6
	subq	$32, %rsp
	.seh_stackalloc	32
	.seh_endprologue
	movq	%rcx, 16(%rbp)
.LBB8:
	.loc 4 312 9
	movq	16(%rbp), %rax
	movq	(%rax), %rax
	.loc 4 312 25
	movq	%rax, %rcx
	call	_ZN17wxCriticalSection5LeaveEv
.LBE8:
	.loc 4 313 5
	nop
	addq	$32, %rsp
	popq	%rbp
	.cfi_restore 6
	.cfi_def_cfa 7, 8
	ret
	.cfi_endproc
.LFE7452:
	.seh_handler	__gxx_personality_seh0, @unwind, @except
	.seh_handlerdata
.LLSDA7452:
	.byte	0xff
	.byte	0xff
	.byte	0x1
	.uleb128 .LLSDACSE7452-.LLSDACSB7452
.LLSDACSB7452:
.LLSDACSE7452:
	.section	.text$_ZN23wxCriticalSectionLockerD1Ev,"x"
	.linkonce discard
	.seh_endproc
	.section	.text$_ZN8wxThread8OnDeleteEv,"x"
	.linkonce discard
	.align 2
	.globl	_ZN8wxThread8OnDeleteEv
	.def	_ZN8wxThread8OnDeleteEv;	.scl	2;	.type	32;	.endef
	.seh_proc	_ZN8wxThread8OnDeleteEv
_ZN8wxThread8OnDeleteEv:
.LFB7458:
	.loc 4 627 18
	.cfi_startproc
	pushq	%rbp
	.seh_pushreg	%rbp
	.cfi_def_cfa_offset 16
	.cfi_offset 6, -16
	movq	%rsp, %rbp
	.seh_setframe	%rbp, 0
	.cfi_def_cfa_register 6
	.seh_endprologue
	movq	%rcx, 16(%rbp)
	.loc 4 627 30
	nop
	popq	%rbp
	.cfi_restore 6
	.cfi_def_cfa 7, 8
	ret
	.cfi_endproc
.LFE7458:
	.seh_endproc
	.section	.text$_ZN8wxThread6OnKillEv,"x"
	.linkonce discard
	.align 2
	.globl	_ZN8wxThread6OnKillEv
	.def	_ZN8wxThread6OnKillEv;	.scl	2;	.type	32;	.endef
	.seh_proc	_ZN8wxThread6OnKillEv
_ZN8wxThread6OnKillEv:
.LFB7459:
	.loc 4 631 18
	.cfi_startproc
	pushq	%rbp
	.seh_pushreg	%rbp
	.cfi_def_cfa_offset 16
	.cfi_offset 6, -16
	movq	%rsp, %rbp
	.seh_setframe	%rbp, 0
	.cfi_def_cfa_register 6
	.seh_endprologue
	movq	%rcx, 16(%rbp)
	.loc 4 631 28
	nop
	popq	%rbp
	.cfi_restore 6
	.cfi_def_cfa 7, 8
	ret
	.cfi_endproc
.LFE7459:
	.seh_endproc
	.section	.text$_ZN8wxThread6OnExitEv,"x"
	.linkonce discard
	.align 2
	.globl	_ZN8wxThread6OnExitEv
	.def	_ZN8wxThread6OnExitEv;	.scl	2;	.type	32;	.endef
	.seh_proc	_ZN8wxThread6OnExitEv
_ZN8wxThread6OnExitEv:
.LFB7460:
	.loc 4 641 18
	.cfi_startproc
	pushq	%rbp
	.seh_pushreg	%rbp
	.cfi_def_cfa_offset 16
	.cfi_offset 6, -16
	movq	%rsp, %rbp
	.seh_setframe	%rbp, 0
	.cfi_def_cfa_register 6
	.seh_endprologue
	movq	%rcx, 16(%rbp)
	.loc 4 641 29
	nop
	popq	%rbp
	.cfi_restore 6
	.cfi_def_cfa 7, 8
	ret
	.cfi_endproc
.LFE7460:
	.seh_endproc
	.section	.text$_ZN20wxThreadHelperThread5EntryEv,"x"
	.linkonce discard
	.align 2
	.globl	_ZN20wxThreadHelperThread5EntryEv
	.def	_ZN20wxThreadHelperThread5EntryEv;	.scl	2;	.type	32;	.endef
	.seh_proc	_ZN20wxThreadHelperThread5EntryEv
_ZN20wxThreadHelperThread5EntryEv:
.LFB7475:
	.loc 4 767 1
	.cfi_startproc
	pushq	%rbp
	.seh_pushreg	%rbp
	.cfi_def_cfa_offset 16
	.cfi_offset 6, -16
	pushq	%rbx
	.seh_pushreg	%rbx
	.cfi_def_cfa_offset 24
	.cfi_offset 3, -24
	subq	$56, %rsp
	.seh_stackalloc	56
	.cfi_def_cfa_offset 80
	leaq	128(%rsp), %rbp
	.seh_setframe	%rbp, 128
	.cfi_def_cfa 6, -48
	.seh_endprologue
	movq	%rcx, -48(%rbp)
	.loc 4 768 27
	movq	-48(%rbp), %rax
	movq	64(%rax), %rdx
	movq	-48(%rbp), %rax
	movq	64(%rax), %rax
	.loc 4 768 41
	movq	(%rax), %rax
	addq	$16, %rax
	movq	(%rax), %rax
	.loc 4 768 40
	movq	%rdx, %rcx
	call	*%rax
.LVL0:
	movq	%rax, -88(%rbp)
	.loc 4 770 36
	movq	-48(%rbp), %rax
	movq	64(%rax), %rax
	.loc 4 770 44
	leaq	24(%rax), %rdx
	.loc 4 770 57
	leaq	-96(%rbp), %rax
	movq	%rax, %rcx
	call	_ZN23wxCriticalSectionLockerC1ER17wxCriticalSection
	.loc 4 776 10
	movq	-48(%rbp), %rax
	movq	64(%rax), %rax
	.loc 4 776 18
	movl	16(%rax), %eax
	.loc 4 776 5
	testl	%eax, %eax
	jne	.L22
	.loc 4 777 9
	movq	-48(%rbp), %rax
	movq	64(%rax), %rax
	.loc 4 777 26
	movq	$0, 8(%rax)
.L22:
	.loc 4 779 12
	movq	-88(%rbp), %rbx
	.loc 4 770 57
	leaq	-96(%rbp), %rax
	movq	%rax, %rcx
	call	_ZN23wxCriticalSectionLockerD1Ev
	.loc 4 779 12
	movq	%rbx, %rax
	.loc 4 780 1
	addq	$56, %rsp
	popq	%rbx
	.cfi_restore 3
	popq	%rbp
	.cfi_restore 6
	.cfi_def_cfa 7, -40
	ret
	.cfi_endproc
.LFE7475:
	.seh_endproc
	.section	.text$_ZN16wxTypeIdentifierC1EPKc,"x"
	.linkonce discard
	.align 2
	.globl	_ZN16wxTypeIdentifierC1EPKc
	.def	_ZN16wxTypeIdentifierC1EPKc;	.scl	2;	.type	32;	.endef
	.seh_proc	_ZN16wxTypeIdentifierC1EPKc
_ZN16wxTypeIdentifierC1EPKc:
.LFB7506:
	.file 5 "../wxMSW-3.0.5_gcc810_x64_Dev/include/wx/typeinfo.h"
	.loc 5 66 5
	.cfi_startproc
	pushq	%rbp
	.seh_pushreg	%rbp
	.cfi_def_cfa_offset 16
	.cfi_offset 6, -16
	movq	%rsp, %rbp
	.seh_setframe	%rbp, 0
	.cfi_def_cfa_register 6
	.seh_endprologue
	movq	%rcx, 16(%rbp)
	movq	%rdx, 24(%rbp)
.LBB9:
	.loc 5 68 21
	movq	16(%rbp), %rax
	movq	24(%rbp), %rdx
	movq	%rdx, (%rax)
.LBE9:
	.loc 5 69 5
	nop
	popq	%rbp
	.cfi_restore 6
	.cfi_def_cfa 7, 8
	ret
	.cfi_endproc
.LFE7506:
	.seh_endproc
	.section	.text$_ZN16wxTypeIdentifiereqERKS_,"x"
	.linkonce discard
	.align 2
	.globl	_ZN16wxTypeIdentifiereqERKS_
	.def	_ZN16wxTypeIdentifiereqERKS_;	.scl	2;	.type	32;	.endef
	.seh_proc	_ZN16wxTypeIdentifiereqERKS_
_ZN16wxTypeIdentifiereqERKS_:
.LFB7507:
	.loc 5 71 10
	.cfi_startproc
	pushq	%rbp
	.seh_pushreg	%rbp
	.cfi_def_cfa_offset 16
	.cfi_offset 6, -16
	movq	%rsp, %rbp
	.seh_setframe	%rbp, 0
	.cfi_def_cfa_register 6
	subq	$32, %rsp
	.seh_stackalloc	32
	.seh_endprologue
	movq	%rcx, 16(%rbp)
	movq	%rdx, 24(%rbp)
	.loc 5 73 42
	movq	24(%rbp), %rax
	movq	(%rax), %rdx
	.loc 5 73 22
	movq	16(%rbp), %rax
	movq	(%rax), %rax
	movq	%rax, %rcx
	call	strcmp
	.loc 5 73 58
	testl	%eax, %eax
	sete	%al
	.loc 5 74 5
	addq	$32, %rsp
	popq	%rbp
	.cfi_restore 6
	.cfi_def_cfa 7, 8
	ret
	.cfi_endproc
.LFE7507:
	.seh_endproc
	.section	.text$_ZNK20wxObjectEventFunctor10IsMatchingERK14wxEventFunctor,"x"
	.linkonce discard
	.align 2
	.globl	_ZNK20wxObjectEventFunctor10IsMatchingERK14wxEventFunctor
	.def	_ZNK20wxObjectEventFunctor10IsMatchingERK14wxEventFunctor;	.scl	2;	.type	32;	.endef
	.seh_proc	_ZNK20wxObjectEventFunctor10IsMatchingERK14wxEventFunctor
_ZNK20wxObjectEventFunctor10IsMatchingERK14wxEventFunctor:
.LFB8538:
	.file 6 "../wxMSW-3.0.5_gcc810_x64_Dev/include/wx/event.h"
	.loc 6 249 18
	.cfi_startproc
	pushq	%rbp
	.seh_pushreg	%rbp
	.cfi_def_cfa_offset 16
	.cfi_offset 6, -16
	movq	%rsp, %rbp
	.seh_setframe	%rbp, 0
	.cfi_def_cfa_register 6
	subq	$64, %rsp
	.seh_stackalloc	64
	.seh_endprologue
	movq	%rcx, 16(%rbp)
	movq	%rdx, 24(%rbp)
.LBB10:
	.loc 6 251 83
	movq	16(%rbp), %rax
	movq	(%rax), %rax
	subq	$8, %rax
	.loc 6 251 58
	movq	(%rax), %rax
	movq	%rax, %rcx
	call	_ZNKSt9type_info4nameEv
	movq	%rax, %rdx
	leaq	-24(%rbp), %rax
	movq	%rax, %rcx
	call	_ZN16wxTypeIdentifierC1EPKc
	.loc 6 251 38
	movq	24(%rbp), %rax
	movq	(%rax), %rax
	subq	$8, %rax
	.loc 6 251 14
	movq	(%rax), %rax
	movq	%rax, %rcx
	call	_ZNKSt9type_info4nameEv
	movq	%rax, %rdx
	leaq	-16(%rbp), %rax
	movq	%rax, %rcx
	call	_ZN16wxTypeIdentifierC1EPKc
	.loc 6 251 55
	leaq	-24(%rbp), %rdx
	leaq	-16(%rbp), %rax
	movq	%rax, %rcx
	call	_ZN16wxTypeIdentifiereqERKS_
	.loc 6 251 9
	testb	%al, %al
	je	.L28
.LBB11:
	.loc 6 253 41
	movq	24(%rbp), %rax
	movq	%rax, -8(%rbp)
	.loc 6 262 40
	movq	16(%rbp), %rax
	movq	16(%rax), %rdx
	movq	-8(%rbp), %rax
	movq	16(%rax), %rax
	.loc 6 262 74
	cmpq	%rax, %rdx
	jne	.L29
	.loc 6 262 40 discriminator 1
	movq	16(%rbp), %rax
	movq	24(%rax), %rdx
	movq	-8(%rbp), %rax
	movq	24(%rax), %rax
	.loc 6 262 31 discriminator 1
	cmpq	%rax, %rdx
	je	.L30
	.loc 6 262 40 discriminator 4
	movq	16(%rbp), %rax
	movq	16(%rax), %rax
	.loc 6 262 31 discriminator 4
	testq	%rax, %rax
	je	.L30
.L29:
	.loc 6 262 70 discriminator 6
	movq	-8(%rbp), %rax
	movq	16(%rax), %rax
	.loc 6 262 49 discriminator 6
	testq	%rax, %rax
	jne	.L31
.L30:
	.loc 6 263 22 discriminator 7
	movq	16(%rbp), %rax
	movq	8(%rax), %rdx
	.loc 6 263 41 discriminator 7
	movq	-8(%rbp), %rax
	movq	8(%rax), %rax
	.loc 6 262 74 discriminator 7
	cmpq	%rax, %rdx
	je	.L32
	.loc 6 263 60
	movq	-8(%rbp), %rax
	movq	8(%rax), %rax
	.loc 6 263 51
	testq	%rax, %rax
	jne	.L31
.L32:
	.loc 6 262 74 discriminator 9
	movl	$1, %eax
	.loc 6 263 77 discriminator 9
	jmp	.L34
.L31:
	.loc 6 262 74 discriminator 8
	movl	$0, %eax
	.loc 6 263 77 discriminator 8
	jmp	.L34
.L28:
.LBE11:
	.loc 6 266 20
	movl	$0, %eax
.L34:
.LBE10:
	.loc 6 267 5
	addq	$64, %rsp
	popq	%rbp
	.cfi_restore 6
	.cfi_def_cfa 7, 8
	ret
	.cfi_endproc
.LFE8538:
	.seh_endproc
	.section	.text$_ZNK20wxObjectEventFunctor13GetEvtHandlerEv,"x"
	.linkonce discard
	.align 2
	.globl	_ZNK20wxObjectEventFunctor13GetEvtHandlerEv
	.def	_ZNK20wxObjectEventFunctor13GetEvtHandlerEv;	.scl	2;	.type	32;	.endef
	.seh_proc	_ZNK20wxObjectEventFunctor13GetEvtHandlerEv
_ZNK20wxObjectEventFunctor13GetEvtHandlerEv:
.LFB8539:
	.loc 6 269 27
	.cfi_startproc
	pushq	%rbp
	.seh_pushreg	%rbp
	.cfi_def_cfa_offset 16
	.cfi_offset 6, -16
	movq	%rsp, %rbp
	.seh_setframe	%rbp, 0
	.cfi_def_cfa_register 6
	.seh_endprologue
	movq	%rcx, 16(%rbp)
	.loc 6 270 18
	movq	16(%rbp), %rax
	movq	8(%rax), %rax
	.loc 6 270 29
	popq	%rbp
	.cfi_restore 6
	.cfi_def_cfa 7, 8
	ret
	.cfi_endproc
.LFE8539:
	.seh_endproc
	.section	.text$_ZNK20wxObjectEventFunctor12GetEvtMethodEv,"x"
	.linkonce discard
	.align 2
	.globl	_ZNK20wxObjectEventFunctor12GetEvtMethodEv
	.def	_ZNK20wxObjectEventFunctor12GetEvtMethodEv;	.scl	2;	.type	32;	.endef
	.seh_proc	_ZNK20wxObjectEventFunctor12GetEvtMethodEv
_ZNK20wxObjectEventFunctor12GetEvtMethodEv:
.LFB8540:
	.loc 6 272 29
	.cfi_startproc
	pushq	%rbp
	.seh_pushreg	%rbp
	.cfi_def_cfa_offset 16
	.cfi_offset 6, -16
	movq	%rsp, %rbp
	.seh_setframe	%rbp, 0
	.cfi_def_cfa_register 6
	.seh_endprologue
	movq	%rcx, 16(%rbp)
	movq	%rdx, 24(%rbp)
	.loc 6 273 18
	movq	16(%rbp), %rcx
	movq	24(%rbp), %rax
	movq	24(%rax), %rdx
	movq	16(%rax), %rax
	movq	%rax, (%rcx)
	movq	%rdx, 8(%rcx)
	.loc 6 273 28
	movq	16(%rbp), %rax
	popq	%rbp
	.cfi_restore 6
	.cfi_def_cfa 7, 8
	ret
	.cfi_endproc
.LFE8540:
	.seh_endproc
	.section	.text$_ZN20wxObjectEventFunctorclEP12wxEvtHandlerR7wxEvent,"x"
	.linkonce discard
	.align 2
	.globl	_ZN20wxObjectEventFunctorclEP12wxEvtHandlerR7wxEvent
	.def	_ZN20wxObjectEventFunctorclEP12wxEvtHandlerR7wxEvent;	.scl	2;	.type	32;	.endef
	.seh_proc	_ZN20wxObjectEventFunctorclEP12wxEvtHandlerR7wxEvent
_ZN20wxObjectEventFunctorclEP12wxEvtHandlerR7wxEvent:
.LFB9338:
	.loc 6 3775 1
	.cfi_startproc
	pushq	%rbp
	.seh_pushreg	%rbp
	.cfi_def_cfa_offset 16
	.cfi_offset 6, -16
	movq	%rsp, %rbp
	.seh_setframe	%rbp, 0
	.cfi_def_cfa_register 6
	subq	$48, %rsp
	.seh_stackalloc	48
	.seh_endprologue
	movq	%rcx, 16(%rbp)
	movq	%rdx, 24(%rbp)
	movq	%r8, 32(%rbp)
	.loc 6 3776 40
	movq	16(%rbp), %rax
	movq	8(%rax), %rax
	.loc 6 3776 50
	testq	%rax, %rax
	je	.L40
	.loc 6 3776 50 is_stmt 0 discriminator 1
	movq	16(%rbp), %rax
	movq	8(%rax), %rax
	jmp	.L41
.L40:
	.loc 6 3776 50 discriminator 2
	movq	24(%rbp), %rax
.L41:
	.loc 6 3776 26 is_stmt 1 discriminator 4
	movq	%rax, -8(%rbp)
	.loc 6 3778 35 discriminator 4
	movq	16(%rbp), %rax
	movq	24(%rax), %rax
	.loc 6 3778 29 discriminator 4
	movq	%rax, %rdx
	movq	-8(%rbp), %rax
	leaq	(%rdx,%rax), %rcx
	.loc 6 3778 35 discriminator 4
	movq	16(%rbp), %rax
	movq	16(%rax), %rax
	andl	$1, %eax
	testq	%rax, %rax
	je	.L42
	.loc 6 3778 35 is_stmt 0 discriminator 1
	movq	16(%rbp), %rax
	movq	24(%rax), %rax
	movq	%rax, %rdx
	movq	-8(%rbp), %rax
	addq	%rdx, %rax
	movq	(%rax), %rdx
	movq	16(%rbp), %rax
	movq	16(%rax), %rax
	subq	$1, %rax
	addq	%rdx, %rax
	movq	(%rax), %rax
	jmp	.L43
.L42:
	.loc 6 3778 35 discriminator 2
	movq	16(%rbp), %rax
	movq	16(%rax), %rax
.L43:
	.loc 6 3778 29 is_stmt 1 discriminator 4
	movq	32(%rbp), %rdx
	call	*%rax
.LVL1:
	.loc 6 3779 1 discriminator 4
	nop
	addq	$48, %rsp
	popq	%rbp
	.cfi_restore 6
	.cfi_def_cfa 7, 8
	ret
	.cfi_endproc
.LFE9338:
	.seh_endproc
	.section .rdata,"dr"
	.align 4
_ZL5wxEOF:
	.long	-1
	.align 4
_ZL20wxPRINTMEDIA_DEFAULT:
	.space 4
_ZL19wxALPHA_TRANSPARENT:
	.space 1
_ZL14wxALPHA_OPAQUE:
	.byte	-1
	.section	.text$_ZNK12wxWindowBase7GetSizeEPiS0_,"x"
	.linkonce discard
	.align 2
	.globl	_ZNK12wxWindowBase7GetSizeEPiS0_
	.def	_ZNK12wxWindowBase7GetSizeEPiS0_;	.scl	2;	.type	32;	.endef
	.seh_proc	_ZNK12wxWindowBase7GetSizeEPiS0_
_ZNK12wxWindowBase7GetSizeEPiS0_:
.LFB9969:
	.file 7 "../wxMSW-3.0.5_gcc810_x64_Dev/include/wx/window.h"
	.loc 7 323 10
	.cfi_startproc
	pushq	%rbp
	.seh_pushreg	%rbp
	.cfi_def_cfa_offset 16
	.cfi_offset 6, -16
	movq	%rsp, %rbp
	.seh_setframe	%rbp, 0
	.cfi_def_cfa_register 6
	subq	$32, %rsp
	.seh_stackalloc	32
	.seh_endprologue
	movq	%rcx, 16(%rbp)
	movq	%rdx, 24(%rbp)
	movq	%r8, 32(%rbp)
	.loc 7 323 58
	movq	16(%rbp), %rax
	movq	(%rax), %rax
	addq	$1320, %rax
	movq	(%rax), %rax
	.loc 7 323 53
	movq	32(%rbp), %rcx
	movq	24(%rbp), %rdx
	movq	%rcx, %r8
	movq	16(%rbp), %rcx
	call	*%rax
.LVL2:
	.loc 7 323 61
	nop
	addq	$32, %rsp
	popq	%rbp
	.cfi_restore 6
	.cfi_def_cfa 7, 8
	ret
	.cfi_endproc
.LFE9969:
	.seh_endproc
	.section .rdata,"dr"
_ZL25wxIMAGE_ALPHA_TRANSPARENT:
	.space 1
_ZL23wxIMAGE_ALPHA_THRESHOLD:
	.byte	-128
_ZL20wxIMAGE_ALPHA_OPAQUE:
	.byte	-1
	.section	.text$_ZN4wxDCD2Ev,"x"
	.linkonce discard
	.align 2
	.globl	_ZN4wxDCD2Ev
	.def	_ZN4wxDCD2Ev;	.scl	2;	.type	32;	.endef
	.seh_proc	_ZN4wxDCD2Ev
_ZN4wxDCD2Ev:
.LFB15932:
	.file 8 "../wxMSW-3.0.5_gcc810_x64_Dev/include/wx/dc.h"
	.loc 8 789 13
	.cfi_startproc
	pushq	%rbp
	.seh_pushreg	%rbp
	.cfi_def_cfa_offset 16
	.cfi_offset 6, -16
	movq	%rsp, %rbp
	.seh_setframe	%rbp, 0
	.cfi_def_cfa_register 6
	subq	$32, %rsp
	.seh_stackalloc	32
	.seh_endprologue
	movq	%rcx, 16(%rbp)
.LBB12:
	.loc 8 789 21
	movq	.refptr._ZTV4wxDC(%rip), %rax
	leaq	16(%rax), %rdx
	movq	16(%rbp), %rax
	movq	%rdx, (%rax)
	.loc 8 789 30
	movq	16(%rbp), %rax
	movq	16(%rax), %rax
	.loc 8 789 37
	testq	%rax, %rax
	je	.L46
	.loc 8 789 30 discriminator 1
	movq	16(%rbp), %rax
	movq	16(%rax), %rdx
	movq	16(%rbp), %rax
	movq	16(%rax), %rax
	movq	(%rax), %rax
	addq	$16, %rax
	movq	(%rax), %rax
	movq	%rdx, %rcx
	call	*%rax
.LVL3:
.L46:
	.loc 8 789 21 discriminator 3
	movq	16(%rbp), %rax
	movq	%rax, %rcx
	call	_ZN8wxObjectD2Ev
.LBE12:
	.loc 8 789 39 discriminator 3
	nop
	addq	$32, %rsp
	popq	%rbp
	.cfi_restore 6
	.cfi_def_cfa 7, 8
	ret
	.cfi_endproc
.LFE15932:
	.seh_endproc
	.section	.text$_ZN4wxDC15SetDeviceOriginEii,"x"
	.linkonce discard
	.align 2
	.globl	_ZN4wxDC15SetDeviceOriginEii
	.def	_ZN4wxDC15SetDeviceOriginEii;	.scl	2;	.type	32;	.endef
	.seh_proc	_ZN4wxDC15SetDeviceOriginEii
_ZN4wxDC15SetDeviceOriginEii:
.LFB16013:
	.loc 8 1048 10
	.cfi_startproc
	pushq	%rbp
	.seh_pushreg	%rbp
	.cfi_def_cfa_offset 16
	.cfi_offset 6, -16
	movq	%rsp, %rbp
	.seh_setframe	%rbp, 0
	.cfi_def_cfa_register 6
	subq	$32, %rsp
	.seh_stackalloc	32
	.seh_endprologue
	movq	%rcx, 16(%rbp)
	movl	%edx, 24(%rbp)
	movl	%r8d, 32(%rbp)
	.loc 8 1049 11
	movq	16(%rbp), %rax
	movq	16(%rax), %rcx
	movq	16(%rbp), %rax
	movq	16(%rax), %rax
	.loc 8 1049 41
	movq	(%rax), %rax
	addq	$536, %rax
	movq	(%rax), %rax
	.loc 8 1049 35
	movl	32(%rbp), %r8d
	movl	24(%rbp), %edx
	call	*%rax
.LVL4:
	.loc 8 1049 44
	nop
	addq	$32, %rsp
	popq	%rbp
	.cfi_restore 6
	.cfi_def_cfa 7, 8
	ret
	.cfi_endproc
.LFE16013:
	.seh_endproc
	.section	.text$_ZN4wxDC11StretchBlitEiiiiPS_iiii21wxRasterOperationModebii,"x"
	.linkonce discard
	.align 2
	.globl	_ZN4wxDC11StretchBlitEiiiiPS_iiii21wxRasterOperationModebii
	.def	_ZN4wxDC11StretchBlitEiiiiPS_iiii21wxRasterOperationModebii;	.scl	2;	.type	32;	.endef
	.seh_proc	_ZN4wxDC11StretchBlitEiiiiPS_iiii21wxRasterOperationModebii
_ZN4wxDC11StretchBlitEiiiiPS_iiii21wxRasterOperationModebii:
.LFB16068:
	.loc 8 1260 10
	.cfi_startproc
	pushq	%rbp
	.seh_pushreg	%rbp
	.cfi_def_cfa_offset 16
	.cfi_offset 6, -16
	movq	%rsp, %rbp
	.seh_setframe	%rbp, 0
	.cfi_def_cfa_register 6
	addq	$-128, %rsp
	.seh_stackalloc	128
	.seh_endprologue
	movq	%rcx, 16(%rbp)
	movl	%edx, 24(%rbp)
	movl	%r8d, 32(%rbp)
	movl	%r9d, 40(%rbp)
	movl	104(%rbp), %eax
	movb	%al, -4(%rbp)
	.loc 8 1268 16
	movq	16(%rbp), %rax
	movq	16(%rax), %rcx
	movq	16(%rbp), %rax
	movq	16(%rax), %rax
	.loc 8 1269 96
	movq	(%rax), %rax
	addq	$768, %rax
	movq	(%rax), %r10
	.loc 8 1268 38
	movzbl	-4(%rbp), %eax
	movl	40(%rbp), %r9d
	movl	32(%rbp), %r11d
	movl	24(%rbp), %edx
	movl	120(%rbp), %r8d
	movl	%r8d, 104(%rsp)
	movl	112(%rbp), %r8d
	movl	%r8d, 96(%rsp)
	movl	%eax, 88(%rsp)
	movl	96(%rbp), %eax
	movl	%eax, 80(%rsp)
	movl	88(%rbp), %eax
	movl	%eax, 72(%rsp)
	movl	80(%rbp), %eax
	movl	%eax, 64(%rsp)
	movl	72(%rbp), %eax
	movl	%eax, 56(%rsp)
	movl	64(%rbp), %eax
	movl	%eax, 48(%rsp)
	movq	56(%rbp), %rax
	movq	%rax, 40(%rsp)
	movl	48(%rbp), %eax
	movl	%eax, 32(%rsp)
	movl	%r11d, %r8d
	call	*%r10
.LVL5:
	.loc 8 1270 5
	subq	$-128, %rsp
	popq	%rbp
	.cfi_restore 6
	.cfi_def_cfa 7, 8
	ret
	.cfi_endproc
.LFE16068:
	.seh_endproc
	.section	.text$_ZN10wxPrintout17OnPreparePrintingEv,"x"
	.linkonce discard
	.align 2
	.globl	_ZN10wxPrintout17OnPreparePrintingEv
	.def	_ZN10wxPrintout17OnPreparePrintingEv;	.scl	2;	.type	32;	.endef
	.seh_proc	_ZN10wxPrintout17OnPreparePrintingEv
_ZN10wxPrintout17OnPreparePrintingEv:
.LFB16162:
	.file 9 "../wxMSW-3.0.5_gcc810_x64_Dev/include/wx/prntbase.h"
	.loc 9 272 18
	.cfi_startproc
	pushq	%rbp
	.seh_pushreg	%rbp
	.cfi_def_cfa_offset 16
	.cfi_offset 6, -16
	movq	%rsp, %rbp
	.seh_setframe	%rbp, 0
	.cfi_def_cfa_register 6
	.seh_endprologue
	movq	%rcx, 16(%rbp)
	.loc 9 272 40
	nop
	popq	%rbp
	.cfi_restore 6
	.cfi_def_cfa 7, 8
	ret
	.cfi_endproc
.LFE16162:
	.seh_endproc
	.section	.text$_ZNK10wxPrintout8GetTitleEv,"x"
	.linkonce discard
	.align 2
	.globl	_ZNK10wxPrintout8GetTitleEv
	.def	_ZNK10wxPrintout8GetTitleEv;	.scl	2;	.type	32;	.endef
	.seh_proc	_ZNK10wxPrintout8GetTitleEv
_ZNK10wxPrintout8GetTitleEv:
.LFB16163:
	.loc 9 278 22
	.cfi_startproc
	pushq	%rbp
	.seh_pushreg	%rbp
	.cfi_def_cfa_offset 16
	.cfi_offset 6, -16
	movq	%rsp, %rbp
	.seh_setframe	%rbp, 0
	.cfi_def_cfa_register 6
	subq	$32, %rsp
	.seh_stackalloc	32
	.seh_endprologue
	movq	%rcx, 16(%rbp)
	movq	%rdx, 24(%rbp)
	.loc 9 278 48
	movq	24(%rbp), %rax
	addq	$16, %rax
	movq	%rax, %rdx
	movq	16(%rbp), %rcx
	call	_ZN8wxStringC1ERKS_
	.loc 9 278 65
	movq	16(%rbp), %rax
	addq	$32, %rsp
	popq	%rbp
	.cfi_restore 6
	.cfi_def_cfa 7, 8
	ret
	.cfi_endproc
.LFE16163:
	.seh_endproc
	.section	.text$_ZNK10wxPrintout5GetDCEv,"x"
	.linkonce discard
	.align 2
	.globl	_ZNK10wxPrintout5GetDCEv
	.def	_ZNK10wxPrintout5GetDCEv;	.scl	2;	.type	32;	.endef
	.seh_proc	_ZNK10wxPrintout5GetDCEv
_ZNK10wxPrintout5GetDCEv:
.LFB16164:
	.loc 9 280 11
	.cfi_startproc
	pushq	%rbp
	.seh_pushreg	%rbp
	.cfi_def_cfa_offset 16
	.cfi_offset 6, -16
	movq	%rsp, %rbp
	.seh_setframe	%rbp, 0
	.cfi_def_cfa_register 6
	.seh_endprologue
	movq	%rcx, 16(%rbp)
	.loc 9 280 34
	movq	16(%rbp), %rax
	movq	64(%rax), %rax
	.loc 9 280 48
	popq	%rbp
	.cfi_restore 6
	.cfi_def_cfa 7, 8
	ret
	.cfi_endproc
.LFE16164:
	.seh_endproc
	.section	.text$_ZNK10wxPrintout17GetPageSizePixelsEPiS0_,"x"
	.linkonce discard
	.align 2
	.globl	_ZNK10wxPrintout17GetPageSizePixelsEPiS0_
	.def	_ZNK10wxPrintout17GetPageSizePixelsEPiS0_;	.scl	2;	.type	32;	.endef
	.seh_proc	_ZNK10wxPrintout17GetPageSizePixelsEPiS0_
_ZNK10wxPrintout17GetPageSizePixelsEPiS0_:
.LFB16167:
	.loc 9 299 10
	.cfi_startproc
	pushq	%rbp
	.seh_pushreg	%rbp
	.cfi_def_cfa_offset 16
	.cfi_offset 6, -16
	movq	%rsp, %rbp
	.seh_setframe	%rbp, 0
	.cfi_def_cfa_register 6
	.seh_endprologue
	movq	%rcx, 16(%rbp)
	movq	%rdx, 24(%rbp)
	movq	%r8, 32(%rbp)
	.loc 9 299 57
	movq	16(%rbp), %rax
	movl	80(%rax), %edx
	.loc 9 299 55
	movq	24(%rbp), %rax
	movl	%edx, (%rax)
	.loc 9 299 81
	movq	16(%rbp), %rax
	movl	84(%rax), %edx
	.loc 9 299 79
	movq	32(%rbp), %rax
	movl	%edx, (%rax)
	.loc 9 299 101
	nop
	popq	%rbp
	.cfi_restore 6
	.cfi_def_cfa 7, 8
	ret
	.cfi_endproc
.LFE16167:
	.seh_endproc
	.section	.text$_ZN10wxPrintout10SetPreviewEP14wxPrintPreview,"x"
	.linkonce discard
	.align 2
	.globl	_ZN10wxPrintout10SetPreviewEP14wxPrintPreview
	.def	_ZN10wxPrintout10SetPreviewEP14wxPrintPreview;	.scl	2;	.type	32;	.endef
	.seh_proc	_ZN10wxPrintout10SetPreviewEP14wxPrintPreview
_ZN10wxPrintout10SetPreviewEP14wxPrintPreview:
.LFB16178:
	.loc 9 315 18
	.cfi_startproc
	pushq	%rbp
	.seh_pushreg	%rbp
	.cfi_def_cfa_offset 16
	.cfi_offset 6, -16
	movq	%rsp, %rbp
	.seh_setframe	%rbp, 0
	.cfi_def_cfa_register 6
	.seh_endprologue
	movq	%rcx, 16(%rbp)
	movq	%rdx, 24(%rbp)
	.loc 9 315 66
	movq	16(%rbp), %rax
	movq	24(%rbp), %rdx
	movq	%rdx, 72(%rax)
	.loc 9 315 77
	nop
	popq	%rbp
	.cfi_restore 6
	.cfi_def_cfa 7, 8
	ret
	.cfi_endproc
.LFE16178:
	.seh_endproc
	.section	.text$_ZNK10wxPrintout10GetPreviewEv,"x"
	.linkonce discard
	.align 2
	.globl	_ZNK10wxPrintout10GetPreviewEv
	.def	_ZNK10wxPrintout10GetPreviewEv;	.scl	2;	.type	32;	.endef
	.seh_proc	_ZNK10wxPrintout10GetPreviewEv
_ZNK10wxPrintout10GetPreviewEv:
.LFB16179:
	.loc 9 317 21
	.cfi_startproc
	pushq	%rbp
	.seh_pushreg	%rbp
	.cfi_def_cfa_offset 16
	.cfi_offset 6, -16
	movq	%rsp, %rbp
	.seh_setframe	%rbp, 0
	.cfi_def_cfa_register 6
	.seh_endprologue
	movq	%rcx, 16(%rbp)
	.loc 9 317 49
	movq	16(%rbp), %rax
	movq	72(%rax), %rax
	.loc 9 317 60
	popq	%rbp
	.cfi_restore 6
	.cfi_def_cfa 7, 8
	ret
	.cfi_endproc
.LFE16179:
	.seh_endproc
	.section	.text$_ZNK10wxPrintout9IsPreviewEv,"x"
	.linkonce discard
	.align 2
	.globl	_ZNK10wxPrintout9IsPreviewEv
	.def	_ZNK10wxPrintout9IsPreviewEv;	.scl	2;	.type	32;	.endef
	.seh_proc	_ZNK10wxPrintout9IsPreviewEv
_ZNK10wxPrintout9IsPreviewEv:
.LFB16180:
	.loc 9 318 18
	.cfi_startproc
	pushq	%rbp
	.seh_pushreg	%rbp
	.cfi_def_cfa_offset 16
	.cfi_offset 6, -16
	movq	%rsp, %rbp
	.seh_setframe	%rbp, 0
	.cfi_def_cfa_register 6
	subq	$32, %rsp
	.seh_stackalloc	32
	.seh_endprologue
	movq	%rcx, 16(%rbp)
	.loc 9 318 55
	movq	16(%rbp), %rcx
	call	_ZNK10wxPrintout10GetPreviewEv
	.loc 9 318 60
	testq	%rax, %rax
	setne	%al
	.loc 9 318 66
	addq	$32, %rsp
	popq	%rbp
	.cfi_restore 6
	.cfi_def_cfa 7, 8
	ret
	.cfi_endproc
.LFE16180:
	.seh_endproc
	.section	.text$_ZN13MinhaPrintoutD1Ev,"x"
	.linkonce discard
	.align 2
	.globl	_ZN13MinhaPrintoutD1Ev
	.def	_ZN13MinhaPrintoutD1Ev;	.scl	2;	.type	32;	.endef
	.seh_proc	_ZN13MinhaPrintoutD1Ev
_ZN13MinhaPrintoutD1Ev:
.LFB17384:
	.file 10 "C:/temp/ballisticKernelCpp/interfaceGrafica/calculadorBalisiticaGraficoWindows/minhaPrintout.h"
	.loc 10 15 17
	.cfi_startproc
	pushq	%rbp
	.seh_pushreg	%rbp
	.cfi_def_cfa_offset 16
	.cfi_offset 6, -16
	movq	%rsp, %rbp
	.seh_setframe	%rbp, 0
	.cfi_def_cfa_register 6
	subq	$32, %rsp
	.seh_stackalloc	32
	.seh_endprologue
	movq	%rcx, 16(%rbp)
.LBB13:
	.loc 10 15 34
	leaq	16+_ZTV13MinhaPrintout(%rip), %rdx
	movq	16(%rbp), %rax
	movq	%rdx, (%rax)
	movq	16(%rbp), %rax
	movq	%rax, %rcx
	call	_ZN10wxPrintoutD2Ev
.LBE13:
	.loc 10 15 35
	nop
	addq	$32, %rsp
	popq	%rbp
	.cfi_restore 6
	.cfi_def_cfa 7, 8
	ret
	.cfi_endproc
.LFE17384:
	.seh_endproc
	.section	.text$_ZN13MinhaPrintoutD0Ev,"x"
	.linkonce discard
	.align 2
	.globl	_ZN13MinhaPrintoutD0Ev
	.def	_ZN13MinhaPrintoutD0Ev;	.scl	2;	.type	32;	.endef
	.seh_proc	_ZN13MinhaPrintoutD0Ev
_ZN13MinhaPrintoutD0Ev:
.LFB17385:
	.loc 10 15 17
	.cfi_startproc
	pushq	%rbp
	.seh_pushreg	%rbp
	.cfi_def_cfa_offset 16
	.cfi_offset 6, -16
	movq	%rsp, %rbp
	.seh_setframe	%rbp, 0
	.cfi_def_cfa_register 6
	subq	$32, %rsp
	.seh_stackalloc	32
	.seh_endprologue
	movq	%rcx, 16(%rbp)
	.loc 10 15 35
	movq	16(%rbp), %rcx
	call	_ZN13MinhaPrintoutD1Ev
	movq	16(%rbp), %rcx
	call	_ZdlPv
	nop
	addq	$32, %rsp
	popq	%rbp
	.cfi_restore 6
	.cfi_def_cfa 7, 8
	ret
	.cfi_endproc
.LFE17385:
	.seh_endproc
	.section	.text$_ZN10wxWindowDCD2Ev,"x"
	.linkonce discard
	.align 2
	.globl	_ZN10wxWindowDCD2Ev
	.def	_ZN10wxWindowDCD2Ev;	.scl	2;	.type	32;	.endef
	.seh_proc	_ZN10wxWindowDCD2Ev
_ZN10wxWindowDCD2Ev:
.LFB17391:
	.file 11 "../wxMSW-3.0.5_gcc810_x64_Dev/include/wx/dcclient.h"
	.loc 11 18 7
	.cfi_startproc
	pushq	%rbp
	.seh_pushreg	%rbp
	.cfi_def_cfa_offset 16
	.cfi_offset 6, -16
	movq	%rsp, %rbp
	.seh_setframe	%rbp, 0
	.cfi_def_cfa_register 6
	subq	$32, %rsp
	.seh_stackalloc	32
	.seh_endprologue
	movq	%rcx, 16(%rbp)
.LBB14:
	.loc 11 18 7
	movq	.refptr._ZTV10wxWindowDC(%rip), %rax
	leaq	16(%rax), %rdx
	movq	16(%rbp), %rax
	movq	%rdx, (%rax)
	movq	16(%rbp), %rax
	movq	%rax, %rcx
	call	_ZN4wxDCD2Ev
.LBE14:
	nop
	addq	$32, %rsp
	popq	%rbp
	.cfi_restore 6
	.cfi_def_cfa 7, 8
	ret
	.cfi_endproc
.LFE17391:
	.seh_endproc
	.section	.text$_ZN10wxClientDCD1Ev,"x"
	.linkonce discard
	.align 2
	.globl	_ZN10wxClientDCD1Ev
	.def	_ZN10wxClientDCD1Ev;	.scl	2;	.type	32;	.endef
	.seh_proc	_ZN10wxClientDCD1Ev
_ZN10wxClientDCD1Ev:
.LFB17399:
	.loc 11 34 7
	.cfi_startproc
	pushq	%rbp
	.seh_pushreg	%rbp
	.cfi_def_cfa_offset 16
	.cfi_offset 6, -16
	movq	%rsp, %rbp
	.seh_setframe	%rbp, 0
	.cfi_def_cfa_register 6
	subq	$32, %rsp
	.seh_stackalloc	32
	.seh_endprologue
	movq	%rcx, 16(%rbp)
.LBB15:
	.loc 11 34 7
	movq	.refptr._ZTV10wxClientDC(%rip), %rax
	leaq	16(%rax), %rdx
	movq	16(%rbp), %rax
	movq	%rdx, (%rax)
	movq	16(%rbp), %rax
	movq	%rax, %rcx
	call	_ZN10wxWindowDCD2Ev
.LBE15:
	nop
	addq	$32, %rsp
	popq	%rbp
	.cfi_restore 6
	.cfi_def_cfa 7, 8
	ret
	.cfi_endproc
.LFE17399:
	.seh_endproc
	.text
	.align 2
	.globl	_ZN13MinhaPrintoutC2EP8mpWindowPKw
	.def	_ZN13MinhaPrintoutC2EP8mpWindowPKw;	.scl	2;	.type	32;	.endef
	.seh_proc	_ZN13MinhaPrintoutC2EP8mpWindowPKw
_ZN13MinhaPrintoutC2EP8mpWindowPKw:
.LFB17767:
	.file 12 "C:/temp/ballisticKernelCpp/interfaceGrafica/calculadorBalisiticaGraficoWindows/minhaPrintout.cpp"
	.loc 12 4 1
	.cfi_startproc
	pushq	%rbp
	.seh_pushreg	%rbp
	.cfi_def_cfa_offset 16
	.cfi_offset 6, -16
	pushq	%rbx
	.seh_pushreg	%rbx
	.cfi_def_cfa_offset 24
	.cfi_offset 3, -24
	subq	$88, %rsp
	.seh_stackalloc	88
	.cfi_def_cfa_offset 112
	leaq	128(%rsp), %rbp
	.seh_setframe	%rbp, 128
	.cfi_def_cfa 6, -16
	.seh_endprologue
	movq	%rcx, -16(%rbp)
	movq	%rdx, -8(%rbp)
	movq	%r8, 0(%rbp)
.LBB16:
	.loc 12 4 89
	movq	-16(%rbp), %rbx
	movq	0(%rbp), %rdx
	leaq	-96(%rbp), %rax
	movq	%rax, %rcx
.LEHB2:
	call	_ZN8wxStringC1EPKw
.LEHE2:
	leaq	-96(%rbp), %rax
	movq	%rax, %rdx
	movq	%rbx, %rcx
.LEHB3:
	call	_ZN10wxPrintoutC2ERK8wxString
.LEHE3:
	.loc 12 4 89 is_stmt 0 discriminator 2
	leaq	-96(%rbp), %rax
	movq	%rax, %rcx
	call	_ZN8wxStringD1Ev
	leaq	16+_ZTV13MinhaPrintout(%rip), %rdx
	movq	-16(%rbp), %rax
	movq	%rdx, (%rax)
	.loc 12 7 16 is_stmt 1 discriminator 2
	movq	-16(%rbp), %rax
	movq	-8(%rbp), %rdx
	movq	%rdx, 128(%rax)
.LBE16:
	.loc 12 8 1 discriminator 2
	jmp	.L68
.L67:
	movq	%rax, %rbx
.LBB17:
	.loc 12 4 89
	leaq	-96(%rbp), %rax
	movq	%rax, %rcx
	call	_ZN8wxStringD1Ev
	movq	%rbx, %rax
	movq	%rax, %rcx
.LEHB4:
	call	_Unwind_Resume
	nop
.LEHE4:
.L68:
.LBE17:
	.loc 12 8 1
	addq	$88, %rsp
	popq	%rbx
	.cfi_restore 3
	popq	%rbp
	.cfi_restore 6
	.cfi_def_cfa 7, -72
	ret
	.cfi_endproc
.LFE17767:
	.seh_handler	__gxx_personality_seh0, @unwind, @except
	.seh_handlerdata
.LLSDA17767:
	.byte	0xff
	.byte	0xff
	.byte	0x1
	.uleb128 .LLSDACSE17767-.LLSDACSB17767
.LLSDACSB17767:
	.uleb128 .LEHB2-.LFB17767
	.uleb128 .LEHE2-.LEHB2
	.uleb128 0
	.uleb128 0
	.uleb128 .LEHB3-.LFB17767
	.uleb128 .LEHE3-.LEHB3
	.uleb128 .L67-.LFB17767
	.uleb128 0
	.uleb128 .LEHB4-.LFB17767
	.uleb128 .LEHE4-.LEHB4
	.uleb128 0
	.uleb128 0
.LLSDACSE17767:
	.text
	.seh_endproc
	.globl	_ZN13MinhaPrintoutC1EP8mpWindowPKw
	.def	_ZN13MinhaPrintoutC1EP8mpWindowPKw;	.scl	2;	.type	32;	.endef
	.set	_ZN13MinhaPrintoutC1EP8mpWindowPKw,_ZN13MinhaPrintoutC2EP8mpWindowPKw
	.align 2
	.globl	_ZN13MinhaPrintout11OnPrintPageEi
	.def	_ZN13MinhaPrintout11OnPrintPageEi;	.scl	2;	.type	32;	.endef
	.seh_proc	_ZN13MinhaPrintout11OnPrintPageEi
_ZN13MinhaPrintout11OnPrintPageEi:
.LFB17769:
	.loc 12 14 1
	.cfi_startproc
	pushq	%rbp
	.seh_pushreg	%rbp
	.cfi_def_cfa_offset 16
	.cfi_offset 6, -16
	pushq	%rbx
	.seh_pushreg	%rbx
	.cfi_def_cfa_offset 24
	.cfi_offset 3, -24
	subq	$216, %rsp
	.seh_stackalloc	216
	.cfi_def_cfa_offset 240
	leaq	128(%rsp), %rbp
	.seh_setframe	%rbp, 128
	.cfi_def_cfa 6, 112
	.seh_endprologue
	movq	%rcx, 112(%rbp)
	movl	%edx, 120(%rbp)
	.loc 12 15 25
	movq	112(%rbp), %rax
	movq	128(%rax), %rdx
	.loc 12 15 35
	leaq	16(%rbp), %rax
	movq	%rax, %rcx
.LEHB5:
	call	_ZN10wxClientDCC1EP8wxWindow
.LEHE5:
	.loc 12 17 24
	movq	112(%rbp), %rax
	movq	%rax, %rcx
	call	_ZNK10wxPrintout5GetDCEv
	movq	%rax, 64(%rbp)
.LBB18:
	.loc 12 18 5
	cmpq	$0, 64(%rbp)
	je	.L70
	.loc 12 18 17 discriminator 1
	cmpl	$1, 120(%rbp)
	jne	.L70
.LBB19:
	.loc 12 30 9
	movq	112(%rbp), %rax
	movq	128(%rax), %rax
	.loc 12 30 28
	movq	%rax, %rcx
	leaq	8(%rbp), %rdx
	leaq	12(%rbp), %rax
	movq	%rdx, %r8
	movq	%rax, %rdx
.LEHB6:
	call	_ZNK12wxWindowBase7GetSizeEPiS0_
	.loc 12 34 9
	movq	112(%rbp), %rax
	movq	128(%rax), %rax
	.loc 12 34 28
	movq	%rax, %rcx
	movq	%rbp, %rdx
	leaq	4(%rbp), %rax
	movq	%rdx, %r8
	movq	%rax, %rdx
	call	_ZNK12wxWindowBase7GetSizeEPiS0_
	.loc 12 36 26
	movq	112(%rbp), %rcx
	leaq	-8(%rbp), %rdx
	leaq	-4(%rbp), %rax
	movq	%rdx, %r8
	movq	%rax, %rdx
	call	_ZNK10wxPrintout17GetPageSizePixelsEPiS0_
	.loc 12 39 39
	movl	-4(%rbp), %eax
	movl	4(%rbp), %ebx
	cltd
	idivl	%ebx
	.loc 12 39 16
	cvtsi2sd	%eax, %xmm0
	movsd	%xmm0, 56(%rbp)
	.loc 12 39 76
	movl	-8(%rbp), %eax
	movl	0(%rbp), %ebx
	cltd
	idivl	%ebx
	.loc 12 39 53
	cvtsi2sd	%eax, %xmm0
	movsd	%xmm0, 48(%rbp)
	.loc 12 42 9
	movsd	48(%rbp), %xmm0
	comisd	56(%rbp), %xmm0
	jbe	.L78
	.loc 12 43 22
	movsd	56(%rbp), %xmm0
	cvttsd2si	%xmm0, %eax
	movl	%eax, 76(%rbp)
	jmp	.L73
.L78:
	.loc 12 45 22
	movsd	48(%rbp), %xmm0
	cvttsd2si	%xmm0, %eax
	movl	%eax, 76(%rbp)
.L73:
	.loc 12 47 36
	movl	-4(%rbp), %edx
	.loc 12 47 46
	movl	12(%rbp), %eax
	imull	76(%rbp), %eax
	.loc 12 47 36
	subl	%eax, %edx
	movl	%edx, %eax
	.loc 12 47 13
	movl	%eax, %edx
	shrl	$31, %edx
	addl	%edx, %eax
	sarl	%eax
	movl	%eax, 44(%rbp)
	.loc 12 48 36
	movl	-8(%rbp), %edx
	.loc 12 48 46
	movl	8(%rbp), %eax
	imull	76(%rbp), %eax
	.loc 12 48 36
	subl	%eax, %edx
	movl	%edx, %eax
	.loc 12 48 13
	movl	%eax, %edx
	shrl	$31, %edx
	addl	%edx, %eax
	sarl	%eax
	movl	%eax, 40(%rbp)
	.loc 12 49 31
	movl	40(%rbp), %ecx
	movl	44(%rbp), %edx
	movq	64(%rbp), %rax
	movl	%ecx, %r8d
	movq	%rax, %rcx
	call	_ZN4wxDC15SetDeviceOriginEii
	.loc 12 50 27
	movl	8(%rbp), %r9d
	movl	12(%rbp), %edx
	movl	8(%rbp), %eax
	imull	76(%rbp), %eax
	movl	12(%rbp), %ecx
	imull	76(%rbp), %ecx
	movl	%ecx, %r8d
	movq	64(%rbp), %rcx
	movl	$-1, 104(%rsp)
	movl	$-1, 96(%rsp)
	movl	$0, 88(%rsp)
	movl	$5, 80(%rsp)
	movl	%r9d, 72(%rsp)
	movl	%edx, 64(%rsp)
	movl	$0, 56(%rsp)
	movl	$0, 48(%rsp)
	leaq	16(%rbp), %rdx
	movq	%rdx, 40(%rsp)
	movl	%eax, 32(%rsp)
	movl	%r8d, %r9d
	movl	$0, %r8d
	movl	$0, %edx
	call	_ZN4wxDC11StretchBlitEiiiiPS_iiii21wxRasterOperationModebii
.LEHE6:
.L70:
.LBE19:
.LBE18:
	.loc 12 53 12
	movl	$1, %ebx
	.loc 12 15 35
	leaq	16(%rbp), %rax
	movq	%rax, %rcx
	call	_ZN10wxClientDCD1Ev
	.loc 12 53 12
	movl	%ebx, %eax
	jmp	.L79
.L76:
	movq	%rax, %rbx
	.loc 12 15 35
	leaq	16(%rbp), %rax
	movq	%rax, %rcx
	call	_ZN10wxClientDCD1Ev
	movq	%rbx, %rax
	movq	%rax, %rcx
.LEHB7:
	call	_Unwind_Resume
.LEHE7:
.L79:
	.loc 12 55 1
	addq	$216, %rsp
	popq	%rbx
	.cfi_restore 3
	popq	%rbp
	.cfi_restore 6
	.cfi_def_cfa 7, -200
	ret
	.cfi_endproc
.LFE17769:
	.seh_handler	__gxx_personality_seh0, @unwind, @except
	.seh_handlerdata
.LLSDA17769:
	.byte	0xff
	.byte	0xff
	.byte	0x1
	.uleb128 .LLSDACSE17769-.LLSDACSB17769
.LLSDACSB17769:
	.uleb128 .LEHB5-.LFB17769
	.uleb128 .LEHE5-.LEHB5
	.uleb128 0
	.uleb128 0
	.uleb128 .LEHB6-.LFB17769
	.uleb128 .LEHE6-.LEHB6
	.uleb128 .L76-.LFB17769
	.uleb128 0
	.uleb128 .LEHB7-.LFB17769
	.uleb128 .LEHE7-.LEHB7
	.uleb128 0
	.uleb128 0
.LLSDACSE17769:
	.text
	.seh_endproc
	.align 2
	.globl	_ZN13MinhaPrintout11GetPageInfoEPiS0_S0_S0_
	.def	_ZN13MinhaPrintout11GetPageInfoEPiS0_S0_S0_;	.scl	2;	.type	32;	.endef
	.seh_proc	_ZN13MinhaPrintout11GetPageInfoEPiS0_S0_S0_
_ZN13MinhaPrintout11GetPageInfoEPiS0_S0_S0_:
.LFB17770:
	.loc 12 61 1
	.cfi_startproc
	pushq	%rbp
	.seh_pushreg	%rbp
	.cfi_def_cfa_offset 16
	.cfi_offset 6, -16
	movq	%rsp, %rbp
	.seh_setframe	%rbp, 0
	.cfi_def_cfa_register 6
	.seh_endprologue
	movq	%rcx, 16(%rbp)
	movq	%rdx, 24(%rbp)
	movq	%r8, 32(%rbp)
	movq	%r9, 40(%rbp)
	.loc 12 62 14
	movq	24(%rbp), %rax
	movl	$1, (%rax)
	.loc 12 63 14
	movq	32(%rbp), %rax
	movl	$1, (%rax)
	.loc 12 64 15
	movq	40(%rbp), %rax
	movl	$1, (%rax)
	.loc 12 65 13
	movq	48(%rbp), %rax
	movl	$1, (%rax)
	.loc 12 66 1
	nop
	popq	%rbp
	.cfi_restore 6
	.cfi_def_cfa 7, 8
	ret
	.cfi_endproc
.LFE17770:
	.seh_endproc
	.section	.text$_ZN8wxString15ConvertedBufferIcED1Ev,"x"
	.linkonce discard
	.align 2
	.globl	_ZN8wxString15ConvertedBufferIcED1Ev
	.def	_ZN8wxString15ConvertedBufferIcED1Ev;	.scl	2;	.type	32;	.endef
	.seh_proc	_ZN8wxString15ConvertedBufferIcED1Ev
_ZN8wxString15ConvertedBufferIcED1Ev:
.LFB18060:
	.loc 2 3489 7
	.cfi_startproc
	pushq	%rbp
	.seh_pushreg	%rbp
	.cfi_def_cfa_offset 16
	.cfi_offset 6, -16
	movq	%rsp, %rbp
	.seh_setframe	%rbp, 0
	.cfi_def_cfa_register 6
	subq	$32, %rsp
	.seh_stackalloc	32
	.seh_endprologue
	movq	%rcx, 16(%rbp)
.LBB20:
	.loc 2 3490 18
	movq	16(%rbp), %rax
	movq	(%rax), %rax
	.loc 2 3490 17
	movq	%rax, %rcx
	call	free
.LBE20:
	.loc 2 3490 26
	nop
	addq	$32, %rsp
	popq	%rbp
	.cfi_restore 6
	.cfi_def_cfa 7, 8
	ret
	.cfi_endproc
.LFE18060:
	.seh_endproc
	.section	.text$_ZN8wxString15ConvertedBufferIcEC1Ev,"x"
	.linkonce discard
	.align 2
	.globl	_ZN8wxString15ConvertedBufferIcEC1Ev
	.def	_ZN8wxString15ConvertedBufferIcEC1Ev;	.scl	2;	.type	32;	.endef
	.seh_proc	_ZN8wxString15ConvertedBufferIcEC1Ev
_ZN8wxString15ConvertedBufferIcEC1Ev:
.LFB18066:
	.loc 2 3488 7
	.cfi_startproc
	pushq	%rbp
	.seh_pushreg	%rbp
	.cfi_def_cfa_offset 16
	.cfi_offset 6, -16
	movq	%rsp, %rbp
	.seh_setframe	%rbp, 0
	.cfi_def_cfa_register 6
	.seh_endprologue
	movq	%rcx, 16(%rbp)
.LBB21:
	.loc 2 3488 36
	movq	16(%rbp), %rax
	movq	$0, (%rax)
.LBE21:
	.loc 2 3488 39
	nop
	popq	%rbp
	.cfi_restore 6
	.cfi_def_cfa 7, 8
	ret
	.cfi_endproc
.LFE18066:
	.seh_endproc
	.globl	_ZTV13MinhaPrintout
	.section	.rdata$_ZTV13MinhaPrintout,"dr"
	.linkonce same_size
	.align 8
_ZTV13MinhaPrintout:
	.quad	0
	.quad	_ZTI13MinhaPrintout
	.quad	_ZNK10wxPrintout12GetClassInfoEv
	.quad	_ZN13MinhaPrintoutD1Ev
	.quad	_ZN13MinhaPrintoutD0Ev
	.quad	_ZNK8wxObject13CreateRefDataEv
	.quad	_ZNK8wxObject12CloneRefDataEPK12wxRefCounter
	.quad	_ZN10wxPrintout15OnBeginDocumentEii
	.quad	_ZN10wxPrintout13OnEndDocumentEv
	.quad	_ZN10wxPrintout15OnBeginPrintingEv
	.quad	_ZN10wxPrintout13OnEndPrintingEv
	.quad	_ZN10wxPrintout17OnPreparePrintingEv
	.quad	_ZN10wxPrintout7HasPageEi
	.quad	_ZN13MinhaPrintout11OnPrintPageEi
	.quad	_ZN13MinhaPrintout11GetPageInfoEPiS0_S0_S0_
	.quad	_ZNK10wxPrintout8GetTitleEv
	.quad	_ZN10wxPrintout10SetPreviewEP14wxPrintPreview
	.quad	_ZNK10wxPrintout9IsPreviewEv
	.globl	_ZTV20wxObjectEventFunctor
	.section	.rdata$_ZTV20wxObjectEventFunctor,"dr"
	.linkonce same_size
	.align 8
_ZTV20wxObjectEventFunctor:
	.quad	0
	.quad	_ZTI20wxObjectEventFunctor
	.quad	_ZN20wxObjectEventFunctorD1Ev
	.quad	_ZN20wxObjectEventFunctorD0Ev
	.quad	_ZN20wxObjectEventFunctorclEP12wxEvtHandlerR7wxEvent
	.quad	_ZNK20wxObjectEventFunctor10IsMatchingERK14wxEventFunctor
	.quad	_ZNK20wxObjectEventFunctor13GetEvtHandlerEv
	.quad	_ZNK20wxObjectEventFunctor12GetEvtMethodEv
	.section	.text$_ZN20wxObjectEventFunctorD1Ev,"x"
	.linkonce discard
	.align 2
	.globl	_ZN20wxObjectEventFunctorD1Ev
	.def	_ZN20wxObjectEventFunctorD1Ev;	.scl	2;	.type	32;	.endef
	.seh_proc	_ZN20wxObjectEventFunctorD1Ev
_ZN20wxObjectEventFunctorD1Ev:
.LFB18882:
	.loc 6 240 7
	.cfi_startproc
	pushq	%rbp
	.seh_pushreg	%rbp
	.cfi_def_cfa_offset 16
	.cfi_offset 6, -16
	movq	%rsp, %rbp
	.seh_setframe	%rbp, 0
	.cfi_def_cfa_register 6
	subq	$32, %rsp
	.seh_stackalloc	32
	.seh_endprologue
	movq	%rcx, 16(%rbp)
.LBB22:
	.loc 6 240 7
	leaq	16+_ZTV20wxObjectEventFunctor(%rip), %rdx
	movq	16(%rbp), %rax
	movq	%rdx, (%rax)
	movq	16(%rbp), %rax
	movq	%rax, %rcx
	call	_ZN14wxEventFunctorD2Ev
.LBE22:
	nop
	addq	$32, %rsp
	popq	%rbp
	.cfi_restore 6
	.cfi_def_cfa 7, 8
	ret
	.cfi_endproc
.LFE18882:
	.seh_endproc
	.section	.text$_ZN20wxObjectEventFunctorD0Ev,"x"
	.linkonce discard
	.align 2
	.globl	_ZN20wxObjectEventFunctorD0Ev
	.def	_ZN20wxObjectEventFunctorD0Ev;	.scl	2;	.type	32;	.endef
	.seh_proc	_ZN20wxObjectEventFunctorD0Ev
_ZN20wxObjectEventFunctorD0Ev:
.LFB18883:
	.loc 6 240 7
	.cfi_startproc
	pushq	%rbp
	.seh_pushreg	%rbp
	.cfi_def_cfa_offset 16
	.cfi_offset 6, -16
	movq	%rsp, %rbp
	.seh_setframe	%rbp, 0
	.cfi_def_cfa_register 6
	subq	$32, %rsp
	.seh_stackalloc	32
	.seh_endprologue
	movq	%rcx, 16(%rbp)
	.loc 6 240 7
	movq	16(%rbp), %rcx
	call	_ZN20wxObjectEventFunctorD1Ev
	movq	16(%rbp), %rcx
	call	_ZdlPv
	nop
	addq	$32, %rsp
	popq	%rbp
	.cfi_restore 6
	.cfi_def_cfa 7, 8
	ret
	.cfi_endproc
.LFE18883:
	.seh_endproc
	.globl	_ZTV20wxThreadHelperThread
	.section	.rdata$_ZTV20wxThreadHelperThread,"dr"
	.linkonce same_size
	.align 8
_ZTV20wxThreadHelperThread:
	.quad	0
	.quad	_ZTI20wxThreadHelperThread
	.quad	_ZN8wxThread11TestDestroyEv
	.quad	_ZN20wxThreadHelperThreadD1Ev
	.quad	_ZN20wxThreadHelperThreadD0Ev
	.quad	_ZN20wxThreadHelperThread5EntryEv
	.quad	_ZN8wxThread8OnDeleteEv
	.quad	_ZN8wxThread6OnKillEv
	.quad	_ZN8wxThread6OnExitEv
	.section	.text$_ZN20wxThreadHelperThreadD1Ev,"x"
	.linkonce discard
	.align 2
	.globl	_ZN20wxThreadHelperThreadD1Ev
	.def	_ZN20wxThreadHelperThreadD1Ev;	.scl	2;	.type	32;	.endef
	.seh_proc	_ZN20wxThreadHelperThreadD1Ev
_ZN20wxThreadHelperThreadD1Ev:
.LFB18894:
	.loc 4 663 7
	.cfi_startproc
	pushq	%rbp
	.seh_pushreg	%rbp
	.cfi_def_cfa_offset 16
	.cfi_offset 6, -16
	movq	%rsp, %rbp
	.seh_setframe	%rbp, 0
	.cfi_def_cfa_register 6
	subq	$32, %rsp
	.seh_stackalloc	32
	.seh_endprologue
	movq	%rcx, 16(%rbp)
.LBB23:
	.loc 4 663 7
	leaq	16+_ZTV20wxThreadHelperThread(%rip), %rdx
	movq	16(%rbp), %rax
	movq	%rdx, (%rax)
	movq	16(%rbp), %rax
	movq	%rax, %rcx
	call	_ZN8wxThreadD2Ev
.LBE23:
	nop
	addq	$32, %rsp
	popq	%rbp
	.cfi_restore 6
	.cfi_def_cfa 7, 8
	ret
	.cfi_endproc
.LFE18894:
	.seh_endproc
	.section	.text$_ZN20wxThreadHelperThreadD0Ev,"x"
	.linkonce discard
	.align 2
	.globl	_ZN20wxThreadHelperThreadD0Ev
	.def	_ZN20wxThreadHelperThreadD0Ev;	.scl	2;	.type	32;	.endef
	.seh_proc	_ZN20wxThreadHelperThreadD0Ev
_ZN20wxThreadHelperThreadD0Ev:
.LFB18895:
	.loc 4 663 7
	.cfi_startproc
	pushq	%rbp
	.seh_pushreg	%rbp
	.cfi_def_cfa_offset 16
	.cfi_offset 6, -16
	movq	%rsp, %rbp
	.seh_setframe	%rbp, 0
	.cfi_def_cfa_register 6
	subq	$32, %rsp
	.seh_stackalloc	32
	.seh_endprologue
	movq	%rcx, 16(%rbp)
	.loc 4 663 7
	movq	16(%rbp), %rcx
	call	_ZN20wxThreadHelperThreadD1Ev
	movq	16(%rbp), %rcx
	call	_ZdlPv
	nop
	addq	$32, %rsp
	popq	%rbp
	.cfi_restore 6
	.cfi_def_cfa 7, 8
	ret
	.cfi_endproc
.LFE18895:
	.seh_endproc
	.globl	_ZTI13MinhaPrintout
	.section	.rdata$_ZTI13MinhaPrintout,"dr"
	.linkonce same_size
	.align 8
_ZTI13MinhaPrintout:
	.quad	_ZTVN10__cxxabiv120__si_class_type_infoE+16
	.quad	_ZTS13MinhaPrintout
	.quad	_ZTI10wxPrintout
	.globl	_ZTS13MinhaPrintout
	.section	.rdata$_ZTS13MinhaPrintout,"dr"
	.linkonce same_size
	.align 16
_ZTS13MinhaPrintout:
	.ascii "13MinhaPrintout\0"
	.globl	_ZTI10wxPrintout
	.section	.rdata$_ZTI10wxPrintout,"dr"
	.linkonce same_size
	.align 8
_ZTI10wxPrintout:
	.quad	_ZTVN10__cxxabiv120__si_class_type_infoE+16
	.quad	_ZTS10wxPrintout
	.quad	_ZTI8wxObject
	.globl	_ZTS10wxPrintout
	.section	.rdata$_ZTS10wxPrintout,"dr"
	.linkonce same_size
	.align 8
_ZTS10wxPrintout:
	.ascii "10wxPrintout\0"
	.globl	_ZTI20wxObjectEventFunctor
	.section	.rdata$_ZTI20wxObjectEventFunctor,"dr"
	.linkonce same_size
	.align 8
_ZTI20wxObjectEventFunctor:
	.quad	_ZTVN10__cxxabiv120__si_class_type_infoE+16
	.quad	_ZTS20wxObjectEventFunctor
	.quad	_ZTI14wxEventFunctor
	.globl	_ZTS20wxObjectEventFunctor
	.section	.rdata$_ZTS20wxObjectEventFunctor,"dr"
	.linkonce same_size
	.align 16
_ZTS20wxObjectEventFunctor:
	.ascii "20wxObjectEventFunctor\0"
	.globl	_ZTI14wxEventFunctor
	.section	.rdata$_ZTI14wxEventFunctor,"dr"
	.linkonce same_size
	.align 8
_ZTI14wxEventFunctor:
	.quad	_ZTVN10__cxxabiv117__class_type_infoE+16
	.quad	_ZTS14wxEventFunctor
	.globl	_ZTS14wxEventFunctor
	.section	.rdata$_ZTS14wxEventFunctor,"dr"
	.linkonce same_size
	.align 16
_ZTS14wxEventFunctor:
	.ascii "14wxEventFunctor\0"
	.globl	_ZTI20wxThreadHelperThread
	.section	.rdata$_ZTI20wxThreadHelperThread,"dr"
	.linkonce same_size
	.align 8
_ZTI20wxThreadHelperThread:
	.quad	_ZTVN10__cxxabiv120__si_class_type_infoE+16
	.quad	_ZTS20wxThreadHelperThread
	.quad	_ZTI8wxThread
	.globl	_ZTS20wxThreadHelperThread
	.section	.rdata$_ZTS20wxThreadHelperThread,"dr"
	.linkonce same_size
	.align 16
_ZTS20wxThreadHelperThread:
	.ascii "20wxThreadHelperThread\0"
	.globl	_ZTI8wxThread
	.section	.rdata$_ZTI8wxThread,"dr"
	.linkonce same_size
	.align 8
_ZTI8wxThread:
	.quad	_ZTVN10__cxxabiv117__class_type_infoE+16
	.quad	_ZTS8wxThread
	.globl	_ZTS8wxThread
	.section	.rdata$_ZTS8wxThread,"dr"
	.linkonce same_size
	.align 8
_ZTS8wxThread:
	.ascii "8wxThread\0"
	.globl	_ZTI8wxObject
	.section	.rdata$_ZTI8wxObject,"dr"
	.linkonce same_size
	.align 8
_ZTI8wxObject:
	.quad	_ZTVN10__cxxabiv117__class_type_infoE+16
	.quad	_ZTS8wxObject
	.globl	_ZTS8wxObject
	.section	.rdata$_ZTS8wxObject,"dr"
	.linkonce same_size
	.align 8
_ZTS8wxObject:
	.ascii "8wxObject\0"
	.text
.Letext0:
	.file 13 "C:/Program Files/CodeBlocks/MinGW/x86_64-w64-mingw32/include/vadefs.h"
	.file 14 "C:/Program Files/CodeBlocks/MinGW/x86_64-w64-mingw32/include/crtdefs.h"
	.file 15 "C:/Program Files/CodeBlocks/MinGW/x86_64-w64-mingw32/include/locale.h"
	.file 16 "C:/Program Files/CodeBlocks/MinGW/lib/gcc/x86_64-w64-mingw32/8.1.0/include/c++/bits/basic_string.h"
	.file 17 "C:/Program Files/CodeBlocks/MinGW/lib/gcc/x86_64-w64-mingw32/8.1.0/include/c++/bits/basic_string.tcc"
	.file 18 "C:/Program Files/CodeBlocks/MinGW/lib/gcc/x86_64-w64-mingw32/8.1.0/include/c++/bits/stringfwd.h"
	.file 19 "C:/Program Files/CodeBlocks/MinGW/lib/gcc/x86_64-w64-mingw32/8.1.0/include/c++/cstdlib"
	.file 20 "C:/Program Files/CodeBlocks/MinGW/lib/gcc/x86_64-w64-mingw32/8.1.0/include/c++/bits/std_abs.h"
	.file 21 "C:/Program Files/CodeBlocks/MinGW/lib/gcc/x86_64-w64-mingw32/8.1.0/include/c++/type_traits"
	.file 22 "C:/Program Files/CodeBlocks/MinGW/lib/gcc/x86_64-w64-mingw32/8.1.0/include/c++/bits/stl_pair.h"
	.file 23 "C:/Program Files/CodeBlocks/MinGW/lib/gcc/x86_64-w64-mingw32/8.1.0/include/c++/bits/cpp_type_traits.h"
	.file 24 "C:/Program Files/CodeBlocks/MinGW/lib/gcc/x86_64-w64-mingw32/8.1.0/include/c++/bits/stl_iterator_base_types.h"
	.file 25 "C:/Program Files/CodeBlocks/MinGW/lib/gcc/x86_64-w64-mingw32/8.1.0/include/c++/debug/debug.h"
	.file 26 "C:/Program Files/CodeBlocks/MinGW/lib/gcc/x86_64-w64-mingw32/8.1.0/include/c++/cwchar"
	.file 27 "C:/Program Files/CodeBlocks/MinGW/lib/gcc/x86_64-w64-mingw32/8.1.0/include/c++/bits/char_traits.h"
	.file 28 "C:/Program Files/CodeBlocks/MinGW/lib/gcc/x86_64-w64-mingw32/8.1.0/include/c++/x86_64-w64-mingw32/bits/c++config.h"
	.file 29 "C:/Program Files/CodeBlocks/MinGW/lib/gcc/x86_64-w64-mingw32/8.1.0/include/c++/cstdint"
	.file 30 "C:/Program Files/CodeBlocks/MinGW/lib/gcc/x86_64-w64-mingw32/8.1.0/include/c++/bits/exception_ptr.h"
	.file 31 "C:/Program Files/CodeBlocks/MinGW/lib/gcc/x86_64-w64-mingw32/8.1.0/include/c++/new"
	.file 32 "C:/Program Files/CodeBlocks/MinGW/lib/gcc/x86_64-w64-mingw32/8.1.0/include/c++/bits/allocator.h"
	.file 33 "C:/Program Files/CodeBlocks/MinGW/lib/gcc/x86_64-w64-mingw32/8.1.0/include/c++/clocale"
	.file 34 "C:/Program Files/CodeBlocks/MinGW/lib/gcc/x86_64-w64-mingw32/8.1.0/include/c++/cstdio"
	.file 35 "C:/Program Files/CodeBlocks/MinGW/lib/gcc/x86_64-w64-mingw32/8.1.0/include/c++/bits/alloc_traits.h"
	.file 36 "C:/Program Files/CodeBlocks/MinGW/lib/gcc/x86_64-w64-mingw32/8.1.0/include/c++/initializer_list"
	.file 37 "C:/Program Files/CodeBlocks/MinGW/lib/gcc/x86_64-w64-mingw32/8.1.0/include/c++/cmath"
	.file 38 "C:/Program Files/CodeBlocks/MinGW/lib/gcc/x86_64-w64-mingw32/8.1.0/include/c++/system_error"
	.file 39 "C:/Program Files/CodeBlocks/MinGW/lib/gcc/x86_64-w64-mingw32/8.1.0/include/c++/cwctype"
	.file 40 "C:/Program Files/CodeBlocks/MinGW/lib/gcc/x86_64-w64-mingw32/8.1.0/include/c++/iosfwd"
	.file 41 "C:/Program Files/CodeBlocks/MinGW/lib/gcc/x86_64-w64-mingw32/8.1.0/include/c++/bits/stl_iterator_base_funcs.h"
	.file 42 "C:/Program Files/CodeBlocks/MinGW/lib/gcc/x86_64-w64-mingw32/8.1.0/include/c++/bits/move.h"
	.file 43 "C:/Program Files/CodeBlocks/MinGW/lib/gcc/x86_64-w64-mingw32/8.1.0/include/c++/bits/predefined_ops.h"
	.file 44 "C:/Program Files/CodeBlocks/MinGW/lib/gcc/x86_64-w64-mingw32/8.1.0/include/c++/ext/new_allocator.h"
	.file 45 "C:/Program Files/CodeBlocks/MinGW/lib/gcc/x86_64-w64-mingw32/8.1.0/include/c++/ext/numeric_traits.h"
	.file 46 "C:/Program Files/CodeBlocks/MinGW/lib/gcc/x86_64-w64-mingw32/8.1.0/include/c++/ext/alloc_traits.h"
	.file 47 "C:/Program Files/CodeBlocks/MinGW/lib/gcc/x86_64-w64-mingw32/8.1.0/include/c++/bits/stl_iterator.h"
	.file 48 "C:/Program Files/CodeBlocks/MinGW/lib/gcc/x86_64-w64-mingw32/8.1.0/include/c++/ext/type_traits.h"
	.file 49 "C:/Program Files/CodeBlocks/MinGW/x86_64-w64-mingw32/include/stdlib.h"
	.file 50 "C:/Program Files/CodeBlocks/MinGW/x86_64-w64-mingw32/include/malloc.h"
	.file 51 "C:/Program Files/CodeBlocks/MinGW/lib/gcc/x86_64-w64-mingw32/8.1.0/include/c++/stdlib.h"
	.file 52 "C:/Program Files/CodeBlocks/MinGW/x86_64-w64-mingw32/include/wchar.h"
	.file 53 "C:/Program Files/CodeBlocks/MinGW/x86_64-w64-mingw32/include/ctype.h"
	.file 54 "../wxMSW-3.0.5_gcc810_x64_Dev/include/wx/chartype.h"
	.file 55 "../wxMSW-3.0.5_gcc810_x64_Dev/include/wx/debug.h"
	.file 56 "../wxMSW-3.0.5_gcc810_x64_Dev/include/wx/defs.h"
	.file 57 "C:/Program Files/CodeBlocks/MinGW/x86_64-w64-mingw32/include/windef.h"
	.file 58 "C:/Program Files/CodeBlocks/MinGW/x86_64-w64-mingw32/include/stdio.h"
	.file 59 "C:/Program Files/CodeBlocks/MinGW/x86_64-w64-mingw32/include/wctype.h"
	.file 60 "C:/Program Files/CodeBlocks/MinGW/x86_64-w64-mingw32/include/time.h"
	.file 61 "../wxMSW-3.0.5_gcc810_x64_Dev/include/wx/buffer.h"
	.file 62 "../wxMSW-3.0.5_gcc810_x64_Dev/include/wx/fontenc.h"
	.file 63 "../wxMSW-3.0.5_gcc810_x64_Dev/include/wx/strconv.h"
	.file 64 "../wxMSW-3.0.5_gcc810_x64_Dev/include/wx/stringimpl.h"
	.file 65 "C:/Program Files/CodeBlocks/MinGW/x86_64-w64-mingw32/include/swprintf.inl"
	.file 66 "C:/Program Files/CodeBlocks/MinGW/x86_64-w64-mingw32/include/stdint.h"
	.file 67 "C:/Program Files/CodeBlocks/MinGW/x86_64-w64-mingw32/include/process.h"
	.file 68 "C:/Program Files/CodeBlocks/MinGW/x86_64-w64-mingw32/include/pthread.h"
	.file 69 "../wxMSW-3.0.5_gcc810_x64_Dev/include/wx/unichar.h"
	.file 70 "../wxMSW-3.0.5_gcc810_x64_Dev/include/wx/strvararg.h"
	.file 71 "../wxMSW-3.0.5_gcc810_x64_Dev/include/wx/rtti.h"
	.file 72 "../wxMSW-3.0.5_gcc810_x64_Dev/include/wx/hashmap.h"
	.file 73 "../wxMSW-3.0.5_gcc810_x64_Dev/include/wx/list.h"
	.file 74 "C:/Program Files/CodeBlocks/MinGW/x86_64-w64-mingw32/include/math.h"
	.file 75 "C:/Program Files/CodeBlocks/MinGW/lib/gcc/x86_64-w64-mingw32/8.1.0/include/c++/math.h"
	.file 76 "../wxMSW-3.0.5_gcc810_x64_Dev/include/wx/gdicmn.h"
	.file 77 "../wxMSW-3.0.5_gcc810_x64_Dev/include/wx/msw/gdiimage.h"
	.file 78 "../wxMSW-3.0.5_gcc810_x64_Dev/include/wx/filefn.h"
	.file 79 "../wxMSW-3.0.5_gcc810_x64_Dev/include/wx/longlong.h"
	.file 80 "../wxMSW-3.0.5_gcc810_x64_Dev/include/wx/utils.h"
	.file 81 "../wxMSW-3.0.5_gcc810_x64_Dev/include/wx/tracker.h"
	.file 82 "../wxMSW-3.0.5_gcc810_x64_Dev/include/wx/any.h"
	.file 83 "../wxMSW-3.0.5_gcc810_x64_Dev/include/wx/anystr.h"
	.file 84 "../wxMSW-3.0.5_gcc810_x64_Dev/include/wx/datetime.h"
	.file 85 "C:/Program Files/CodeBlocks/MinGW/x86_64-w64-mingw32/include/minwinbase.h"
	.file 86 "../wxMSW-3.0.5_gcc810_x64_Dev/include/wx/variant.h"
	.file 87 "../wxMSW-3.0.5_gcc810_x64_Dev/include/wx/stream.h"
	.file 88 "../wxMSW-3.0.5_gcc810_x64_Dev/include/wx/cmndata.h"
	.file 89 "../wxMSW-3.0.5_gcc810_x64_Dev/include/wx/font.h"
	.file 90 "../wxMSW-3.0.5_gcc810_x64_Dev/include/wx/colour.h"
	.file 91 "../wxMSW-3.0.5_gcc810_x64_Dev/include/wx/validate.h"
	.file 92 "../wxMSW-3.0.5_gcc810_x64_Dev/include/wx/accel.h"
	.file 93 "../wxMSW-3.0.5_gcc810_x64_Dev/include/wx/scrolwin.h"
	.file 94 "../wxMSW-3.0.5_gcc810_x64_Dev/include/wx/toplevel.h"
	.file 95 "C:/Program Files/CodeBlocks/MinGW/x86_64-w64-mingw32/include/excpt.h"
	.file 96 "C:/Program Files/CodeBlocks/MinGW/x86_64-w64-mingw32/include/minwindef.h"
	.file 97 "C:/Program Files/CodeBlocks/MinGW/x86_64-w64-mingw32/include/guiddef.h"
	.file 98 "C:/Program Files/CodeBlocks/MinGW/x86_64-w64-mingw32/include/winnt.h"
	.file 99 "C:/Program Files/CodeBlocks/MinGW/x86_64-w64-mingw32/include/rpcdce.h"
	.file 100 "C:/Program Files/CodeBlocks/MinGW/x86_64-w64-mingw32/include/wtypesbase.h"
	.file 101 "C:/Program Files/CodeBlocks/MinGW/x86_64-w64-mingw32/include/unknwnbase.h"
	.file 102 "C:/Program Files/CodeBlocks/MinGW/x86_64-w64-mingw32/include/objidlbase.h"
	.file 103 "C:/Program Files/CodeBlocks/MinGW/x86_64-w64-mingw32/include/cguid.h"
	.file 104 "C:/Program Files/CodeBlocks/MinGW/x86_64-w64-mingw32/include/wtypes.h"
	.file 105 "C:/Program Files/CodeBlocks/MinGW/x86_64-w64-mingw32/include/objidl.h"
	.file 106 "C:/Program Files/CodeBlocks/MinGW/x86_64-w64-mingw32/include/oleidl.h"
	.file 107 "C:/Program Files/CodeBlocks/MinGW/x86_64-w64-mingw32/include/servprov.h"
	.file 108 "C:/Program Files/CodeBlocks/MinGW/x86_64-w64-mingw32/include/oaidl.h"
	.file 109 "C:/Program Files/CodeBlocks/MinGW/x86_64-w64-mingw32/include/msxml.h"
	.file 110 "C:/Program Files/CodeBlocks/MinGW/x86_64-w64-mingw32/include/urlmon.h"
	.file 111 "C:/Program Files/CodeBlocks/MinGW/x86_64-w64-mingw32/include/propidl.h"
	.file 112 "C:/Program Files/CodeBlocks/MinGW/x86_64-w64-mingw32/include/oleauto.h"
	.file 113 "C:/Program Files/CodeBlocks/MinGW/x86_64-w64-mingw32/include/winioctl.h"
	.file 114 "C:/Program Files/CodeBlocks/MinGW/x86_64-w64-mingw32/include/winsmcrd.h"
	.file 115 "C:/Program Files/CodeBlocks/MinGW/x86_64-w64-mingw32/include/winscard.h"
	.file 116 "C:/Program Files/CodeBlocks/MinGW/x86_64-w64-mingw32/include/commdlg.h"
	.file 117 "../wxMSW-3.0.5_gcc810_x64_Dev/include/wx/dialog.h"
	.file 118 "../wxMSW-3.0.5_gcc810_x64_Dev/include/wx/control.h"
	.file 119 "../wxMSW-3.0.5_gcc810_x64_Dev/include/wx/statusbr.h"
	.file 120 "../wxMSW-3.0.5_gcc810_x64_Dev/include/wx/frame.h"
	.file 121 "../wxMSW-3.0.5_gcc810_x64_Dev/include/wx/image.h"
	.file 122 "../wxMSW-3.0.5_gcc810_x64_Dev/include/wx/brush.h"
	.file 123 "../wxMSW-3.0.5_gcc810_x64_Dev/include/wx/pen.h"
	.file 124 "../wxMathPlotWin/mathplot.h"
	.file 125 "../wxMSW-3.0.5_gcc810_x64_Dev/include/wx/log.h"
	.file 126 "../wxMSW-3.0.5_gcc810_x64_Dev/include/wx/app.h"
	.file 127 "<built-in>"