	.file	"ParametrosGDialog.cpp"
	.text
.Ltext0:
	.cfi_sections	.debug_frame
	.section .rdata,"dr"
_ZStL19piecewise_construct:
	.space 1
	.section	.text$_ZNKSt9type_info4nameEv,"x"
	.linkonce discard
	.align 2
	.globl	_ZNKSt9type_info4nameEv
	.def	_ZNKSt9type_info4nameEv;	.scl	2;	.type	32;	.endef
	.seh_proc	_ZNKSt9type_info4nameEv
_ZNKSt9type_info4nameEv:
.LFB434:
	.file 1 "C:/Program Files/CodeBlocks/MinGW/lib/gcc/x86_64-w64-mingw32/8.1.0/include/c++/typeinfo"
	.loc 1 99 17
	.cfi_startproc
	pushq	%rbp
	.seh_pushreg	%rbp
	.cfi_def_cfa_offset 16
	.cfi_offset 6, -16
	movq	%rsp, %rbp
	.seh_setframe	%rbp, 0
	.cfi_def_cfa_register 6
	.seh_endprologue
	movq	%rcx, 16(%rbp)
	.loc 1 100 14
	movq	16(%rbp), %rax
	movq	8(%rax), %rax
	.loc 1 100 22
	movzbl	(%rax), %eax
	.loc 1 100 31
	cmpb	$42, %al
	jne	.L2
	.loc 1 100 33 discriminator 1
	movq	16(%rbp), %rax
	movq	8(%rax), %rax
	.loc 1 100 31 discriminator 1
	addq	$1, %rax
	.loc 1 100 46 discriminator 1
	jmp	.L4
.L2:
	.loc 1 100 31 discriminator 2
	movq	16(%rbp), %rax
	movq	8(%rax), %rax
.L4:
	.loc 1 100 54 discriminator 5
	popq	%rbp
	.cfi_restore 6
	.cfi_def_cfa 7, 8
	ret
	.cfi_endproc
.LFE434:
	.seh_endproc
	.text
	.def	strtod;	.scl	3;	.type	32;	.endef
	.seh_proc	strtod
strtod:
.LFB888:
	.file 2 "C:/Program Files/CodeBlocks/MinGW/x86_64-w64-mingw32/include/stdlib.h"
	.loc 2 451 1
	.cfi_startproc
	pushq	%rbp
	.seh_pushreg	%rbp
	.cfi_def_cfa_offset 16
	.cfi_offset 6, -16
	movq	%rsp, %rbp
	.seh_setframe	%rbp, 0
	.cfi_def_cfa_register 6
	subq	$32, %rsp
	.seh_stackalloc	32
	.seh_endprologue
	movq	%rcx, 16(%rbp)
	movq	%rdx, 24(%rbp)
	.loc 2 453 24
	movq	24(%rbp), %rax
	movq	%rax, %rdx
	movq	16(%rbp), %rcx
	call	__mingw_strtod
	movq	%xmm0, %rax
	.loc 2 454 1
	movq	%rax, %xmm0
	addq	$32, %rsp
	popq	%rbp
	.cfi_restore 6
	.cfi_def_cfa 7, 8
	ret
	.cfi_endproc
.LFE888:
	.seh_endproc
	.section .rdata,"dr"
.LC0:
	.ascii "stod\0"
	.section	.text$_ZNSt7__cxx114stodERKNS_12basic_stringIcSt11char_traitsIcESaIcEEEPy,"x"
	.linkonce discard
	.globl	_ZNSt7__cxx114stodERKNS_12basic_stringIcSt11char_traitsIcESaIcEEEPy
	.def	_ZNSt7__cxx114stodERKNS_12basic_stringIcSt11char_traitsIcESaIcEEEPy;	.scl	2;	.type	32;	.endef
	.seh_proc	_ZNSt7__cxx114stodERKNS_12basic_stringIcSt11char_traitsIcESaIcEEEPy
_ZNSt7__cxx114stodERKNS_12basic_stringIcSt11char_traitsIcESaIcEEEPy:
.LFB913:
	.file 3 "C:/Program Files/CodeBlocks/MinGW/lib/gcc/x86_64-w64-mingw32/8.1.0/include/c++/bits/basic_string.h"
	.loc 3 6402 3
	.cfi_startproc
	pushq	%rbp
	.seh_pushreg	%rbp
	.cfi_def_cfa_offset 16
	.cfi_offset 6, -16
	movq	%rsp, %rbp
	.seh_setframe	%rbp, 0
	.cfi_def_cfa_register 6
	subq	$32, %rsp
	.seh_stackalloc	32
	.seh_endprologue
	movq	%rcx, 16(%rbp)
	movq	%rdx, 24(%rbp)
	.loc 3 6402 29
	movq	16(%rbp), %rcx
	call	_ZNKSt7__cxx1112basic_stringIcSt11char_traitsIcESaIcEE5c_strEv
	movq	%rax, %rdx
	movq	24(%rbp), %rax
	movq	%rax, %r9
	movq	%rdx, %r8
	leaq	.LC0(%rip), %rdx
	leaq	strtod(%rip), %rcx
	call	_ZN9__gnu_cxx6__stoaIddcJEEET0_PFT_PKT1_PPS3_DpT2_EPKcS5_PyS9_
	movq	%xmm0, %rax
	.loc 3 6402 75
	movq	%rax, %xmm0
	addq	$32, %rsp
	popq	%rbp
	.cfi_restore 6
	.cfi_def_cfa 7, 8
	ret
	.cfi_endproc
.LFE913:
	.seh_endproc
.lcomm _ZStL8__ioinit,1,1
	.section .rdata,"dr"
_ZStL13allocator_arg:
	.space 1
_ZStL6ignore:
	.space 1
	.section	.text$_ZN12Configuracao35getDesvioProvavelDirecaoFatorAjusteEv,"x"
	.linkonce discard
	.align 2
	.globl	_ZN12Configuracao35getDesvioProvavelDirecaoFatorAjusteEv
	.def	_ZN12Configuracao35getDesvioProvavelDirecaoFatorAjusteEv;	.scl	2;	.type	32;	.endef
	.seh_proc	_ZN12Configuracao35getDesvioProvavelDirecaoFatorAjusteEv
_ZN12Configuracao35getDesvioProvavelDirecaoFatorAjusteEv:
.LFB2416:
	.file 4 "C:/temp/ballisticKernelCpp/interfaceGrafica/calculadorBalisiticaGraficoWindows/configuracao.h"
	.loc 4 25 16
	.cfi_startproc
	pushq	%rbp
	.seh_pushreg	%rbp
	.cfi_def_cfa_offset 16
	.cfi_offset 6, -16
	movq	%rsp, %rbp
	.seh_setframe	%rbp, 0
	.cfi_def_cfa_register 6
	.seh_endprologue
	movq	%rcx, 16(%rbp)
	.loc 4 25 61
	movq	16(%rbp), %rax
	movsd	56(%rax), %xmm0
	movq	%xmm0, %rax
	.loc 4 25 94
	movq	%rax, %xmm0
	popq	%rbp
	.cfi_restore 6
	.cfi_def_cfa 7, 8
	ret
	.cfi_endproc
.LFE2416:
	.seh_endproc
	.section	.text$_ZN12Configuracao35setDesvioProvavelDirecaoFatorAjusteEd,"x"
	.linkonce discard
	.align 2
	.globl	_ZN12Configuracao35setDesvioProvavelDirecaoFatorAjusteEd
	.def	_ZN12Configuracao35setDesvioProvavelDirecaoFatorAjusteEd;	.scl	2;	.type	32;	.endef
	.seh_proc	_ZN12Configuracao35setDesvioProvavelDirecaoFatorAjusteEd
_ZN12Configuracao35setDesvioProvavelDirecaoFatorAjusteEd:
.LFB2417:
	.loc 4 26 14
	.cfi_startproc
	pushq	%rbp
	.seh_pushreg	%rbp
	.cfi_def_cfa_offset 16
	.cfi_offset 6, -16
	movq	%rsp, %rbp
	.seh_setframe	%rbp, 0
	.cfi_def_cfa_register 6
	.seh_endprologue
	movq	%rcx, 16(%rbp)
	movsd	%xmm1, 24(%rbp)
	.loc 4 26 97
	movq	16(%rbp), %rax
	movsd	24(%rbp), %xmm0
	movsd	%xmm0, 56(%rax)
	.loc 4 26 105
	nop
	popq	%rbp
	.cfi_restore 6
	.cfi_def_cfa 7, 8
	ret
	.cfi_endproc
.LFE2417:
	.seh_endproc
	.section	.text$_ZN12Configuracao25getDesvioProvavelElevacaoEv,"x"
	.linkonce discard
	.align 2
	.globl	_ZN12Configuracao25getDesvioProvavelElevacaoEv
	.def	_ZN12Configuracao25getDesvioProvavelElevacaoEv;	.scl	2;	.type	32;	.endef
	.seh_proc	_ZN12Configuracao25getDesvioProvavelElevacaoEv
_ZN12Configuracao25getDesvioProvavelElevacaoEv:
.LFB2418:
	.loc 4 27 16
	.cfi_startproc
	pushq	%rbp
	.seh_pushreg	%rbp
	.cfi_def_cfa_offset 16
	.cfi_offset 6, -16
	movq	%rsp, %rbp
	.seh_setframe	%rbp, 0
	.cfi_def_cfa_register 6
	.seh_endprologue
	movq	%rcx, 16(%rbp)
	.loc 4 27 51
	movq	16(%rbp), %rax
	movsd	40(%rax), %xmm0
	movq	%xmm0, %rax
	.loc 4 27 74
	movq	%rax, %xmm0
	popq	%rbp
	.cfi_restore 6
	.cfi_def_cfa 7, 8
	ret
	.cfi_endproc
.LFE2418:
	.seh_endproc
	.section	.text$_ZN12Configuracao25setDesvioProvavelElevacaoEd,"x"
	.linkonce discard
	.align 2
	.globl	_ZN12Configuracao25setDesvioProvavelElevacaoEd
	.def	_ZN12Configuracao25setDesvioProvavelElevacaoEd;	.scl	2;	.type	32;	.endef
	.seh_proc	_ZN12Configuracao25setDesvioProvavelElevacaoEd
_ZN12Configuracao25setDesvioProvavelElevacaoEd:
.LFB2419:
	.loc 4 28 14
	.cfi_startproc
	pushq	%rbp
	.seh_pushreg	%rbp
	.cfi_def_cfa_offset 16
	.cfi_offset 6, -16
	movq	%rsp, %rbp
	.seh_setframe	%rbp, 0
	.cfi_def_cfa_register 6
	.seh_endprologue
	movq	%rcx, 16(%rbp)
	movsd	%xmm1, 24(%rbp)
	.loc 4 28 79
	movq	16(%rbp), %rax
	movsd	24(%rbp), %xmm0
	movsd	%xmm0, 40(%rax)
	.loc 4 28 88
	nop
	popq	%rbp
	.cfi_restore 6
	.cfi_def_cfa 7, 8
	ret
	.cfi_endproc
.LFE2419:
	.seh_endproc
	.section	.text$_ZN12Configuracao24getDesvioProvavelArrastoEv,"x"
	.linkonce discard
	.align 2
	.globl	_ZN12Configuracao24getDesvioProvavelArrastoEv
	.def	_ZN12Configuracao24getDesvioProvavelArrastoEv;	.scl	2;	.type	32;	.endef
	.seh_proc	_ZN12Configuracao24getDesvioProvavelArrastoEv
_ZN12Configuracao24getDesvioProvavelArrastoEv:
.LFB2420:
	.loc 4 29 16
	.cfi_startproc
	pushq	%rbp
	.seh_pushreg	%rbp
	.cfi_def_cfa_offset 16
	.cfi_offset 6, -16
	movq	%rsp, %rbp
	.seh_setframe	%rbp, 0
	.cfi_def_cfa_register 6
	.seh_endprologue
	movq	%rcx, 16(%rbp)
	.loc 4 29 50
	movq	16(%rbp), %rax
	movsd	48(%rax), %xmm0
	movq	%xmm0, %rax
	.loc 4 29 72
	movq	%rax, %xmm0
	popq	%rbp
	.cfi_restore 6
	.cfi_def_cfa 7, 8
	ret
	.cfi_endproc
.LFE2420:
	.seh_endproc
	.section	.text$_ZN12Configuracao24setDesvioProvavelArrastoEd,"x"
	.linkonce discard
	.align 2
	.globl	_ZN12Configuracao24setDesvioProvavelArrastoEd
	.def	_ZN12Configuracao24setDesvioProvavelArrastoEd;	.scl	2;	.type	32;	.endef
	.seh_proc	_ZN12Configuracao24setDesvioProvavelArrastoEd
_ZN12Configuracao24setDesvioProvavelArrastoEd:
.LFB2421:
	.loc 4 30 14
	.cfi_startproc
	pushq	%rbp
	.seh_pushreg	%rbp
	.cfi_def_cfa_offset 16
	.cfi_offset 6, -16
	movq	%rsp, %rbp
	.seh_setframe	%rbp, 0
	.cfi_def_cfa_register 6
	.seh_endprologue
	movq	%rcx, 16(%rbp)
	movsd	%xmm1, 24(%rbp)
	.loc 4 30 76
	movq	16(%rbp), %rax
	movsd	24(%rbp), %xmm0
	movsd	%xmm0, 48(%rax)
	.loc 4 30 85
	nop
	popq	%rbp
	.cfi_restore 6
	.cfi_def_cfa 7, 8
	ret
	.cfi_endproc
.LFE2421:
	.seh_endproc
	.section	.text$_ZN12Configuracao27getDesvioProvavelVelocidadeEv,"x"
	.linkonce discard
	.align 2
	.globl	_ZN12Configuracao27getDesvioProvavelVelocidadeEv
	.def	_ZN12Configuracao27getDesvioProvavelVelocidadeEv;	.scl	2;	.type	32;	.endef
	.seh_proc	_ZN12Configuracao27getDesvioProvavelVelocidadeEv
_ZN12Configuracao27getDesvioProvavelVelocidadeEv:
.LFB2422:
	.loc 4 31 16
	.cfi_startproc
	pushq	%rbp
	.seh_pushreg	%rbp
	.cfi_def_cfa_offset 16
	.cfi_offset 6, -16
	movq	%rsp, %rbp
	.seh_setframe	%rbp, 0
	.cfi_def_cfa_register 6
	.seh_endprologue
	movq	%rcx, 16(%rbp)
	.loc 4 31 53
	movq	16(%rbp), %rax
	movsd	64(%rax), %xmm0
	movq	%xmm0, %rax
	.loc 4 31 78
	movq	%rax, %xmm0
	popq	%rbp
	.cfi_restore 6
	.cfi_def_cfa 7, 8
	ret
	.cfi_endproc
.LFE2422:
	.seh_endproc
	.section	.text$_ZN12Configuracao27setDesvioProvavelVelocidadeEd,"x"
	.linkonce discard
	.align 2
	.globl	_ZN12Configuracao27setDesvioProvavelVelocidadeEd
	.def	_ZN12Configuracao27setDesvioProvavelVelocidadeEd;	.scl	2;	.type	32;	.endef
	.seh_proc	_ZN12Configuracao27setDesvioProvavelVelocidadeEd
_ZN12Configuracao27setDesvioProvavelVelocidadeEd:
.LFB2423:
	.loc 4 32 14
	.cfi_startproc
	pushq	%rbp
	.seh_pushreg	%rbp
	.cfi_def_cfa_offset 16
	.cfi_offset 6, -16
	movq	%rsp, %rbp
	.seh_setframe	%rbp, 0
	.cfi_def_cfa_register 6
	.seh_endprologue
	movq	%rcx, 16(%rbp)
	movsd	%xmm1, 24(%rbp)
	.loc 4 32 82
	movq	16(%rbp), %rax
	movsd	24(%rbp), %xmm0
	movsd	%xmm0, 64(%rax)
	.loc 4 32 91
	nop
	popq	%rbp
	.cfi_restore 6
	.cfi_def_cfa 7, 8
	ret
	.cfi_endproc
.LFE2423:
	.seh_endproc
	.section	.text$_Z8wxStrlenPKc,"x"
	.linkonce discard
	.globl	_Z8wxStrlenPKc
	.def	_Z8wxStrlenPKc;	.scl	2;	.type	32;	.endef
	.seh_proc	_Z8wxStrlenPKc
_Z8wxStrlenPKc:
.LFB2513:
	.file 5 "../wxMSW-3.0.5_gcc810_x64_Dev/include/wx/wxcrtbase.h"
	.loc 5 675 39
	.cfi_startproc
	pushq	%rbp
	.seh_pushreg	%rbp
	.cfi_def_cfa_offset 16
	.cfi_offset 6, -16
	movq	%rsp, %rbp
	.seh_setframe	%rbp, 0
	.cfi_def_cfa_register 6
	subq	$32, %rsp
	.seh_stackalloc	32
	.seh_endprologue
	movq	%rcx, 16(%rbp)
	.loc 5 675 50
	cmpq	$0, 16(%rbp)
	je	.L22
	.loc 5 675 58 discriminator 1
	movq	16(%rbp), %rcx
	call	strlen
	.loc 5 675 64 discriminator 1
	jmp	.L24
.L22:
	.loc 5 675 50 discriminator 2
	movl	$0, %eax
.L24:
	.loc 5 675 67 discriminator 5
	addq	$32, %rsp
	popq	%rbp
	.cfi_restore 6
	.cfi_def_cfa 7, 8
	ret
	.cfi_endproc
.LFE2513:
	.seh_endproc
	.section	.text$_ZN9wxPrivate17UntypedBufferDataC2EPvyNS0_4KindE,"x"
	.linkonce discard
	.align 2
	.globl	_ZN9wxPrivate17UntypedBufferDataC2EPvyNS0_4KindE
	.def	_ZN9wxPrivate17UntypedBufferDataC2EPvyNS0_4KindE;	.scl	2;	.type	32;	.endef
	.seh_proc	_ZN9wxPrivate17UntypedBufferDataC2EPvyNS0_4KindE
_ZN9wxPrivate17UntypedBufferDataC2EPvyNS0_4KindE:
.LFB2518:
	.file 6 "../wxMSW-3.0.5_gcc810_x64_Dev/include/wx/buffer.h"
	.loc 6 38 5
	.cfi_startproc
	pushq	%rbp
	.seh_pushreg	%rbp
	.cfi_def_cfa_offset 16
	.cfi_offset 6, -16
	movq	%rsp, %rbp
	.seh_setframe	%rbp, 0
	.cfi_def_cfa_register 6
	.seh_endprologue
	movq	%rcx, 16(%rbp)
	movq	%rdx, 24(%rbp)
	movq	%r8, 32(%rbp)
	movl	%r9d, 40(%rbp)
.LBB2:
	.loc 6 39 69
	movq	16(%rbp), %rax
	movq	24(%rbp), %rdx
	movq	%rdx, (%rax)
	movq	16(%rbp), %rax
	movq	32(%rbp), %rdx
	movq	%rdx, 8(%rax)
	movq	16(%rbp), %rax
	movw	$1, 16(%rax)
	.loc 6 39 61
	cmpl	$0, 40(%rbp)
	sete	%al
	.loc 6 39 69
	movq	16(%rbp), %rdx
	movb	%al, 18(%rdx)
.LBE2:
	.loc 6 39 72
	nop
	popq	%rbp
	.cfi_restore 6
	.cfi_def_cfa 7, 8
	ret
	.cfi_endproc
.LFE2518:
	.seh_endproc
	.section	.text$_ZN9wxPrivate17UntypedBufferDataD2Ev,"x"
	.linkonce discard
	.align 2
	.globl	_ZN9wxPrivate17UntypedBufferDataD2Ev
	.def	_ZN9wxPrivate17UntypedBufferDataD2Ev;	.scl	2;	.type	32;	.endef
	.seh_proc	_ZN9wxPrivate17UntypedBufferDataD2Ev
_ZN9wxPrivate17UntypedBufferDataD2Ev:
.LFB2521:
	.loc 6 41 5
	.cfi_startproc
	pushq	%rbp
	.seh_pushreg	%rbp
	.cfi_def_cfa_offset 16
	.cfi_offset 6, -16
	movq	%rsp, %rbp
	.seh_setframe	%rbp, 0
	.cfi_def_cfa_register 6
	subq	$32, %rsp
	.seh_stackalloc	32
	.seh_endprologue
	movq	%rcx, 16(%rbp)
.LBB3:
	.loc 6 43 14
	movq	16(%rbp), %rax
	movzbl	18(%rax), %eax
	.loc 6 43 9
	testb	%al, %al
	je	.L28
	.loc 6 44 17
	movq	16(%rbp), %rax
	movq	(%rax), %rax
	movq	%rax, %rcx
	call	free
.L28:
.LBE3:
	.loc 6 45 5
	nop
	addq	$32, %rsp
	popq	%rbp
	.cfi_restore 6
	.cfi_def_cfa 7, 8
	ret
	.cfi_endproc
.LFE2521:
	.seh_endproc
	.section	.text$_Z16wxGet_wxConvLibcv,"x"
	.linkonce discard
	.globl	_Z16wxGet_wxConvLibcv
	.def	_Z16wxGet_wxConvLibcv;	.scl	2;	.type	32;	.endef
	.seh_proc	_Z16wxGet_wxConvLibcv
_Z16wxGet_wxConvLibcv:
.LFB2709:
	.file 7 "../wxMSW-3.0.5_gcc810_x64_Dev/include/wx/strconv.h"
	.loc 7 576 109
	.cfi_startproc
	pushq	%rbp
	.seh_pushreg	%rbp
	.cfi_def_cfa_offset 16
	.cfi_offset 6, -16
	movq	%rsp, %rbp
	.seh_setframe	%rbp, 0
	.cfi_def_cfa_register 6
	subq	$32, %rsp
	.seh_stackalloc	32
	.seh_endprologue
	.loc 7 576 116
	movq	.refptr.wxConvLibcPtr(%rip), %rax
	movq	(%rax), %rax
	.loc 7 576 111
	testq	%rax, %rax
	jne	.L30
	.loc 7 576 168 discriminator 1
	call	_Z19wxGet_wxConvLibcPtrv
	movq	%rax, %rdx
	.loc 7 576 147 discriminator 1
	movq	.refptr.wxConvLibcPtr(%rip), %rax
	movq	%rdx, (%rax)
.L30:
	.loc 7 576 180 discriminator 3
	movq	.refptr.wxConvLibcPtr(%rip), %rax
	movq	(%rax), %rax
	.loc 7 576 195 discriminator 3
	addq	$32, %rsp
	popq	%rbp
	.cfi_restore 6
	.cfi_def_cfa 7, 8
	ret
	.cfi_endproc
.LFE2709:
	.seh_endproc
	.section .rdata,"dr"
	.align 2
.LC1:
	.ascii "\0\0"
	.section	.text$_ZN8wxString7ImplStrEPKw,"x"
	.linkonce discard
	.globl	_ZN8wxString7ImplStrEPKw
	.def	_ZN8wxString7ImplStrEPKw;	.scl	2;	.type	32;	.endef
	.seh_proc	_ZN8wxString7ImplStrEPKw
_ZN8wxString7ImplStrEPKw:
.LFB3177:
	.file 8 "../wxMSW-3.0.5_gcc810_x64_Dev/include/wx/string.h"
	.loc 8 471 25
	.cfi_startproc
	pushq	%rbp
	.seh_pushreg	%rbp
	.cfi_def_cfa_offset 16
	.cfi_offset 6, -16
	movq	%rsp, %rbp
	.seh_setframe	%rbp, 0
	.cfi_def_cfa_register 6
	.seh_endprologue
	movq	%rcx, 16(%rbp)
	.loc 8 472 18
	cmpq	$0, 16(%rbp)
	je	.L33
	.loc 8 472 18 is_stmt 0 discriminator 1
	movq	16(%rbp), %rax
	.loc 8 472 26 is_stmt 1 discriminator 1
	jmp	.L35
.L33:
	.loc 8 472 18 discriminator 2
	leaq	.LC1(%rip), %rax
.L35:
	.loc 8 472 31 discriminator 5
	popq	%rbp
	.cfi_restore 6
	.cfi_def_cfa 7, 8
	ret
	.cfi_endproc
.LFE3177:
	.seh_endproc
	.section	.text$_ZN8wxString17SubstrBufFromTypeI22wxScopedCharTypeBufferIwEED1Ev,"x"
	.linkonce discard
	.align 2
	.globl	_ZN8wxString17SubstrBufFromTypeI22wxScopedCharTypeBufferIwEED1Ev
	.def	_ZN8wxString17SubstrBufFromTypeI22wxScopedCharTypeBufferIwEED1Ev;	.scl	2;	.type	32;	.endef
	.seh_proc	_ZN8wxString17SubstrBufFromTypeI22wxScopedCharTypeBufferIwEED1Ev
_ZN8wxString17SubstrBufFromTypeI22wxScopedCharTypeBufferIwEED1Ev:
.LFB3182:
	.loc 8 425 10
	.cfi_startproc
	pushq	%rbp
	.seh_pushreg	%rbp
	.cfi_def_cfa_offset 16
	.cfi_offset 6, -16
	movq	%rsp, %rbp
	.seh_setframe	%rbp, 0
	.cfi_def_cfa_register 6
	subq	$32, %rsp
	.seh_stackalloc	32
	.seh_endprologue
	movq	%rcx, 16(%rbp)
.LBB4:
	.loc 8 425 10
	movq	16(%rbp), %rax
	movq	%rax, %rcx
	call	_ZN22wxScopedCharTypeBufferIwED1Ev
.LBE4:
	nop
	addq	$32, %rsp
	popq	%rbp
	.cfi_restore 6
	.cfi_def_cfa 7, 8
	ret
	.cfi_endproc
.LFE3182:
	.seh_endproc
	.section	.text$_ZN8wxString7ImplStrEPKcRK8wxMBConv,"x"
	.linkonce discard
	.globl	_ZN8wxString7ImplStrEPKcRK8wxMBConv
	.def	_ZN8wxString7ImplStrEPKcRK8wxMBConv;	.scl	2;	.type	32;	.endef
	.seh_proc	_ZN8wxString7ImplStrEPKcRK8wxMBConv
_ZN8wxString7ImplStrEPKcRK8wxMBConv:
.LFB3179:
	.loc 8 475 30
	.cfi_startproc
	pushq	%rbp
	.seh_pushreg	%rbp
	.cfi_def_cfa_offset 16
	.cfi_offset 6, -16
	pushq	%rbx
	.seh_pushreg	%rbx
	.cfi_def_cfa_offset 24
	.cfi_offset 3, -24
	subq	$56, %rsp
	.seh_stackalloc	56
	.cfi_def_cfa_offset 80
	leaq	128(%rsp), %rbp
	.seh_setframe	%rbp, 128
	.cfi_def_cfa 6, -48
	.seh_endprologue
	movq	%rcx, -48(%rbp)
	movq	%rdx, -40(%rbp)
	movq	%r8, -32(%rbp)
	.loc 8 477 24
	movq	.refptr._ZN8wxString4nposE(%rip), %rax
	movq	(%rax), %rcx
	leaq	-96(%rbp), %rax
	movq	-32(%rbp), %r8
	movq	-40(%rbp), %rdx
	movq	%r8, %r9
	movq	%rcx, %r8
	movq	%rax, %rcx
.LEHB0:
	call	_ZN8wxString10ConvertStrEPKcyRK8wxMBConv
.LEHE0:
	.loc 8 477 42
	leaq	-96(%rbp), %rax
	movq	%rax, %rdx
	movq	-48(%rbp), %rcx
.LEHB1:
	call	_ZN22wxScopedCharTypeBufferIwEC1ERKS0_
.LEHE1:
	nop
	.loc 8 477 24
	leaq	-96(%rbp), %rax
	movq	%rax, %rcx
	call	_ZN8wxString17SubstrBufFromTypeI22wxScopedCharTypeBufferIwEED1Ev
	.loc 8 477 42
	jmp	.L41
.L40:
	movq	%rax, %rbx
	.loc 8 477 24
	leaq	-96(%rbp), %rax
	movq	%rax, %rcx
	call	_ZN8wxString17SubstrBufFromTypeI22wxScopedCharTypeBufferIwEED1Ev
	movq	%rbx, %rax
	movq	%rax, %rcx
.LEHB2:
	call	_Unwind_Resume
.LEHE2:
.L41:
	.loc 8 477 48
	movq	-48(%rbp), %rax
	addq	$56, %rsp
	popq	%rbx
	.cfi_restore 3
	popq	%rbp
	.cfi_restore 6
	.cfi_def_cfa 7, -40
	ret
	.cfi_endproc
.LFE3179:
	.def	__gxx_personality_seh0;	.scl	2;	.type	32;	.endef
	.seh_handler	__gxx_personality_seh0, @unwind, @except
	.seh_handlerdata
.LLSDA3179:
	.byte	0xff
	.byte	0xff
	.byte	0x1
	.uleb128 .LLSDACSE3179-.LLSDACSB3179
.LLSDACSB3179:
	.uleb128 .LEHB0-.LFB3179
	.uleb128 .LEHE0-.LEHB0
	.uleb128 0
	.uleb128 0
	.uleb128 .LEHB1-.LFB3179
	.uleb128 .LEHE1-.LEHB1
	.uleb128 .L40-.LFB3179
	.uleb128 0
	.uleb128 .LEHB2-.LFB3179
	.uleb128 .LEHE2-.LEHB2
	.uleb128 0
	.uleb128 0
.LLSDACSE3179:
	.section	.text$_ZN8wxString7ImplStrEPKcRK8wxMBConv,"x"
	.linkonce discard
	.seh_endproc
	.section	.text$_ZN8wxStringD1Ev,"x"
	.linkonce discard
	.align 2
	.globl	_ZN8wxStringD1Ev
	.def	_ZN8wxStringD1Ev;	.scl	2;	.type	32;	.endef
	.seh_proc	_ZN8wxStringD1Ev
_ZN8wxStringD1Ev:
.LFB3259:
	.loc 8 393 7
	.cfi_startproc
	pushq	%rbp
	.seh_pushreg	%rbp
	.cfi_def_cfa_offset 16
	.cfi_offset 6, -16
	movq	%rsp, %rbp
	.seh_setframe	%rbp, 0
	.cfi_def_cfa_register 6
	subq	$32, %rsp
	.seh_stackalloc	32
	.seh_endprologue
	movq	%rcx, 16(%rbp)
.LBB5:
	.loc 8 393 7
	movq	16(%rbp), %rax
	addq	$32, %rax
	movq	%rax, %rcx
	call	_ZN8wxString15ConvertedBufferIcED1Ev
	movq	16(%rbp), %rax
	movq	%rax, %rcx
	call	_ZNSt7__cxx1112basic_stringIwSt11char_traitsIwESaIwEED1Ev
.LBE5:
	nop
	addq	$32, %rsp
	popq	%rbp
	.cfi_restore 6
	.cfi_def_cfa 7, 8
	ret
	.cfi_endproc
.LFE3259:
	.seh_endproc
	.section	.text$_ZN8wxStringC1Ev,"x"
	.linkonce discard
	.align 2
	.globl	_ZN8wxStringC1Ev
	.def	_ZN8wxStringC1Ev;	.scl	2;	.type	32;	.endef
	.seh_proc	_ZN8wxStringC1Ev
_ZN8wxStringC1Ev:
.LFB3285:
	.loc 8 1217 3
	.cfi_startproc
	pushq	%rbp
	.seh_pushreg	%rbp
	.cfi_def_cfa_offset 16
	.cfi_offset 6, -16
	movq	%rsp, %rbp
	.seh_setframe	%rbp, 0
	.cfi_def_cfa_register 6
	subq	$32, %rsp
	.seh_stackalloc	32
	.seh_endprologue
	movq	%rcx, 16(%rbp)
.LBB6:
	.loc 8 1217 14
	movq	16(%rbp), %rax
	movq	%rax, %rcx
	call	_ZNSt7__cxx1112basic_stringIwSt11char_traitsIwESaIwEEC1Ev
	movq	16(%rbp), %rax
	addq	$32, %rax
	movq	%rax, %rcx
	call	_ZN8wxString15ConvertedBufferIcEC1Ev
.LBE6:
	.loc 8 1217 15
	nop
	addq	$32, %rsp
	popq	%rbp
	.cfi_restore 6
	.cfi_def_cfa 7, 8
	ret
	.cfi_endproc
.LFE3285:
	.seh_endproc
	.section	.text$_ZN8wxStringC1ERKS_,"x"
	.linkonce discard
	.align 2
	.globl	_ZN8wxStringC1ERKS_
	.def	_ZN8wxStringC1ERKS_;	.scl	2;	.type	32;	.endef
	.seh_proc	_ZN8wxStringC1ERKS_
_ZN8wxStringC1ERKS_:
.LFB3288:
	.loc 8 1220 3
	.cfi_startproc
	pushq	%rbp
	.seh_pushreg	%rbp
	.cfi_def_cfa_offset 16
	.cfi_offset 6, -16
	movq	%rsp, %rbp
	.seh_setframe	%rbp, 0
	.cfi_def_cfa_register 6
	subq	$32, %rsp
	.seh_stackalloc	32
	.seh_endprologue
	movq	%rcx, 16(%rbp)
	movq	%rdx, 24(%rbp)
.LBB7:
	.loc 8 1220 64
	movq	16(%rbp), %rax
	.loc 8 1220 58
	movq	24(%rbp), %rdx
	.loc 8 1220 64
	movq	%rax, %rcx
	call	_ZNSt7__cxx1112basic_stringIwSt11char_traitsIwESaIwEEC1ERKS4_
	movq	16(%rbp), %rax
	addq	$32, %rax
	movq	%rax, %rcx
	call	_ZN8wxString15ConvertedBufferIcEC1Ev
.LBE7:
	.loc 8 1220 68
	nop
	addq	$32, %rsp
	popq	%rbp
	.cfi_restore 6
	.cfi_def_cfa 7, 8
	ret
	.cfi_endproc
.LFE3288:
	.seh_endproc
	.section	.text$_ZN8wxStringC1EPKc,"x"
	.linkonce discard
	.align 2
	.globl	_ZN8wxStringC1EPKc
	.def	_ZN8wxStringC1EPKc;	.scl	2;	.type	32;	.endef
	.seh_proc	_ZN8wxStringC1EPKc
_ZN8wxStringC1EPKc:
.LFB3315:
	.loc 8 1241 3
	.cfi_startproc
	pushq	%rbp
	.seh_pushreg	%rbp
	.cfi_def_cfa_offset 16
	.cfi_offset 6, -16
	pushq	%rbx
	.seh_pushreg	%rbx
	.cfi_def_cfa_offset 24
	.cfi_offset 3, -24
	subq	$56, %rsp
	.seh_stackalloc	56
	.cfi_def_cfa_offset 80
	leaq	128(%rsp), %rbp
	.seh_setframe	%rbp, 128
	.cfi_def_cfa 6, -48
	.seh_endprologue
	movq	%rcx, -48(%rbp)
	movq	%rdx, -40(%rbp)
.LBB8:
	.loc 8 1242 26
	movq	-48(%rbp), %rbx
	leaq	-89(%rbp), %rax
	movq	%rax, %rcx
	call	_ZNSaIwEC1Ev
.LEHB3:
	.loc 8 1242 25
	call	_Z16wxGet_wxConvLibcv
	movq	%rax, %rcx
	.loc 8 1242 21
	leaq	-88(%rbp), %rax
	movq	-40(%rbp), %rdx
	movq	%rcx, %r8
	movq	%rax, %rcx
	call	_ZN8wxString7ImplStrEPKcRK8wxMBConv
.LEHE3:
	.loc 8 1242 26 discriminator 4
	leaq	-88(%rbp), %rax
	movq	%rax, %rcx
.LEHB4:
	call	_ZNK22wxScopedCharTypeBufferIwEcvPKwEv
	movq	%rax, %rdx
	leaq	-89(%rbp), %rax
	movq	%rax, %r8
	movq	%rbx, %rcx
	call	_ZNSt7__cxx1112basic_stringIwSt11char_traitsIwESaIwEEC1EPKwRKS3_
.LEHE4:
	.loc 8 1242 21 discriminator 8
	leaq	-88(%rbp), %rax
	movq	%rax, %rcx
	call	_ZN22wxScopedCharTypeBufferIwED1Ev
	.loc 8 1242 26 discriminator 8
	leaq	-89(%rbp), %rax
	movq	%rax, %rcx
	call	_ZNSaIwED1Ev
	movq	-48(%rbp), %rax
	addq	$32, %rax
	movq	%rax, %rcx
	call	_ZN8wxString15ConvertedBufferIcEC1Ev
.LBE8:
	.loc 8 1242 29 discriminator 8
	jmp	.L50
.L49:
	movq	%rax, %rbx
.LBB9:
	.loc 8 1242 21
	leaq	-88(%rbp), %rax
	movq	%rax, %rcx
	call	_ZN22wxScopedCharTypeBufferIwED1Ev
	jmp	.L47
.L48:
	movq	%rax, %rbx
.L47:
	.loc 8 1242 26 discriminator 3
	leaq	-89(%rbp), %rax
	movq	%rax, %rcx
	call	_ZNSaIwED1Ev
	movq	%rbx, %rax
	movq	%rax, %rcx
.LEHB5:
	call	_Unwind_Resume
	nop
.LEHE5:
.L50:
.LBE9:
	.loc 8 1242 29
	addq	$56, %rsp
	popq	%rbx
	.cfi_restore 3
	popq	%rbp
	.cfi_restore 6
	.cfi_def_cfa 7, -40
	ret
	.cfi_endproc
.LFE3315:
	.seh_handler	__gxx_personality_seh0, @unwind, @except
	.seh_handlerdata
.LLSDA3315:
	.byte	0xff
	.byte	0xff
	.byte	0x1
	.uleb128 .LLSDACSE3315-.LLSDACSB3315
.LLSDACSB3315:
	.uleb128 .LEHB3-.LFB3315
	.uleb128 .LEHE3-.LEHB3
	.uleb128 .L48-.LFB3315
	.uleb128 0
	.uleb128 .LEHB4-.LFB3315
	.uleb128 .LEHE4-.LEHB4
	.uleb128 .L49-.LFB3315
	.uleb128 0
	.uleb128 .LEHB5-.LFB3315
	.uleb128 .LEHE5-.LEHB5
	.uleb128 0
	.uleb128 0
.LLSDACSE3315:
	.section	.text$_ZN8wxStringC1EPKc,"x"
	.linkonce discard
	.seh_endproc
	.section	.text$_ZN8wxStringC1EPKw,"x"
	.linkonce discard
	.align 2
	.globl	_ZN8wxStringC1EPKw
	.def	_ZN8wxStringC1EPKw;	.scl	2;	.type	32;	.endef
	.seh_proc	_ZN8wxStringC1EPKw
_ZN8wxStringC1EPKw:
.LFB3339:
	.loc 8 1267 3
	.cfi_startproc
	pushq	%rbp
	.seh_pushreg	%rbp
	.cfi_def_cfa_offset 16
	.cfi_offset 6, -16
	pushq	%rbx
	.seh_pushreg	%rbx
	.cfi_def_cfa_offset 24
	.cfi_offset 3, -24
	subq	$56, %rsp
	.seh_stackalloc	56
	.cfi_def_cfa_offset 80
	leaq	128(%rsp), %rbp
	.seh_setframe	%rbp, 128
	.cfi_def_cfa 6, -48
	.seh_endprologue
	movq	%rcx, -48(%rbp)
	movq	%rdx, -40(%rbp)
.LBB10:
	.loc 8 1268 26
	movq	-48(%rbp), %rbx
	leaq	-81(%rbp), %rax
	movq	%rax, %rcx
	call	_ZNSaIwEC1Ev
	movq	-40(%rbp), %rax
	movq	%rax, %rcx
	call	_ZN8wxString7ImplStrEPKw
	movq	%rax, %rdx
	leaq	-81(%rbp), %rax
	movq	%rax, %r8
	movq	%rbx, %rcx
.LEHB6:
	call	_ZNSt7__cxx1112basic_stringIwSt11char_traitsIwESaIwEEC1EPKwRKS3_
.LEHE6:
	.loc 8 1268 26 is_stmt 0 discriminator 2
	leaq	-81(%rbp), %rax
	movq	%rax, %rcx
	call	_ZNSaIwED1Ev
	movq	-48(%rbp), %rax
	addq	$32, %rax
	movq	%rax, %rcx
	call	_ZN8wxString15ConvertedBufferIcEC1Ev
.LBE10:
	.loc 8 1268 29 is_stmt 1 discriminator 2
	jmp	.L54
.L53:
	movq	%rax, %rbx
.LBB11:
	.loc 8 1268 26
	leaq	-81(%rbp), %rax
	movq	%rax, %rcx
	call	_ZNSaIwED1Ev
	movq	%rbx, %rax
	movq	%rax, %rcx
.LEHB7:
	call	_Unwind_Resume
	nop
.LEHE7:
.L54:
.LBE11:
	.loc 8 1268 29
	addq	$56, %rsp
	popq	%rbx
	.cfi_restore 3
	popq	%rbp
	.cfi_restore 6
	.cfi_def_cfa 7, -40
	ret
	.cfi_endproc
.LFE3339:
	.seh_handler	__gxx_personality_seh0, @unwind, @except
	.seh_handlerdata
.LLSDA3339:
	.byte	0xff
	.byte	0xff
	.byte	0x1
	.uleb128 .LLSDACSE3339-.LLSDACSB3339
.LLSDACSB3339:
	.uleb128 .LEHB6-.LFB3339
	.uleb128 .LEHE6-.LEHB6
	.uleb128 .L53-.LFB3339
	.uleb128 0
	.uleb128 .LEHB7-.LFB3339
	.uleb128 .LEHE7-.LEHB7
	.uleb128 0
	.uleb128 0
.LLSDACSE3339:
	.section	.text$_ZN8wxStringC1EPKw,"x"
	.linkonce discard
	.seh_endproc
	.section	.text$_ZNK8wxString11ToStdStringB5cxx11Ev,"x"
	.linkonce discard
	.align 2
	.globl	_ZNK8wxString11ToStdStringB5cxx11Ev
	.def	_ZNK8wxString11ToStdStringB5cxx11Ev;	.scl	2;	.type	32;	.endef
	.seh_proc	_ZNK8wxString11ToStdStringB5cxx11Ev
_ZNK8wxString11ToStdStringB5cxx11Ev:
.LFB3371:
	.loc 8 1363 17
	.cfi_startproc
	pushq	%rbp
	.seh_pushreg	%rbp
	.cfi_def_cfa_offset 16
	.cfi_offset 6, -16
	pushq	%rbx
	.seh_pushreg	%rbx
	.cfi_def_cfa_offset 24
	.cfi_offset 3, -24
	subq	$56, %rsp
	.seh_stackalloc	56
	.cfi_def_cfa_offset 80
	leaq	128(%rsp), %rbp
	.seh_setframe	%rbp, 128
	.cfi_def_cfa 6, -48
	.seh_endprologue
	movq	%rcx, -48(%rbp)
	movq	%rdx, -40(%rbp)
.LEHB8:
	.loc 8 1365 39
	call	_Z16wxGet_wxConvLibcv
	movq	%rax, %rcx
	.loc 8 1365 40
	leaq	-96(%rbp), %rax
	movq	-40(%rbp), %rdx
	movq	%rcx, %r8
	movq	%rax, %rcx
	call	_ZNK8wxString6mb_strERK8wxMBConv
.LEHE8:
	.loc 8 1366 52
	leaq	-81(%rbp), %rax
	movq	%rax, %rcx
	call	_ZNSaIcEC1Ev
	leaq	-96(%rbp), %rax
	movq	%rax, %rcx
	call	_ZNK22wxScopedCharTypeBufferIcE6lengthEv
	movq	%rax, %rbx
	.loc 8 1366 36
	leaq	-96(%rbp), %rax
	movq	%rax, %rcx
.LEHB9:
	call	_ZN22wxScopedCharTypeBufferIcE4dataEv
	movq	%rax, %rdx
	.loc 8 1366 52
	leaq	-81(%rbp), %rax
	movq	%rax, %r9
	movq	%rbx, %r8
	movq	-48(%rbp), %rcx
	call	_ZNSt7__cxx1112basic_stringIcSt11char_traitsIcESaIcEEC1EPKcyRKS3_
.LEHE9:
	leaq	-81(%rbp), %rax
	movq	%rax, %rcx
	call	_ZNSaIcED1Ev
	.loc 8 1365 40
	leaq	-96(%rbp), %rax
	movq	%rax, %rcx
	call	_ZN22wxScopedCharTypeBufferIcED1Ev
	.loc 8 1366 52
	jmp	.L59
.L58:
	movq	%rax, %rbx
	leaq	-81(%rbp), %rax
	movq	%rax, %rcx
	call	_ZNSaIcED1Ev
	.loc 8 1365 40
	leaq	-96(%rbp), %rax
	movq	%rax, %rcx
	call	_ZN22wxScopedCharTypeBufferIcED1Ev
	movq	%rbx, %rax
	movq	%rax, %rcx
.LEHB10:
	call	_Unwind_Resume
.LEHE10:
.L59:
	.loc 8 1367 5
	movq	-48(%rbp), %rax
	addq	$56, %rsp
	popq	%rbx
	.cfi_restore 3
	popq	%rbp
	.cfi_restore 6
	.cfi_def_cfa 7, -40
	ret
	.cfi_endproc
.LFE3371:
	.seh_handler	__gxx_personality_seh0, @unwind, @except
	.seh_handlerdata
.LLSDA3371:
	.byte	0xff
	.byte	0xff
	.byte	0x1
	.uleb128 .LLSDACSE3371-.LLSDACSB3371
.LLSDACSB3371:
	.uleb128 .LEHB8-.LFB3371
	.uleb128 .LEHE8-.LEHB8
	.uleb128 0
	.uleb128 0
	.uleb128 .LEHB9-.LFB3371
	.uleb128 .LEHE9-.LEHB9
	.uleb128 .L58-.LFB3371
	.uleb128 0
	.uleb128 .LEHB10-.LFB3371
	.uleb128 .LEHE10-.LEHB10
	.uleb128 0
	.uleb128 0
.LLSDACSE3371:
	.section	.text$_ZNK8wxString11ToStdStringB5cxx11Ev,"x"
	.linkonce discard
	.seh_endproc
	.section	.text$_ZNK8wxString5emptyEv,"x"
	.linkonce discard
	.align 2
	.globl	_ZNK8wxString5emptyEv
	.def	_ZNK8wxString5emptyEv;	.scl	2;	.type	32;	.endef
	.seh_proc	_ZNK8wxString5emptyEv
_ZNK8wxString5emptyEv:
.LFB3384:
	.loc 8 1444 8
	.cfi_startproc
	pushq	%rbp
	.seh_pushreg	%rbp
	.cfi_def_cfa_offset 16
	.cfi_offset 6, -16
	movq	%rsp, %rbp
	.seh_setframe	%rbp, 0
	.cfi_def_cfa_register 6
	subq	$32, %rsp
	.seh_stackalloc	32
	.seh_endprologue
	movq	%rcx, 16(%rbp)
	.loc 8 1444 43
	movq	16(%rbp), %rax
	movq	%rax, %rcx
	call	_ZNKSt7__cxx1112basic_stringIwSt11char_traitsIwESaIwEE5emptyEv
	.loc 8 1444 47
	addq	$32, %rsp
	popq	%rbp
	.cfi_restore 6
	.cfi_def_cfa 7, 8
	ret
	.cfi_endproc
.LFE3384:
	.seh_endproc
	.section	.text$_ZNK8wxString6mb_strERK8wxMBConv,"x"
	.linkonce discard
	.align 2
	.globl	_ZNK8wxString6mb_strERK8wxMBConv
	.def	_ZNK8wxString6mb_strERK8wxMBConv;	.scl	2;	.type	32;	.endef
	.seh_proc	_ZNK8wxString6mb_strERK8wxMBConv
_ZNK8wxString6mb_strERK8wxMBConv:
.LFB3441:
	.loc 8 1827 30
	.cfi_startproc
	pushq	%rbp
	.seh_pushreg	%rbp
	.cfi_def_cfa_offset 16
	.cfi_offset 6, -16
	movq	%rsp, %rbp
	.seh_setframe	%rbp, 0
	.cfi_def_cfa_register 6
	subq	$32, %rsp
	.seh_stackalloc	32
	.seh_endprologue
	movq	%rcx, 16(%rbp)
	movq	%rdx, 24(%rbp)
	movq	%r8, 32(%rbp)
	.loc 8 1829 30
	movq	16(%rbp), %rax
	movq	32(%rbp), %rcx
	movq	24(%rbp), %rdx
	movq	%rcx, %r8
	movq	%rax, %rcx
	call	_ZNK8wxString9AsCharBufERK8wxMBConv
	.loc 8 1830 5
	movq	16(%rbp), %rax
	addq	$32, %rsp
	popq	%rbp
	.cfi_restore 6
	.cfi_def_cfa 7, 8
	ret
	.cfi_endproc
.LFE3441:
	.seh_endproc
	.section	.text$_ZN8wxStringaSERKS_,"x"
	.linkonce discard
	.align 2
	.globl	_ZN8wxStringaSERKS_
	.def	_ZN8wxStringaSERKS_;	.scl	2;	.type	32;	.endef
	.seh_proc	_ZN8wxStringaSERKS_
_ZN8wxStringaSERKS_:
.LFB3450:
	.loc 8 1877 13
	.cfi_startproc
	pushq	%rbp
	.seh_pushreg	%rbp
	.cfi_def_cfa_offset 16
	.cfi_offset 6, -16
	movq	%rsp, %rbp
	.seh_setframe	%rbp, 0
	.cfi_def_cfa_register 6
	subq	$32, %rsp
	.seh_stackalloc	32
	.seh_endprologue
	movq	%rcx, 16(%rbp)
	movq	%rdx, 24(%rbp)
	.loc 8 1879 5
	movq	16(%rbp), %rax
	cmpq	24(%rbp), %rax
	je	.L65
	.loc 8 1883 28
	movq	24(%rbp), %rdx
	movq	16(%rbp), %rax
	movq	%rax, %rcx
	call	_ZNSt7__cxx1112basic_stringIwSt11char_traitsIwESaIwEEaSERKS4_
.L65:
	.loc 8 1886 13
	movq	16(%rbp), %rax
	.loc 8 1887 3
	addq	$32, %rsp
	popq	%rbp
	.cfi_restore 6
	.cfi_def_cfa 7, 8
	ret
	.cfi_endproc
.LFE3450:
	.seh_endproc
	.section .rdata,"dr"
.LC2:
	.ascii "\0"
	.section	.text$_ZNK8wxString9AsCharBufERK8wxMBConv,"x"
	.linkonce discard
	.align 2
	.globl	_ZNK8wxString9AsCharBufERK8wxMBConv
	.def	_ZNK8wxString9AsCharBufERK8wxMBConv;	.scl	2;	.type	32;	.endef
	.seh_proc	_ZNK8wxString9AsCharBufERK8wxMBConv
_ZNK8wxString9AsCharBufERK8wxMBConv:
.LFB3845:
	.loc 8 3529 22
	.cfi_startproc
	pushq	%rbp
	.seh_pushreg	%rbp
	.cfi_def_cfa_offset 16
	.cfi_offset 6, -16
	movq	%rsp, %rbp
	.seh_setframe	%rbp, 0
	.cfi_def_cfa_register 6
	subq	$32, %rsp
	.seh_stackalloc	32
	.seh_endprologue
	movq	%rcx, 16(%rbp)
	movq	%rdx, 24(%rbp)
	movq	%r8, 32(%rbp)
	.loc 8 3546 19
	movq	32(%rbp), %rdx
	movq	24(%rbp), %rax
	movq	%rax, %rcx
	call	_ZNK8wxString6AsCharERK8wxMBConv
	.loc 8 3546 12
	testq	%rax, %rax
	sete	%al
	.loc 8 3546 7
	testb	%al, %al
	je	.L68
	.loc 8 3556 58
	movq	16(%rbp), %rax
	movl	$0, %r8d
	leaq	.LC2(%rip), %rdx
	movq	%rax, %rcx
	call	_ZN22wxScopedCharTypeBufferIcE14CreateNonOwnedEPKcy
	jmp	.L67
.L68:
	.loc 8 3559 47
	movq	24(%rbp), %rax
	leaq	32(%rax), %rdx
	movq	16(%rbp), %rax
	movq	%rax, %rcx
	call	_ZNK8wxString15ConvertedBufferIcE14AsScopedBufferEv
.L67:
	.loc 8 3560 3
	movq	16(%rbp), %rax
	addq	$32, %rsp
	popq	%rbp
	.cfi_restore 6
	.cfi_def_cfa 7, 8
	ret
	.cfi_endproc
.LFE3845:
	.seh_endproc
	.section	.text$_ZN8wxObjectC2Ev,"x"
	.linkonce discard
	.align 2
	.globl	_ZN8wxObjectC2Ev
	.def	_ZN8wxObjectC2Ev;	.scl	2;	.type	32;	.endef
	.seh_proc	_ZN8wxObjectC2Ev
_ZN8wxObjectC2Ev:
.LFB5173:
	.file 9 "../wxMSW-3.0.5_gcc810_x64_Dev/include/wx/object.h"
	.loc 9 360 5
	.cfi_startproc
	pushq	%rbp
	.seh_pushreg	%rbp
	.cfi_def_cfa_offset 16
	.cfi_offset 6, -16
	movq	%rsp, %rbp
	.seh_setframe	%rbp, 0
	.cfi_def_cfa_register 6
	.seh_endprologue
	movq	%rcx, 16(%rbp)
.LBB12:
	.loc 9 360 16
	movq	.refptr._ZTV8wxObject(%rip), %rax
	leaq	16(%rax), %rdx
	movq	16(%rbp), %rax
	movq	%rdx, (%rax)
	.loc 9 360 28
	movq	16(%rbp), %rax
	movq	$0, 8(%rax)
.LBE12:
	.loc 9 360 35
	nop
	popq	%rbp
	.cfi_restore 6
	.cfi_def_cfa 7, 8
	ret
	.cfi_endproc
.LFE5173:
	.seh_endproc
	.section	.text$_ZN8wxObjectD2Ev,"x"
	.linkonce discard
	.align 2
	.globl	_ZN8wxObjectD2Ev
	.def	_ZN8wxObjectD2Ev;	.scl	2;	.type	32;	.endef
	.seh_proc	_ZN8wxObjectD2Ev
_ZN8wxObjectD2Ev:
.LFB5176:
	.loc 9 361 13
	.cfi_startproc
	pushq	%rbp
	.seh_pushreg	%rbp
	.cfi_def_cfa_offset 16
	.cfi_offset 6, -16
	movq	%rsp, %rbp
	.seh_setframe	%rbp, 0
	.cfi_def_cfa_register 6
	subq	$32, %rsp
	.seh_stackalloc	32
	.seh_endprologue
	movq	%rcx, 16(%rbp)
.LBB13:
	.loc 9 361 25
	movq	.refptr._ZTV8wxObject(%rip), %rax
	leaq	16(%rax), %rdx
	movq	16(%rbp), %rax
	movq	%rdx, (%rax)
	.loc 9 361 32
	movq	16(%rbp), %rcx
	call	_ZN8wxObject5UnRefEv
.LBE13:
	.loc 9 361 36
	nop
	addq	$32, %rsp
	popq	%rbp
	.cfi_restore 6
	.cfi_def_cfa 7, 8
	ret
	.cfi_endproc
.LFE5176:
	.seh_handler	__gxx_personality_seh0, @unwind, @except
	.seh_handlerdata
.LLSDA5176:
	.byte	0xff
	.byte	0xff
	.byte	0x1
	.uleb128 .LLSDACSE5176-.LLSDACSB5176
.LLSDACSB5176:
.LLSDACSE5176:
	.section	.text$_ZN8wxObjectD2Ev,"x"
	.linkonce discard
	.seh_endproc
	.section	.text$_ZN8wxObjectaSERKS_,"x"
	.linkonce discard
	.align 2
	.globl	_ZN8wxObjectaSERKS_
	.def	_ZN8wxObjectaSERKS_;	.scl	2;	.type	32;	.endef
	.seh_proc	_ZN8wxObjectaSERKS_
_ZN8wxObjectaSERKS_:
.LFB5182:
	.loc 9 370 15
	.cfi_startproc
	pushq	%rbp
	.seh_pushreg	%rbp
	.cfi_def_cfa_offset 16
	.cfi_offset 6, -16
	movq	%rsp, %rbp
	.seh_setframe	%rbp, 0
	.cfi_def_cfa_register 6
	subq	$32, %rsp
	.seh_stackalloc	32
	.seh_endprologue
	movq	%rcx, 16(%rbp)
	movq	%rdx, 24(%rbp)
	.loc 9 372 9
	movq	16(%rbp), %rax
	cmpq	24(%rbp), %rax
	je	.L73
	.loc 9 374 16
	movq	24(%rbp), %rax
	movq	%rax, %rdx
	movq	16(%rbp), %rcx
	call	_ZN8wxObject3RefERKS_
.L73:
	.loc 9 376 17
	movq	16(%rbp), %rax
	.loc 9 377 5
	addq	$32, %rsp
	popq	%rbp
	.cfi_restore 6
	.cfi_def_cfa 7, 8
	ret
	.cfi_endproc
.LFE5182:
	.seh_endproc
	.section	.text$_ZN6wxSizeC1Ev,"x"
	.linkonce discard
	.align 2
	.globl	_ZN6wxSizeC1Ev
	.def	_ZN6wxSizeC1Ev;	.scl	2;	.type	32;	.endef
	.seh_proc	_ZN6wxSizeC1Ev
_ZN6wxSizeC1Ev:
.LFB6260:
	.file 10 "../wxMSW-3.0.5_gcc810_x64_Dev/include/wx/gdicmn.h"
	.loc 10 257 5
	.cfi_startproc
	pushq	%rbp
	.seh_pushreg	%rbp
	.cfi_def_cfa_offset 16
	.cfi_offset 6, -16
	movq	%rsp, %rbp
	.seh_setframe	%rbp, 0
	.cfi_def_cfa_register 6
	.seh_endprologue
	movq	%rcx, 16(%rbp)
.LBB14:
	.loc 10 257 25
	movq	16(%rbp), %rax
	movl	$0, (%rax)
	movq	16(%rbp), %rax
	movl	$0, 4(%rax)
.LBE14:
	.loc 10 257 29
	nop
	popq	%rbp
	.cfi_restore 6
	.cfi_def_cfa 7, 8
	ret
	.cfi_endproc
.LFE6260:
	.seh_endproc
	.section	.text$_ZN6wxSizeC1Eii,"x"
	.linkonce discard
	.align 2
	.globl	_ZN6wxSizeC1Eii
	.def	_ZN6wxSizeC1Eii;	.scl	2;	.type	32;	.endef
	.seh_proc	_ZN6wxSizeC1Eii
_ZN6wxSizeC1Eii:
.LFB6263:
	.loc 10 258 5
	.cfi_startproc
	pushq	%rbp
	.seh_pushreg	%rbp
	.cfi_def_cfa_offset 16
	.cfi_offset 6, -16
	movq	%rsp, %rbp
	.seh_setframe	%rbp, 0
	.cfi_def_cfa_register 6
	.seh_endprologue
	movq	%rcx, 16(%rbp)
	movl	%edx, 24(%rbp)
	movl	%r8d, 32(%rbp)
.LBB15:
	.loc 10 258 41
	movq	16(%rbp), %rax
	movl	24(%rbp), %edx
	movl	%edx, (%rax)
	movq	16(%rbp), %rax
	movl	32(%rbp), %edx
	movl	%edx, 4(%rax)
.LBE15:
	.loc 10 258 45
	nop
	popq	%rbp
	.cfi_restore 6
	.cfi_def_cfa 7, 8
	ret
	.cfi_endproc
.LFE6263:
	.seh_endproc
	.section	.text$_ZN7wxPointC1Ev,"x"
	.linkonce discard
	.align 2
	.globl	_ZN7wxPointC1Ev
	.def	_ZN7wxPointC1Ev;	.scl	2;	.type	32;	.endef
	.seh_proc	_ZN7wxPointC1Ev
_ZN7wxPointC1Ev:
.LFB6343:
	.loc 10 545 5
	.cfi_startproc
	pushq	%rbp
	.seh_pushreg	%rbp
	.cfi_def_cfa_offset 16
	.cfi_offset 6, -16
	movq	%rsp, %rbp
	.seh_setframe	%rbp, 0
	.cfi_def_cfa_register 6
	.seh_endprologue
	movq	%rcx, 16(%rbp)
.LBB16:
	.loc 10 545 26
	movq	16(%rbp), %rax
	movl	$0, (%rax)
	movq	16(%rbp), %rax
	movl	$0, 4(%rax)
.LBE16:
	.loc 10 545 30
	nop
	popq	%rbp
	.cfi_restore 6
	.cfi_def_cfa 7, 8
	ret
	.cfi_endproc
.LFE6343:
	.seh_endproc
	.section	.text$_ZN7wxPointC1Eii,"x"
	.linkonce discard
	.align 2
	.globl	_ZN7wxPointC1Eii
	.def	_ZN7wxPointC1Eii;	.scl	2;	.type	32;	.endef
	.seh_proc	_ZN7wxPointC1Eii
_ZN7wxPointC1Eii:
.LFB6346:
	.loc 10 546 5
	.cfi_startproc
	pushq	%rbp
	.seh_pushreg	%rbp
	.cfi_def_cfa_offset 16
	.cfi_offset 6, -16
	movq	%rsp, %rbp
	.seh_setframe	%rbp, 0
	.cfi_def_cfa_register 6
	.seh_endprologue
	movq	%rcx, 16(%rbp)
	movl	%edx, 24(%rbp)
	movl	%r8d, 32(%rbp)
.LBB17:
	.loc 10 546 42
	movq	16(%rbp), %rax
	movl	24(%rbp), %edx
	movl	%edx, (%rax)
	movq	16(%rbp), %rax
	movl	32(%rbp), %edx
	movl	%edx, 4(%rax)
.LBE17:
	.loc 10 546 46
	nop
	popq	%rbp
	.cfi_restore 6
	.cfi_def_cfa 7, 8
	ret
	.cfi_endproc
.LFE6346:
	.seh_endproc
	.section .rdata,"dr"
_ZL19wxALPHA_TRANSPARENT:
	.space 1
_ZL14wxALPHA_OPAQUE:
	.byte	-1
	.section	.text$_ZNSt14numeric_limitsIdE3maxEv,"x"
	.linkonce discard
	.globl	_ZNSt14numeric_limitsIdE3maxEv
	.def	_ZNSt14numeric_limitsIdE3maxEv;	.scl	2;	.type	32;	.endef
	.seh_proc	_ZNSt14numeric_limitsIdE3maxEv
_ZNSt14numeric_limitsIdE3maxEv:
.LFB7145:
	.file 11 "C:/Program Files/CodeBlocks/MinGW/lib/gcc/x86_64-w64-mingw32/8.1.0/include/c++/limits"
	.loc 11 1677 7
	.cfi_startproc
	.seh_endprologue
	.loc 11 1677 81
	movsd	.LC3(%rip), %xmm0
	movq	%xmm0, %rax
	.loc 11 1677 84
	movq	%rax, %xmm0
	ret
	.cfi_endproc
.LFE7145:
	.seh_endproc
	.section	.text$_ZN10wxArrayIntC1Ev,"x"
	.linkonce discard
	.align 2
	.globl	_ZN10wxArrayIntC1Ev
	.def	_ZN10wxArrayIntC1Ev;	.scl	2;	.type	32;	.endef
	.seh_proc	_ZN10wxArrayIntC1Ev
_ZN10wxArrayIntC1Ev:
.LFB7443:
	.file 12 "../wxMSW-3.0.5_gcc810_x64_Dev/include/wx/dynarray.h"
	.loc 12 1022 331
	.cfi_startproc
	pushq	%rbp
	.seh_pushreg	%rbp
	.cfi_def_cfa_offset 16
	.cfi_offset 6, -16
	movq	%rsp, %rbp
	.seh_setframe	%rbp, 0
	.cfi_def_cfa_register 6
	subq	$32, %rsp
	.seh_stackalloc	32
	.seh_endprologue
	movq	%rcx, 16(%rbp)
.LBB18:
	.loc 12 1022 344
	movq	16(%rbp), %rax
	movq	%rax, %rcx
	call	_ZN14wxBaseArrayIntC2Ev
.LBE18:
	.loc 12 1022 346
	nop
	addq	$32, %rsp
	popq	%rbp
	.cfi_restore 6
	.cfi_def_cfa 7, 8
	ret
	.cfi_endproc
.LFE7443:
	.seh_endproc
	.section	.text$_ZN10wxArrayIntD1Ev,"x"
	.linkonce discard
	.align 2
	.globl	_ZN10wxArrayIntD1Ev
	.def	_ZN10wxArrayIntD1Ev;	.scl	2;	.type	32;	.endef
	.seh_proc	_ZN10wxArrayIntD1Ev
_ZN10wxArrayIntD1Ev:
.LFB7446:
	.loc 12 1022 348
	.cfi_startproc
	pushq	%rbp
	.seh_pushreg	%rbp
	.cfi_def_cfa_offset 16
	.cfi_offset 6, -16
	movq	%rsp, %rbp
	.seh_setframe	%rbp, 0
	.cfi_def_cfa_register 6
	subq	$32, %rsp
	.seh_stackalloc	32
	.seh_endprologue
	movq	%rcx, 16(%rbp)
.LBB19:
	.loc 12 1022 362
	movq	16(%rbp), %rax
	movq	%rax, %rcx
	call	_ZN14wxBaseArrayIntD2Ev
.LBE19:
	.loc 12 1022 364
	nop
	addq	$32, %rsp
	popq	%rbp
	.cfi_restore 6
	.cfi_def_cfa 7, 8
	ret
	.cfi_endproc
.LFE7446:
	.seh_endproc
	.section	.text$_ZN11wxArrayLongC1Ev,"x"
	.linkonce discard
	.align 2
	.globl	_ZN11wxArrayLongC1Ev
	.def	_ZN11wxArrayLongC1Ev;	.scl	2;	.type	32;	.endef
	.seh_proc	_ZN11wxArrayLongC1Ev
_ZN11wxArrayLongC1Ev:
.LFB7623:
	.loc 12 1024 342
	.cfi_startproc
	pushq	%rbp
	.seh_pushreg	%rbp
	.cfi_def_cfa_offset 16
	.cfi_offset 6, -16
	movq	%rsp, %rbp
	.seh_setframe	%rbp, 0
	.cfi_def_cfa_register 6
	subq	$32, %rsp
	.seh_stackalloc	32
	.seh_endprologue
	movq	%rcx, 16(%rbp)
.LBB20:
	.loc 12 1024 356
	movq	16(%rbp), %rax
	movq	%rax, %rcx
	call	_ZN15wxBaseArrayLongC2Ev
.LBE20:
	.loc 12 1024 358
	nop
	addq	$32, %rsp
	popq	%rbp
	.cfi_restore 6
	.cfi_def_cfa 7, 8
	ret
	.cfi_endproc
.LFE7623:
	.seh_endproc
	.section	.text$_ZN11wxArrayLongD1Ev,"x"
	.linkonce discard
	.align 2
	.globl	_ZN11wxArrayLongD1Ev
	.def	_ZN11wxArrayLongD1Ev;	.scl	2;	.type	32;	.endef
	.seh_proc	_ZN11wxArrayLongD1Ev
_ZN11wxArrayLongD1Ev:
.LFB7626:
	.loc 12 1024 360
	.cfi_startproc
	pushq	%rbp
	.seh_pushreg	%rbp
	.cfi_def_cfa_offset 16
	.cfi_offset 6, -16
	movq	%rsp, %rbp
	.seh_setframe	%rbp, 0
	.cfi_def_cfa_register 6
	subq	$32, %rsp
	.seh_stackalloc	32
	.seh_endprologue
	movq	%rcx, 16(%rbp)
.LBB21:
	.loc 12 1024 375
	movq	16(%rbp), %rax
	movq	%rax, %rcx
	call	_ZN15wxBaseArrayLongD2Ev
.LBE21:
	.loc 12 1024 377
	nop
	addq	$32, %rsp
	popq	%rbp
	.cfi_restore 6
	.cfi_def_cfa 7, 8
	ret
	.cfi_endproc
.LFE7626:
	.seh_endproc
	.section	.text$_ZN16wxTypeIdentifierC1EPKc,"x"
	.linkonce discard
	.align 2
	.globl	_ZN16wxTypeIdentifierC1EPKc
	.def	_ZN16wxTypeIdentifierC1EPKc;	.scl	2;	.type	32;	.endef
	.seh_proc	_ZN16wxTypeIdentifierC1EPKc
_ZN16wxTypeIdentifierC1EPKc:
.LFB8335:
	.file 13 "../wxMSW-3.0.5_gcc810_x64_Dev/include/wx/typeinfo.h"
	.loc 13 66 5
	.cfi_startproc
	pushq	%rbp
	.seh_pushreg	%rbp
	.cfi_def_cfa_offset 16
	.cfi_offset 6, -16
	movq	%rsp, %rbp
	.seh_setframe	%rbp, 0
	.cfi_def_cfa_register 6
	.seh_endprologue
	movq	%rcx, 16(%rbp)
	movq	%rdx, 24(%rbp)
.LBB22:
	.loc 13 68 21
	movq	16(%rbp), %rax
	movq	24(%rbp), %rdx
	movq	%rdx, (%rax)
.LBE22:
	.loc 13 69 5
	nop
	popq	%rbp
	.cfi_restore 6
	.cfi_def_cfa 7, 8
	ret
	.cfi_endproc
.LFE8335:
	.seh_endproc
	.section	.text$_ZN16wxTypeIdentifiereqERKS_,"x"
	.linkonce discard
	.align 2
	.globl	_ZN16wxTypeIdentifiereqERKS_
	.def	_ZN16wxTypeIdentifiereqERKS_;	.scl	2;	.type	32;	.endef
	.seh_proc	_ZN16wxTypeIdentifiereqERKS_
_ZN16wxTypeIdentifiereqERKS_:
.LFB8336:
	.loc 13 71 10
	.cfi_startproc
	pushq	%rbp
	.seh_pushreg	%rbp
	.cfi_def_cfa_offset 16
	.cfi_offset 6, -16
	movq	%rsp, %rbp
	.seh_setframe	%rbp, 0
	.cfi_def_cfa_register 6
	subq	$32, %rsp
	.seh_stackalloc	32
	.seh_endprologue
	movq	%rcx, 16(%rbp)
	movq	%rdx, 24(%rbp)
	.loc 13 73 42
	movq	24(%rbp), %rax
	movq	(%rax), %rdx
	.loc 13 73 22
	movq	16(%rbp), %rax
	movq	(%rax), %rax
	movq	%rax, %rcx
	call	strcmp
	.loc 13 73 58
	testl	%eax, %eax
	sete	%al
	.loc 13 74 5
	addq	$32, %rsp
	popq	%rbp
	.cfi_restore 6
	.cfi_def_cfa 7, 8
	ret
	.cfi_endproc
.LFE8336:
	.seh_endproc
	.section	.text$_ZN12wxColourBaseC2Ev,"x"
	.linkonce discard
	.align 2
	.globl	_ZN12wxColourBaseC2Ev
	.def	_ZN12wxColourBaseC2Ev;	.scl	2;	.type	32;	.endef
	.seh_proc	_ZN12wxColourBaseC2Ev
_ZN12wxColourBaseC2Ev:
.LFB8815:
	.file 14 "../wxMSW-3.0.5_gcc810_x64_Dev/include/wx/colour.h"
	.loc 14 85 5
	.cfi_startproc
	pushq	%rbp
	.seh_pushreg	%rbp
	.cfi_def_cfa_offset 16
	.cfi_offset 6, -16
	movq	%rsp, %rbp
	.seh_setframe	%rbp, 0
	.cfi_def_cfa_register 6
	subq	$32, %rsp
	.seh_stackalloc	32
	.seh_endprologue
	movq	%rcx, 16(%rbp)
.LBB23:
	.loc 14 85 20
	movq	16(%rbp), %rax
	movq	%rax, %rcx
	call	_ZN8wxObjectC2Ev
	movq	.refptr._ZTV12wxColourBase(%rip), %rax
	leaq	16(%rax), %rdx
	movq	16(%rbp), %rax
	movq	%rdx, (%rax)
.LBE23:
	.loc 14 85 21
	nop
	addq	$32, %rsp
	popq	%rbp
	.cfi_restore 6
	.cfi_def_cfa 7, 8
	ret
	.cfi_endproc
.LFE8815:
	.seh_endproc
	.section	.text$_ZN12wxColourBaseD2Ev,"x"
	.linkonce discard
	.align 2
	.globl	_ZN12wxColourBaseD2Ev
	.def	_ZN12wxColourBaseD2Ev;	.scl	2;	.type	32;	.endef
	.seh_proc	_ZN12wxColourBaseD2Ev
_ZN12wxColourBaseD2Ev:
.LFB8818:
	.loc 14 86 13
	.cfi_startproc
	pushq	%rbp
	.seh_pushreg	%rbp
	.cfi_def_cfa_offset 16
	.cfi_offset 6, -16
	movq	%rsp, %rbp
	.seh_setframe	%rbp, 0
	.cfi_def_cfa_register 6
	subq	$32, %rsp
	.seh_stackalloc	32
	.seh_endprologue
	movq	%rcx, 16(%rbp)
.LBB24:
	.loc 14 86 29
	movq	.refptr._ZTV12wxColourBase(%rip), %rax
	leaq	16(%rax), %rdx
	movq	16(%rbp), %rax
	movq	%rdx, (%rax)
	movq	16(%rbp), %rax
	movq	%rax, %rcx
	call	_ZN8wxObjectD2Ev
.LBE24:
	.loc 14 86 30
	nop
	addq	$32, %rsp
	popq	%rbp
	.cfi_restore 6
	.cfi_def_cfa 7, 8
	ret
	.cfi_endproc
.LFE8818:
	.seh_endproc
	.section	.text$_ZN8wxColourC1Ev,"x"
	.linkonce discard
	.align 2
	.globl	_ZN8wxColourC1Ev
	.def	_ZN8wxColourC1Ev;	.scl	2;	.type	32;	.endef
	.seh_proc	_ZN8wxColourC1Ev
_ZN8wxColourC1Ev:
.LFB8833:
	.file 15 "../wxMSW-3.0.5_gcc810_x64_Dev/include/wx/msw/colour.h"
	.loc 15 25 5
	.cfi_startproc
	pushq	%rbp
	.seh_pushreg	%rbp
	.cfi_def_cfa_offset 16
	.cfi_offset 6, -16
	pushq	%rbx
	.seh_pushreg	%rbx
	.cfi_def_cfa_offset 24
	.cfi_offset 3, -24
	subq	$40, %rsp
	.seh_stackalloc	40
	.cfi_def_cfa_offset 64
	leaq	128(%rsp), %rbp
	.seh_setframe	%rbp, 128
	.cfi_def_cfa 6, -64
	.seh_endprologue
	movq	%rcx, -64(%rbp)
.LBB25:
	.loc 15 25 16
	movq	-64(%rbp), %rax
	movq	%rax, %rcx
	call	_ZN12wxColourBaseC2Ev
	movq	.refptr._ZTV8wxColour(%rip), %rax
	leaq	16(%rax), %rdx
	movq	-64(%rbp), %rax
	movq	%rdx, (%rax)
	.loc 15 25 22
	movq	-64(%rbp), %rcx
.LEHB11:
	call	_ZN8wxColour4InitEv
.LEHE11:
.LBE25:
	.loc 15 25 26
	jmp	.L93
.L92:
	movq	%rax, %rbx
.LBB26:
	.loc 15 25 16
	movq	-64(%rbp), %rax
	movq	%rax, %rcx
	call	_ZN12wxColourBaseD2Ev
	movq	%rbx, %rax
	movq	%rax, %rcx
.LEHB12:
	call	_Unwind_Resume
	nop
.LEHE12:
.L93:
.LBE26:
	.loc 15 25 26
	addq	$40, %rsp
	popq	%rbx
	.cfi_restore 3
	popq	%rbp
	.cfi_restore 6
	.cfi_def_cfa 7, -24
	ret
	.cfi_endproc
.LFE8833:
	.seh_handler	__gxx_personality_seh0, @unwind, @except
	.seh_handlerdata
.LLSDA8833:
	.byte	0xff
	.byte	0xff
	.byte	0x1
	.uleb128 .LLSDACSE8833-.LLSDACSB8833
.LLSDACSB8833:
	.uleb128 .LEHB11-.LFB8833
	.uleb128 .LEHE11-.LEHB11
	.uleb128 .L92-.LFB8833
	.uleb128 0
	.uleb128 .LEHB12-.LFB8833
	.uleb128 .LEHE12-.LEHB12
	.uleb128 0
	.uleb128 0
.LLSDACSE8833:
	.section	.text$_ZN8wxColourC1Ev,"x"
	.linkonce discard
	.seh_endproc
	.section .rdata,"dr"
	.align 4
_ZL15wxInvalidOffset:
	.long	-1
	.align 4
_ZL5wxEOF:
	.long	-1
_ZL25wxIMAGE_ALPHA_TRANSPARENT:
	.space 1
_ZL23wxIMAGE_ALPHA_THRESHOLD:
	.byte	-128
_ZL20wxIMAGE_ALPHA_OPAQUE:
	.byte	-1
	.section	.text$_ZN11wxGDIObjectC2Ev,"x"
	.linkonce discard
	.align 2
	.globl	_ZN11wxGDIObjectC2Ev
	.def	_ZN11wxGDIObjectC2Ev;	.scl	2;	.type	32;	.endef
	.seh_proc	_ZN11wxGDIObjectC2Ev
_ZN11wxGDIObjectC2Ev:
.LFB9372:
	.file 16 "../wxMSW-3.0.5_gcc810_x64_Dev/include/wx/gdiobj.h"
	.loc 16 41 7
	.cfi_startproc
	pushq	%rbp
	.seh_pushreg	%rbp
	.cfi_def_cfa_offset 16
	.cfi_offset 6, -16
	movq	%rsp, %rbp
	.seh_setframe	%rbp, 0
	.cfi_def_cfa_register 6
	subq	$32, %rsp
	.seh_stackalloc	32
	.seh_endprologue
	movq	%rcx, 16(%rbp)
.LBB27:
	.loc 16 41 7
	movq	16(%rbp), %rax
	movq	%rax, %rcx
	call	_ZN8wxObjectC2Ev
	movq	.refptr._ZTV11wxGDIObject(%rip), %rax
	leaq	16(%rax), %rdx
	movq	16(%rbp), %rax
	movq	%rdx, (%rax)
.LBE27:
	nop
	addq	$32, %rsp
	popq	%rbp
	.cfi_restore 6
	.cfi_def_cfa 7, 8
	ret
	.cfi_endproc
.LFE9372:
	.seh_endproc
	.section	.text$_ZN10wxGDIImageC2Ev,"x"
	.linkonce discard
	.align 2
	.globl	_ZN10wxGDIImageC2Ev
	.def	_ZN10wxGDIImageC2Ev;	.scl	2;	.type	32;	.endef
	.seh_proc	_ZN10wxGDIImageC2Ev
_ZN10wxGDIImageC2Ev:
.LFB9383:
	.file 17 "../wxMSW-3.0.5_gcc810_x64_Dev/include/wx/msw/gdiimage.h"
	.loc 17 84 7
	.cfi_startproc
	pushq	%rbp
	.seh_pushreg	%rbp
	.cfi_def_cfa_offset 16
	.cfi_offset 6, -16
	movq	%rsp, %rbp
	.seh_setframe	%rbp, 0
	.cfi_def_cfa_register 6
	subq	$32, %rsp
	.seh_stackalloc	32
	.seh_endprologue
	movq	%rcx, 16(%rbp)
.LBB28:
	.loc 17 84 7
	movq	16(%rbp), %rax
	movq	%rax, %rcx
	call	_ZN11wxGDIObjectC2Ev
	movq	.refptr._ZTV10wxGDIImage(%rip), %rax
	leaq	16(%rax), %rdx
	movq	16(%rbp), %rax
	movq	%rdx, (%rax)
.LBE28:
	nop
	addq	$32, %rsp
	popq	%rbp
	.cfi_restore 6
	.cfi_def_cfa 7, 8
	ret
	.cfi_endproc
.LFE9383:
	.seh_endproc
	.section	.text$_ZN8wxBitmapC1Ev,"x"
	.linkonce discard
	.align 2
	.globl	_ZN8wxBitmapC1Ev
	.def	_ZN8wxBitmapC1Ev;	.scl	2;	.type	32;	.endef
	.seh_proc	_ZN8wxBitmapC1Ev
_ZN8wxBitmapC1Ev:
.LFB9390:
	.file 18 "../wxMSW-3.0.5_gcc810_x64_Dev/include/wx/msw/bitmap.h"
	.loc 18 51 5
	.cfi_startproc
	pushq	%rbp
	.seh_pushreg	%rbp
	.cfi_def_cfa_offset 16
	.cfi_offset 6, -16
	movq	%rsp, %rbp
	.seh_setframe	%rbp, 0
	.cfi_def_cfa_register 6
	subq	$32, %rsp
	.seh_stackalloc	32
	.seh_endprologue
	movq	%rcx, 16(%rbp)
.LBB29:
	.loc 18 51 16
	movq	16(%rbp), %rax
	movq	%rax, %rcx
	call	_ZN10wxGDIImageC2Ev
	movq	.refptr._ZTV8wxBitmap(%rip), %rax
	leaq	16(%rax), %rdx
	movq	16(%rbp), %rax
	movq	%rdx, (%rax)
.LBE29:
	.loc 18 51 18
	nop
	addq	$32, %rsp
	popq	%rbp
	.cfi_restore 6
	.cfi_def_cfa 7, 8
	ret
	.cfi_endproc
.LFE9390:
	.seh_endproc
	.section	.text$_ZN23wxCriticalSectionLockerC1ER17wxCriticalSection,"x"
	.linkonce discard
	.align 2
	.globl	_ZN23wxCriticalSectionLockerC1ER17wxCriticalSection
	.def	_ZN23wxCriticalSectionLockerC1ER17wxCriticalSection;	.scl	2;	.type	32;	.endef
	.seh_proc	_ZN23wxCriticalSectionLockerC1ER17wxCriticalSection
_ZN23wxCriticalSectionLockerC1ER17wxCriticalSection:
.LFB9837:
	.file 19 "../wxMSW-3.0.5_gcc810_x64_Dev/include/wx/thread.h"
	.loc 19 304 5
	.cfi_startproc
	pushq	%rbp
	.seh_pushreg	%rbp
	.cfi_def_cfa_offset 16
	.cfi_offset 6, -16
	movq	%rsp, %rbp
	.seh_setframe	%rbp, 0
	.cfi_def_cfa_register 6
	subq	$32, %rsp
	.seh_stackalloc	32
	.seh_endprologue
	movq	%rcx, 16(%rbp)
	movq	%rdx, 24(%rbp)
.LBB30:
	.loc 19 305 24
	movq	16(%rbp), %rax
	movq	24(%rbp), %rdx
	movq	%rdx, (%rax)
	.loc 19 307 9
	movq	16(%rbp), %rax
	movq	(%rax), %rax
	.loc 19 307 25
	movq	%rax, %rcx
	call	_ZN17wxCriticalSection5EnterEv
.LBE30:
	.loc 19 308 5
	nop
	addq	$32, %rsp
	popq	%rbp
	.cfi_restore 6
	.cfi_def_cfa 7, 8
	ret
	.cfi_endproc
.LFE9837:
	.seh_endproc
	.section	.text$_ZN23wxCriticalSectionLockerD1Ev,"x"
	.linkonce discard
	.align 2
	.globl	_ZN23wxCriticalSectionLockerD1Ev
	.def	_ZN23wxCriticalSectionLockerD1Ev;	.scl	2;	.type	32;	.endef
	.seh_proc	_ZN23wxCriticalSectionLockerD1Ev
_ZN23wxCriticalSectionLockerD1Ev:
.LFB9840:
	.loc 19 310 5
	.cfi_startproc
	pushq	%rbp
	.seh_pushreg	%rbp
	.cfi_def_cfa_offset 16
	.cfi_offset 6, -16
	movq	%rsp, %rbp
	.seh_setframe	%rbp, 0
	.cfi_def_cfa_register 6
	subq	$32, %rsp
	.seh_stackalloc	32
	.seh_endprologue
	movq	%rcx, 16(%rbp)
.LBB31:
	.loc 19 312 9
	movq	16(%rbp), %rax
	movq	(%rax), %rax
	.loc 19 312 25
	movq	%rax, %rcx
	call	_ZN17wxCriticalSection5LeaveEv
.LBE31:
	.loc 19 313 5
	nop
	addq	$32, %rsp
	popq	%rbp
	.cfi_restore 6
	.cfi_def_cfa 7, 8
	ret
	.cfi_endproc
.LFE9840:
	.seh_handler	__gxx_personality_seh0, @unwind, @except
	.seh_handlerdata
.LLSDA9840:
	.byte	0xff
	.byte	0xff
	.byte	0x1
	.uleb128 .LLSDACSE9840-.LLSDACSB9840
.LLSDACSB9840:
.LLSDACSE9840:
	.section	.text$_ZN23wxCriticalSectionLockerD1Ev,"x"
	.linkonce discard
	.seh_endproc
	.section	.text$_ZN8wxThread8OnDeleteEv,"x"
	.linkonce discard
	.align 2
	.globl	_ZN8wxThread8OnDeleteEv
	.def	_ZN8wxThread8OnDeleteEv;	.scl	2;	.type	32;	.endef
	.seh_proc	_ZN8wxThread8OnDeleteEv
_ZN8wxThread8OnDeleteEv:
.LFB9846:
	.loc 19 627 18
	.cfi_startproc
	pushq	%rbp
	.seh_pushreg	%rbp
	.cfi_def_cfa_offset 16
	.cfi_offset 6, -16
	movq	%rsp, %rbp
	.seh_setframe	%rbp, 0
	.cfi_def_cfa_register 6
	.seh_endprologue
	movq	%rcx, 16(%rbp)
	.loc 19 627 30
	nop
	popq	%rbp
	.cfi_restore 6
	.cfi_def_cfa 7, 8
	ret
	.cfi_endproc
.LFE9846:
	.seh_endproc
	.section	.text$_ZN8wxThread6OnKillEv,"x"
	.linkonce discard
	.align 2
	.globl	_ZN8wxThread6OnKillEv
	.def	_ZN8wxThread6OnKillEv;	.scl	2;	.type	32;	.endef
	.seh_proc	_ZN8wxThread6OnKillEv
_ZN8wxThread6OnKillEv:
.LFB9847:
	.loc 19 631 18
	.cfi_startproc
	pushq	%rbp
	.seh_pushreg	%rbp
	.cfi_def_cfa_offset 16
	.cfi_offset 6, -16
	movq	%rsp, %rbp
	.seh_setframe	%rbp, 0
	.cfi_def_cfa_register 6
	.seh_endprologue
	movq	%rcx, 16(%rbp)
	.loc 19 631 28
	nop
	popq	%rbp
	.cfi_restore 6
	.cfi_def_cfa 7, 8
	ret
	.cfi_endproc
.LFE9847:
	.seh_endproc
	.section	.text$_ZN8wxThread6OnExitEv,"x"
	.linkonce discard
	.align 2
	.globl	_ZN8wxThread6OnExitEv
	.def	_ZN8wxThread6OnExitEv;	.scl	2;	.type	32;	.endef
	.seh_proc	_ZN8wxThread6OnExitEv
_ZN8wxThread6OnExitEv:
.LFB9848:
	.loc 19 641 18
	.cfi_startproc
	pushq	%rbp
	.seh_pushreg	%rbp
	.cfi_def_cfa_offset 16
	.cfi_offset 6, -16
	movq	%rsp, %rbp
	.seh_setframe	%rbp, 0
	.cfi_def_cfa_register 6
	.seh_endprologue
	movq	%rcx, 16(%rbp)
	.loc 19 641 29
	nop
	popq	%rbp
	.cfi_restore 6
	.cfi_def_cfa 7, 8
	ret
	.cfi_endproc
.LFE9848:
	.seh_endproc
	.section	.text$_ZN20wxThreadHelperThread5EntryEv,"x"
	.linkonce discard
	.align 2
	.globl	_ZN20wxThreadHelperThread5EntryEv
	.def	_ZN20wxThreadHelperThread5EntryEv;	.scl	2;	.type	32;	.endef
	.seh_proc	_ZN20wxThreadHelperThread5EntryEv
_ZN20wxThreadHelperThread5EntryEv:
.LFB9863:
	.loc 19 767 1
	.cfi_startproc
	pushq	%rbp
	.seh_pushreg	%rbp
	.cfi_def_cfa_offset 16
	.cfi_offset 6, -16
	pushq	%rbx
	.seh_pushreg	%rbx
	.cfi_def_cfa_offset 24
	.cfi_offset 3, -24
	subq	$56, %rsp
	.seh_stackalloc	56
	.cfi_def_cfa_offset 80
	leaq	128(%rsp), %rbp
	.seh_setframe	%rbp, 128
	.cfi_def_cfa 6, -48
	.seh_endprologue
	movq	%rcx, -48(%rbp)
	.loc 19 768 27
	movq	-48(%rbp), %rax
	movq	64(%rax), %rdx
	movq	-48(%rbp), %rax
	movq	64(%rax), %rax
	.loc 19 768 41
	movq	(%rax), %rax
	addq	$16, %rax
	movq	(%rax), %rax
	.loc 19 768 40
	movq	%rdx, %rcx
	call	*%rax
.LVL0:
	movq	%rax, -88(%rbp)
	.loc 19 770 36
	movq	-48(%rbp), %rax
	movq	64(%rax), %rax
	.loc 19 770 44
	leaq	24(%rax), %rdx
	.loc 19 770 57
	leaq	-96(%rbp), %rax
	movq	%rax, %rcx
	call	_ZN23wxCriticalSectionLockerC1ER17wxCriticalSection
	.loc 19 776 10
	movq	-48(%rbp), %rax
	movq	64(%rax), %rax
	.loc 19 776 18
	movl	16(%rax), %eax
	.loc 19 776 5
	testl	%eax, %eax
	jne	.L103
	.loc 19 777 9
	movq	-48(%rbp), %rax
	movq	64(%rax), %rax
	.loc 19 777 26
	movq	$0, 8(%rax)
.L103:
	.loc 19 779 12
	movq	-88(%rbp), %rbx
	.loc 19 770 57
	leaq	-96(%rbp), %rax
	movq	%rax, %rcx
	call	_ZN23wxCriticalSectionLockerD1Ev
	.loc 19 779 12
	movq	%rbx, %rax
	.loc 19 780 1
	addq	$56, %rsp
	popq	%rbx
	.cfi_restore 3
	popq	%rbp
	.cfi_restore 6
	.cfi_def_cfa 7, -40
	ret
	.cfi_endproc
.LFE9863:
	.seh_endproc
	.section	.text$_ZN14wxEventFunctorC2Ev,"x"
	.linkonce discard
	.align 2
	.globl	_ZN14wxEventFunctorC2Ev
	.def	_ZN14wxEventFunctorC2Ev;	.scl	2;	.type	32;	.endef
	.seh_proc	_ZN14wxEventFunctorC2Ev
_ZN14wxEventFunctorC2Ev:
.LFB9899:
	.file 20 "../wxMSW-3.0.5_gcc810_x64_Dev/include/wx/event.h"
	.loc 20 211 7
	.cfi_startproc
	pushq	%rbp
	.seh_pushreg	%rbp
	.cfi_def_cfa_offset 16
	.cfi_offset 6, -16
	movq	%rsp, %rbp
	.seh_setframe	%rbp, 0
	.cfi_def_cfa_register 6
	.seh_endprologue
	movq	%rcx, 16(%rbp)
.LBB32:
	.loc 20 211 7
	movq	.refptr._ZTV14wxEventFunctor(%rip), %rax
	leaq	16(%rax), %rdx
	movq	16(%rbp), %rax
	movq	%rdx, (%rax)
.LBE32:
	nop
	popq	%rbp
	.cfi_restore 6
	.cfi_def_cfa 7, 8
	ret
	.cfi_endproc
.LFE9899:
	.seh_endproc
	.section	.text$_ZN20wxObjectEventFunctorC1EM12wxEvtHandlerFvR7wxEventEPS0_,"x"
	.linkonce discard
	.align 2
	.globl	_ZN20wxObjectEventFunctorC1EM12wxEvtHandlerFvR7wxEventEPS0_
	.def	_ZN20wxObjectEventFunctorC1EM12wxEvtHandlerFvR7wxEventEPS0_;	.scl	2;	.type	32;	.endef
	.seh_proc	_ZN20wxObjectEventFunctorC1EM12wxEvtHandlerFvR7wxEventEPS0_
_ZN20wxObjectEventFunctorC1EM12wxEvtHandlerFvR7wxEventEPS0_:
.LFB9902:
	.loc 20 243 5
	.cfi_startproc
	pushq	%rbp
	.seh_pushreg	%rbp
	.cfi_def_cfa_offset 16
	.cfi_offset 6, -16
	pushq	%rbx
	.seh_pushreg	%rbx
	.cfi_def_cfa_offset 24
	.cfi_offset 3, -24
	subq	$56, %rsp
	.seh_stackalloc	56
	.cfi_def_cfa_offset 80
	leaq	128(%rsp), %rbp
	.seh_setframe	%rbp, 128
	.cfi_def_cfa 6, -48
	.seh_endprologue
	movq	%rcx, -48(%rbp)
	movq	%rdx, %rbx
	movq	(%rbx), %rax
	movq	8(%rbx), %rdx
	movq	%rax, -96(%rbp)
	movq	%rdx, -88(%rbp)
	movq	%r8, -32(%rbp)
.LBB33:
	.loc 20 244 50
	movq	-48(%rbp), %rax
	movq	%rax, %rcx
	call	_ZN14wxEventFunctorC2Ev
	leaq	16+_ZTV20wxObjectEventFunctor(%rip), %rdx
	movq	-48(%rbp), %rax
	movq	%rdx, (%rax)
	movq	-48(%rbp), %rax
	movq	-32(%rbp), %rdx
	movq	%rdx, 8(%rax)
	movq	-48(%rbp), %rcx
	movq	-96(%rbp), %rax
	movq	-88(%rbp), %rdx
	movq	%rax, 16(%rcx)
	movq	%rdx, 24(%rcx)
.LBE33:
	.loc 20 245 11
	nop
	addq	$56, %rsp
	popq	%rbx
	.cfi_restore 3
	popq	%rbp
	.cfi_restore 6
	.cfi_def_cfa 7, -40
	ret
	.cfi_endproc
.LFE9902:
	.seh_endproc
	.section	.text$_ZNK20wxObjectEventFunctor10IsMatchingERK14wxEventFunctor,"x"
	.linkonce discard
	.align 2
	.globl	_ZNK20wxObjectEventFunctor10IsMatchingERK14wxEventFunctor
	.def	_ZNK20wxObjectEventFunctor10IsMatchingERK14wxEventFunctor;	.scl	2;	.type	32;	.endef
	.seh_proc	_ZNK20wxObjectEventFunctor10IsMatchingERK14wxEventFunctor
_ZNK20wxObjectEventFunctor10IsMatchingERK14wxEventFunctor:
.LFB9903:
	.loc 20 249 18
	.cfi_startproc
	pushq	%rbp
	.seh_pushreg	%rbp
	.cfi_def_cfa_offset 16
	.cfi_offset 6, -16
	movq	%rsp, %rbp
	.seh_setframe	%rbp, 0
	.cfi_def_cfa_register 6
	subq	$64, %rsp
	.seh_stackalloc	64
	.seh_endprologue
	movq	%rcx, 16(%rbp)
	movq	%rdx, 24(%rbp)
.LBB34:
	.loc 20 251 83
	movq	16(%rbp), %rax
	movq	(%rax), %rax
	subq	$8, %rax
	.loc 20 251 58
	movq	(%rax), %rax
	movq	%rax, %rcx
	call	_ZNKSt9type_info4nameEv
	movq	%rax, %rdx
	leaq	-24(%rbp), %rax
	movq	%rax, %rcx
	call	_ZN16wxTypeIdentifierC1EPKc
	.loc 20 251 38
	movq	24(%rbp), %rax
	movq	(%rax), %rax
	subq	$8, %rax
	.loc 20 251 14
	movq	(%rax), %rax
	movq	%rax, %rcx
	call	_ZNKSt9type_info4nameEv
	movq	%rax, %rdx
	leaq	-16(%rbp), %rax
	movq	%rax, %rcx
	call	_ZN16wxTypeIdentifierC1EPKc
	.loc 20 251 55
	leaq	-24(%rbp), %rdx
	leaq	-16(%rbp), %rax
	movq	%rax, %rcx
	call	_ZN16wxTypeIdentifiereqERKS_
	.loc 20 251 9
	testb	%al, %al
	je	.L108
.LBB35:
	.loc 20 253 41
	movq	24(%rbp), %rax
	movq	%rax, -8(%rbp)
	.loc 20 262 40
	movq	16(%rbp), %rax
	movq	16(%rax), %rdx
	movq	-8(%rbp), %rax
	movq	16(%rax), %rax
	.loc 20 262 74
	cmpq	%rax, %rdx
	jne	.L109
	.loc 20 262 40 discriminator 1
	movq	16(%rbp), %rax
	movq	24(%rax), %rdx
	movq	-8(%rbp), %rax
	movq	24(%rax), %rax
	.loc 20 262 31 discriminator 1
	cmpq	%rax, %rdx
	je	.L110
	.loc 20 262 40 discriminator 4
	movq	16(%rbp), %rax
	movq	16(%rax), %rax
	.loc 20 262 31 discriminator 4
	testq	%rax, %rax
	je	.L110
.L109:
	.loc 20 262 70 discriminator 6
	movq	-8(%rbp), %rax
	movq	16(%rax), %rax
	.loc 20 262 49 discriminator 6
	testq	%rax, %rax
	jne	.L111
.L110:
	.loc 20 263 22 discriminator 7
	movq	16(%rbp), %rax
	movq	8(%rax), %rdx
	.loc 20 263 41 discriminator 7
	movq	-8(%rbp), %rax
	movq	8(%rax), %rax
	.loc 20 262 74 discriminator 7
	cmpq	%rax, %rdx
	je	.L112
	.loc 20 263 60
	movq	-8(%rbp), %rax
	movq	8(%rax), %rax
	.loc 20 263 51
	testq	%rax, %rax
	jne	.L111
.L112:
	.loc 20 262 74 discriminator 9
	movl	$1, %eax
	.loc 20 263 77 discriminator 9
	jmp	.L114
.L111:
	.loc 20 262 74 discriminator 8
	movl	$0, %eax
	.loc 20 263 77 discriminator 8
	jmp	.L114
.L108:
.LBE35:
	.loc 20 266 20
	movl	$0, %eax
.L114:
.LBE34:
	.loc 20 267 5
	addq	$64, %rsp
	popq	%rbp
	.cfi_restore 6
	.cfi_def_cfa 7, 8
	ret
	.cfi_endproc
.LFE9903:
	.seh_endproc
	.section	.text$_ZNK20wxObjectEventFunctor13GetEvtHandlerEv,"x"
	.linkonce discard
	.align 2
	.globl	_ZNK20wxObjectEventFunctor13GetEvtHandlerEv
	.def	_ZNK20wxObjectEventFunctor13GetEvtHandlerEv;	.scl	2;	.type	32;	.endef
	.seh_proc	_ZNK20wxObjectEventFunctor13GetEvtHandlerEv
_ZNK20wxObjectEventFunctor13GetEvtHandlerEv:
.LFB9904:
	.loc 20 269 27
	.cfi_startproc
	pushq	%rbp
	.seh_pushreg	%rbp
	.cfi_def_cfa_offset 16
	.cfi_offset 6, -16
	movq	%rsp, %rbp
	.seh_setframe	%rbp, 0
	.cfi_def_cfa_register 6
	.seh_endprologue
	movq	%rcx, 16(%rbp)
	.loc 20 270 18
	movq	16(%rbp), %rax
	movq	8(%rax), %rax
	.loc 20 270 29
	popq	%rbp
	.cfi_restore 6
	.cfi_def_cfa 7, 8
	ret
	.cfi_endproc
.LFE9904:
	.seh_endproc
	.section	.text$_ZNK20wxObjectEventFunctor12GetEvtMethodEv,"x"
	.linkonce discard
	.align 2
	.globl	_ZNK20wxObjectEventFunctor12GetEvtMethodEv
	.def	_ZNK20wxObjectEventFunctor12GetEvtMethodEv;	.scl	2;	.type	32;	.endef
	.seh_proc	_ZNK20wxObjectEventFunctor12GetEvtMethodEv
_ZNK20wxObjectEventFunctor12GetEvtMethodEv:
.LFB9905:
	.loc 20 272 29
	.cfi_startproc
	pushq	%rbp
	.seh_pushreg	%rbp
	.cfi_def_cfa_offset 16
	.cfi_offset 6, -16
	movq	%rsp, %rbp
	.seh_setframe	%rbp, 0
	.cfi_def_cfa_register 6
	.seh_endprologue
	movq	%rcx, 16(%rbp)
	movq	%rdx, 24(%rbp)
	.loc 20 273 18
	movq	16(%rbp), %rcx
	movq	24(%rbp), %rax
	movq	24(%rax), %rdx
	movq	16(%rax), %rax
	movq	%rax, (%rcx)
	movq	%rdx, 8(%rcx)
	.loc 20 273 28
	movq	16(%rbp), %rax
	popq	%rbp
	.cfi_restore 6
	.cfi_def_cfa 7, 8
	ret
	.cfi_endproc
.LFE9905:
	.seh_endproc
	.section	.text$_Z17wxNewEventFunctorRKiM12wxEvtHandlerFvR7wxEventEPS1_,"x"
	.linkonce discard
	.globl	_Z17wxNewEventFunctorRKiM12wxEvtHandlerFvR7wxEventEPS1_
	.def	_Z17wxNewEventFunctorRKiM12wxEvtHandlerFvR7wxEventEPS1_;	.scl	2;	.type	32;	.endef
	.seh_proc	_Z17wxNewEventFunctorRKiM12wxEvtHandlerFvR7wxEventEPS1_
_Z17wxNewEventFunctorRKiM12wxEvtHandlerFvR7wxEventEPS1_:
.LFB9909:
	.loc 20 290 1
	.cfi_startproc
	pushq	%rbp
	.seh_pushreg	%rbp
	.cfi_def_cfa_offset 16
	.cfi_offset 6, -16
	pushq	%rbx
	.seh_pushreg	%rbx
	.cfi_def_cfa_offset 24
	.cfi_offset 3, -24
	subq	$72, %rsp
	.seh_stackalloc	72
	.cfi_def_cfa_offset 96
	leaq	128(%rsp), %rbp
	.seh_setframe	%rbp, 128
	.cfi_def_cfa 6, -32
	.seh_endprologue
	movq	%rcx, -32(%rbp)
	movq	%rdx, %rbx
	movq	(%rbx), %rax
	movq	8(%rbx), %rdx
	movq	%rax, -80(%rbp)
	movq	%rdx, -72(%rbp)
	movq	%r8, -16(%rbp)
	.loc 20 291 52
	movl	$32, %ecx
	call	_Znwy
	movq	%rax, %rbx
	movq	-80(%rbp), %rax
	movq	-72(%rbp), %rdx
	movq	%rax, -96(%rbp)
	movq	%rdx, -88(%rbp)
	movq	-16(%rbp), %rdx
	leaq	-96(%rbp), %rax
	movq	%rdx, %r8
	movq	%rax, %rdx
	movq	%rbx, %rcx
	call	_ZN20wxObjectEventFunctorC1EM12wxEvtHandlerFvR7wxEventEPS0_
	movq	%rbx, %rax
	.loc 20 292 1
	addq	$72, %rsp
	popq	%rbx
	.cfi_restore 3
	popq	%rbp
	.cfi_restore 6
	.cfi_def_cfa 7, -56
	ret
	.cfi_endproc
.LFE9909:
	.seh_endproc
	.section .rdata,"dr"
	.align 8
.LC4:
	.ascii "idLast == wxID_ANY || winid <= idLast\0"
	.align 8
.LC5:
	.ascii "..\\wxMSW-3.0.5_gcc810_x64_Dev\\include/wx/event.h\0"
	.align 8
.LC6:
	.ascii "invalid IDs range: lower bound > upper bound\0"
	.section	.text$_ZN21wxEventTableEntryBaseC2EiiP14wxEventFunctorP8wxObject,"x"
	.linkonce discard
	.align 2
	.globl	_ZN21wxEventTableEntryBaseC2EiiP14wxEventFunctorP8wxObject
	.def	_ZN21wxEventTableEntryBaseC2EiiP14wxEventFunctorP8wxObject;	.scl	2;	.type	32;	.endef
	.seh_proc	_ZN21wxEventTableEntryBaseC2EiiP14wxEventFunctorP8wxObject
_ZN21wxEventTableEntryBaseC2EiiP14wxEventFunctorP8wxObject:
.LFB10471:
	.loc 20 3170 5
	.cfi_startproc
	pushq	%rbp
	.seh_pushreg	%rbp
	.cfi_def_cfa_offset 16
	.cfi_offset 6, -16
	movq	%rsp, %rbp
	.seh_setframe	%rbp, 0
	.cfi_def_cfa_register 6
	subq	$48, %rsp
	.seh_stackalloc	48
	.seh_endprologue
	movq	%rcx, 16(%rbp)
	movl	%edx, 24(%rbp)
	movl	%r8d, 32(%rbp)
	movq	%r9, 40(%rbp)
.LBB36:
	.loc 20 3175 34
	movq	16(%rbp), %rax
	movl	24(%rbp), %edx
	movl	%edx, (%rax)
	movq	16(%rbp), %rax
	movl	32(%rbp), %edx
	movl	%edx, 4(%rax)
	movq	16(%rbp), %rax
	movq	40(%rbp), %rdx
	movq	%rdx, 8(%rax)
	movq	16(%rbp), %rax
	movq	48(%rbp), %rdx
	movq	%rdx, 16(%rax)
	.loc 20 3177 80
	movq	.refptr.wxTheAssertHandler(%rip), %rax
	movq	(%rax), %rax
	.loc 20 3177 82
	testq	%rax, %rax
	je	.L122
	.loc 20 3177 38 discriminator 1
	cmpl	$-1, 32(%rbp)
	je	.L122
	.loc 20 3177 41 discriminator 3
	movl	24(%rbp), %eax
	cmpl	32(%rbp), %eax
	jle	.L122
	.loc 20 3177 96 discriminator 5
	leaq	.LC6(%rip), %rax
	movq	%rax, 32(%rsp)
	leaq	.LC4(%rip), %r9
	leaq	_ZZN21wxEventTableEntryBaseC4EiiP14wxEventFunctorP8wxObjectE12__FUNCTION__(%rip), %r8
	movl	$3178, %edx
	leaq	.LC5(%rip), %rcx
	call	_Z10wxOnAssertPKciS0_S0_S0_
	.loc 20 3177 82 discriminator 5
	movq	.refptr.wxTrapInAssert(%rip), %rax
	movzbl	(%rax), %eax
	testb	%al, %al
	je	.L122
	.loc 20 3177 82 is_stmt 0 discriminator 7
	movl	$1, %eax
	jmp	.L123
.L122:
	.loc 20 3177 82 discriminator 8
	movl	$0, %eax
.L123:
	.loc 20 3177 14 is_stmt 1 discriminator 10
	testb	%al, %al
	je	.L125
	.loc 20 3177 150 discriminator 11
	movq	.refptr.wxTrapInAssert(%rip), %rax
	movb	$0, (%rax)
	.loc 20 3177 165 discriminator 11
	call	_Z6wxTrapv
.L125:
.LBE36:
	.loc 20 3179 5
	nop
	addq	$48, %rsp
	popq	%rbp
	.cfi_restore 6
	.cfi_def_cfa 7, 8
	ret
	.cfi_endproc
.LFE10471:
	.seh_endproc
	.section	.text$_ZN21wxEventTableEntryBaseD2Ev,"x"
	.linkonce discard
	.align 2
	.globl	_ZN21wxEventTableEntryBaseD2Ev
	.def	_ZN21wxEventTableEntryBaseD2Ev;	.scl	2;	.type	32;	.endef
	.seh_proc	_ZN21wxEventTableEntryBaseD2Ev
_ZN21wxEventTableEntryBaseD2Ev:
.LFB10477:
	.loc 20 3196 5
	.cfi_startproc
	pushq	%rbp
	.seh_pushreg	%rbp
	.cfi_def_cfa_offset 16
	.cfi_offset 6, -16
	movq	%rsp, %rbp
	.seh_setframe	%rbp, 0
	.cfi_def_cfa_register 6
	subq	$32, %rsp
	.seh_stackalloc	32
	.seh_endprologue
	movq	%rcx, 16(%rbp)
.LBB37:
	.loc 20 3198 16
	movq	16(%rbp), %rax
	movq	8(%rax), %rax
	.loc 20 3198 20
	testq	%rax, %rax
	je	.L128
	.loc 20 3198 16 discriminator 1
	movq	16(%rbp), %rax
	movq	8(%rax), %rdx
	movq	16(%rbp), %rax
	movq	8(%rax), %rax
	movq	(%rax), %rax
	addq	$8, %rax
	movq	(%rax), %rax
	movq	%rdx, %rcx
	call	*%rax
.LVL1:
.L128:
.LBE37:
	.loc 20 3199 5
	nop
	addq	$32, %rsp
	popq	%rbp
	.cfi_restore 6
	.cfi_def_cfa 7, 8
	ret
	.cfi_endproc
.LFE10477:
	.seh_endproc
	.section	.text$_ZN17wxEventTableEntryC1ERKiiiP14wxEventFunctorP8wxObject,"x"
	.linkonce discard
	.align 2
	.globl	_ZN17wxEventTableEntryC1ERKiiiP14wxEventFunctorP8wxObject
	.def	_ZN17wxEventTableEntryC1ERKiiiP14wxEventFunctorP8wxObject;	.scl	2;	.type	32;	.endef
	.seh_proc	_ZN17wxEventTableEntryC1ERKiiiP14wxEventFunctorP8wxObject
_ZN17wxEventTableEntryC1ERKiiiP14wxEventFunctorP8wxObject:
.LFB10481:
	.loc 20 3219 5
	.cfi_startproc
	pushq	%rbp
	.seh_pushreg	%rbp
	.cfi_def_cfa_offset 16
	.cfi_offset 6, -16
	movq	%rsp, %rbp
	.seh_setframe	%rbp, 0
	.cfi_def_cfa_register 6
	subq	$48, %rsp
	.seh_stackalloc	48
	.seh_endprologue
	movq	%rcx, 16(%rbp)
	movq	%rdx, 24(%rbp)
	movl	%r8d, 32(%rbp)
	movl	%r9d, 40(%rbp)
.LBB38:
	.loc 20 3222 27
	movq	16(%rbp), %rax
	movq	48(%rbp), %r9
	movl	40(%rbp), %r8d
	movl	32(%rbp), %edx
	movq	56(%rbp), %rcx
	movq	%rcx, 32(%rsp)
	movq	%rax, %rcx
	call	_ZN21wxEventTableEntryBaseC2EiiP14wxEventFunctorP8wxObject
	movq	16(%rbp), %rax
	movq	24(%rbp), %rdx
	movq	%rdx, 24(%rax)
.LBE38:
	.loc 20 3223 7
	nop
	addq	$48, %rsp
	popq	%rbp
	.cfi_restore 6
	.cfi_def_cfa 7, 8
	ret
	.cfi_endproc
.LFE10481:
	.seh_endproc
	.section	.text$_ZN12wxEvtHandler14SetNextHandlerEPS_,"x"
	.linkonce discard
	.align 2
	.globl	_ZN12wxEvtHandler14SetNextHandlerEPS_
	.def	_ZN12wxEvtHandler14SetNextHandlerEPS_;	.scl	2;	.type	32;	.endef
	.seh_proc	_ZN12wxEvtHandler14SetNextHandlerEPS_
_ZN12wxEvtHandler14SetNextHandlerEPS_:
.LFB10577:
	.loc 20 3346 18
	.cfi_startproc
	pushq	%rbp
	.seh_pushreg	%rbp
	.cfi_def_cfa_offset 16
	.cfi_offset 6, -16
	movq	%rsp, %rbp
	.seh_setframe	%rbp, 0
	.cfi_def_cfa_register 6
	.seh_endprologue
	movq	%rcx, 16(%rbp)
	movq	%rdx, 24(%rbp)
	.loc 20 3346 72
	movq	16(%rbp), %rax
	movq	24(%rbp), %rdx
	movq	%rdx, 24(%rax)
	.loc 20 3346 83
	nop
	popq	%rbp
	.cfi_restore 6
	.cfi_def_cfa 7, 8
	ret
	.cfi_endproc
.LFE10577:
	.seh_endproc
	.section	.text$_ZN12wxEvtHandler18SetPreviousHandlerEPS_,"x"
	.linkonce discard
	.align 2
	.globl	_ZN12wxEvtHandler18SetPreviousHandlerEPS_
	.def	_ZN12wxEvtHandler18SetPreviousHandlerEPS_;	.scl	2;	.type	32;	.endef
	.seh_proc	_ZN12wxEvtHandler18SetPreviousHandlerEPS_
_ZN12wxEvtHandler18SetPreviousHandlerEPS_:
.LFB10578:
	.loc 20 3347 18
	.cfi_startproc
	pushq	%rbp
	.seh_pushreg	%rbp
	.cfi_def_cfa_offset 16
	.cfi_offset 6, -16
	movq	%rsp, %rbp
	.seh_setframe	%rbp, 0
	.cfi_def_cfa_register 6
	.seh_endprologue
	movq	%rcx, 16(%rbp)
	movq	%rdx, 24(%rbp)
	.loc 20 3347 80
	movq	16(%rbp), %rax
	movq	24(%rbp), %rdx
	movq	%rdx, 32(%rax)
	.loc 20 3347 91
	nop
	popq	%rbp
	.cfi_restore 6
	.cfi_def_cfa 7, 8
	ret
	.cfi_endproc
.LFE10578:
	.seh_endproc
	.section	.text$_ZN12wxEvtHandler15AddPendingEventERK7wxEvent,"x"
	.linkonce discard
	.align 2
	.globl	_ZN12wxEvtHandler15AddPendingEventERK7wxEvent
	.def	_ZN12wxEvtHandler15AddPendingEventERK7wxEvent;	.scl	2;	.type	32;	.endef
	.seh_proc	_ZN12wxEvtHandler15AddPendingEventERK7wxEvent
_ZN12wxEvtHandler15AddPendingEventERK7wxEvent:
.LFB10581:
	.loc 20 3408 18
	.cfi_startproc
	pushq	%rbp
	.seh_pushreg	%rbp
	.cfi_def_cfa_offset 16
	.cfi_offset 6, -16
	pushq	%rbx
	.seh_pushreg	%rbx
	.cfi_def_cfa_offset 24
	.cfi_offset 3, -24
	subq	$40, %rsp
	.seh_stackalloc	40
	.cfi_def_cfa_offset 64
	leaq	128(%rsp), %rbp
	.seh_setframe	%rbp, 128
	.cfi_def_cfa 6, -64
	.seh_endprologue
	movq	%rcx, -64(%rbp)
	movq	%rdx, -56(%rbp)
	.loc 20 3416 33
	movq	-64(%rbp), %rax
	movq	(%rax), %rax
	addq	$64, %rax
	movq	(%rax), %rbx
	.loc 20 3416 32
	movq	-56(%rbp), %rax
	movq	(%rax), %rax
	addq	$40, %rax
	movq	(%rax), %rax
	.loc 20 3416 19
	movq	-56(%rbp), %rdx
	movq	%rdx, %rcx
	call	*%rax
.LVL2:
	movq	%rax, %rdx
	movq	-64(%rbp), %rcx
	call	*%rbx
.LVL3:
	.loc 20 3417 5
	nop
	addq	$40, %rsp
	popq	%rbx
	.cfi_restore 3
	popq	%rbp
	.cfi_restore 6
	.cfi_def_cfa 7, -24
	ret
	.cfi_endproc
.LFE10581:
	.seh_endproc
	.section	.text$_ZN12wxEvtHandler7ConnectEiiiMS_FvR7wxEventEP8wxObjectPS_,"x"
	.linkonce discard
	.align 2
	.globl	_ZN12wxEvtHandler7ConnectEiiiMS_FvR7wxEventEP8wxObjectPS_
	.def	_ZN12wxEvtHandler7ConnectEiiiMS_FvR7wxEventEP8wxObjectPS_;	.scl	2;	.type	32;	.endef
	.seh_proc	_ZN12wxEvtHandler7ConnectEiiiMS_FvR7wxEventEP8wxObjectPS_
_ZN12wxEvtHandler7ConnectEiiiMS_FvR7wxEventEP8wxObjectPS_:
.LFB10586:
	.loc 20 3490 10
	.cfi_startproc
	pushq	%rbp
	.seh_pushreg	%rbp
	.cfi_def_cfa_offset 16
	.cfi_offset 6, -16
	pushq	%rbx
	.seh_pushreg	%rbx
	.cfi_def_cfa_offset 24
	.cfi_offset 3, -24
	subq	$88, %rsp
	.seh_stackalloc	88
	.cfi_def_cfa_offset 112
	leaq	128(%rsp), %rbp
	.seh_setframe	%rbp, 128
	.cfi_def_cfa 6, -16
	.seh_endprologue
	movq	%rcx, -16(%rbp)
	movl	%edx, -8(%rbp)
	movl	%r8d, 0(%rbp)
	movl	%r9d, 8(%rbp)
	movq	16(%rbp), %rbx
	movq	(%rbx), %rax
	movq	8(%rbx), %rdx
	movq	%rax, -64(%rbp)
	movq	%rdx, -56(%rbp)
	.loc 20 3498 36
	movq	-64(%rbp), %rax
	movq	-56(%rbp), %rdx
	movq	%rax, -80(%rbp)
	movq	%rdx, -72(%rbp)
	movq	32(%rbp), %rcx
	leaq	-80(%rbp), %rdx
	leaq	8(%rbp), %rax
	movq	%rcx, %r8
	movq	%rax, %rcx
	call	_Z17wxNewEventFunctorRKiM12wxEvtHandlerFvR7wxEventEPS1_
	movq	%rax, %r9
	.loc 20 3497 15
	movl	8(%rbp), %r8d
	movl	0(%rbp), %ecx
	movl	-8(%rbp), %eax
	movq	24(%rbp), %rdx
	movq	%rdx, 40(%rsp)
	movq	%r9, 32(%rsp)
	movl	%r8d, %r9d
	movl	%ecx, %r8d
	movl	%eax, %edx
	movq	-16(%rbp), %rcx
	call	_ZN12wxEvtHandler6DoBindEiiiP14wxEventFunctorP8wxObject
	.loc 20 3500 5
	nop
	addq	$88, %rsp
	popq	%rbx
	.cfi_restore 3
	popq	%rbp
	.cfi_restore 6
	.cfi_def_cfa 7, -72
	ret
	.cfi_endproc
.LFE10586:
	.seh_endproc
	.section	.text$_ZN12wxEvtHandler7ConnectEiiMS_FvR7wxEventEP8wxObjectPS_,"x"
	.linkonce discard
	.align 2
	.globl	_ZN12wxEvtHandler7ConnectEiiMS_FvR7wxEventEP8wxObjectPS_
	.def	_ZN12wxEvtHandler7ConnectEiiMS_FvR7wxEventEP8wxObjectPS_;	.scl	2;	.type	32;	.endef
	.seh_proc	_ZN12wxEvtHandler7ConnectEiiMS_FvR7wxEventEP8wxObjectPS_
_ZN12wxEvtHandler7ConnectEiiMS_FvR7wxEventEP8wxObjectPS_:
.LFB10587:
	.loc 20 3503 10
	.cfi_startproc
	pushq	%rbp
	.seh_pushreg	%rbp
	.cfi_def_cfa_offset 16
	.cfi_offset 6, -16
	pushq	%rbx
	.seh_pushreg	%rbx
	.cfi_def_cfa_offset 24
	.cfi_offset 3, -24
	subq	$104, %rsp
	.seh_stackalloc	104
	.cfi_def_cfa_offset 128
	leaq	128(%rsp), %rbp
	.seh_setframe	%rbp, 128
	.cfi_def_cfa 6, 0
	.seh_endprologue
	movq	%rcx, 0(%rbp)
	movl	%edx, 8(%rbp)
	movl	%r8d, 16(%rbp)
	movq	%r9, %rbx
	movq	(%rbx), %rax
	movq	8(%rbx), %rdx
	movq	%rax, -48(%rbp)
	movq	%rdx, -40(%rbp)
	.loc 20 3508 18
	movq	-48(%rbp), %rax
	movq	-40(%rbp), %rdx
	movq	%rax, -64(%rbp)
	movq	%rdx, -56(%rbp)
	movl	16(%rbp), %ecx
	movl	8(%rbp), %edx
	movq	40(%rbp), %rax
	movq	%rax, 48(%rsp)
	movq	32(%rbp), %rax
	movq	%rax, 40(%rsp)
	leaq	-64(%rbp), %rax
	movq	%rax, 32(%rsp)
	movl	%ecx, %r9d
	movl	$-1, %r8d
	movq	0(%rbp), %rcx
	call	_ZN12wxEvtHandler7ConnectEiiiMS_FvR7wxEventEP8wxObjectPS_
	.loc 20 3508 75
	nop
	addq	$104, %rsp
	popq	%rbx
	.cfi_restore 3
	popq	%rbp
	.cfi_restore 6
	.cfi_def_cfa 7, -88
	ret
	.cfi_endproc
.LFE10587:
	.seh_endproc
	.section	.text$_ZN12wxEvtHandler12TryValidatorER7wxEvent,"x"
	.linkonce discard
	.align 2
	.globl	_ZN12wxEvtHandler12TryValidatorER7wxEvent
	.def	_ZN12wxEvtHandler12TryValidatorER7wxEvent;	.scl	2;	.type	32;	.endef
	.seh_proc	_ZN12wxEvtHandler12TryValidatorER7wxEvent
_ZN12wxEvtHandler12TryValidatorER7wxEvent:
.LFB10605:
	.loc 20 3703 46
	.cfi_startproc
	pushq	%rbp
	.seh_pushreg	%rbp
	.cfi_def_cfa_offset 16
	.cfi_offset 6, -16
	movq	%rsp, %rbp
	.seh_setframe	%rbp, 0
	.cfi_def_cfa_register 6
	.seh_endprologue
	movq	%rcx, 16(%rbp)
	movq	%rdx, 24(%rbp)
	.loc 20 3703 79
	movl	$0, %eax
	.loc 20 3703 86
	popq	%rbp
	.cfi_restore 6
	.cfi_def_cfa 7, 8
	ret
	.cfi_endproc
.LFE10605:
	.seh_endproc
	.section	.text$_ZN12wxEvtHandler9TryParentER7wxEvent,"x"
	.linkonce discard
	.align 2
	.globl	_ZN12wxEvtHandler9TryParentER7wxEvent
	.def	_ZN12wxEvtHandler9TryParentER7wxEvent;	.scl	2;	.type	32;	.endef
	.seh_proc	_ZN12wxEvtHandler9TryParentER7wxEvent
_ZN12wxEvtHandler9TryParentER7wxEvent:
.LFB10606:
	.loc 20 3706 46
	.cfi_startproc
	pushq	%rbp
	.seh_pushreg	%rbp
	.cfi_def_cfa_offset 16
	.cfi_offset 6, -16
	movq	%rsp, %rbp
	.seh_setframe	%rbp, 0
	.cfi_def_cfa_register 6
	subq	$32, %rsp
	.seh_stackalloc	32
	.seh_endprologue
	movq	%rcx, 16(%rbp)
	movq	%rdx, 24(%rbp)
	.loc 20 3706 89
	movq	24(%rbp), %rax
	movq	%rax, %rdx
	movq	16(%rbp), %rcx
	call	_ZN12wxEvtHandler8DoTryAppER7wxEvent
	.loc 20 3706 98
	addq	$32, %rsp
	popq	%rbp
	.cfi_restore 6
	.cfi_def_cfa 7, 8
	ret
	.cfi_endproc
.LFE10606:
	.seh_endproc
	.section	.text$_ZN20wxObjectEventFunctorclEP12wxEvtHandlerR7wxEvent,"x"
	.linkonce discard
	.align 2
	.globl	_ZN20wxObjectEventFunctorclEP12wxEvtHandlerR7wxEvent
	.def	_ZN20wxObjectEventFunctorclEP12wxEvtHandlerR7wxEvent;	.scl	2;	.type	32;	.endef
	.seh_proc	_ZN20wxObjectEventFunctorclEP12wxEvtHandlerR7wxEvent
_ZN20wxObjectEventFunctorclEP12wxEvtHandlerR7wxEvent:
.LFB10697:
	.loc 20 3775 1
	.cfi_startproc
	pushq	%rbp
	.seh_pushreg	%rbp
	.cfi_def_cfa_offset 16
	.cfi_offset 6, -16
	movq	%rsp, %rbp
	.seh_setframe	%rbp, 0
	.cfi_def_cfa_register 6
	subq	$48, %rsp
	.seh_stackalloc	48
	.seh_endprologue
	movq	%rcx, 16(%rbp)
	movq	%rdx, 24(%rbp)
	movq	%r8, 32(%rbp)
	.loc 20 3776 40
	movq	16(%rbp), %rax
	movq	8(%rax), %rax
	.loc 20 3776 50
	testq	%rax, %rax
	je	.L140
	.loc 20 3776 50 is_stmt 0 discriminator 1
	movq	16(%rbp), %rax
	movq	8(%rax), %rax
	jmp	.L141
.L140:
	.loc 20 3776 50 discriminator 2
	movq	24(%rbp), %rax
.L141:
	.loc 20 3776 26 is_stmt 1 discriminator 4
	movq	%rax, -8(%rbp)
	.loc 20 3778 35 discriminator 4
	movq	16(%rbp), %rax
	movq	24(%rax), %rax
	.loc 20 3778 29 discriminator 4
	movq	%rax, %rdx
	movq	-8(%rbp), %rax
	leaq	(%rdx,%rax), %rcx
	.loc 20 3778 35 discriminator 4
	movq	16(%rbp), %rax
	movq	16(%rax), %rax
	andl	$1, %eax
	testq	%rax, %rax
	je	.L142
	.loc 20 3778 35 is_stmt 0 discriminator 1
	movq	16(%rbp), %rax
	movq	24(%rax), %rax
	movq	%rax, %rdx
	movq	-8(%rbp), %rax
	addq	%rdx, %rax
	movq	(%rax), %rdx
	movq	16(%rbp), %rax
	movq	16(%rax), %rax
	subq	$1, %rax
	addq	%rdx, %rax
	movq	(%rax), %rax
	jmp	.L143
.L142:
	.loc 20 3778 35 discriminator 2
	movq	16(%rbp), %rax
	movq	16(%rax), %rax
.L143:
	.loc 20 3778 29 is_stmt 1 discriminator 4
	movq	32(%rbp), %rdx
	call	*%rax
.LVL4:
	.loc 20 3779 1 discriminator 4
	nop
	addq	$48, %rsp
	popq	%rbp
	.cfi_restore 6
	.cfi_def_cfa 7, 8
	ret
	.cfi_endproc
.LFE10697:
	.seh_endproc
	.section	.text$_ZN10wxFontBaseC2Ev,"x"
	.linkonce discard
	.align 2
	.globl	_ZN10wxFontBaseC2Ev
	.def	_ZN10wxFontBaseC2Ev;	.scl	2;	.type	32;	.endef
	.seh_proc	_ZN10wxFontBaseC2Ev
_ZN10wxFontBaseC2Ev:
.LFB10761:
	.file 21 "../wxMSW-3.0.5_gcc810_x64_Dev/include/wx/font.h"
	.loc 21 258 7
	.cfi_startproc
	pushq	%rbp
	.seh_pushreg	%rbp
	.cfi_def_cfa_offset 16
	.cfi_offset 6, -16
	movq	%rsp, %rbp
	.seh_setframe	%rbp, 0
	.cfi_def_cfa_register 6
	subq	$32, %rsp
	.seh_stackalloc	32
	.seh_endprologue
	movq	%rcx, 16(%rbp)
.LBB39:
	.loc 21 258 7
	movq	16(%rbp), %rax
	movq	%rax, %rcx
	call	_ZN11wxGDIObjectC2Ev
	movq	.refptr._ZTV10wxFontBase(%rip), %rax
	leaq	16(%rax), %rdx
	movq	16(%rbp), %rax
	movq	%rdx, (%rax)
.LBE39:
	nop
	addq	$32, %rsp
	popq	%rbp
	.cfi_restore 6
	.cfi_def_cfa 7, 8
	ret
	.cfi_endproc
.LFE10761:
	.seh_endproc
	.section	.text$_ZN6wxFontC1Ei12wxFontFamily11wxFontStyle12wxFontWeightbRK8wxString14wxFontEncoding,"x"
	.linkonce discard
	.align 2
	.globl	_ZN6wxFontC1Ei12wxFontFamily11wxFontStyle12wxFontWeightbRK8wxString14wxFontEncoding
	.def	_ZN6wxFontC1Ei12wxFontFamily11wxFontStyle12wxFontWeightbRK8wxString14wxFontEncoding;	.scl	2;	.type	32;	.endef
	.seh_proc	_ZN6wxFontC1Ei12wxFontFamily11wxFontStyle12wxFontWeightbRK8wxString14wxFontEncoding
_ZN6wxFontC1Ei12wxFontFamily11wxFontStyle12wxFontWeightbRK8wxString14wxFontEncoding:
.LFB10770:
	.file 22 "../wxMSW-3.0.5_gcc810_x64_Dev/include/wx/msw/font.h"
	.loc 22 41 5
	.cfi_startproc
	pushq	%rbp
	.seh_pushreg	%rbp
	.cfi_def_cfa_offset 16
	.cfi_offset 6, -16
	pushq	%rbx
	.seh_pushreg	%rbx
	.cfi_def_cfa_offset 24
	.cfi_offset 3, -24
	subq	$88, %rsp
	.seh_stackalloc	88
	.cfi_def_cfa_offset 112
	leaq	128(%rsp), %rbp
	.seh_setframe	%rbp, 128
	.cfi_def_cfa 6, -16
	.seh_endprologue
	movq	%rcx, -16(%rbp)
	movl	%edx, -8(%rbp)
	movl	%r8d, 0(%rbp)
	movl	%r9d, 8(%rbp)
	movl	24(%rbp), %eax
	movb	%al, -52(%rbp)
.LBB40:
	.loc 22 48 5
	movq	-16(%rbp), %rax
	movq	%rax, %rcx
	call	_ZN10wxFontBaseC2Ev
	movq	.refptr._ZTV6wxFont(%rip), %rax
	leaq	16(%rax), %rdx
	movq	-16(%rbp), %rax
	movq	%rdx, (%rax)
	.loc 22 49 15
	movzbl	-52(%rbp), %eax
	movl	8(%rbp), %r9d
	movl	0(%rbp), %r8d
	movl	-8(%rbp), %edx
	movl	40(%rbp), %ecx
	movl	%ecx, 56(%rsp)
	movq	32(%rbp), %rcx
	movq	%rcx, 48(%rsp)
	movl	%eax, 40(%rsp)
	movl	16(%rbp), %eax
	movl	%eax, 32(%rsp)
	movq	-16(%rbp), %rcx
.LEHB13:
	call	_ZN6wxFont6CreateEi12wxFontFamily11wxFontStyle12wxFontWeightbRK8wxString14wxFontEncoding
.LEHE13:
.LBE40:
	.loc 22 50 5
	jmp	.L148
.L147:
	movq	%rax, %rbx
.LBB41:
	.loc 22 48 5
	movq	-16(%rbp), %rax
	movq	%rax, %rcx
	call	_ZN10wxFontBaseD2Ev
	movq	%rbx, %rax
	movq	%rax, %rcx
.LEHB14:
	call	_Unwind_Resume
	nop
.LEHE14:
.L148:
.LBE41:
	.loc 22 50 5
	addq	$88, %rsp
	popq	%rbx
	.cfi_restore 3
	popq	%rbp
	.cfi_restore 6
	.cfi_def_cfa 7, -72
	ret
	.cfi_endproc
.LFE10770:
	.seh_handler	__gxx_personality_seh0, @unwind, @except
	.seh_handlerdata
.LLSDA10770:
	.byte	0xff
	.byte	0xff
	.byte	0x1
	.uleb128 .LLSDACSE10770-.LLSDACSB10770
.LLSDACSB10770:
	.uleb128 .LEHB13-.LFB10770
	.uleb128 .LEHE13-.LEHB13
	.uleb128 .L147-.LFB10770
	.uleb128 0
	.uleb128 .LEHB14-.LFB10770
	.uleb128 .LEHE14-.LEHB14
	.uleb128 0
	.uleb128 0
.LLSDACSE10770:
	.section	.text$_ZN6wxFontC1Ei12wxFontFamily11wxFontStyle12wxFontWeightbRK8wxString14wxFontEncoding,"x"
	.linkonce discard
	.seh_endproc
	.section	.text$_ZN6wxFont6CreateEi12wxFontFamily11wxFontStyle12wxFontWeightbRK8wxString14wxFontEncoding,"x"
	.linkonce discard
	.align 2
	.globl	_ZN6wxFont6CreateEi12wxFontFamily11wxFontStyle12wxFontWeightbRK8wxString14wxFontEncoding
	.def	_ZN6wxFont6CreateEi12wxFontFamily11wxFontStyle12wxFontWeightbRK8wxString14wxFontEncoding;	.scl	2;	.type	32;	.endef
	.seh_proc	_ZN6wxFont6CreateEi12wxFontFamily11wxFontStyle12wxFontWeightbRK8wxString14wxFontEncoding
_ZN6wxFont6CreateEi12wxFontFamily11wxFontStyle12wxFontWeightbRK8wxString14wxFontEncoding:
.LFB10771:
	.loc 22 52 10
	.cfi_startproc
	pushq	%rbp
	.seh_pushreg	%rbp
	.cfi_def_cfa_offset 16
	.cfi_offset 6, -16
	movq	%rsp, %rbp
	.seh_setframe	%rbp, 0
	.cfi_def_cfa_register 6
	subq	$96, %rsp
	.seh_stackalloc	96
	.seh_endprologue
	movq	%rcx, 16(%rbp)
	movl	%edx, 24(%rbp)
	movl	%r8d, 32(%rbp)
	movl	%r9d, 40(%rbp)
	movl	56(%rbp), %eax
	movb	%al, -4(%rbp)
	.loc 22 60 24
	movzbl	-4(%rbp), %eax
	movl	24(%rbp), %edx
	movl	72(%rbp), %ecx
	movl	%ecx, 72(%rsp)
	movq	64(%rbp), %rcx
	movq	%rcx, 64(%rsp)
	movl	%eax, 56(%rsp)
	movl	48(%rbp), %eax
	movl	%eax, 48(%rsp)
	movl	40(%rbp), %eax
	movl	%eax, 40(%rsp)
	movl	32(%rbp), %eax
	movl	%eax, 32(%rsp)
	movl	$0, %r9d
	movq	.refptr.wxDefaultSize(%rip), %r8
	movq	16(%rbp), %rcx
	call	_ZN6wxFont8DoCreateEiRK6wxSizeb12wxFontFamily11wxFontStyle12wxFontWeightbRK8wxString14wxFontEncoding
	.loc 22 62 5
	addq	$96, %rsp
	popq	%rbp
	.cfi_restore 6
	.cfi_def_cfa 7, 8
	ret
	.cfi_endproc
.LFE10771:
	.seh_endproc
	.section	.text$_Z16wxGetTranslationRK8wxStringS1_,"x"
	.linkonce discard
	.globl	_Z16wxGetTranslationRK8wxStringS1_
	.def	_Z16wxGetTranslationRK8wxStringS1_;	.scl	2;	.type	32;	.endef
	.seh_proc	_Z16wxGetTranslationRK8wxStringS1_
_Z16wxGetTranslationRK8wxStringS1_:
.LFB10896:
	.file 23 "../wxMSW-3.0.5_gcc810_x64_Dev/include/wx/translation.h"
	.loc 23 245 1
	.cfi_startproc
	pushq	%rbp
	.seh_pushreg	%rbp
	.cfi_def_cfa_offset 16
	.cfi_offset 6, -16
	movq	%rsp, %rbp
	.seh_setframe	%rbp, 0
	.cfi_def_cfa_register 6
	subq	$48, %rsp
	.seh_stackalloc	48
	.seh_endprologue
	movq	%rcx, 16(%rbp)
	movq	%rdx, 24(%rbp)
	.loc 23 246 48
	call	_ZN14wxTranslations3GetEv
	movq	%rax, -8(%rbp)
	.loc 23 247 38
	cmpq	$0, -8(%rbp)
	je	.L152
	.loc 23 247 66 discriminator 1
	movq	24(%rbp), %rdx
	movq	-8(%rbp), %rax
	movq	%rdx, %r8
	movq	16(%rbp), %rdx
	movq	%rax, %rcx
	call	_ZNK14wxTranslations19GetTranslatedStringERK8wxStringS2_
	jmp	.L153
.L152:
	.loc 23 247 38 discriminator 2
	movl	$0, %eax
.L153:
	.loc 23 248 39
	movq	%rax, -16(%rbp)
	.loc 23 249 5
	cmpq	$0, -16(%rbp)
	je	.L154
	.loc 23 250 17
	movq	-16(%rbp), %rax
	jmp	.L155
.L154:
	.loc 23 254 57
	movq	16(%rbp), %rcx
	call	_ZN14wxTranslations21GetUntranslatedStringERK8wxString
.L155:
	.loc 23 255 1
	addq	$48, %rsp
	popq	%rbp
	.cfi_restore 6
	.cfi_def_cfa 7, 8
	ret
	.cfi_endproc
.LFE10896:
	.seh_endproc
	.section	.text$_ZN11wxValidatorC2ERKS_,"x"
	.linkonce discard
	.align 2
	.globl	_ZN11wxValidatorC2ERKS_
	.def	_ZN11wxValidatorC2ERKS_;	.scl	2;	.type	32;	.endef
	.seh_proc	_ZN11wxValidatorC2ERKS_
_ZN11wxValidatorC2ERKS_:
.LFB10916:
	.file 24 "../wxMSW-3.0.5_gcc810_x64_Dev/include/wx/validate.h"
	.loc 24 39 5
	.cfi_startproc
	pushq	%rbp
	.seh_pushreg	%rbp
	.cfi_def_cfa_offset 16
	.cfi_offset 6, -16
	movq	%rsp, %rbp
	.seh_setframe	%rbp, 0
	.cfi_def_cfa_register 6
	subq	$32, %rsp
	.seh_stackalloc	32
	.seh_endprologue
	movq	%rcx, 16(%rbp)
	movq	%rdx, 24(%rbp)
.LBB42:
	.loc 24 41 52
	movq	16(%rbp), %rax
	movq	%rax, %rcx
	call	_ZN12wxEvtHandlerC2Ev
	movq	.refptr._ZTV11wxValidator(%rip), %rax
	leaq	16(%rax), %rdx
	movq	16(%rbp), %rax
	movq	%rdx, (%rax)
	.loc 24 41 35
	movq	24(%rbp), %rax
	movq	120(%rax), %rdx
	.loc 24 41 52
	movq	16(%rbp), %rax
	movq	%rdx, 120(%rax)
.LBE42:
	.loc 24 43 5
	nop
	addq	$32, %rsp
	popq	%rbp
	.cfi_restore 6
	.cfi_def_cfa 7, 8
	ret
	.cfi_endproc
.LFE10916:
	.seh_endproc
	.section	.text$_ZNK11wxValidator5CloneEv,"x"
	.linkonce discard
	.align 2
	.globl	_ZNK11wxValidator5CloneEv
	.def	_ZNK11wxValidator5CloneEv;	.scl	2;	.type	32;	.endef
	.seh_proc	_ZNK11wxValidator5CloneEv
_ZNK11wxValidator5CloneEv:
.LFB10918:
	.loc 24 50 23
	.cfi_startproc
	pushq	%rbp
	.seh_pushreg	%rbp
	.cfi_def_cfa_offset 16
	.cfi_offset 6, -16
	movq	%rsp, %rbp
	.seh_setframe	%rbp, 0
	.cfi_def_cfa_register 6
	.seh_endprologue
	movq	%rcx, 16(%rbp)
	.loc 24 51 17
	movl	$0, %eax
	.loc 24 51 23
	popq	%rbp
	.cfi_restore 6
	.cfi_def_cfa 7, 8
	ret
	.cfi_endproc
.LFE10918:
	.seh_endproc
	.section	.text$_ZN12wxWindowBase7SetNameERK8wxString,"x"
	.linkonce discard
	.align 2
	.globl	_ZN12wxWindowBase7SetNameERK8wxString
	.def	_ZN12wxWindowBase7SetNameERK8wxString;	.scl	2;	.type	32;	.endef
	.seh_proc	_ZN12wxWindowBase7SetNameERK8wxString
_ZN12wxWindowBase7SetNameERK8wxString:
.LFB11090:
	.file 25 "../wxMSW-3.0.5_gcc810_x64_Dev/include/wx/window.h"
	.loc 25 215 18
	.cfi_startproc
	pushq	%rbp
	.seh_pushreg	%rbp
	.cfi_def_cfa_offset 16
	.cfi_offset 6, -16
	movq	%rsp, %rbp
	.seh_setframe	%rbp, 0
	.cfi_def_cfa_register 6
	subq	$32, %rsp
	.seh_stackalloc	32
	.seh_endprologue
	movq	%rcx, 16(%rbp)
	movq	%rdx, 24(%rbp)
	.loc 25 215 67
	movq	16(%rbp), %rax
	addq	$408, %rax
	movq	24(%rbp), %rdx
	movq	%rax, %rcx
	call	_ZN8wxStringaSERKS_
	.loc 25 215 73
	nop
	addq	$32, %rsp
	popq	%rbp
	.cfi_restore 6
	.cfi_def_cfa 7, 8
	ret
	.cfi_endproc
.LFE11090:
	.seh_endproc
	.section	.text$_ZNK12wxWindowBase7GetNameEv,"x"
	.linkonce discard
	.align 2
	.globl	_ZNK12wxWindowBase7GetNameEv
	.def	_ZNK12wxWindowBase7GetNameEv;	.scl	2;	.type	32;	.endef
	.seh_proc	_ZNK12wxWindowBase7GetNameEv
_ZNK12wxWindowBase7GetNameEv:
.LFB11091:
	.loc 25 216 22
	.cfi_startproc
	pushq	%rbp
	.seh_pushreg	%rbp
	.cfi_def_cfa_offset 16
	.cfi_offset 6, -16
	movq	%rsp, %rbp
	.seh_setframe	%rbp, 0
	.cfi_def_cfa_register 6
	subq	$32, %rsp
	.seh_stackalloc	32
	.seh_endprologue
	movq	%rcx, 16(%rbp)
	movq	%rdx, 24(%rbp)
	.loc 25 216 47
	movq	24(%rbp), %rax
	addq	$408, %rax
	movq	%rax, %rdx
	movq	16(%rbp), %rcx
	call	_ZN8wxStringC1ERKS_
	.loc 25 216 61
	movq	16(%rbp), %rax
	addq	$32, %rsp
	popq	%rbp
	.cfi_restore 6
	.cfi_def_cfa 7, 8
	ret
	.cfi_endproc
.LFE11091:
	.seh_endproc
	.section	.text$_ZNK12wxWindowBase16GetWindowVariantEv,"x"
	.linkonce discard
	.align 2
	.globl	_ZNK12wxWindowBase16GetWindowVariantEv
	.def	_ZNK12wxWindowBase16GetWindowVariantEv;	.scl	2;	.type	32;	.endef
	.seh_proc	_ZNK12wxWindowBase16GetWindowVariantEv
_ZNK12wxWindowBase16GetWindowVariantEv:
.LFB11092:
	.loc 25 221 21
	.cfi_startproc
	pushq	%rbp
	.seh_pushreg	%rbp
	.cfi_def_cfa_offset 16
	.cfi_offset 6, -16
	movq	%rsp, %rbp
	.seh_setframe	%rbp, 0
	.cfi_def_cfa_register 6
	.seh_endprologue
	movq	%rcx, 16(%rbp)
	.loc 25 221 55
	movq	16(%rbp), %rax
	movl	504(%rax), %eax
	.loc 25 221 72
	popq	%rbp
	.cfi_restore 6
	.cfi_def_cfa 7, 8
	ret
	.cfi_endproc
.LFE11092:
	.seh_endproc
	.section	.text$_ZN12wxWindowBase13SetClientSizeERK6wxSize,"x"
	.linkonce discard
	.align 2
	.globl	_ZN12wxWindowBase13SetClientSizeERK6wxSize
	.def	_ZN12wxWindowBase13SetClientSizeERK6wxSize;	.scl	2;	.type	32;	.endef
	.seh_proc	_ZN12wxWindowBase13SetClientSizeERK6wxSize
_ZN12wxWindowBase13SetClientSizeERK6wxSize:
.LFB11107:
	.loc 25 293 10
	.cfi_startproc
	pushq	%rbp
	.seh_pushreg	%rbp
	.cfi_def_cfa_offset 16
	.cfi_offset 6, -16
	movq	%rsp, %rbp
	.seh_setframe	%rbp, 0
	.cfi_def_cfa_register 6
	subq	$32, %rsp
	.seh_stackalloc	32
	.seh_endprologue
	movq	%rcx, 16(%rbp)
	movq	%rdx, 24(%rbp)
	.loc 25 294 41
	movq	16(%rbp), %rax
	movq	(%rax), %rax
	addq	$1376, %rax
	movq	(%rax), %rax
	.loc 25 294 40
	movq	24(%rbp), %rdx
	movl	4(%rdx), %ecx
	.loc 25 294 32
	movq	24(%rbp), %rdx
	movl	(%rdx), %edx
	.loc 25 294 26
	movl	%ecx, %r8d
	movq	16(%rbp), %rcx
	call	*%rax
.LVL5:
	.loc 25 294 44
	nop
	addq	$32, %rsp
	popq	%rbp
	.cfi_restore 6
	.cfi_def_cfa 7, 8
	ret
	.cfi_endproc
.LFE11107:
	.seh_endproc
	.section	.text$_ZNK12wxWindowBase13GetClientSizeEv,"x"
	.linkonce discard
	.align 2
	.globl	_ZNK12wxWindowBase13GetClientSizeEv
	.def	_ZNK12wxWindowBase13GetClientSizeEv;	.scl	2;	.type	32;	.endef
	.seh_proc	_ZNK12wxWindowBase13GetClientSizeEv
_ZNK12wxWindowBase13GetClientSizeEv:
.LFB11116:
	.loc 25 332 12
	.cfi_startproc
	pushq	%rbp
	.seh_pushreg	%rbp
	.cfi_def_cfa_offset 16
	.cfi_offset 6, -16
	movq	%rsp, %rbp
	.seh_setframe	%rbp, 0
	.cfi_def_cfa_register 6
	subq	$48, %rsp
	.seh_stackalloc	48
	.seh_endprologue
	movq	%rcx, 16(%rbp)
	.loc 25 335 31
	movq	16(%rbp), %rax
	movq	(%rax), %rax
	addq	$1328, %rax
	movq	(%rax), %r9
	.loc 25 335 24
	leaq	-16(%rbp), %rdx
	leaq	-12(%rbp), %rax
	movq	%rdx, %r8
	movq	%rax, %rdx
	movq	16(%rbp), %rcx
	call	*%r9
.LVL6:
	.loc 25 337 16
	movl	-16(%rbp), %ecx
	movl	-12(%rbp), %edx
	leaq	-8(%rbp), %rax
	movl	%ecx, %r8d
	movq	%rax, %rcx
	call	_ZN6wxSizeC1Eii
	.loc 25 337 27
	movq	-8(%rbp), %rax
	.loc 25 338 5
	addq	$48, %rsp
	popq	%rbp
	.cfi_restore 6
	.cfi_def_cfa 7, 8
	ret
	.cfi_endproc
.LFE11116:
	.seh_endproc
	.section	.text$_ZN12wxWindowBase12SetSizeHintsEiiiiii,"x"
	.linkonce discard
	.align 2
	.globl	_ZN12wxWindowBase12SetSizeHintsEiiiiii
	.def	_ZN12wxWindowBase12SetSizeHintsEiiiiii;	.scl	2;	.type	32;	.endef
	.seh_proc	_ZN12wxWindowBase12SetSizeHintsEiiiiii
_ZN12wxWindowBase12SetSizeHintsEiiiiii:
.LFB11128:
	.loc 25 446 18
	.cfi_startproc
	pushq	%rbp
	.seh_pushreg	%rbp
	.cfi_def_cfa_offset 16
	.cfi_offset 6, -16
	movq	%rsp, %rbp
	.seh_setframe	%rbp, 0
	.cfi_def_cfa_register 6
	subq	$64, %rsp
	.seh_stackalloc	64
	.seh_endprologue
	movq	%rcx, 16(%rbp)
	movl	%edx, 24(%rbp)
	movl	%r8d, 32(%rbp)
	movl	%r9d, 40(%rbp)
	.loc 25 449 56
	movq	16(%rbp), %rax
	movq	(%rax), %rax
	addq	$1384, %rax
	movq	(%rax), %rax
	.loc 25 449 21
	movl	40(%rbp), %r9d
	movl	32(%rbp), %r8d
	movl	24(%rbp), %edx
	movl	64(%rbp), %ecx
	movl	%ecx, 48(%rsp)
	movl	56(%rbp), %ecx
	movl	%ecx, 40(%rsp)
	movl	48(%rbp), %ecx
	movl	%ecx, 32(%rsp)
	movq	16(%rbp), %rcx
	call	*%rax
.LVL7:
	.loc 25 449 59
	nop
	addq	$64, %rsp
	popq	%rbp
	.cfi_restore 6
	.cfi_def_cfa 7, 8
	ret
	.cfi_endproc
.LFE11128:
	.seh_endproc
	.section	.text$_ZN12wxWindowBase16SetMinClientSizeERK6wxSize,"x"
	.linkonce discard
	.align 2
	.globl	_ZN12wxWindowBase16SetMinClientSizeERK6wxSize
	.def	_ZN12wxWindowBase16SetMinClientSizeERK6wxSize;	.scl	2;	.type	32;	.endef
	.seh_proc	_ZN12wxWindowBase16SetMinClientSizeERK6wxSize
_ZN12wxWindowBase16SetMinClientSizeERK6wxSize:
.LFB11130:
	.loc 25 473 18
	.cfi_startproc
	pushq	%rbp
	.seh_pushreg	%rbp
	.cfi_def_cfa_offset 16
	.cfi_offset 6, -16
	pushq	%rbx
	.seh_pushreg	%rbx
	.cfi_def_cfa_offset 24
	.cfi_offset 3, -24
	subq	$56, %rsp
	.seh_stackalloc	56
	.cfi_def_cfa_offset 80
	leaq	128(%rsp), %rbp
	.seh_setframe	%rbp, 128
	.cfi_def_cfa 6, -48
	.seh_endprologue
	movq	%rcx, -48(%rbp)
	movq	%rdx, -40(%rbp)
	.loc 25 474 46
	movq	-48(%rbp), %rax
	movq	(%rax), %rax
	addq	$312, %rax
	movq	(%rax), %rbx
	.loc 25 474 45
	movq	-48(%rbp), %rax
	movq	(%rax), %rax
	addq	$256, %rax
	movq	(%rax), %rax
	movq	-40(%rbp), %rdx
	movq	-48(%rbp), %rcx
	call	*%rax
.LVL8:
	movq	%rax, -88(%rbp)
	.loc 25 474 21
	leaq	-88(%rbp), %rax
	movq	%rax, %rdx
	movq	-48(%rbp), %rcx
	call	*%rbx
.LVL9:
	.loc 25 474 49
	nop
	addq	$56, %rsp
	popq	%rbx
	.cfi_restore 3
	popq	%rbp
	.cfi_restore 6
	.cfi_def_cfa 7, -40
	ret
	.cfi_endproc
.LFE11130:
	.seh_endproc
	.section	.text$_ZN12wxWindowBase16SetMaxClientSizeERK6wxSize,"x"
	.linkonce discard
	.align 2
	.globl	_ZN12wxWindowBase16SetMaxClientSizeERK6wxSize
	.def	_ZN12wxWindowBase16SetMaxClientSizeERK6wxSize;	.scl	2;	.type	32;	.endef
	.seh_proc	_ZN12wxWindowBase16SetMaxClientSizeERK6wxSize
_ZN12wxWindowBase16SetMaxClientSizeERK6wxSize:
.LFB11131:
	.loc 25 475 18
	.cfi_startproc
	pushq	%rbp
	.seh_pushreg	%rbp
	.cfi_def_cfa_offset 16
	.cfi_offset 6, -16
	pushq	%rbx
	.seh_pushreg	%rbx
	.cfi_def_cfa_offset 24
	.cfi_offset 3, -24
	subq	$56, %rsp
	.seh_stackalloc	56
	.cfi_def_cfa_offset 80
	leaq	128(%rsp), %rbp
	.seh_setframe	%rbp, 128
	.cfi_def_cfa 6, -48
	.seh_endprologue
	movq	%rcx, -48(%rbp)
	movq	%rdx, -40(%rbp)
	.loc 25 476 46
	movq	-48(%rbp), %rax
	movq	(%rax), %rax
	addq	$320, %rax
	movq	(%rax), %rbx
	.loc 25 476 45
	movq	-48(%rbp), %rax
	movq	(%rax), %rax
	addq	$256, %rax
	movq	(%rax), %rax
	movq	-40(%rbp), %rdx
	movq	-48(%rbp), %rcx
	call	*%rax
.LVL10:
	movq	%rax, -88(%rbp)
	.loc 25 476 21
	leaq	-88(%rbp), %rax
	movq	%rax, %rdx
	movq	-48(%rbp), %rcx
	call	*%rbx
.LVL11:
	.loc 25 476 49
	nop
	addq	$56, %rsp
	popq	%rbx
	.cfi_restore 3
	popq	%rbp
	.cfi_restore 6
	.cfi_def_cfa 7, -40
	ret
	.cfi_endproc
.LFE11131:
	.seh_endproc
	.section	.text$_ZNK12wxWindowBase10GetMinSizeEv,"x"
	.linkonce discard
	.align 2
	.globl	_ZNK12wxWindowBase10GetMinSizeEv
	.def	_ZNK12wxWindowBase10GetMinSizeEv;	.scl	2;	.type	32;	.endef
	.seh_proc	_ZNK12wxWindowBase10GetMinSizeEv
_ZNK12wxWindowBase10GetMinSizeEv:
.LFB11132:
	.loc 25 481 20
	.cfi_startproc
	pushq	%rbp
	.seh_pushreg	%rbp
	.cfi_def_cfa_offset 16
	.cfi_offset 6, -16
	movq	%rsp, %rbp
	.seh_setframe	%rbp, 0
	.cfi_def_cfa_register 6
	subq	$48, %rsp
	.seh_stackalloc	48
	.seh_endprologue
	movq	%rcx, 16(%rbp)
	.loc 25 481 67
	movq	16(%rbp), %rax
	movl	180(%rax), %ecx
	.loc 25 481 55
	movq	16(%rbp), %rax
	movl	176(%rax), %edx
	.loc 25 481 48
	leaq	-8(%rbp), %rax
	movl	%ecx, %r8d
	movq	%rax, %rcx
	call	_ZN6wxSizeC1Eii
	.loc 25 481 78
	movq	-8(%rbp), %rax
	.loc 25 481 81
	addq	$48, %rsp
	popq	%rbp
	.cfi_restore 6
	.cfi_def_cfa 7, 8
	ret
	.cfi_endproc
.LFE11132:
	.seh_endproc
	.section	.text$_ZNK12wxWindowBase10GetMaxSizeEv,"x"
	.linkonce discard
	.align 2
	.globl	_ZNK12wxWindowBase10GetMaxSizeEv
	.def	_ZNK12wxWindowBase10GetMaxSizeEv;	.scl	2;	.type	32;	.endef
	.seh_proc	_ZNK12wxWindowBase10GetMaxSizeEv
_ZNK12wxWindowBase10GetMaxSizeEv:
.LFB11133:
	.loc 25 482 20
	.cfi_startproc
	pushq	%rbp
	.seh_pushreg	%rbp
	.cfi_def_cfa_offset 16
	.cfi_offset 6, -16
	movq	%rsp, %rbp
	.seh_setframe	%rbp, 0
	.cfi_def_cfa_register 6
	subq	$48, %rsp
	.seh_stackalloc	48
	.seh_endprologue
	movq	%rcx, 16(%rbp)
	.loc 25 482 67
	movq	16(%rbp), %rax
	movl	188(%rax), %ecx
	.loc 25 482 55
	movq	16(%rbp), %rax
	movl	184(%rax), %edx
	.loc 25 482 48
	leaq	-8(%rbp), %rax
	movl	%ecx, %r8d
	movq	%rax, %rcx
	call	_ZN6wxSizeC1Eii
	.loc 25 482 78
	movq	-8(%rbp), %rax
	.loc 25 482 81
	addq	$48, %rsp
	popq	%rbp
	.cfi_restore 6
	.cfi_def_cfa 7, 8
	ret
	.cfi_endproc
.LFE11133:
	.seh_endproc
	.section	.text$_ZNK12wxWindowBase16GetMinClientSizeEv,"x"
	.linkonce discard
	.align 2
	.globl	_ZNK12wxWindowBase16GetMinClientSizeEv
	.def	_ZNK12wxWindowBase16GetMinClientSizeEv;	.scl	2;	.type	32;	.endef
	.seh_proc	_ZNK12wxWindowBase16GetMinClientSizeEv
_ZNK12wxWindowBase16GetMinClientSizeEv:
.LFB11134:
	.loc 25 485 20
	.cfi_startproc
	pushq	%rbp
	.seh_pushreg	%rbp
	.cfi_def_cfa_offset 16
	.cfi_offset 6, -16
	pushq	%rbx
	.seh_pushreg	%rbx
	.cfi_def_cfa_offset 24
	.cfi_offset 3, -24
	subq	$56, %rsp
	.seh_stackalloc	56
	.cfi_def_cfa_offset 80
	leaq	128(%rsp), %rbp
	.seh_setframe	%rbp, 128
	.cfi_def_cfa 6, -48
	.seh_endprologue
	movq	%rcx, -48(%rbp)
	.loc 25 486 49
	movq	-48(%rbp), %rax
	movq	(%rax), %rax
	addq	$264, %rax
	movq	(%rax), %rbx
	.loc 25 486 48
	movq	-48(%rbp), %rax
	movq	(%rax), %rax
	addq	$344, %rax
	movq	(%rax), %rax
	movq	-48(%rbp), %rcx
	call	*%rax
.LVL12:
	movq	%rax, -88(%rbp)
	.loc 25 486 49
	leaq	-88(%rbp), %rax
	movq	%rax, %rdx
	movq	-48(%rbp), %rcx
	call	*%rbx
.LVL13:
	.loc 25 486 52
	addq	$56, %rsp
	popq	%rbx
	.cfi_restore 3
	popq	%rbp
	.cfi_restore 6
	.cfi_def_cfa 7, -40
	ret
	.cfi_endproc
.LFE11134:
	.seh_endproc
	.section	.text$_ZNK12wxWindowBase16GetMaxClientSizeEv,"x"
	.linkonce discard
	.align 2
	.globl	_ZNK12wxWindowBase16GetMaxClientSizeEv
	.def	_ZNK12wxWindowBase16GetMaxClientSizeEv;	.scl	2;	.type	32;	.endef
	.seh_proc	_ZNK12wxWindowBase16GetMaxClientSizeEv
_ZNK12wxWindowBase16GetMaxClientSizeEv:
.LFB11135:
	.loc 25 487 20
	.cfi_startproc
	pushq	%rbp
	.seh_pushreg	%rbp
	.cfi_def_cfa_offset 16
	.cfi_offset 6, -16
	pushq	%rbx
	.seh_pushreg	%rbx
	.cfi_def_cfa_offset 24
	.cfi_offset 3, -24
	subq	$56, %rsp
	.seh_stackalloc	56
	.cfi_def_cfa_offset 80
	leaq	128(%rsp), %rbp
	.seh_setframe	%rbp, 128
	.cfi_def_cfa 6, -48
	.seh_endprologue
	movq	%rcx, -48(%rbp)
	.loc 25 488 49
	movq	-48(%rbp), %rax
	movq	(%rax), %rax
	addq	$264, %rax
	movq	(%rax), %rbx
	.loc 25 488 48
	movq	-48(%rbp), %rax
	movq	(%rax), %rax
	addq	$352, %rax
	movq	(%rax), %rax
	movq	-48(%rbp), %rcx
	call	*%rax
.LVL14:
	movq	%rax, -88(%rbp)
	.loc 25 488 49
	leaq	-88(%rbp), %rax
	movq	%rax, %rdx
	movq	-48(%rbp), %rcx
	call	*%rbx
.LVL15:
	.loc 25 488 52
	addq	$56, %rsp
	popq	%rbx
	.cfi_restore 3
	popq	%rbp
	.cfi_restore 6
	.cfi_def_cfa 7, -40
	ret
	.cfi_endproc
.LFE11135:
	.seh_endproc
	.section	.text$_ZNK12wxWindowBase18GetBestVirtualSizeEv,"x"
	.linkonce discard
	.align 2
	.globl	_ZNK12wxWindowBase18GetBestVirtualSizeEv
	.def	_ZNK12wxWindowBase18GetBestVirtualSizeEv;	.scl	2;	.type	32;	.endef
	.seh_proc	_ZNK12wxWindowBase18GetBestVirtualSizeEv
_ZNK12wxWindowBase18GetBestVirtualSizeEv:
.LFB11144:
	.loc 25 527 20
	.cfi_startproc
	pushq	%rbp
	.seh_pushreg	%rbp
	.cfi_def_cfa_offset 16
	.cfi_offset 6, -16
	pushq	%rbx
	.seh_pushreg	%rbx
	.cfi_def_cfa_offset 24
	.cfi_offset 3, -24
	subq	$72, %rsp
	.seh_stackalloc	72
	.cfi_def_cfa_offset 96
	leaq	128(%rsp), %rbp
	.seh_setframe	%rbp, 128
	.cfi_def_cfa 6, -32
	.seh_endprologue
	movq	%rcx, -32(%rbp)
	.loc 25 529 38
	movq	-32(%rbp), %rcx
	call	_ZNK12wxWindowBase13GetClientSizeEv
	movq	%rax, -80(%rbp)
	.loc 25 530 34
	movq	-32(%rbp), %rcx
	call	_ZNK12wxWindowBase11GetBestSizeEv
	movq	%rax, -88(%rbp)
	.loc 25 532 16
	movl	-84(%rbp), %edx
	movl	-76(%rbp), %eax
	movl	%eax, %ecx
	call	_Z5wxMaxIiiEN24wxImplicitConversionTypeIT_T0_E5valueES1_S2_
	movl	%eax, %ebx
	movl	-88(%rbp), %edx
	movl	-80(%rbp), %eax
	movl	%eax, %ecx
	call	_Z5wxMaxIiiEN24wxImplicitConversionTypeIT_T0_E5valueES1_S2_
	movl	%eax, %edx
	leaq	-72(%rbp), %rax
	movl	%ebx, %r8d
	movq	%rax, %rcx
	call	_ZN6wxSizeC1Eii
	.loc 25 532 77
	movq	-72(%rbp), %rax
	.loc 25 533 5
	addq	$72, %rsp
	popq	%rbx
	.cfi_restore 3
	popq	%rbp
	.cfi_restore 6
	.cfi_def_cfa 7, -56
	ret
	.cfi_endproc
.LFE11144:
	.seh_endproc
	.section	.text$_ZNK12wxWindowBase21GetContentScaleFactorEv,"x"
	.linkonce discard
	.align 2
	.globl	_ZNK12wxWindowBase21GetContentScaleFactorEv
	.def	_ZNK12wxWindowBase21GetContentScaleFactorEv;	.scl	2;	.type	32;	.endef
	.seh_proc	_ZNK12wxWindowBase21GetContentScaleFactorEv
_ZNK12wxWindowBase21GetContentScaleFactorEv:
.LFB11145:
	.loc 25 537 20
	.cfi_startproc
	pushq	%rbp
	.seh_pushreg	%rbp
	.cfi_def_cfa_offset 16
	.cfi_offset 6, -16
	movq	%rsp, %rbp
	.seh_setframe	%rbp, 0
	.cfi_def_cfa_register 6
	.seh_endprologue
	movq	%rcx, 16(%rbp)
	.loc 25 538 14
	movsd	.LC7(%rip), %xmm0
	movq	%xmm0, %rax
	.loc 25 538 19
	movq	%rax, %xmm0
	popq	%rbp
	.cfi_restore 6
	.cfi_def_cfa 7, 8
	ret
	.cfi_endproc
.LFE11145:
	.seh_endproc
	.section	.text$_ZNK12wxWindowBase7IsShownEv,"x"
	.linkonce discard
	.align 2
	.globl	_ZNK12wxWindowBase7IsShownEv
	.def	_ZNK12wxWindowBase7IsShownEv;	.scl	2;	.type	32;	.endef
	.seh_proc	_ZNK12wxWindowBase7IsShownEv
_ZNK12wxWindowBase7IsShownEv:
.LFB11160:
	.loc 25 641 18
	.cfi_startproc
	pushq	%rbp
	.seh_pushreg	%rbp
	.cfi_def_cfa_offset 16
	.cfi_offset 6, -16
	movq	%rsp, %rbp
	.seh_setframe	%rbp, 0
	.cfi_def_cfa_register 6
	.seh_endprologue
	movq	%rcx, 16(%rbp)
	.loc 25 641 43
	movq	16(%rbp), %rax
	movzbl	392(%rax), %eax
	shrb	%al
	andl	$1, %eax
	.loc 25 641 54
	popq	%rbp
	.cfi_restore 6
	.cfi_def_cfa 7, 8
	ret
	.cfi_endproc
.LFE11160:
	.seh_endproc
	.section	.text$_ZNK12wxWindowBase18GetWindowStyleFlagEv,"x"
	.linkonce discard
	.align 2
	.globl	_ZNK12wxWindowBase18GetWindowStyleFlagEv
	.def	_ZNK12wxWindowBase18GetWindowStyleFlagEv;	.scl	2;	.type	32;	.endef
	.seh_proc	_ZNK12wxWindowBase18GetWindowStyleFlagEv
_ZNK12wxWindowBase18GetWindowStyleFlagEv:
.LFB11163:
	.loc 25 665 18
	.cfi_startproc
	pushq	%rbp
	.seh_pushreg	%rbp
	.cfi_def_cfa_offset 16
	.cfi_offset 6, -16
	movq	%rsp, %rbp
	.seh_setframe	%rbp, 0
	.cfi_def_cfa_register 6
	.seh_endprologue
	movq	%rcx, 16(%rbp)
	.loc 25 665 54
	movq	16(%rbp), %rax
	movl	396(%rax), %eax
	.loc 25 665 69
	popq	%rbp
	.cfi_restore 6
	.cfi_def_cfa 7, 8
	ret
	.cfi_endproc
.LFE11163:
	.seh_endproc
	.section	.text$_ZNK12wxWindowBase7HasFlagEi,"x"
	.linkonce discard
	.align 2
	.globl	_ZNK12wxWindowBase7HasFlagEi
	.def	_ZNK12wxWindowBase7HasFlagEi;	.scl	2;	.type	32;	.endef
	.seh_proc	_ZNK12wxWindowBase7HasFlagEi
_ZNK12wxWindowBase7HasFlagEi:
.LFB11166:
	.loc 25 672 10
	.cfi_startproc
	pushq	%rbp
	.seh_pushreg	%rbp
	.cfi_def_cfa_offset 16
	.cfi_offset 6, -16
	movq	%rsp, %rbp
	.seh_setframe	%rbp, 0
	.cfi_def_cfa_register 6
	.seh_endprologue
	movq	%rcx, 16(%rbp)
	movl	%edx, 24(%rbp)
	.loc 25 672 44
	movq	16(%rbp), %rax
	movl	396(%rax), %eax
	.loc 25 672 58
	andl	24(%rbp), %eax
	.loc 25 672 69
	testl	%eax, %eax
	setne	%al
	.loc 25 672 72
	popq	%rbp
	.cfi_restore 6
	.cfi_def_cfa 7, 8
	ret
	.cfi_endproc
.LFE11166:
	.seh_endproc
	.section	.text$_ZNK12wxWindowBase10IsRetainedEv,"x"
	.linkonce discard
	.align 2
	.globl	_ZNK12wxWindowBase10IsRetainedEv
	.def	_ZNK12wxWindowBase10IsRetainedEv;	.scl	2;	.type	32;	.endef
	.seh_proc	_ZNK12wxWindowBase10IsRetainedEv
_ZNK12wxWindowBase10IsRetainedEv:
.LFB11167:
	.loc 25 673 18
	.cfi_startproc
	pushq	%rbp
	.seh_pushreg	%rbp
	.cfi_def_cfa_offset 16
	.cfi_offset 6, -16
	movq	%rsp, %rbp
	.seh_setframe	%rbp, 0
	.cfi_def_cfa_register 6
	subq	$32, %rsp
	.seh_stackalloc	32
	.seh_endprologue
	movq	%rcx, 16(%rbp)
	.loc 25 673 53
	movl	$0, %edx
	movq	16(%rbp), %rcx
	call	_ZNK12wxWindowBase7HasFlagEi
	.loc 25 673 67
	addq	$32, %rsp
	popq	%rbp
	.cfi_restore 6
	.cfi_def_cfa 7, 8
	ret
	.cfi_endproc
.LFE11167:
	.seh_endproc
	.section	.text$_ZN12wxWindowBase15SetThemeEnabledEb,"x"
	.linkonce discard
	.align 2
	.globl	_ZN12wxWindowBase15SetThemeEnabledEb
	.def	_ZN12wxWindowBase15SetThemeEnabledEb;	.scl	2;	.type	32;	.endef
	.seh_proc	_ZN12wxWindowBase15SetThemeEnabledEb
_ZN12wxWindowBase15SetThemeEnabledEb:
.LFB11171:
	.loc 25 694 18
	.cfi_startproc
	pushq	%rbp
	.seh_pushreg	%rbp
	.cfi_def_cfa_offset 16
	.cfi_offset 6, -16
	movq	%rsp, %rbp
	.seh_setframe	%rbp, 0
	.cfi_def_cfa_register 6
	.seh_endprologue
	movq	%rcx, 16(%rbp)
	movl	%edx, %eax
	movb	%al, 24(%rbp)
	.loc 25 694 69
	movq	16(%rbp), %rdx
	movzbl	24(%rbp), %eax
	movb	%al, 456(%rdx)
	.loc 25 694 84
	nop
	popq	%rbp
	.cfi_restore 6
	.cfi_def_cfa 7, 8
	ret
	.cfi_endproc
.LFE11171:
	.seh_endproc
	.section	.text$_ZNK12wxWindowBase15GetThemeEnabledEv,"x"
	.linkonce discard
	.align 2
	.globl	_ZNK12wxWindowBase15GetThemeEnabledEv
	.def	_ZNK12wxWindowBase15GetThemeEnabledEv;	.scl	2;	.type	32;	.endef
	.seh_proc	_ZNK12wxWindowBase15GetThemeEnabledEv
_ZNK12wxWindowBase15GetThemeEnabledEv:
.LFB11172:
	.loc 25 695 18
	.cfi_startproc
	pushq	%rbp
	.seh_pushreg	%rbp
	.cfi_def_cfa_offset 16
	.cfi_offset 6, -16
	movq	%rsp, %rbp
	.seh_setframe	%rbp, 0
	.cfi_def_cfa_register 6
	.seh_endprologue
	movq	%rcx, 16(%rbp)
	.loc 25 695 51
	movq	16(%rbp), %rax
	movzbl	456(%rax), %eax
	.loc 25 695 67
	popq	%rbp
	.cfi_restore 6
	.cfi_def_cfa 7, 8
	ret
	.cfi_endproc
.LFE11172:
	.seh_endproc
	.section	.text$_ZNK12wxWindowBase12AcceptsFocusEv,"x"
	.linkonce discard
	.align 2
	.globl	_ZNK12wxWindowBase12AcceptsFocusEv
	.def	_ZNK12wxWindowBase12AcceptsFocusEv;	.scl	2;	.type	32;	.endef
	.seh_proc	_ZNK12wxWindowBase12AcceptsFocusEv
_ZNK12wxWindowBase12AcceptsFocusEv:
.LFB11174:
	.loc 25 724 18
	.cfi_startproc
	pushq	%rbp
	.seh_pushreg	%rbp
	.cfi_def_cfa_offset 16
	.cfi_offset 6, -16
	movq	%rsp, %rbp
	.seh_setframe	%rbp, 0
	.cfi_def_cfa_register 6
	.seh_endprologue
	movq	%rcx, 16(%rbp)
	.loc 25 724 48
	movl	$1, %eax
	.loc 25 724 54
	popq	%rbp
	.cfi_restore 6
	.cfi_def_cfa 7, 8
	ret
	.cfi_endproc
.LFE11174:
	.seh_endproc
	.section	.text$_ZNK12wxWindowBase23AcceptsFocusRecursivelyEv,"x"
	.linkonce discard
	.align 2
	.globl	_ZNK12wxWindowBase23AcceptsFocusRecursivelyEv
	.def	_ZNK12wxWindowBase23AcceptsFocusRecursivelyEv;	.scl	2;	.type	32;	.endef
	.seh_proc	_ZNK12wxWindowBase23AcceptsFocusRecursivelyEv
_ZNK12wxWindowBase23AcceptsFocusRecursivelyEv:
.LFB11175:
	.loc 25 730 18
	.cfi_startproc
	pushq	%rbp
	.seh_pushreg	%rbp
	.cfi_def_cfa_offset 16
	.cfi_offset 6, -16
	movq	%rsp, %rbp
	.seh_setframe	%rbp, 0
	.cfi_def_cfa_register 6
	subq	$32, %rsp
	.seh_stackalloc	32
	.seh_endprologue
	movq	%rcx, 16(%rbp)
	.loc 25 730 72
	movq	16(%rbp), %rax
	movq	(%rax), %rax
	addq	$576, %rax
	movq	(%rax), %rax
	.loc 25 730 71
	movq	16(%rbp), %rcx
	call	*%rax
.LVL16:
	.loc 25 730 75
	addq	$32, %rsp
	popq	%rbp
	.cfi_restore 6
	.cfi_def_cfa 7, 8
	ret
	.cfi_endproc
.LFE11175:
	.seh_endproc
	.section	.text$_ZNK12wxWindowBase24AcceptsFocusFromKeyboardEv,"x"
	.linkonce discard
	.align 2
	.globl	_ZNK12wxWindowBase24AcceptsFocusFromKeyboardEv
	.def	_ZNK12wxWindowBase24AcceptsFocusFromKeyboardEv;	.scl	2;	.type	32;	.endef
	.seh_proc	_ZNK12wxWindowBase24AcceptsFocusFromKeyboardEv
_ZNK12wxWindowBase24AcceptsFocusFromKeyboardEv:
.LFB11176:
	.loc 25 735 18
	.cfi_startproc
	pushq	%rbp
	.seh_pushreg	%rbp
	.cfi_def_cfa_offset 16
	.cfi_offset 6, -16
	movq	%rsp, %rbp
	.seh_setframe	%rbp, 0
	.cfi_def_cfa_register 6
	subq	$32, %rsp
	.seh_stackalloc	32
	.seh_endprologue
	movq	%rcx, 16(%rbp)
	.loc 25 735 73
	movq	16(%rbp), %rax
	movq	(%rax), %rax
	addq	$576, %rax
	movq	(%rax), %rax
	.loc 25 735 72
	movq	16(%rbp), %rcx
	call	*%rax
.LVL17:
	.loc 25 735 76
	addq	$32, %rsp
	popq	%rbp
	.cfi_restore 6
	.cfi_def_cfa 7, 8
	ret
	.cfi_endproc
.LFE11176:
	.seh_endproc
	.section	.text$_ZNK12wxWindowBase12CanBeFocusedEv,"x"
	.linkonce discard
	.align 2
	.globl	_ZNK12wxWindowBase12CanBeFocusedEv
	.def	_ZNK12wxWindowBase12CanBeFocusedEv;	.scl	2;	.type	32;	.endef
	.seh_proc	_ZNK12wxWindowBase12CanBeFocusedEv
_ZNK12wxWindowBase12CanBeFocusedEv:
.LFB11177:
	.loc 25 744 18
	.cfi_startproc
	pushq	%rbp
	.seh_pushreg	%rbp
	.cfi_def_cfa_offset 16
	.cfi_offset 6, -16
	movq	%rsp, %rbp
	.seh_setframe	%rbp, 0
	.cfi_def_cfa_register 6
	subq	$32, %rsp
	.seh_stackalloc	32
	.seh_endprologue
	movq	%rcx, 16(%rbp)
	.loc 25 744 56
	movq	16(%rbp), %rax
	movq	(%rax), %rax
	addq	$480, %rax
	movq	(%rax), %rax
	.loc 25 744 55
	movq	16(%rbp), %rcx
	call	*%rax
.LVL18:
	.loc 25 744 58
	testb	%al, %al
	je	.L200
	.loc 25 744 70 discriminator 1
	movq	16(%rbp), %rcx
	call	_ZNK12wxWindowBase9IsEnabledEv
	.loc 25 744 58 discriminator 1
	testb	%al, %al
	je	.L200
	.loc 25 744 58 is_stmt 0 discriminator 3
	movl	$1, %eax
	jmp	.L201
.L200:
	.loc 25 744 58 discriminator 4
	movl	$0, %eax
.L201:
	.loc 25 744 74 is_stmt 1 discriminator 6
	addq	$32, %rsp
	popq	%rbp
	.cfi_restore 6
	.cfi_def_cfa 7, 8
	ret
	.cfi_endproc
.LFE11177:
	.seh_endproc
	.section	.text$_ZN12wxWindowBase11SetCanFocusEb,"x"
	.linkonce discard
	.align 2
	.globl	_ZN12wxWindowBase11SetCanFocusEb
	.def	_ZN12wxWindowBase11SetCanFocusEb;	.scl	2;	.type	32;	.endef
	.seh_proc	_ZN12wxWindowBase11SetCanFocusEb
_ZN12wxWindowBase11SetCanFocusEb:
.LFB11181:
	.loc 25 762 18
	.cfi_startproc
	pushq	%rbp
	.seh_pushreg	%rbp
	.cfi_def_cfa_offset 16
	.cfi_offset 6, -16
	movq	%rsp, %rbp
	.seh_setframe	%rbp, 0
	.cfi_def_cfa_register 6
	.seh_endprologue
	movq	%rcx, 16(%rbp)
	movl	%edx, %eax
	movb	%al, 24(%rbp)
	.loc 25 762 39
	nop
	popq	%rbp
	.cfi_restore 6
	.cfi_def_cfa 7, 8
	ret
	.cfi_endproc
.LFE11181:
	.seh_endproc
	.section	.text$_ZNK12wxWindowBase17IsClientAreaChildEPK8wxWindow,"x"
	.linkonce discard
	.align 2
	.globl	_ZNK12wxWindowBase17IsClientAreaChildEPK8wxWindow
	.def	_ZNK12wxWindowBase17IsClientAreaChildEPK8wxWindow;	.scl	2;	.type	32;	.endef
	.seh_proc	_ZNK12wxWindowBase17IsClientAreaChildEPK8wxWindow
_ZNK12wxWindowBase17IsClientAreaChildEPK8wxWindow:
.LFB11192:
	.loc 25 824 18
	.cfi_startproc
	pushq	%rbp
	.seh_pushreg	%rbp
	.cfi_def_cfa_offset 16
	.cfi_offset 6, -16
	movq	%rsp, %rbp
	.seh_setframe	%rbp, 0
	.cfi_def_cfa_register 6
	.seh_endprologue
	movq	%rcx, 16(%rbp)
	movq	%rdx, 24(%rbp)
	.loc 25 825 18
	movl	$1, %eax
	.loc 25 825 24
	popq	%rbp
	.cfi_restore 6
	.cfi_def_cfa 7, 8
	ret
	.cfi_endproc
.LFE11192:
	.seh_endproc
	.section	.text$_ZN12wxWindowBase12GetValidatorEv,"x"
	.linkonce discard
	.align 2
	.globl	_ZN12wxWindowBase12GetValidatorEv
	.def	_ZN12wxWindowBase12GetValidatorEv;	.scl	2;	.type	32;	.endef
	.seh_proc	_ZN12wxWindowBase12GetValidatorEv
_ZN12wxWindowBase12GetValidatorEv:
.LFB11196:
	.loc 25 924 26
	.cfi_startproc
	pushq	%rbp
	.seh_pushreg	%rbp
	.cfi_def_cfa_offset 16
	.cfi_offset 6, -16
	movq	%rsp, %rbp
	.seh_setframe	%rbp, 0
	.cfi_def_cfa_register 6
	.seh_endprologue
	movq	%rcx, 16(%rbp)
	.loc 25 924 50
	movq	16(%rbp), %rax
	movq	200(%rax), %rax
	.loc 25 924 69
	popq	%rbp
	.cfi_restore 6
	.cfi_def_cfa 7, 8
	ret
	.cfi_endproc
.LFE11196:
	.seh_endproc
	.section	.text$_ZN18wxAcceleratorTableaSERKS_,"x"
	.linkonce discard
	.align 2
	.globl	_ZN18wxAcceleratorTableaSERKS_
	.def	_ZN18wxAcceleratorTableaSERKS_;	.scl	2;	.type	32;	.endef
	.seh_proc	_ZN18wxAcceleratorTableaSERKS_
_ZN18wxAcceleratorTableaSERKS_:
.LFB11198:
	.file 26 "../wxMSW-3.0.5_gcc810_x64_Dev/include/wx/msw/accel.h"
	.loc 26 20 7
	.cfi_startproc
	pushq	%rbp
	.seh_pushreg	%rbp
	.cfi_def_cfa_offset 16
	.cfi_offset 6, -16
	movq	%rsp, %rbp
	.seh_setframe	%rbp, 0
	.cfi_def_cfa_register 6
	subq	$32, %rsp
	.seh_stackalloc	32
	.seh_endprologue
	movq	%rcx, 16(%rbp)
	movq	%rdx, 24(%rbp)
	.loc 26 20 7
	movq	16(%rbp), %rax
	movq	24(%rbp), %rdx
	movq	%rax, %rcx
	call	_ZN8wxObjectaSERKS_
	movq	16(%rbp), %rax
	addq	$32, %rsp
	popq	%rbp
	.cfi_restore 6
	.cfi_def_cfa 7, 8
	ret
	.cfi_endproc
.LFE11198:
	.seh_endproc
	.section	.text$_ZN12wxWindowBase19SetAcceleratorTableERK18wxAcceleratorTable,"x"
	.linkonce discard
	.align 2
	.globl	_ZN12wxWindowBase19SetAcceleratorTableERK18wxAcceleratorTable
	.def	_ZN12wxWindowBase19SetAcceleratorTableERK18wxAcceleratorTable;	.scl	2;	.type	32;	.endef
	.seh_proc	_ZN12wxWindowBase19SetAcceleratorTableERK18wxAcceleratorTable
_ZN12wxWindowBase19SetAcceleratorTableERK18wxAcceleratorTable:
.LFB11197:
	.loc 25 943 18
	.cfi_startproc
	pushq	%rbp
	.seh_pushreg	%rbp
	.cfi_def_cfa_offset 16
	.cfi_offset 6, -16
	movq	%rsp, %rbp
	.seh_setframe	%rbp, 0
	.cfi_def_cfa_register 6
	subq	$32, %rsp
	.seh_stackalloc	32
	.seh_endprologue
	movq	%rcx, 16(%rbp)
	movq	%rdx, 24(%rbp)
	.loc 25 944 32
	movq	16(%rbp), %rax
	addq	$336, %rax
	movq	24(%rbp), %rdx
	movq	%rax, %rcx
	call	_ZN18wxAcceleratorTableaSERKS_
	.loc 25 944 39
	nop
	addq	$32, %rsp
	popq	%rbp
	.cfi_restore 6
	.cfi_def_cfa 7, 8
	ret
	.cfi_endproc
.LFE11197:
	.seh_endproc
	.section	.text$_ZNK12wxWindowBase10HasCaptureEv,"x"
	.linkonce discard
	.align 2
	.globl	_ZNK12wxWindowBase10HasCaptureEv
	.def	_ZNK12wxWindowBase10HasCaptureEv;	.scl	2;	.type	32;	.endef
	.seh_proc	_ZNK12wxWindowBase10HasCaptureEv
_ZNK12wxWindowBase10HasCaptureEv:
.LFB11202:
	.loc 25 995 18
	.cfi_startproc
	pushq	%rbp
	.seh_pushreg	%rbp
	.cfi_def_cfa_offset 16
	.cfi_offset 6, -16
	movq	%rsp, %rbp
	.seh_setframe	%rbp, 0
	.cfi_def_cfa_register 6
	subq	$32, %rsp
	.seh_stackalloc	32
	.seh_endprologue
	movq	%rcx, 16(%rbp)
	.loc 25 996 48
	call	_ZN12wxWindowBase10GetCaptureEv
	.loc 25 996 49
	cmpq	%rax, 16(%rbp)
	sete	%al
	.loc 25 996 52
	addq	$32, %rsp
	popq	%rbp
	.cfi_restore 6
	.cfi_def_cfa 7, 8
	ret
	.cfi_endproc
.LFE11202:
	.seh_endproc
	.section	.text$_ZN12wxWindowBase9PrepareDCER4wxDC,"x"
	.linkonce discard
	.align 2
	.globl	_ZN12wxWindowBase9PrepareDCER4wxDC
	.def	_ZN12wxWindowBase9PrepareDCER4wxDC;	.scl	2;	.type	32;	.endef
	.seh_proc	_ZN12wxWindowBase9PrepareDCER4wxDC
_ZN12wxWindowBase9PrepareDCER4wxDC:
.LFB11206:
	.loc 25 1028 18
	.cfi_startproc
	pushq	%rbp
	.seh_pushreg	%rbp
	.cfi_def_cfa_offset 16
	.cfi_offset 6, -16
	movq	%rsp, %rbp
	.seh_setframe	%rbp, 0
	.cfi_def_cfa_register 6
	.seh_endprologue
	movq	%rcx, 16(%rbp)
	movq	%rdx, 24(%rbp)
	.loc 25 1028 40
	nop
	popq	%rbp
	.cfi_restore 6
	.cfi_def_cfa 7, 8
	ret
	.cfi_endproc
.LFE11206:
	.seh_endproc
	.section	.text$_ZNK12wxWindowBase20GetDefaultAttributesEv,"x"
	.linkonce discard
	.align 2
	.globl	_ZNK12wxWindowBase20GetDefaultAttributesEv
	.def	_ZNK12wxWindowBase20GetDefaultAttributesEv;	.scl	2;	.type	32;	.endef
	.seh_proc	_ZNK12wxWindowBase20GetDefaultAttributesEv
_ZNK12wxWindowBase20GetDefaultAttributesEv:
.LFB11214:
	.loc 25 1065 32
	.cfi_startproc
	pushq	%rbp
	.seh_pushreg	%rbp
	.cfi_def_cfa_offset 16
	.cfi_offset 6, -16
	movq	%rsp, %rbp
	.seh_setframe	%rbp, 0
	.cfi_def_cfa_register 6
	subq	$32, %rsp
	.seh_stackalloc	32
	.seh_endprologue
	movq	%rcx, 16(%rbp)
	movq	%rdx, 24(%rbp)
	.loc 25 1067 60
	movq	24(%rbp), %rax
	movq	%rax, %rcx
	call	_ZNK12wxWindowBase16GetWindowVariantEv
	movl	%eax, %edx
	movq	16(%rbp), %rax
	movq	%rax, %rcx
	call	_ZN12wxWindowBase25GetClassDefaultAttributesE15wxWindowVariant
	.loc 25 1068 5
	movq	16(%rbp), %rax
	addq	$32, %rsp
	popq	%rbp
	.cfi_restore 6
	.cfi_def_cfa 7, 8
	ret
	.cfi_endproc
.LFE11214:
	.seh_endproc
	.section	.text$_ZNK12wxWindowBase24InheritsBackgroundColourEv,"x"
	.linkonce discard
	.align 2
	.globl	_ZNK12wxWindowBase24InheritsBackgroundColourEv
	.def	_ZNK12wxWindowBase24InheritsBackgroundColourEv;	.scl	2;	.type	32;	.endef
	.seh_proc	_ZNK12wxWindowBase24InheritsBackgroundColourEv
_ZNK12wxWindowBase24InheritsBackgroundColourEv:
.LFB11228:
	.loc 25 1084 10
	.cfi_startproc
	pushq	%rbp
	.seh_pushreg	%rbp
	.cfi_def_cfa_offset 16
	.cfi_offset 6, -16
	movq	%rsp, %rbp
	.seh_setframe	%rbp, 0
	.cfi_def_cfa_register 6
	.seh_endprologue
	movq	%rcx, 16(%rbp)
	.loc 25 1086 16
	movq	16(%rbp), %rax
	movzbl	392(%rax), %eax
	shrb	$7, %al
	.loc 25 1087 5
	popq	%rbp
	.cfi_restore 6
	.cfi_def_cfa 7, 8
	ret
	.cfi_endproc
.LFE11228:
	.seh_endproc
	.section	.text$_ZN12wxWindowBase24HasTransparentBackgroundEv,"x"
	.linkonce discard
	.align 2
	.globl	_ZN12wxWindowBase24HasTransparentBackgroundEv
	.def	_ZN12wxWindowBase24HasTransparentBackgroundEv;	.scl	2;	.type	32;	.endef
	.seh_proc	_ZN12wxWindowBase24HasTransparentBackgroundEv
_ZN12wxWindowBase24HasTransparentBackgroundEv:
.LFB11232:
	.loc 25 1109 18
	.cfi_startproc
	pushq	%rbp
	.seh_pushreg	%rbp
	.cfi_def_cfa_offset 16
	.cfi_offset 6, -16
	movq	%rsp, %rbp
	.seh_setframe	%rbp, 0
	.cfi_def_cfa_register 6
	.seh_endprologue
	movq	%rcx, 16(%rbp)
	.loc 25 1109 54
	movl	$0, %eax
	.loc 25 1109 61
	popq	%rbp
	.cfi_restore 6
	.cfi_def_cfa 7, 8
	ret
	.cfi_endproc
.LFE11232:
	.seh_endproc
	.section	.text$_ZNK12wxWindowBase16HasMultiplePagesEv,"x"
	.linkonce discard
	.align 2
	.globl	_ZNK12wxWindowBase16HasMultiplePagesEv
	.def	_ZNK12wxWindowBase16HasMultiplePagesEv;	.scl	2;	.type	32;	.endef
	.seh_proc	_ZNK12wxWindowBase16HasMultiplePagesEv
_ZNK12wxWindowBase16HasMultiplePagesEv:
.LFB11248:
	.loc 25 1229 18
	.cfi_startproc
	pushq	%rbp
	.seh_pushreg	%rbp
	.cfi_def_cfa_offset 16
	.cfi_offset 6, -16
	movq	%rsp, %rbp
	.seh_setframe	%rbp, 0
	.cfi_def_cfa_register 6
	.seh_endprologue
	movq	%rcx, 16(%rbp)
	.loc 25 1229 52
	movl	$0, %eax
	.loc 25 1229 59
	popq	%rbp
	.cfi_restore 6
	.cfi_def_cfa 7, 8
	ret
	.cfi_endproc
.LFE11248:
	.seh_endproc
	.section	.text$_ZN12wxWindowBase20AlwaysShowScrollbarsEbb,"x"
	.linkonce discard
	.align 2
	.globl	_ZN12wxWindowBase20AlwaysShowScrollbarsEbb
	.def	_ZN12wxWindowBase20AlwaysShowScrollbarsEbb;	.scl	2;	.type	32;	.endef
	.seh_proc	_ZN12wxWindowBase20AlwaysShowScrollbarsEbb
_ZN12wxWindowBase20AlwaysShowScrollbarsEbb:
.LFB11255:
	.loc 25 1270 18
	.cfi_startproc
	pushq	%rbp
	.seh_pushreg	%rbp
	.cfi_def_cfa_offset 16
	.cfi_offset 6, -16
	movq	%rsp, %rbp
	.seh_setframe	%rbp, 0
	.cfi_def_cfa_register 6
	.seh_endprologue
	movq	%rcx, 16(%rbp)
	movl	%edx, %eax
	movl	%r8d, %edx
	movb	%al, 24(%rbp)
	movl	%edx, %eax
	movb	%al, 32(%rbp)
	.loc 25 1273 5
	nop
	popq	%rbp
	.cfi_restore 6
	.cfi_def_cfa 7, 8
	ret
	.cfi_endproc
.LFE11255:
	.seh_endproc
	.section	.text$_ZNK12wxWindowBase22IsScrollbarAlwaysShownEi,"x"
	.linkonce discard
	.align 2
	.globl	_ZNK12wxWindowBase22IsScrollbarAlwaysShownEi
	.def	_ZNK12wxWindowBase22IsScrollbarAlwaysShownEi;	.scl	2;	.type	32;	.endef
	.seh_proc	_ZNK12wxWindowBase22IsScrollbarAlwaysShownEi
_ZNK12wxWindowBase22IsScrollbarAlwaysShownEi:
.LFB11256:
	.loc 25 1277 18
	.cfi_startproc
	pushq	%rbp
	.seh_pushreg	%rbp
	.cfi_def_cfa_offset 16
	.cfi_offset 6, -16
	movq	%rsp, %rbp
	.seh_setframe	%rbp, 0
	.cfi_def_cfa_register 6
	.seh_endprologue
	movq	%rcx, 16(%rbp)
	movl	%edx, 24(%rbp)
	.loc 25 1279 16
	movl	$0, %eax
	.loc 25 1280 5
	popq	%rbp
	.cfi_restore 6
	.cfi_def_cfa 7, 8
	ret
	.cfi_endproc
.LFE11256:
	.seh_endproc
	.section	.text$_ZNK12wxWindowBase10GetToolTipEv,"x"
	.linkonce discard
	.align 2
	.globl	_ZNK12wxWindowBase10GetToolTipEv
	.def	_ZNK12wxWindowBase10GetToolTipEv;	.scl	2;	.type	32;	.endef
	.seh_proc	_ZNK12wxWindowBase10GetToolTipEv
_ZNK12wxWindowBase10GetToolTipEv:
.LFB11260:
	.loc 25 1327 16
	.cfi_startproc
	pushq	%rbp
	.seh_pushreg	%rbp
	.cfi_def_cfa_offset 16
	.cfi_offset 6, -16
	movq	%rsp, %rbp
	.seh_setframe	%rbp, 0
	.cfi_def_cfa_register 6
	.seh_endprologue
	movq	%rcx, 16(%rbp)
	.loc 25 1327 44
	movq	16(%rbp), %rax
	movq	352(%rax), %rax
	.loc 25 1327 55
	popq	%rbp
	.cfi_restore 6
	.cfi_def_cfa 7, 8
	ret
	.cfi_endproc
.LFE11260:
	.seh_endproc
	.section	.text$_ZNK12wxWindowBase13GetDropTargetEv,"x"
	.linkonce discard
	.align 2
	.globl	_ZNK12wxWindowBase13GetDropTargetEv
	.def	_ZNK12wxWindowBase13GetDropTargetEv;	.scl	2;	.type	32;	.endef
	.seh_proc	_ZNK12wxWindowBase13GetDropTargetEv
_ZNK12wxWindowBase13GetDropTargetEv:
.LFB11261:
	.loc 25 1351 27
	.cfi_startproc
	pushq	%rbp
	.seh_pushreg	%rbp
	.cfi_def_cfa_offset 16
	.cfi_offset 6, -16
	movq	%rsp, %rbp
	.seh_setframe	%rbp, 0
	.cfi_def_cfa_register 6
	.seh_endprologue
	movq	%rcx, 16(%rbp)
	.loc 25 1351 58
	movq	16(%rbp), %rax
	movq	208(%rax), %rax
	.loc 25 1351 72
	popq	%rbp
	.cfi_restore 6
	.cfi_def_cfa 7, 8
	ret
	.cfi_endproc
.LFE11261:
	.seh_endproc
	.section	.text$_ZN12wxWindowBase14SetTransparentEh,"x"
	.linkonce discard
	.align 2
	.globl	_ZN12wxWindowBase14SetTransparentEh
	.def	_ZN12wxWindowBase14SetTransparentEh;	.scl	2;	.type	32;	.endef
	.seh_proc	_ZN12wxWindowBase14SetTransparentEh
_ZN12wxWindowBase14SetTransparentEh:
.LFB11268:
	.loc 25 1432 18
	.cfi_startproc
	pushq	%rbp
	.seh_pushreg	%rbp
	.cfi_def_cfa_offset 16
	.cfi_offset 6, -16
	movq	%rsp, %rbp
	.seh_setframe	%rbp, 0
	.cfi_def_cfa_register 6
	.seh_endprologue
	movq	%rcx, 16(%rbp)
	movl	%edx, %eax
	movb	%al, 24(%rbp)
	.loc 25 1432 51
	movl	$0, %eax
	.loc 25 1432 58
	popq	%rbp
	.cfi_restore 6
	.cfi_def_cfa 7, 8
	ret
	.cfi_endproc
.LFE11268:
	.seh_endproc
	.section	.text$_ZN12wxWindowBase17CanSetTransparentEv,"x"
	.linkonce discard
	.align 2
	.globl	_ZN12wxWindowBase17CanSetTransparentEv
	.def	_ZN12wxWindowBase17CanSetTransparentEv;	.scl	2;	.type	32;	.endef
	.seh_proc	_ZN12wxWindowBase17CanSetTransparentEv
_ZN12wxWindowBase17CanSetTransparentEv:
.LFB11269:
	.loc 25 1433 18
	.cfi_startproc
	pushq	%rbp
	.seh_pushreg	%rbp
	.cfi_def_cfa_offset 16
	.cfi_offset 6, -16
	movq	%rsp, %rbp
	.seh_setframe	%rbp, 0
	.cfi_def_cfa_register 6
	.seh_endprologue
	movq	%rcx, 16(%rbp)
	.loc 25 1433 47
	movl	$0, %eax
	.loc 25 1433 54
	popq	%rbp
	.cfi_restore 6
	.cfi_def_cfa 7, 8
	ret
	.cfi_endproc
.LFE11269:
	.seh_endproc
	.section	.text$_ZNK12wxWindowBase20ShouldInheritColoursEv,"x"
	.linkonce discard
	.align 2
	.globl	_ZNK12wxWindowBase20ShouldInheritColoursEv
	.def	_ZNK12wxWindowBase20ShouldInheritColoursEv;	.scl	2;	.type	32;	.endef
	.seh_proc	_ZNK12wxWindowBase20ShouldInheritColoursEv
_ZNK12wxWindowBase20ShouldInheritColoursEv:
.LFB11280:
	.loc 25 1490 18
	.cfi_startproc
	pushq	%rbp
	.seh_pushreg	%rbp
	.cfi_def_cfa_offset 16
	.cfi_offset 6, -16
	movq	%rsp, %rbp
	.seh_setframe	%rbp, 0
	.cfi_def_cfa_register 6
	.seh_endprologue
	movq	%rcx, 16(%rbp)
	.loc 25 1490 56
	movl	$0, %eax
	.loc 25 1490 63
	popq	%rbp
	.cfi_restore 6
	.cfi_def_cfa 7, 8
	ret
	.cfi_endproc
.LFE11280:
	.seh_endproc
	.section	.text$_ZNK12wxWindowBase22CanBeOutsideClientAreaEv,"x"
	.linkonce discard
	.align 2
	.globl	_ZNK12wxWindowBase22CanBeOutsideClientAreaEv
	.def	_ZNK12wxWindowBase22CanBeOutsideClientAreaEv;	.scl	2;	.type	32;	.endef
	.seh_proc	_ZNK12wxWindowBase22CanBeOutsideClientAreaEv
_ZNK12wxWindowBase22CanBeOutsideClientAreaEv:
.LFB11281:
	.loc 25 1494 18
	.cfi_startproc
	pushq	%rbp
	.seh_pushreg	%rbp
	.cfi_def_cfa_offset 16
	.cfi_offset 6, -16
	movq	%rsp, %rbp
	.seh_setframe	%rbp, 0
	.cfi_def_cfa_register 6
	.seh_endprologue
	movq	%rcx, 16(%rbp)
	.loc 25 1494 58
	movl	$0, %eax
	.loc 25 1494 65
	popq	%rbp
	.cfi_restore 6
	.cfi_def_cfa 7, 8
	ret
	.cfi_endproc
.LFE11281:
	.seh_endproc
	.section	.text$_ZNK12wxWindowBase19CanApplyThemeBorderEv,"x"
	.linkonce discard
	.align 2
	.globl	_ZNK12wxWindowBase19CanApplyThemeBorderEv
	.def	_ZNK12wxWindowBase19CanApplyThemeBorderEv;	.scl	2;	.type	32;	.endef
	.seh_proc	_ZNK12wxWindowBase19CanApplyThemeBorderEv
_ZNK12wxWindowBase19CanApplyThemeBorderEv:
.LFB11282:
	.loc 25 1498 18
	.cfi_startproc
	pushq	%rbp
	.seh_pushreg	%rbp
	.cfi_def_cfa_offset 16
	.cfi_offset 6, -16
	movq	%rsp, %rbp
	.seh_setframe	%rbp, 0
	.cfi_def_cfa_register 6
	.seh_endprologue
	movq	%rcx, 16(%rbp)
	.loc 25 1498 55
	movl	$1, %eax
	.loc 25 1498 61
	popq	%rbp
	.cfi_restore 6
	.cfi_def_cfa 7, 8
	ret
	.cfi_endproc
.LFE11282:
	.seh_endproc
	.section	.text$_ZN12wxWindowBase31GetMainWindowOfCompositeControlEv,"x"
	.linkonce discard
	.align 2
	.globl	_ZN12wxWindowBase31GetMainWindowOfCompositeControlEv
	.def	_ZN12wxWindowBase31GetMainWindowOfCompositeControlEv;	.scl	2;	.type	32;	.endef
	.seh_proc	_ZN12wxWindowBase31GetMainWindowOfCompositeControlEv
_ZN12wxWindowBase31GetMainWindowOfCompositeControlEv:
.LFB11283:
	.loc 25 1503 23
	.cfi_startproc
	pushq	%rbp
	.seh_pushreg	%rbp
	.cfi_def_cfa_offset 16
	.cfi_offset 6, -16
	movq	%rsp, %rbp
	.seh_setframe	%rbp, 0
	.cfi_def_cfa_register 6
	.seh_endprologue
	movq	%rcx, 16(%rbp)
	.loc 25 1504 29
	movq	16(%rbp), %rax
	.loc 25 1504 35
	popq	%rbp
	.cfi_restore 6
	.cfi_def_cfa 7, 8
	ret
	.cfi_endproc
.LFE11283:
	.seh_endproc
	.section	.text$_ZNK12wxWindowBase21IsTopNavigationDomainEv,"x"
	.linkonce discard
	.align 2
	.globl	_ZNK12wxWindowBase21IsTopNavigationDomainEv
	.def	_ZNK12wxWindowBase21IsTopNavigationDomainEv;	.scl	2;	.type	32;	.endef
	.seh_proc	_ZNK12wxWindowBase21IsTopNavigationDomainEv
_ZNK12wxWindowBase21IsTopNavigationDomainEv:
.LFB11284:
	.loc 25 1512 18
	.cfi_startproc
	pushq	%rbp
	.seh_pushreg	%rbp
	.cfi_def_cfa_offset 16
	.cfi_offset 6, -16
	movq	%rsp, %rbp
	.seh_setframe	%rbp, 0
	.cfi_def_cfa_register 6
	.seh_endprologue
	movq	%rcx, 16(%rbp)
	.loc 25 1512 57
	movl	$0, %eax
	.loc 25 1512 64
	popq	%rbp
	.cfi_restore 6
	.cfi_def_cfa 7, 8
	ret
	.cfi_endproc
.LFE11284:
	.seh_endproc
	.section	.text$_ZNK12wxWindowBase19DoGetBestClientSizeEv,"x"
	.linkonce discard
	.align 2
	.globl	_ZNK12wxWindowBase19DoGetBestClientSizeEv
	.def	_ZNK12wxWindowBase19DoGetBestClientSizeEv;	.scl	2;	.type	32;	.endef
	.seh_proc	_ZNK12wxWindowBase19DoGetBestClientSizeEv
_ZNK12wxWindowBase19DoGetBestClientSizeEv:
.LFB11289:
	.loc 25 1746 20
	.cfi_startproc
	pushq	%rbp
	.seh_pushreg	%rbp
	.cfi_def_cfa_offset 16
	.cfi_offset 6, -16
	movq	%rsp, %rbp
	.seh_setframe	%rbp, 0
	.cfi_def_cfa_register 6
	.seh_endprologue
	movq	%rcx, 16(%rbp)
	.loc 25 1746 57
	movq	.refptr.wxDefaultSize(%rip), %rax
	movq	(%rax), %rax
	.loc 25 1746 72
	popq	%rbp
	.cfi_restore 6
	.cfi_def_cfa 7, 8
	ret
	.cfi_endproc
.LFE11289:
	.seh_endproc
	.section	.text$_ZNK12wxWindowBase21DoGetBestClientHeightEi,"x"
	.linkonce discard
	.align 2
	.globl	_ZNK12wxWindowBase21DoGetBestClientHeightEi
	.def	_ZNK12wxWindowBase21DoGetBestClientHeightEi;	.scl	2;	.type	32;	.endef
	.seh_proc	_ZNK12wxWindowBase21DoGetBestClientHeightEi
_ZNK12wxWindowBase21DoGetBestClientHeightEi:
.LFB11290:
	.loc 25 1751 17
	.cfi_startproc
	pushq	%rbp
	.seh_pushreg	%rbp
	.cfi_def_cfa_offset 16
	.cfi_offset 6, -16
	movq	%rsp, %rbp
	.seh_setframe	%rbp, 0
	.cfi_def_cfa_register 6
	.seh_endprologue
	movq	%rcx, 16(%rbp)
	movl	%edx, 24(%rbp)
	.loc 25 1752 18
	movl	$-1, %eax
	.loc 25 1752 34
	popq	%rbp
	.cfi_restore 6
	.cfi_def_cfa 7, 8
	ret
	.cfi_endproc
.LFE11290:
	.seh_endproc
	.section	.text$_ZNK12wxWindowBase20DoGetBestClientWidthEi,"x"
	.linkonce discard
	.align 2
	.globl	_ZNK12wxWindowBase20DoGetBestClientWidthEi
	.def	_ZNK12wxWindowBase20DoGetBestClientWidthEi;	.scl	2;	.type	32;	.endef
	.seh_proc	_ZNK12wxWindowBase20DoGetBestClientWidthEi
_ZNK12wxWindowBase20DoGetBestClientWidthEi:
.LFB11291:
	.loc 25 1753 17
	.cfi_startproc
	pushq	%rbp
	.seh_pushreg	%rbp
	.cfi_def_cfa_offset 16
	.cfi_offset 6, -16
	movq	%rsp, %rbp
	.seh_setframe	%rbp, 0
	.cfi_def_cfa_register 6
	.seh_endprologue
	movq	%rcx, 16(%rbp)
	movl	%edx, 24(%rbp)
	.loc 25 1754 18
	movl	$-1, %eax
	.loc 25 1754 34
	popq	%rbp
	.cfi_restore 6
	.cfi_def_cfa 7, 8
	ret
	.cfi_endproc
.LFE11291:
	.seh_endproc
	.section	.text$_ZN12wxWindowBase18SetInitialBestSizeERK6wxSize,"x"
	.linkonce discard
	.align 2
	.globl	_ZN12wxWindowBase18SetInitialBestSizeERK6wxSize
	.def	_ZN12wxWindowBase18SetInitialBestSizeERK6wxSize;	.scl	2;	.type	32;	.endef
	.seh_proc	_ZN12wxWindowBase18SetInitialBestSizeERK6wxSize
_ZN12wxWindowBase18SetInitialBestSizeERK6wxSize:
.LFB11297:
	.loc 25 1873 1
	.cfi_startproc
	pushq	%rbp
	.seh_pushreg	%rbp
	.cfi_def_cfa_offset 16
	.cfi_offset 6, -16
	movq	%rsp, %rbp
	.seh_setframe	%rbp, 0
	.cfi_def_cfa_register 6
	subq	$32, %rsp
	.seh_stackalloc	32
	.seh_endprologue
	movq	%rcx, 16(%rbp)
	movq	%rdx, 24(%rbp)
	.loc 25 1874 19
	movq	24(%rbp), %rax
	movq	%rax, %rdx
	movq	16(%rbp), %rcx
	call	_ZN12wxWindowBase14SetInitialSizeERK6wxSize
	.loc 25 1875 1
	nop
	addq	$32, %rsp
	popq	%rbp
	.cfi_restore 6
	.cfi_def_cfa 7, 8
	ret
	.cfi_endproc
.LFE11297:
	.seh_endproc
	.section	.text$_ZN8wxWindowC2Ev,"x"
	.linkonce discard
	.align 2
	.globl	_ZN8wxWindowC2Ev
	.def	_ZN8wxWindowC2Ev;	.scl	2;	.type	32;	.endef
	.seh_proc	_ZN8wxWindowC2Ev
_ZN8wxWindowC2Ev:
.LFB11299:
	.file 27 "../wxMSW-3.0.5_gcc810_x64_Dev/include/wx/msw/window.h"
	.loc 27 40 5
	.cfi_startproc
	pushq	%rbp
	.seh_pushreg	%rbp
	.cfi_def_cfa_offset 16
	.cfi_offset 6, -16
	pushq	%rbx
	.seh_pushreg	%rbx
	.cfi_def_cfa_offset 24
	.cfi_offset 3, -24
	subq	$40, %rsp
	.seh_stackalloc	40
	.cfi_def_cfa_offset 64
	leaq	128(%rsp), %rbp
	.seh_setframe	%rbp, 128
	.cfi_def_cfa 6, -64
	.seh_endprologue
	movq	%rcx, -64(%rbp)
.LBB43:
	.loc 27 40 16
	movq	-64(%rbp), %rax
	movq	%rax, %rcx
.LEHB15:
	call	_ZN12wxWindowBaseC2Ev
.LEHE15:
	movq	.refptr._ZTV8wxWindow(%rip), %rax
	leaq	16(%rax), %rdx
	movq	-64(%rbp), %rax
	movq	%rdx, (%rax)
	movq	-64(%rbp), %rax
	addq	$560, %rax
	movq	%rax, %rcx
	call	_ZN7wxPointC1Ev
	movq	-64(%rbp), %rax
	addq	$568, %rax
	movq	%rax, %rcx
	call	_ZN6wxSizeC1Ev
	.loc 27 40 22
	movq	-64(%rbp), %rcx
.LEHB16:
	call	_ZN8wxWindow4InitEv
.LEHE16:
.LBE43:
	.loc 27 40 26
	jmp	.L253
.L252:
	movq	%rax, %rbx
.LBB44:
	.loc 27 40 16
	movq	-64(%rbp), %rax
	movq	%rax, %rcx
	call	_ZN12wxWindowBaseD2Ev
	movq	%rbx, %rax
	movq	%rax, %rcx
.LEHB17:
	call	_Unwind_Resume
	nop
.LEHE17:
.L253:
.LBE44:
	.loc 27 40 26
	addq	$40, %rsp
	popq	%rbx
	.cfi_restore 3
	popq	%rbp
	.cfi_restore 6
	.cfi_def_cfa 7, -24
	ret
	.cfi_endproc
.LFE11299:
	.seh_handler	__gxx_personality_seh0, @unwind, @except
	.seh_handlerdata
.LLSDA11299:
	.byte	0xff
	.byte	0xff
	.byte	0x1
	.uleb128 .LLSDACSE11299-.LLSDACSB11299
.LLSDACSB11299:
	.uleb128 .LEHB15-.LFB11299
	.uleb128 .LEHE15-.LEHB15
	.uleb128 0
	.uleb128 0
	.uleb128 .LEHB16-.LFB11299
	.uleb128 .LEHE16-.LEHB16
	.uleb128 .L252-.LFB11299
	.uleb128 0
	.uleb128 .LEHB17-.LFB11299
	.uleb128 .LEHE17-.LEHB17
	.uleb128 0
	.uleb128 0
.LLSDACSE11299:
	.section	.text$_ZN8wxWindowC2Ev,"x"
	.linkonce discard
	.seh_endproc
	.section	.text$_ZN8wxWindow14ShowWithEffectE12wxShowEffectj,"x"
	.linkonce discard
	.align 2
	.globl	_ZN8wxWindow14ShowWithEffectE12wxShowEffectj
	.def	_ZN8wxWindow14ShowWithEffectE12wxShowEffectj;	.scl	2;	.type	32;	.endef
	.seh_proc	_ZN8wxWindow14ShowWithEffectE12wxShowEffectj
_ZN8wxWindow14ShowWithEffectE12wxShowEffectj:
.LFB11304:
	.loc 27 73 18
	.cfi_startproc
	pushq	%rbp
	.seh_pushreg	%rbp
	.cfi_def_cfa_offset 16
	.cfi_offset 6, -16
	movq	%rsp, %rbp
	.seh_setframe	%rbp, 0
	.cfi_def_cfa_register 6
	subq	$32, %rsp
	.seh_stackalloc	32
	.seh_endprologue
	movq	%rcx, 16(%rbp)
	movl	%edx, 24(%rbp)
	movl	%r8d, 32(%rbp)
	.loc 27 76 33
	movl	32(%rbp), %edx
	movl	24(%rbp), %eax
	movl	%edx, %r9d
	movl	%eax, %r8d
	movl	$1, %edx
	movq	16(%rbp), %rcx
	call	_ZN8wxWindow17MSWShowWithEffectEb12wxShowEffectj
	.loc 27 77 5
	addq	$32, %rsp
	popq	%rbp
	.cfi_restore 6
	.cfi_def_cfa 7, 8
	ret
	.cfi_endproc
.LFE11304:
	.seh_endproc
	.section	.text$_ZN8wxWindow14HideWithEffectE12wxShowEffectj,"x"
	.linkonce discard
	.align 2
	.globl	_ZN8wxWindow14HideWithEffectE12wxShowEffectj
	.def	_ZN8wxWindow14HideWithEffectE12wxShowEffectj;	.scl	2;	.type	32;	.endef
	.seh_proc	_ZN8wxWindow14HideWithEffectE12wxShowEffectj
_ZN8wxWindow14HideWithEffectE12wxShowEffectj:
.LFB11305:
	.loc 27 78 18
	.cfi_startproc
	pushq	%rbp
	.seh_pushreg	%rbp
	.cfi_def_cfa_offset 16
	.cfi_offset 6, -16
	movq	%rsp, %rbp
	.seh_setframe	%rbp, 0
	.cfi_def_cfa_register 6
	subq	$32, %rsp
	.seh_stackalloc	32
	.seh_endprologue
	movq	%rcx, 16(%rbp)
	movl	%edx, 24(%rbp)
	movl	%r8d, 32(%rbp)
	.loc 27 81 33
	movl	32(%rbp), %edx
	movl	24(%rbp), %eax
	movl	%edx, %r9d
	movl	%eax, %r8d
	movl	$0, %edx
	movq	16(%rbp), %rcx
	call	_ZN8wxWindow17MSWShowWithEffectEb12wxShowEffectj
	.loc 27 82 5
	addq	$32, %rsp
	popq	%rbp
	.cfi_restore 6
	.cfi_def_cfa 7, 8
	ret
	.cfi_endproc
.LFE11305:
	.seh_endproc
	.section	.text$_ZNK8wxWindow7GetHWNDEv,"x"
	.linkonce discard
	.align 2
	.globl	_ZNK8wxWindow7GetHWNDEv
	.def	_ZNK8wxWindow7GetHWNDEv;	.scl	2;	.type	32;	.endef
	.seh_proc	_ZNK8wxWindow7GetHWNDEv
_ZNK8wxWindow7GetHWNDEv:
.LFB11306:
	.loc 27 151 12
	.cfi_startproc
	pushq	%rbp
	.seh_pushreg	%rbp
	.cfi_def_cfa_offset 16
	.cfi_offset 6, -16
	movq	%rsp, %rbp
	.seh_setframe	%rbp, 0
	.cfi_def_cfa_register 6
	.seh_endprologue
	movq	%rcx, 16(%rbp)
	.loc 27 151 37
	movq	16(%rbp), %rax
	movq	520(%rax), %rax
	.loc 27 151 45
	popq	%rbp
	.cfi_restore 6
	.cfi_def_cfa 7, 8
	ret
	.cfi_endproc
.LFE11306:
	.seh_endproc
	.section	.text$_ZNK8wxWindow9GetHandleEv,"x"
	.linkonce discard
	.align 2
	.globl	_ZNK8wxWindow9GetHandleEv
	.def	_ZNK8wxWindow9GetHandleEv;	.scl	2;	.type	32;	.endef
	.seh_proc	_ZNK8wxWindow9GetHandleEv
_ZNK8wxWindow9GetHandleEv:
.LFB11308:
	.loc 27 153 22
	.cfi_startproc
	pushq	%rbp
	.seh_pushreg	%rbp
	.cfi_def_cfa_offset 16
	.cfi_offset 6, -16
	movq	%rsp, %rbp
	.seh_setframe	%rbp, 0
	.cfi_def_cfa_register 6
	subq	$32, %rsp
	.seh_stackalloc	32
	.seh_endprologue
	movq	%rcx, 16(%rbp)
	.loc 27 153 56
	movq	16(%rbp), %rcx
	call	_ZNK8wxWindow7GetHWNDEv
	.loc 27 153 60
	addq	$32, %rsp
	popq	%rbp
	.cfi_restore 6
	.cfi_def_cfa 7, 8
	ret
	.cfi_endproc
.LFE11308:
	.seh_endproc
	.section	.text$_ZNK8wxWindow12ContainsHWNDEP6HWND__,"x"
	.linkonce discard
	.align 2
	.globl	_ZNK8wxWindow12ContainsHWNDEP6HWND__
	.def	_ZNK8wxWindow12ContainsHWNDEP6HWND__;	.scl	2;	.type	32;	.endef
	.seh_proc	_ZNK8wxWindow12ContainsHWNDEP6HWND__
_ZNK8wxWindow12ContainsHWNDEP6HWND__:
.LFB11312:
	.loc 27 213 18
	.cfi_startproc
	pushq	%rbp
	.seh_pushreg	%rbp
	.cfi_def_cfa_offset 16
	.cfi_offset 6, -16
	movq	%rsp, %rbp
	.seh_setframe	%rbp, 0
	.cfi_def_cfa_register 6
	.seh_endprologue
	movq	%rcx, 16(%rbp)
	movq	%rdx, 24(%rbp)
	.loc 27 213 55
	movl	$0, %eax
	.loc 27 213 62
	popq	%rbp
	.cfi_restore 6
	.cfi_def_cfa 7, 8
	ret
	.cfi_endproc
.LFE11312:
	.seh_endproc
	.section	.text$_ZNK8wxWindow11HasToolTipsEv,"x"
	.linkonce discard
	.align 2
	.globl	_ZNK8wxWindow11HasToolTipsEv
	.def	_ZNK8wxWindow11HasToolTipsEv;	.scl	2;	.type	32;	.endef
	.seh_proc	_ZNK8wxWindow11HasToolTipsEv
_ZNK8wxWindow11HasToolTipsEv:
.LFB11313:
	.loc 27 217 18
	.cfi_startproc
	pushq	%rbp
	.seh_pushreg	%rbp
	.cfi_def_cfa_offset 16
	.cfi_offset 6, -16
	movq	%rsp, %rbp
	.seh_setframe	%rbp, 0
	.cfi_def_cfa_register 6
	subq	$32, %rsp
	.seh_stackalloc	32
	.seh_endprologue
	movq	%rcx, 16(%rbp)
	.loc 27 217 57
	movq	16(%rbp), %rax
	movq	%rax, %rcx
	call	_ZNK12wxWindowBase10GetToolTipEv
	.loc 27 217 62
	testq	%rax, %rax
	setne	%al
	.loc 27 217 68
	addq	$32, %rsp
	popq	%rbp
	.cfi_restore 6
	.cfi_def_cfa 7, 8
	ret
	.cfi_endproc
.LFE11313:
	.seh_endproc
	.section	.text$_ZNK8wxWindow17MSWAdjustBrushOrgEPiS0_,"x"
	.linkonce discard
	.align 2
	.globl	_ZNK8wxWindow17MSWAdjustBrushOrgEPiS0_
	.def	_ZNK8wxWindow17MSWAdjustBrushOrgEPiS0_;	.scl	2;	.type	32;	.endef
	.seh_proc	_ZNK8wxWindow17MSWAdjustBrushOrgEPiS0_
_ZNK8wxWindow17MSWAdjustBrushOrgEPiS0_:
.LFB11315:
	.loc 27 421 18
	.cfi_startproc
	pushq	%rbp
	.seh_pushreg	%rbp
	.cfi_def_cfa_offset 16
	.cfi_offset 6, -16
	movq	%rsp, %rbp
	.seh_setframe	%rbp, 0
	.cfi_def_cfa_register 6
	.seh_endprologue
	movq	%rcx, 16(%rbp)
	movq	%rdx, 24(%rbp)
	movq	%r8, 32(%rbp)
	.loc 27 424 5
	nop
	popq	%rbp
	.cfi_restore 6
	.cfi_def_cfa 7, 8
	ret
	.cfi_endproc
.LFE11315:
	.seh_endproc
	.section	.text$_ZN8wxWindow19MSWGetCustomBgBrushEv,"x"
	.linkonce discard
	.align 2
	.globl	_ZN8wxWindow19MSWGetCustomBgBrushEv
	.def	_ZN8wxWindow19MSWGetCustomBgBrushEv;	.scl	2;	.type	32;	.endef
	.seh_proc	_ZN8wxWindow19MSWGetCustomBgBrushEv
_ZN8wxWindow19MSWGetCustomBgBrushEv:
.LFB11316:
	.loc 27 429 22
	.cfi_startproc
	pushq	%rbp
	.seh_pushreg	%rbp
	.cfi_def_cfa_offset 16
	.cfi_offset 6, -16
	movq	%rsp, %rbp
	.seh_setframe	%rbp, 0
	.cfi_def_cfa_register 6
	.seh_endprologue
	movq	%rcx, 16(%rbp)
	.loc 27 429 53
	movl	$0, %eax
	.loc 27 429 56
	popq	%rbp
	.cfi_restore 6
	.cfi_def_cfa 7, 8
	ret
	.cfi_endproc
.LFE11316:
	.seh_endproc
	.section	.text$_ZN8wxWindow13MSWPrintChildEP5HDC__PS_,"x"
	.linkonce discard
	.align 2
	.globl	_ZN8wxWindow13MSWPrintChildEP5HDC__PS_
	.def	_ZN8wxWindow13MSWPrintChildEP5HDC__PS_;	.scl	2;	.type	32;	.endef
	.seh_proc	_ZN8wxWindow13MSWPrintChildEP5HDC__PS_
_ZN8wxWindow13MSWPrintChildEP5HDC__PS_:
.LFB11317:
	.loc 27 468 18
	.cfi_startproc
	pushq	%rbp
	.seh_pushreg	%rbp
	.cfi_def_cfa_offset 16
	.cfi_offset 6, -16
	movq	%rsp, %rbp
	.seh_setframe	%rbp, 0
	.cfi_def_cfa_register 6
	.seh_endprologue
	movq	%rcx, 16(%rbp)
	movq	%rdx, 24(%rbp)
	movq	%r8, 32(%rbp)
	.loc 27 470 16
	movl	$0, %eax
	.loc 27 471 5
	popq	%rbp
	.cfi_restore 6
	.cfi_def_cfa 7, 8
	ret
	.cfi_endproc
.LFE11317:
	.seh_endproc
	.section	.text$_ZN8wxWindow28MSWShouldPropagatePrintChildEv,"x"
	.linkonce discard
	.align 2
	.globl	_ZN8wxWindow28MSWShouldPropagatePrintChildEv
	.def	_ZN8wxWindow28MSWShouldPropagatePrintChildEv;	.scl	2;	.type	32;	.endef
	.seh_proc	_ZN8wxWindow28MSWShouldPropagatePrintChildEv
_ZN8wxWindow28MSWShouldPropagatePrintChildEv:
.LFB11318:
	.loc 27 476 18
	.cfi_startproc
	pushq	%rbp
	.seh_pushreg	%rbp
	.cfi_def_cfa_offset 16
	.cfi_offset 6, -16
	movq	%rsp, %rbp
	.seh_setframe	%rbp, 0
	.cfi_def_cfa_register 6
	.seh_endprologue
	movq	%rcx, 16(%rbp)
	.loc 27 478 16
	movl	$1, %eax
	.loc 27 479 5
	popq	%rbp
	.cfi_restore 6
	.cfi_def_cfa 7, 8
	ret
	.cfi_endproc
.LFE11318:
	.seh_endproc
	.section	.text$_ZNK8wxWindow27MSWHasInheritableBackgroundEv,"x"
	.linkonce discard
	.align 2
	.globl	_ZNK8wxWindow27MSWHasInheritableBackgroundEv
	.def	_ZNK8wxWindow27MSWHasInheritableBackgroundEv;	.scl	2;	.type	32;	.endef
	.seh_proc	_ZNK8wxWindow27MSWHasInheritableBackgroundEv
_ZNK8wxWindow27MSWHasInheritableBackgroundEv:
.LFB11319:
	.loc 27 487 18
	.cfi_startproc
	pushq	%rbp
	.seh_pushreg	%rbp
	.cfi_def_cfa_offset 16
	.cfi_offset 6, -16
	movq	%rsp, %rbp
	.seh_setframe	%rbp, 0
	.cfi_def_cfa_register 6
	subq	$32, %rsp
	.seh_stackalloc	32
	.seh_endprologue
	movq	%rcx, 16(%rbp)
	.loc 27 489 40
	movq	16(%rbp), %rax
	movq	%rax, %rcx
	call	_ZNK12wxWindowBase24InheritsBackgroundColourEv
	.loc 27 490 5
	addq	$32, %rsp
	popq	%rbp
	.cfi_restore 6
	.cfi_def_cfa 7, 8
	ret
	.cfi_endproc
.LFE11319:
	.seh_endproc
	.section	.text$_ZN8wxWindow14MSWEraseBgHookEP5HDC__,"x"
	.linkonce discard
	.align 2
	.globl	_ZN8wxWindow14MSWEraseBgHookEP5HDC__
	.def	_ZN8wxWindow14MSWEraseBgHookEP5HDC__;	.scl	2;	.type	32;	.endef
	.seh_proc	_ZN8wxWindow14MSWEraseBgHookEP5HDC__
_ZN8wxWindow14MSWEraseBgHookEP5HDC__:
.LFB11320:
	.loc 27 510 18
	.cfi_startproc
	pushq	%rbp
	.seh_pushreg	%rbp
	.cfi_def_cfa_offset 16
	.cfi_offset 6, -16
	movq	%rsp, %rbp
	.seh_setframe	%rbp, 0
	.cfi_def_cfa_register 6
	.seh_endprologue
	movq	%rcx, 16(%rbp)
	movq	%rdx, 24(%rbp)
	.loc 27 510 50
	movl	$0, %eax
	.loc 27 510 57
	popq	%rbp
	.cfi_restore 6
	.cfi_def_cfa 7, 8
	ret
	.cfi_endproc
.LFE11320:
	.seh_endproc
	.section	.text$_ZNK8wxWindow11MSWFindItemElP6HWND__,"x"
	.linkonce discard
	.align 2
	.globl	_ZNK8wxWindow11MSWFindItemElP6HWND__
	.def	_ZNK8wxWindow11MSWFindItemElP6HWND__;	.scl	2;	.type	32;	.endef
	.seh_proc	_ZNK8wxWindow11MSWFindItemElP6HWND__
_ZNK8wxWindow11MSWFindItemElP6HWND__:
.LFB11321:
	.loc 27 670 23
	.cfi_startproc
	pushq	%rbp
	.seh_pushreg	%rbp
	.cfi_def_cfa_offset 16
	.cfi_offset 6, -16
	movq	%rsp, %rbp
	.seh_setframe	%rbp, 0
	.cfi_def_cfa_register 6
	.seh_endprologue
	movq	%rcx, 16(%rbp)
	movl	%edx, 24(%rbp)
	movq	%r8, 32(%rbp)
	.loc 27 672 15
	movl	$0, %eax
	.loc 27 673 5
	popq	%rbp
	.cfi_restore 6
	.cfi_def_cfa 7, 8
	ret
	.cfi_endproc
.LFE11321:
	.seh_endproc
	.section	.text$_ZN8wxWindow20MSWEndDeferWindowPosEv,"x"
	.linkonce discard
	.align 2
	.globl	_ZN8wxWindow20MSWEndDeferWindowPosEv
	.def	_ZN8wxWindow20MSWEndDeferWindowPosEv;	.scl	2;	.type	32;	.endef
	.seh_proc	_ZN8wxWindow20MSWEndDeferWindowPosEv
_ZN8wxWindow20MSWEndDeferWindowPosEv:
.LFB11322:
	.loc 27 695 18
	.cfi_startproc
	pushq	%rbp
	.seh_pushreg	%rbp
	.cfi_def_cfa_offset 16
	.cfi_offset 6, -16
	movq	%rsp, %rbp
	.seh_setframe	%rbp, 0
	.cfi_def_cfa_register 6
	.seh_endprologue
	movq	%rcx, 16(%rbp)
	.loc 27 697 27
	movq	16(%rbp), %rax
	movq	.refptr.wxDefaultPosition(%rip), %rdx
	movq	(%rdx), %rdx
	movq	%rdx, 560(%rax)
	.loc 27 698 23
	movq	16(%rbp), %rax
	movq	.refptr.wxDefaultSize(%rip), %rdx
	movq	(%rdx), %rdx
	movq	%rdx, 568(%rax)
	.loc 27 699 5
	nop
	popq	%rbp
	.cfi_restore 6
	.cfi_def_cfa 7, 8
	ret
	.cfi_endproc
.LFE11322:
	.seh_endproc
	.section	.text$_ZN13wxControlBaseC2Ev,"x"
	.linkonce discard
	.align 2
	.globl	_ZN13wxControlBaseC2Ev
	.def	_ZN13wxControlBaseC2Ev;	.scl	2;	.type	32;	.endef
	.seh_proc	_ZN13wxControlBaseC2Ev
_ZN13wxControlBaseC2Ev:
.LFB11325:
	.file 28 "../wxMSW-3.0.5_gcc810_x64_Dev/include/wx/control.h"
	.loc 28 58 5
	.cfi_startproc
	pushq	%rbp
	.seh_pushreg	%rbp
	.cfi_def_cfa_offset 16
	.cfi_offset 6, -16
	movq	%rsp, %rbp
	.seh_setframe	%rbp, 0
	.cfi_def_cfa_register 6
	subq	$32, %rsp
	.seh_stackalloc	32
	.seh_endprologue
	movq	%rcx, 16(%rbp)
.LBB45:
	.loc 28 58 21
	movq	16(%rbp), %rax
	movq	%rax, %rcx
	call	_ZN8wxWindowC2Ev
	movq	.refptr._ZTV13wxControlBase(%rip), %rax
	leaq	16(%rax), %rdx
	movq	16(%rbp), %rax
	movq	%rdx, (%rax)
	movq	16(%rbp), %rax
	addq	$576, %rax
	movq	%rax, %rcx
	call	_ZN8wxStringC1Ev
.LBE45:
	.loc 28 58 23
	nop
	addq	$32, %rsp
	popq	%rbp
	.cfi_restore 6
	.cfi_def_cfa 7, 8
	ret
	.cfi_endproc
.LFE11325:
	.seh_endproc
	.section	.text$_ZN13wxControlBase8SetLabelERK8wxString,"x"
	.linkonce discard
	.align 2
	.globl	_ZN13wxControlBase8SetLabelERK8wxString
	.def	_ZN13wxControlBase8SetLabelERK8wxString;	.scl	2;	.type	32;	.endef
	.seh_proc	_ZN13wxControlBase8SetLabelERK8wxString
_ZN13wxControlBase8SetLabelERK8wxString:
.LFB11328:
	.loc 28 74 18
	.cfi_startproc
	pushq	%rbp
	.seh_pushreg	%rbp
	.cfi_def_cfa_offset 16
	.cfi_offset 6, -16
	movq	%rsp, %rbp
	.seh_setframe	%rbp, 0
	.cfi_def_cfa_register 6
	subq	$32, %rsp
	.seh_stackalloc	32
	.seh_endprologue
	movq	%rcx, 16(%rbp)
	movq	%rdx, 24(%rbp)
	.loc 28 76 23
	movq	16(%rbp), %rax
	addq	$576, %rax
	movq	24(%rbp), %rdx
	movq	%rax, %rcx
	call	_ZN8wxStringaSERKS_
	.loc 28 78 27
	movq	16(%rbp), %rax
	movq	%rax, %rcx
	call	_ZN12wxWindowBase18InvalidateBestSizeEv
	.loc 28 80 27
	movq	16(%rbp), %rax
	movq	24(%rbp), %rdx
	movq	%rax, %rcx
	call	_ZN8wxWindow8SetLabelERK8wxString
	.loc 28 81 5
	nop
	addq	$32, %rsp
	popq	%rbp
	.cfi_restore 6
	.cfi_def_cfa 7, 8
	ret
	.cfi_endproc
.LFE11328:
	.seh_endproc
	.section	.text$_ZNK13wxControlBase8GetLabelEv,"x"
	.linkonce discard
	.align 2
	.globl	_ZNK13wxControlBase8GetLabelEv
	.def	_ZNK13wxControlBase8GetLabelEv;	.scl	2;	.type	32;	.endef
	.seh_proc	_ZNK13wxControlBase8GetLabelEv
_ZNK13wxControlBase8GetLabelEv:
.LFB11329:
	.loc 28 85 22
	.cfi_startproc
	pushq	%rbp
	.seh_pushreg	%rbp
	.cfi_def_cfa_offset 16
	.cfi_offset 6, -16
	movq	%rsp, %rbp
	.seh_setframe	%rbp, 0
	.cfi_def_cfa_register 6
	subq	$32, %rsp
	.seh_stackalloc	32
	.seh_endprologue
	movq	%rcx, 16(%rbp)
	movq	%rdx, 24(%rbp)
	.loc 28 85 48
	movq	24(%rbp), %rax
	addq	$576, %rax
	movq	%rax, %rdx
	movq	16(%rbp), %rcx
	call	_ZN8wxStringC1ERKS_
	.loc 28 85 61
	movq	16(%rbp), %rax
	addq	$32, %rsp
	popq	%rbp
	.cfi_restore 6
	.cfi_def_cfa 7, 8
	ret
	.cfi_endproc
.LFE11329:
	.seh_endproc
	.section	.text$_ZN13wxControlBase12SetLabelTextERK8wxString,"x"
	.linkonce discard
	.align 2
	.globl	_ZN13wxControlBase12SetLabelTextERK8wxString
	.def	_ZN13wxControlBase12SetLabelTextERK8wxString;	.scl	2;	.type	32;	.endef
	.seh_proc	_ZN13wxControlBase12SetLabelTextERK8wxString
_ZN13wxControlBase12SetLabelTextERK8wxString:
.LFB11330:
	.loc 28 88 18
	.cfi_startproc
	pushq	%rbp
	.seh_pushreg	%rbp
	.cfi_def_cfa_offset 16
	.cfi_offset 6, -16
	pushq	%rbx
	.seh_pushreg	%rbx
	.cfi_def_cfa_offset 24
	.cfi_offset 3, -24
	subq	$88, %rsp
	.seh_stackalloc	88
	.cfi_def_cfa_offset 112
	leaq	128(%rsp), %rbp
	.seh_setframe	%rbp, 128
	.cfi_def_cfa 6, -16
	.seh_endprologue
	movq	%rcx, -16(%rbp)
	movq	%rdx, -8(%rbp)
	.loc 28 90 39
	movq	-16(%rbp), %rax
	movq	(%rax), %rax
	addq	$176, %rax
	movq	(%rax), %rbx
	.loc 28 90 33
	leaq	-96(%rbp), %rax
	movq	-8(%rbp), %rdx
	movq	%rax, %rcx
.LEHB18:
	call	_ZN13wxControlBase15EscapeMnemonicsERK8wxString
.LEHE18:
	.loc 28 90 17
	leaq	-96(%rbp), %rax
	movq	%rax, %rdx
	movq	-16(%rbp), %rcx
.LEHB19:
	call	*%rbx
.LVL19:
.LEHE19:
	.loc 28 90 33 discriminator 2
	leaq	-96(%rbp), %rax
	movq	%rax, %rcx
	call	_ZN8wxStringD1Ev
	.loc 28 91 5 discriminator 2
	jmp	.L287
.L286:
	movq	%rax, %rbx
	.loc 28 90 33
	leaq	-96(%rbp), %rax
	movq	%rax, %rcx
	call	_ZN8wxStringD1Ev
	movq	%rbx, %rax
	movq	%rax, %rcx
.LEHB20:
	call	_Unwind_Resume
	nop
.LEHE20:
.L287:
	.loc 28 91 5
	addq	$88, %rsp
	popq	%rbx
	.cfi_restore 3
	popq	%rbp
	.cfi_restore 6
	.cfi_def_cfa 7, -72
	ret
	.cfi_endproc
.LFE11330:
	.seh_handler	__gxx_personality_seh0, @unwind, @except
	.seh_handlerdata
.LLSDA11330:
	.byte	0xff
	.byte	0xff
	.byte	0x1
	.uleb128 .LLSDACSE11330-.LLSDACSB11330
.LLSDACSB11330:
	.uleb128 .LEHB18-.LFB11330
	.uleb128 .LEHE18-.LEHB18
	.uleb128 0
	.uleb128 0
	.uleb128 .LEHB19-.LFB11330
	.uleb128 .LEHE19-.LEHB19
	.uleb128 .L286-.LFB11330
	.uleb128 0
	.uleb128 .LEHB20-.LFB11330
	.uleb128 .LEHE20-.LEHB20
	.uleb128 0
	.uleb128 0
.LLSDACSE11330:
	.section	.text$_ZN13wxControlBase12SetLabelTextERK8wxString,"x"
	.linkonce discard
	.seh_endproc
	.section	.text$_ZNK13wxControlBase12GetLabelTextEv,"x"
	.linkonce discard
	.align 2
	.globl	_ZNK13wxControlBase12GetLabelTextEv
	.def	_ZNK13wxControlBase12GetLabelTextEv;	.scl	2;	.type	32;	.endef
	.seh_proc	_ZNK13wxControlBase12GetLabelTextEv
_ZNK13wxControlBase12GetLabelTextEv:
.LFB11331:
	.loc 28 94 22
	.cfi_startproc
	pushq	%rbp
	.seh_pushreg	%rbp
	.cfi_def_cfa_offset 16
	.cfi_offset 6, -16
	pushq	%rbx
	.seh_pushreg	%rbx
	.cfi_def_cfa_offset 24
	.cfi_offset 3, -24
	subq	$88, %rsp
	.seh_stackalloc	88
	.cfi_def_cfa_offset 112
	leaq	128(%rsp), %rbp
	.seh_setframe	%rbp, 128
	.cfi_def_cfa 6, -16
	.seh_endprologue
	movq	%rcx, -16(%rbp)
	movq	%rdx, -8(%rbp)
	.loc 28 94 74
	movq	-8(%rbp), %rax
	movq	(%rax), %rax
	addq	$184, %rax
	movq	(%rax), %r8
	.loc 28 94 73
	leaq	-96(%rbp), %rax
	movq	-8(%rbp), %rdx
	movq	%rax, %rcx
.LEHB21:
	call	*%r8
.LVL20:
.LEHE21:
	.loc 28 94 75
	movq	-16(%rbp), %rcx
	leaq	-96(%rbp), %rax
	movq	%rax, %rdx
.LEHB22:
	call	_ZN13wxControlBase12GetLabelTextERK8wxString
.LEHE22:
	nop
	.loc 28 94 73
	leaq	-96(%rbp), %rax
	movq	%rax, %rcx
	call	_ZN8wxStringD1Ev
	.loc 28 94 75
	jmp	.L292
.L291:
	movq	%rax, %rbx
	.loc 28 94 73
	leaq	-96(%rbp), %rax
	movq	%rax, %rcx
	call	_ZN8wxStringD1Ev
	movq	%rbx, %rax
	movq	%rax, %rcx
.LEHB23:
	call	_Unwind_Resume
.LEHE23:
.L292:
	.loc 28 94 78
	movq	-16(%rbp), %rax
	addq	$88, %rsp
	popq	%rbx
	.cfi_restore 3
	popq	%rbp
	.cfi_restore 6
	.cfi_def_cfa 7, -72
	ret
	.cfi_endproc
.LFE11331:
	.seh_handler	__gxx_personality_seh0, @unwind, @except
	.seh_handlerdata
.LLSDA11331:
	.byte	0xff
	.byte	0xff
	.byte	0x1
	.uleb128 .LLSDACSE11331-.LLSDACSB11331
.LLSDACSB11331:
	.uleb128 .LEHB21-.LFB11331
	.uleb128 .LEHE21-.LEHB21
	.uleb128 0
	.uleb128 0
	.uleb128 .LEHB22-.LFB11331
	.uleb128 .LEHE22-.LEHB22
	.uleb128 .L291-.LFB11331
	.uleb128 0
	.uleb128 .LEHB23-.LFB11331
	.uleb128 .LEHE23-.LEHB23
	.uleb128 0
	.uleb128 0
.LLSDACSE11331:
	.section	.text$_ZNK13wxControlBase12GetLabelTextEv,"x"
	.linkonce discard
	.seh_endproc
	.section	.text$_ZN9wxControlC2Ev,"x"
	.linkonce discard
	.align 2
	.globl	_ZN9wxControlC2Ev
	.def	_ZN9wxControlC2Ev;	.scl	2;	.type	32;	.endef
	.seh_proc	_ZN9wxControlC2Ev
_ZN9wxControlC2Ev:
.LFB11337:
	.file 29 "../wxMSW-3.0.5_gcc810_x64_Dev/include/wx/msw/control.h"
	.loc 29 20 5
	.cfi_startproc
	pushq	%rbp
	.seh_pushreg	%rbp
	.cfi_def_cfa_offset 16
	.cfi_offset 6, -16
	pushq	%rbx
	.seh_pushreg	%rbx
	.cfi_def_cfa_offset 24
	.cfi_offset 3, -24
	subq	$40, %rsp
	.seh_stackalloc	40
	.cfi_def_cfa_offset 64
	leaq	128(%rsp), %rbp
	.seh_setframe	%rbp, 128
	.cfi_def_cfa 6, -64
	.seh_endprologue
	movq	%rcx, -64(%rbp)
.LBB46:
	.loc 29 20 17
	movq	-64(%rbp), %rax
	movq	%rax, %rcx
.LEHB24:
	call	_ZN13wxControlBaseC2Ev
.LEHE24:
	movq	.refptr._ZTV9wxControl(%rip), %rax
	leaq	16(%rax), %rdx
	movq	-64(%rbp), %rax
	movq	%rdx, (%rax)
	movq	-64(%rbp), %rax
	addq	$624, %rax
	movq	%rax, %rcx
.LEHB25:
	call	_ZN11wxArrayLongC1Ev
.LEHE25:
.LBE46:
	.loc 29 20 19
	jmp	.L296
.L295:
	movq	%rax, %rbx
.LBB47:
	.loc 29 20 17
	movq	-64(%rbp), %rax
	movq	%rax, %rcx
	call	_ZN13wxControlBaseD2Ev
	movq	%rbx, %rax
	movq	%rax, %rcx
.LEHB26:
	call	_Unwind_Resume
	nop
.LEHE26:
.L296:
.LBE47:
	.loc 29 20 19
	addq	$40, %rsp
	popq	%rbx
	.cfi_restore 3
	popq	%rbp
	.cfi_restore 6
	.cfi_def_cfa 7, -24
	ret
	.cfi_endproc
.LFE11337:
	.seh_handler	__gxx_personality_seh0, @unwind, @except
	.seh_handlerdata
.LLSDA11337:
	.byte	0xff
	.byte	0xff
	.byte	0x1
	.uleb128 .LLSDACSE11337-.LLSDACSB11337
.LLSDACSB11337:
	.uleb128 .LEHB24-.LFB11337
	.uleb128 .LEHE24-.LEHB24
	.uleb128 0
	.uleb128 0
	.uleb128 .LEHB25-.LFB11337
	.uleb128 .LEHE25-.LEHB25
	.uleb128 .L295-.LFB11337
	.uleb128 0
	.uleb128 .LEHB26-.LFB11337
	.uleb128 .LEHE26-.LEHB26
	.uleb128 0
	.uleb128 0
.LLSDACSE11337:
	.section	.text$_ZN9wxControlC2Ev,"x"
	.linkonce discard
	.seh_endproc
	.section	.text$_ZN9wxControl7CommandER14wxCommandEvent,"x"
	.linkonce discard
	.align 2
	.globl	_ZN9wxControl7CommandER14wxCommandEvent
	.def	_ZN9wxControl7CommandER14wxCommandEvent;	.scl	2;	.type	32;	.endef
	.seh_proc	_ZN9wxControl7CommandER14wxCommandEvent
_ZN9wxControl7CommandER14wxCommandEvent:
.LFB11342:
	.loc 29 39 18
	.cfi_startproc
	pushq	%rbp
	.seh_pushreg	%rbp
	.cfi_def_cfa_offset 16
	.cfi_offset 6, -16
	movq	%rsp, %rbp
	.seh_setframe	%rbp, 0
	.cfi_def_cfa_register 6
	subq	$32, %rsp
	.seh_stackalloc	32
	.seh_endprologue
	movq	%rcx, 16(%rbp)
	movq	%rdx, 24(%rbp)
	.loc 29 39 65
	movq	24(%rbp), %rax
	movq	%rax, %rdx
	movq	16(%rbp), %rcx
	call	_ZN9wxControl14ProcessCommandER14wxCommandEvent
	.loc 29 39 74
	nop
	addq	$32, %rsp
	popq	%rbp
	.cfi_restore 6
	.cfi_def_cfa 7, 8
	ret
	.cfi_endproc
.LFE11342:
	.seh_endproc
	.section	.text$_ZNK9wxControl20GetDefaultAttributesEv,"x"
	.linkonce discard
	.align 2
	.globl	_ZNK9wxControl20GetDefaultAttributesEv
	.def	_ZNK9wxControl20GetDefaultAttributesEv;	.scl	2;	.type	32;	.endef
	.seh_proc	_ZNK9wxControl20GetDefaultAttributesEv
_ZNK9wxControl20GetDefaultAttributesEv:
.LFB11343:
	.loc 29 45 32
	.cfi_startproc
	pushq	%rbp
	.seh_pushreg	%rbp
	.cfi_def_cfa_offset 16
	.cfi_offset 6, -16
	movq	%rsp, %rbp
	.seh_setframe	%rbp, 0
	.cfi_def_cfa_register 6
	subq	$32, %rsp
	.seh_stackalloc	32
	.seh_endprologue
	movq	%rcx, 16(%rbp)
	movq	%rdx, 24(%rbp)
	.loc 29 47 60
	movq	24(%rbp), %rax
	movq	%rax, %rcx
	call	_ZNK12wxWindowBase16GetWindowVariantEv
	movl	%eax, %edx
	movq	16(%rbp), %rax
	movq	%rax, %rcx
	call	_ZN9wxControl25GetClassDefaultAttributesE15wxWindowVariant
	.loc 29 48 5
	movq	16(%rbp), %rax
	addq	$32, %rsp
	popq	%rbp
	.cfi_restore 6
	.cfi_def_cfa 7, 8
	ret
	.cfi_endproc
.LFE11343:
	.seh_endproc
	.section	.text$_ZN9wxControl9MSWOnDrawEPPv,"x"
	.linkonce discard
	.align 2
	.globl	_ZN9wxControl9MSWOnDrawEPPv
	.def	_ZN9wxControl9MSWOnDrawEPPv;	.scl	2;	.type	32;	.endef
	.seh_proc	_ZN9wxControl9MSWOnDrawEPPv
_ZN9wxControl9MSWOnDrawEPPv:
.LFB11344:
	.loc 29 60 18
	.cfi_startproc
	pushq	%rbp
	.seh_pushreg	%rbp
	.cfi_def_cfa_offset 16
	.cfi_offset 6, -16
	movq	%rsp, %rbp
	.seh_setframe	%rbp, 0
	.cfi_def_cfa_register 6
	.seh_endprologue
	movq	%rcx, 16(%rbp)
	movq	%rdx, 24(%rbp)
	.loc 29 60 57
	movl	$0, %eax
	.loc 29 60 64
	popq	%rbp
	.cfi_restore 6
	.cfi_def_cfa 7, 8
	ret
	.cfi_endproc
.LFE11344:
	.seh_endproc
	.section	.text$_ZN9wxControl12MSWOnMeasureEPPv,"x"
	.linkonce discard
	.align 2
	.globl	_ZN9wxControl12MSWOnMeasureEPPv
	.def	_ZN9wxControl12MSWOnMeasureEPPv;	.scl	2;	.type	32;	.endef
	.seh_proc	_ZN9wxControl12MSWOnMeasureEPPv
_ZN9wxControl12MSWOnMeasureEPPv:
.LFB11345:
	.loc 29 61 18
	.cfi_startproc
	pushq	%rbp
	.seh_pushreg	%rbp
	.cfi_def_cfa_offset 16
	.cfi_offset 6, -16
	movq	%rsp, %rbp
	.seh_setframe	%rbp, 0
	.cfi_def_cfa_register 6
	.seh_endprologue
	movq	%rcx, 16(%rbp)
	movq	%rdx, 24(%rbp)
	.loc 29 61 63
	movl	$0, %eax
	.loc 29 61 70
	popq	%rbp
	.cfi_restore 6
	.cfi_def_cfa 7, 8
	ret
	.cfi_endproc
.LFE11345:
	.seh_endproc
	.section	.text$_ZN9wxControlD2Ev,"x"
	.linkonce discard
	.align 2
	.globl	_ZN9wxControlD2Ev
	.def	_ZN9wxControlD2Ev;	.scl	2;	.type	32;	.endef
	.seh_proc	_ZN9wxControlD2Ev
_ZN9wxControlD2Ev:
.LFB11349:
	.loc 29 17 7
	.cfi_startproc
	pushq	%rbp
	.seh_pushreg	%rbp
	.cfi_def_cfa_offset 16
	.cfi_offset 6, -16
	movq	%rsp, %rbp
	.seh_setframe	%rbp, 0
	.cfi_def_cfa_register 6
	subq	$32, %rsp
	.seh_stackalloc	32
	.seh_endprologue
	movq	%rcx, 16(%rbp)
.LBB48:
	.loc 29 17 7
	movq	.refptr._ZTV9wxControl(%rip), %rax
	leaq	16(%rax), %rdx
	movq	16(%rbp), %rax
	movq	%rdx, (%rax)
	movq	16(%rbp), %rax
	addq	$624, %rax
	movq	%rax, %rcx
	call	_ZN11wxArrayLongD1Ev
	movq	16(%rbp), %rax
	movq	%rax, %rcx
	call	_ZN13wxControlBaseD2Ev
.LBE48:
	nop
	addq	$32, %rsp
	popq	%rbp
	.cfi_restore 6
	.cfi_def_cfa 7, 8
	ret
	.cfi_endproc
.LFE11349:
	.seh_endproc
	.section	.text$_ZN15wxAnyButtonBaseC2Ev,"x"
	.linkonce discard
	.align 2
	.globl	_ZN15wxAnyButtonBaseC2Ev
	.def	_ZN15wxAnyButtonBaseC2Ev;	.scl	2;	.type	32;	.endef
	.seh_proc	_ZN15wxAnyButtonBaseC2Ev
_ZN15wxAnyButtonBaseC2Ev:
.LFB11352:
	.file 30 "../wxMSW-3.0.5_gcc810_x64_Dev/include/wx/anybutton.h"
	.loc 30 54 5
	.cfi_startproc
	pushq	%rbp
	.seh_pushreg	%rbp
	.cfi_def_cfa_offset 16
	.cfi_offset 6, -16
	movq	%rsp, %rbp
	.seh_setframe	%rbp, 0
	.cfi_def_cfa_register 6
	subq	$32, %rsp
	.seh_stackalloc	32
	.seh_endprologue
	movq	%rcx, 16(%rbp)
.LBB49:
	.loc 30 54 23
	movq	16(%rbp), %rax
	movq	%rax, %rcx
	call	_ZN9wxControlC2Ev
	leaq	16+_ZTV15wxAnyButtonBase(%rip), %rdx
	movq	16(%rbp), %rax
	movq	%rdx, (%rax)
.LBE49:
	.loc 30 54 25
	nop
	addq	$32, %rsp
	popq	%rbp
	.cfi_restore 6
	.cfi_def_cfa 7, 8
	ret
	.cfi_endproc
.LFE11352:
	.seh_endproc
	.section	.text$_ZNK15wxAnyButtonBase20ShouldInheritColoursEv,"x"
	.linkonce discard
	.align 2
	.globl	_ZNK15wxAnyButtonBase20ShouldInheritColoursEv
	.def	_ZNK15wxAnyButtonBase20ShouldInheritColoursEv;	.scl	2;	.type	32;	.endef
	.seh_proc	_ZNK15wxAnyButtonBase20ShouldInheritColoursEv
_ZNK15wxAnyButtonBase20ShouldInheritColoursEv:
.LFB11369:
	.loc 30 105 18
	.cfi_startproc
	pushq	%rbp
	.seh_pushreg	%rbp
	.cfi_def_cfa_offset 16
	.cfi_offset 6, -16
	movq	%rsp, %rbp
	.seh_setframe	%rbp, 0
	.cfi_def_cfa_register 6
	.seh_endprologue
	movq	%rcx, 16(%rbp)
	.loc 30 105 56
	movl	$0, %eax
	.loc 30 105 63
	popq	%rbp
	.cfi_restore 6
	.cfi_def_cfa 7, 8
	ret
	.cfi_endproc
.LFE11369:
	.seh_endproc
	.section	.text$_ZNK15wxAnyButtonBase16GetDefaultBorderEv,"x"
	.linkonce discard
	.align 2
	.globl	_ZNK15wxAnyButtonBase16GetDefaultBorderEv
	.def	_ZNK15wxAnyButtonBase16GetDefaultBorderEv;	.scl	2;	.type	32;	.endef
	.seh_proc	_ZNK15wxAnyButtonBase16GetDefaultBorderEv
_ZNK15wxAnyButtonBase16GetDefaultBorderEv:
.LFB11378:
	.loc 30 153 22
	.cfi_startproc
	pushq	%rbp
	.seh_pushreg	%rbp
	.cfi_def_cfa_offset 16
	.cfi_offset 6, -16
	movq	%rsp, %rbp
	.seh_setframe	%rbp, 0
	.cfi_def_cfa_register 6
	.seh_endprologue
	movq	%rcx, 16(%rbp)
	.loc 30 153 56
	movl	$2097152, %eax
	.loc 30 153 71
	popq	%rbp
	.cfi_restore 6
	.cfi_def_cfa 7, 8
	ret
	.cfi_endproc
.LFE11378:
	.seh_endproc
	.section	.text$_ZNK15wxAnyButtonBase11DoGetBitmapENS_5StateE,"x"
	.linkonce discard
	.align 2
	.globl	_ZNK15wxAnyButtonBase11DoGetBitmapENS_5StateE
	.def	_ZNK15wxAnyButtonBase11DoGetBitmapENS_5StateE;	.scl	2;	.type	32;	.endef
	.seh_proc	_ZNK15wxAnyButtonBase11DoGetBitmapENS_5StateE
_ZNK15wxAnyButtonBase11DoGetBitmapENS_5StateE:
.LFB11379:
	.loc 30 155 22
	.cfi_startproc
	pushq	%rbp
	.seh_pushreg	%rbp
	.cfi_def_cfa_offset 16
	.cfi_offset 6, -16
	movq	%rsp, %rbp
	.seh_setframe	%rbp, 0
	.cfi_def_cfa_register 6
	subq	$32, %rsp
	.seh_stackalloc	32
	.seh_endprologue
	movq	%rcx, 16(%rbp)
	movq	%rdx, 24(%rbp)
	movl	%r8d, 32(%rbp)
	.loc 30 156 27
	movq	16(%rbp), %rcx
	call	_ZN8wxBitmapC1Ev
	.loc 30 156 30
	movq	16(%rbp), %rax
	addq	$32, %rsp
	popq	%rbp
	.cfi_restore 6
	.cfi_def_cfa 7, 8
	ret
	.cfi_endproc
.LFE11379:
	.seh_endproc
	.section	.text$_ZN15wxAnyButtonBase11DoSetBitmapERK8wxBitmapNS_5StateE,"x"
	.linkonce discard
	.align 2
	.globl	_ZN15wxAnyButtonBase11DoSetBitmapERK8wxBitmapNS_5StateE
	.def	_ZN15wxAnyButtonBase11DoSetBitmapERK8wxBitmapNS_5StateE;	.scl	2;	.type	32;	.endef
	.seh_proc	_ZN15wxAnyButtonBase11DoSetBitmapERK8wxBitmapNS_5StateE
_ZN15wxAnyButtonBase11DoSetBitmapERK8wxBitmapNS_5StateE:
.LFB11380:
	.loc 30 157 18
	.cfi_startproc
	pushq	%rbp
	.seh_pushreg	%rbp
	.cfi_def_cfa_offset 16
	.cfi_offset 6, -16
	movq	%rsp, %rbp
	.seh_setframe	%rbp, 0
	.cfi_def_cfa_register 6
	.seh_endprologue
	movq	%rcx, 16(%rbp)
	movq	%rdx, 24(%rbp)
	movl	%r8d, 32(%rbp)
	.loc 30 159 11
	nop
	popq	%rbp
	.cfi_restore 6
	.cfi_def_cfa 7, 8
	ret
	.cfi_endproc
.LFE11380:
	.seh_endproc
	.section	.text$_ZNK15wxAnyButtonBase18DoGetBitmapMarginsEv,"x"
	.linkonce discard
	.align 2
	.globl	_ZNK15wxAnyButtonBase18DoGetBitmapMarginsEv
	.def	_ZNK15wxAnyButtonBase18DoGetBitmapMarginsEv;	.scl	2;	.type	32;	.endef
	.seh_proc	_ZNK15wxAnyButtonBase18DoGetBitmapMarginsEv
_ZNK15wxAnyButtonBase18DoGetBitmapMarginsEv:
.LFB11381:
	.loc 30 161 20
	.cfi_startproc
	pushq	%rbp
	.seh_pushreg	%rbp
	.cfi_def_cfa_offset 16
	.cfi_offset 6, -16
	movq	%rsp, %rbp
	.seh_setframe	%rbp, 0
	.cfi_def_cfa_register 6
	subq	$48, %rsp
	.seh_stackalloc	48
	.seh_endprologue
	movq	%rcx, 16(%rbp)
	.loc 30 162 18
	leaq	-8(%rbp), %rax
	movl	$0, %r8d
	movl	$0, %edx
	movq	%rax, %rcx
	call	_ZN6wxSizeC1Eii
	.loc 30 162 29
	movq	-8(%rbp), %rax
	.loc 30 162 32
	addq	$48, %rsp
	popq	%rbp
	.cfi_restore 6
	.cfi_def_cfa 7, 8
	ret
	.cfi_endproc
.LFE11381:
	.seh_endproc
	.section	.text$_ZN15wxAnyButtonBase18DoSetBitmapMarginsEii,"x"
	.linkonce discard
	.align 2
	.globl	_ZN15wxAnyButtonBase18DoSetBitmapMarginsEii
	.def	_ZN15wxAnyButtonBase18DoSetBitmapMarginsEii;	.scl	2;	.type	32;	.endef
	.seh_proc	_ZN15wxAnyButtonBase18DoSetBitmapMarginsEii
_ZN15wxAnyButtonBase18DoSetBitmapMarginsEii:
.LFB11382:
	.loc 30 164 18
	.cfi_startproc
	pushq	%rbp
	.seh_pushreg	%rbp
	.cfi_def_cfa_offset 16
	.cfi_offset 6, -16
	movq	%rsp, %rbp
	.seh_setframe	%rbp, 0
	.cfi_def_cfa_register 6
	.seh_endprologue
	movq	%rcx, 16(%rbp)
	movl	%edx, 24(%rbp)
	movl	%r8d, 32(%rbp)
	.loc 30 165 11
	nop
	popq	%rbp
	.cfi_restore 6
	.cfi_def_cfa 7, 8
	ret
	.cfi_endproc
.LFE11382:
	.seh_endproc
	.section	.text$_ZN15wxAnyButtonBase19DoSetBitmapPositionE11wxDirection,"x"
	.linkonce discard
	.align 2
	.globl	_ZN15wxAnyButtonBase19DoSetBitmapPositionE11wxDirection
	.def	_ZN15wxAnyButtonBase19DoSetBitmapPositionE11wxDirection;	.scl	2;	.type	32;	.endef
	.seh_proc	_ZN15wxAnyButtonBase19DoSetBitmapPositionE11wxDirection
_ZN15wxAnyButtonBase19DoSetBitmapPositionE11wxDirection:
.LFB11383:
	.loc 30 167 18
	.cfi_startproc
	pushq	%rbp
	.seh_pushreg	%rbp
	.cfi_def_cfa_offset 16
	.cfi_offset 6, -16
	movq	%rsp, %rbp
	.seh_setframe	%rbp, 0
	.cfi_def_cfa_register 6
	.seh_endprologue
	movq	%rcx, 16(%rbp)
	movl	%edx, 24(%rbp)
	.loc 30 168 11
	nop
	popq	%rbp
	.cfi_restore 6
	.cfi_def_cfa 7, 8
	ret
	.cfi_endproc
.LFE11383:
	.seh_endproc
	.section	.text$_ZNK15wxAnyButtonBase15DoGetAuthNeededEv,"x"
	.linkonce discard
	.align 2
	.globl	_ZNK15wxAnyButtonBase15DoGetAuthNeededEv
	.def	_ZNK15wxAnyButtonBase15DoGetAuthNeededEv;	.scl	2;	.type	32;	.endef
	.seh_proc	_ZNK15wxAnyButtonBase15DoGetAuthNeededEv
_ZNK15wxAnyButtonBase15DoGetAuthNeededEv:
.LFB11384:
	.loc 30 170 18
	.cfi_startproc
	pushq	%rbp
	.seh_pushreg	%rbp
	.cfi_def_cfa_offset 16
	.cfi_offset 6, -16
	movq	%rsp, %rbp
	.seh_setframe	%rbp, 0
	.cfi_def_cfa_register 6
	.seh_endprologue
	movq	%rcx, 16(%rbp)
	.loc 30 170 51
	movl	$0, %eax
	.loc 30 170 58
	popq	%rbp
	.cfi_restore 6
	.cfi_def_cfa 7, 8
	ret
	.cfi_endproc
.LFE11384:
	.seh_endproc
	.section	.text$_ZN15wxAnyButtonBase15DoSetAuthNeededEb,"x"
	.linkonce discard
	.align 2
	.globl	_ZN15wxAnyButtonBase15DoSetAuthNeededEb
	.def	_ZN15wxAnyButtonBase15DoSetAuthNeededEb;	.scl	2;	.type	32;	.endef
	.seh_proc	_ZN15wxAnyButtonBase15DoSetAuthNeededEb
_ZN15wxAnyButtonBase15DoSetAuthNeededEb:
.LFB11385:
	.loc 30 171 18
	.cfi_startproc
	pushq	%rbp
	.seh_pushreg	%rbp
	.cfi_def_cfa_offset 16
	.cfi_offset 6, -16
	movq	%rsp, %rbp
	.seh_setframe	%rbp, 0
	.cfi_def_cfa_register 6
	.seh_endprologue
	movq	%rcx, 16(%rbp)
	movl	%edx, %eax
	movb	%al, 24(%rbp)
	.loc 30 171 43
	nop
	popq	%rbp
	.cfi_restore 6
	.cfi_def_cfa 7, 8
	ret
	.cfi_endproc
.LFE11385:
	.seh_endproc
	.section	.text$_ZN15wxAnyButtonBaseD1Ev,"x"
	.linkonce discard
	.align 2
	.globl	_ZN15wxAnyButtonBaseD1Ev
	.def	_ZN15wxAnyButtonBaseD1Ev;	.scl	2;	.type	32;	.endef
	.seh_proc	_ZN15wxAnyButtonBaseD1Ev
_ZN15wxAnyButtonBaseD1Ev:
.LFB11389:
	.loc 30 51 7
	.cfi_startproc
	pushq	%rbp
	.seh_pushreg	%rbp
	.cfi_def_cfa_offset 16
	.cfi_offset 6, -16
	movq	%rsp, %rbp
	.seh_setframe	%rbp, 0
	.cfi_def_cfa_register 6
	subq	$32, %rsp
	.seh_stackalloc	32
	.seh_endprologue
	movq	%rcx, 16(%rbp)
.LBB50:
	.loc 30 51 7
	leaq	16+_ZTV15wxAnyButtonBase(%rip), %rdx
	movq	16(%rbp), %rax
	movq	%rdx, (%rax)
	movq	16(%rbp), %rax
	movq	%rax, %rcx
	call	_ZN9wxControlD2Ev
.LBE50:
	nop
	addq	$32, %rsp
	popq	%rbp
	.cfi_restore 6
	.cfi_def_cfa 7, 8
	ret
	.cfi_endproc
.LFE11389:
	.seh_endproc
	.section	.text$_ZN15wxAnyButtonBaseD0Ev,"x"
	.linkonce discard
	.align 2
	.globl	_ZN15wxAnyButtonBaseD0Ev
	.def	_ZN15wxAnyButtonBaseD0Ev;	.scl	2;	.type	32;	.endef
	.seh_proc	_ZN15wxAnyButtonBaseD0Ev
_ZN15wxAnyButtonBaseD0Ev:
.LFB11390:
	.loc 30 51 7
	.cfi_startproc
	pushq	%rbp
	.seh_pushreg	%rbp
	.cfi_def_cfa_offset 16
	.cfi_offset 6, -16
	movq	%rsp, %rbp
	.seh_setframe	%rbp, 0
	.cfi_def_cfa_register 6
	subq	$32, %rsp
	.seh_stackalloc	32
	.seh_endprologue
	movq	%rcx, 16(%rbp)
	.loc 30 51 7
	movq	16(%rbp), %rcx
	call	_ZN15wxAnyButtonBaseD1Ev
	movq	16(%rbp), %rcx
	call	_ZdlPv
	nop
	addq	$32, %rsp
	popq	%rbp
	.cfi_restore 6
	.cfi_def_cfa 7, 8
	ret
	.cfi_endproc
.LFE11390:
	.seh_endproc
	.section	.text$_ZN11wxAnyButtonC2Ev,"x"
	.linkonce discard
	.align 2
	.globl	_ZN11wxAnyButtonC2Ev
	.def	_ZN11wxAnyButtonC2Ev;	.scl	2;	.type	32;	.endef
	.seh_proc	_ZN11wxAnyButtonC2Ev
_ZN11wxAnyButtonC2Ev:
.LFB11391:
	.file 31 "../wxMSW-3.0.5_gcc810_x64_Dev/include/wx/msw/anybutton.h"
	.loc 31 20 5
	.cfi_startproc
	pushq	%rbp
	.seh_pushreg	%rbp
	.cfi_def_cfa_offset 16
	.cfi_offset 6, -16
	movq	%rsp, %rbp
	.seh_setframe	%rbp, 0
	.cfi_def_cfa_register 6
	subq	$32, %rsp
	.seh_stackalloc	32
	.seh_endprologue
	movq	%rcx, 16(%rbp)
.LBB51:
	.loc 31 21 5
	movq	16(%rbp), %rax
	movq	%rax, %rcx
	call	_ZN15wxAnyButtonBaseC2Ev
	movq	.refptr._ZTV11wxAnyButton(%rip), %rax
	leaq	16(%rax), %rdx
	movq	16(%rbp), %rax
	movq	%rdx, (%rax)
	.loc 31 22 21
	movq	16(%rbp), %rax
	movq	$0, 648(%rax)
	.loc 31 24 22
	movq	16(%rbp), %rax
	movq	$0, 656(%rax)
.LBE51:
	.loc 31 26 5
	nop
	addq	$32, %rsp
	popq	%rbp
	.cfi_restore 6
	.cfi_def_cfa 7, 8
	ret
	.cfi_endproc
.LFE11391:
	.seh_endproc
	.section	.text$_ZN12wxButtonBaseC2Ev,"x"
	.linkonce discard
	.align 2
	.globl	_ZN12wxButtonBaseC2Ev
	.def	_ZN12wxButtonBaseC2Ev;	.scl	2;	.type	32;	.endef
	.seh_proc	_ZN12wxButtonBaseC2Ev
_ZN12wxButtonBaseC2Ev:
.LFB11396:
	.file 32 "../wxMSW-3.0.5_gcc810_x64_Dev/include/wx/button.h"
	.loc 32 29 5
	.cfi_startproc
	pushq	%rbp
	.seh_pushreg	%rbp
	.cfi_def_cfa_offset 16
	.cfi_offset 6, -16
	movq	%rsp, %rbp
	.seh_setframe	%rbp, 0
	.cfi_def_cfa_register 6
	subq	$32, %rsp
	.seh_stackalloc	32
	.seh_endprologue
	movq	%rcx, 16(%rbp)
.LBB52:
	.loc 32 29 20
	movq	16(%rbp), %rax
	movq	%rax, %rcx
	call	_ZN11wxAnyButtonC2Ev
	movq	.refptr._ZTV12wxButtonBase(%rip), %rax
	leaq	16(%rax), %rdx
	movq	16(%rbp), %rax
	movq	%rdx, (%rax)
.LBE52:
	.loc 32 29 22
	nop
	addq	$32, %rsp
	popq	%rbp
	.cfi_restore 6
	.cfi_def_cfa 7, 8
	ret
	.cfi_endproc
.LFE11396:
	.seh_endproc
	.section	.text$_ZN12wxButtonBaseD2Ev,"x"
	.linkonce discard
	.align 2
	.globl	_ZN12wxButtonBaseD2Ev
	.def	_ZN12wxButtonBaseD2Ev;	.scl	2;	.type	32;	.endef
	.seh_proc	_ZN12wxButtonBaseD2Ev
_ZN12wxButtonBaseD2Ev:
.LFB11402:
	.loc 32 26 7
	.cfi_startproc
	pushq	%rbp
	.seh_pushreg	%rbp
	.cfi_def_cfa_offset 16
	.cfi_offset 6, -16
	movq	%rsp, %rbp
	.seh_setframe	%rbp, 0
	.cfi_def_cfa_register 6
	subq	$32, %rsp
	.seh_stackalloc	32
	.seh_endprologue
	movq	%rcx, 16(%rbp)
.LBB53:
	.loc 32 26 7
	movq	.refptr._ZTV12wxButtonBase(%rip), %rax
	leaq	16(%rax), %rdx
	movq	16(%rbp), %rax
	movq	%rdx, (%rax)
	movq	16(%rbp), %rax
	movq	%rax, %rcx
	call	_ZN11wxAnyButtonD2Ev
.LBE53:
	nop
	addq	$32, %rsp
	popq	%rbp
	.cfi_restore 6
	.cfi_def_cfa 7, 8
	ret
	.cfi_endproc
.LFE11402:
	.seh_endproc
	.section	.text$_ZN8wxButtonC1EP8wxWindowiRK8wxStringRK7wxPointRK6wxSizelRK11wxValidatorS4_,"x"
	.linkonce discard
	.align 2
	.globl	_ZN8wxButtonC1EP8wxWindowiRK8wxStringRK7wxPointRK6wxSizelRK11wxValidatorS4_
	.def	_ZN8wxButtonC1EP8wxWindowiRK8wxStringRK7wxPointRK6wxSizelRK11wxValidatorS4_;	.scl	2;	.type	32;	.endef
	.seh_proc	_ZN8wxButtonC1EP8wxWindowiRK8wxStringRK7wxPointRK6wxSizelRK11wxValidatorS4_
_ZN8wxButtonC1EP8wxWindowiRK8wxStringRK7wxPointRK6wxSizelRK11wxValidatorS4_:
.LFB11409:
	.file 33 "../wxMSW-3.0.5_gcc810_x64_Dev/include/wx/msw/button.h"
	.loc 33 22 5
	.cfi_startproc
	pushq	%rbp
	.seh_pushreg	%rbp
	.cfi_def_cfa_offset 16
	.cfi_offset 6, -16
	pushq	%rbx
	.seh_pushreg	%rbx
	.cfi_def_cfa_offset 24
	.cfi_offset 3, -24
	subq	$88, %rsp
	.seh_stackalloc	88
	.cfi_def_cfa_offset 112
	leaq	128(%rsp), %rbp
	.seh_setframe	%rbp, 128
	.cfi_def_cfa 6, -16
	.seh_endprologue
	movq	%rcx, -16(%rbp)
	movq	%rdx, -8(%rbp)
	movl	%r8d, 0(%rbp)
	movq	%r9, 8(%rbp)
.LBB54:
	.loc 33 30 5
	movq	-16(%rbp), %rax
	movq	%rax, %rcx
.LEHB27:
	call	_ZN12wxButtonBaseC2Ev
.LEHE27:
	movq	.refptr._ZTV8wxButton(%rip), %rax
	leaq	16(%rax), %rdx
	movq	-16(%rbp), %rax
	movq	%rdx, (%rax)
	.loc 33 31 13
	movq	-16(%rbp), %rcx
	call	_ZN8wxButton4InitEv
	.loc 33 33 15
	movq	8(%rbp), %r8
	movl	0(%rbp), %ecx
	movq	-8(%rbp), %rax
	movq	48(%rbp), %rdx
	movq	%rdx, 64(%rsp)
	movq	40(%rbp), %rdx
	movq	%rdx, 56(%rsp)
	movl	32(%rbp), %edx
	movl	%edx, 48(%rsp)
	movq	24(%rbp), %rdx
	movq	%rdx, 40(%rsp)
	movq	16(%rbp), %rdx
	movq	%rdx, 32(%rsp)
	movq	%r8, %r9
	movl	%ecx, %r8d
	movq	%rax, %rdx
	movq	-16(%rbp), %rcx
.LEHB28:
	call	_ZN8wxButton6CreateEP8wxWindowiRK8wxStringRK7wxPointRK6wxSizelRK11wxValidatorS4_
.LEHE28:
.LBE54:
	.loc 33 34 5
	jmp	.L328
.L327:
	movq	%rax, %rbx
.LBB55:
	.loc 33 30 5
	movq	-16(%rbp), %rax
	movq	%rax, %rcx
	call	_ZN12wxButtonBaseD2Ev
	movq	%rbx, %rax
	movq	%rax, %rcx
.LEHB29:
	call	_Unwind_Resume
	nop
.LEHE29:
.L328:
.LBE55:
	.loc 33 34 5
	addq	$88, %rsp
	popq	%rbx
	.cfi_restore 3
	popq	%rbp
	.cfi_restore 6
	.cfi_def_cfa 7, -72
	ret
	.cfi_endproc
.LFE11409:
	.seh_handler	__gxx_personality_seh0, @unwind, @except
	.seh_handlerdata
.LLSDA11409:
	.byte	0xff
	.byte	0xff
	.byte	0x1
	.uleb128 .LLSDACSE11409-.LLSDACSB11409
.LLSDACSB11409:
	.uleb128 .LEHB27-.LFB11409
	.uleb128 .LEHE27-.LEHB27
	.uleb128 0
	.uleb128 0
	.uleb128 .LEHB28-.LFB11409
	.uleb128 .LEHE28-.LEHB28
	.uleb128 .L327-.LFB11409
	.uleb128 0
	.uleb128 .LEHB29-.LFB11409
	.uleb128 .LEHE29-.LEHB29
	.uleb128 0
	.uleb128 0
.LLSDACSE11409:
	.section	.text$_ZN8wxButtonC1EP8wxWindowiRK8wxStringRK7wxPointRK6wxSizelRK11wxValidatorS4_,"x"
	.linkonce discard
	.seh_endproc
	.section	.text$_ZN8wxButton4InitEv,"x"
	.linkonce discard
	.align 2
	.globl	_ZN8wxButton4InitEv
	.def	_ZN8wxButton4InitEv;	.scl	2;	.type	32;	.endef
	.seh_proc	_ZN8wxButton4InitEv
_ZN8wxButton4InitEv:
.LFB11410:
	.loc 33 74 10
	.cfi_startproc
	pushq	%rbp
	.seh_pushreg	%rbp
	.cfi_def_cfa_offset 16
	.cfi_offset 6, -16
	movq	%rsp, %rbp
	.seh_setframe	%rbp, 0
	.cfi_def_cfa_register 6
	.seh_endprologue
	movq	%rcx, 16(%rbp)
	.loc 33 76 22
	movq	16(%rbp), %rax
	movb	$0, 664(%rax)
	.loc 33 77 5
	nop
	popq	%rbp
	.cfi_restore 6
	.cfi_def_cfa 7, 8
	ret
	.cfi_endproc
.LFE11410:
	.seh_endproc
	.section	.text$_ZNK20wxNonOwnedWindowBase27AdjustForParentClientOriginERiS0_i,"x"
	.linkonce discard
	.align 2
	.globl	_ZNK20wxNonOwnedWindowBase27AdjustForParentClientOriginERiS0_i
	.def	_ZNK20wxNonOwnedWindowBase27AdjustForParentClientOriginERiS0_i;	.scl	2;	.type	32;	.endef
	.seh_proc	_ZNK20wxNonOwnedWindowBase27AdjustForParentClientOriginERiS0_i
_ZNK20wxNonOwnedWindowBase27AdjustForParentClientOriginERiS0_i:
.LFB11412:
	.file 34 "../wxMSW-3.0.5_gcc810_x64_Dev/include/wx/nonownedwnd.h"
	.loc 34 64 18
	.cfi_startproc
	pushq	%rbp
	.seh_pushreg	%rbp
	.cfi_def_cfa_offset 16
	.cfi_offset 6, -16
	movq	%rsp, %rbp
	.seh_setframe	%rbp, 0
	.cfi_def_cfa_register 6
	.seh_endprologue
	movq	%rcx, 16(%rbp)
	movq	%rdx, 24(%rbp)
	movq	%r8, 32(%rbp)
	movl	%r9d, 40(%rbp)
	.loc 34 69 5
	nop
	popq	%rbp
	.cfi_restore 6
	.cfi_def_cfa 7, 8
	ret
	.cfi_endproc
.LFE11412:
	.seh_endproc
	.section	.text$_ZN20wxNonOwnedWindowBase17InheritAttributesEv,"x"
	.linkonce discard
	.align 2
	.globl	_ZN20wxNonOwnedWindowBase17InheritAttributesEv
	.def	_ZN20wxNonOwnedWindowBase17InheritAttributesEv;	.scl	2;	.type	32;	.endef
	.seh_proc	_ZN20wxNonOwnedWindowBase17InheritAttributesEv
_ZN20wxNonOwnedWindowBase17InheritAttributesEv:
.LFB11413:
	.loc 34 71 18
	.cfi_startproc
	pushq	%rbp
	.seh_pushreg	%rbp
	.cfi_def_cfa_offset 16
	.cfi_offset 6, -16
	movq	%rsp, %rbp
	.seh_setframe	%rbp, 0
	.cfi_def_cfa_register 6
	.seh_endprologue
	movq	%rcx, 16(%rbp)
	.loc 34 76 5
	nop
	popq	%rbp
	.cfi_restore 6
	.cfi_def_cfa 7, 8
	ret
	.cfi_endproc
.LFE11413:
	.seh_endproc
	.section	.text$_ZN20wxTopLevelWindowBase8IsActiveEv,"x"
	.linkonce discard
	.align 2
	.globl	_ZN20wxTopLevelWindowBase8IsActiveEv
	.def	_ZN20wxTopLevelWindowBase8IsActiveEv;	.scl	2;	.type	32;	.endef
	.seh_proc	_ZN20wxTopLevelWindowBase8IsActiveEv
_ZN20wxTopLevelWindowBase8IsActiveEv:
.LFB11524:
	.file 35 "../wxMSW-3.0.5_gcc810_x64_Dev/include/wx/toplevel.h"
	.loc 35 226 18
	.cfi_startproc
	pushq	%rbp
	.seh_pushreg	%rbp
	.cfi_def_cfa_offset 16
	.cfi_offset 6, -16
	pushq	%rbx
	.seh_pushreg	%rbx
	.cfi_def_cfa_offset 24
	.cfi_offset 3, -24
	subq	$40, %rsp
	.seh_stackalloc	40
	.cfi_def_cfa_offset 64
	leaq	128(%rsp), %rbp
	.seh_setframe	%rbp, 128
	.cfi_def_cfa 6, -64
	.seh_endprologue
	movq	%rcx, -64(%rbp)
	.loc 35 226 50
	movq	-64(%rbp), %rbx
	.loc 35 226 60
	call	_ZN12wxWindowBase9FindFocusEv
	.loc 35 226 50
	movq	%rax, %rdx
	movq	%rbx, %rcx
	call	_ZNK12wxWindowBase12IsDescendantEPS_
	.loc 35 226 65
	addq	$40, %rsp
	popq	%rbx
	.cfi_restore 3
	popq	%rbp
	.cfi_restore 6
	.cfi_def_cfa 7, -24
	ret
	.cfi_endproc
.LFE11524:
	.seh_endproc
	.section	.text$_ZNK20wxTopLevelWindowBase20ShouldPreventAppExitEv,"x"
	.linkonce discard
	.align 2
	.globl	_ZNK20wxTopLevelWindowBase20ShouldPreventAppExitEv
	.def	_ZNK20wxTopLevelWindowBase20ShouldPreventAppExitEv;	.scl	2;	.type	32;	.endef
	.seh_proc	_ZNK20wxTopLevelWindowBase20ShouldPreventAppExitEv
_ZNK20wxTopLevelWindowBase20ShouldPreventAppExitEv:
.LFB11525:
	.loc 35 233 18
	.cfi_startproc
	pushq	%rbp
	.seh_pushreg	%rbp
	.cfi_def_cfa_offset 16
	.cfi_offset 6, -16
	movq	%rsp, %rbp
	.seh_setframe	%rbp, 0
	.cfi_def_cfa_register 6
	.seh_endprologue
	movq	%rcx, 16(%rbp)
	.loc 35 233 56
	movl	$1, %eax
	.loc 35 233 62
	popq	%rbp
	.cfi_restore 6
	.cfi_def_cfa 7, 8
	ret
	.cfi_endproc
.LFE11525:
	.seh_endproc
	.section	.text$_ZNK20wxTopLevelWindowBase10IsTopLevelEv,"x"
	.linkonce discard
	.align 2
	.globl	_ZNK20wxTopLevelWindowBase10IsTopLevelEv
	.def	_ZNK20wxTopLevelWindowBase10IsTopLevelEv;	.scl	2;	.type	32;	.endef
	.seh_proc	_ZNK20wxTopLevelWindowBase10IsTopLevelEv
_ZNK20wxTopLevelWindowBase10IsTopLevelEv:
.LFB11532:
	.loc 35 277 18
	.cfi_startproc
	pushq	%rbp
	.seh_pushreg	%rbp
	.cfi_def_cfa_offset 16
	.cfi_offset 6, -16
	movq	%rsp, %rbp
	.seh_setframe	%rbp, 0
	.cfi_def_cfa_register 6
	.seh_endprologue
	movq	%rcx, 16(%rbp)
	.loc 35 277 46
	movl	$1, %eax
	.loc 35 277 52
	popq	%rbp
	.cfi_restore 6
	.cfi_def_cfa 7, 8
	ret
	.cfi_endproc
.LFE11532:
	.seh_endproc
	.section	.text$_ZNK20wxTopLevelWindowBase21IsTopNavigationDomainEv,"x"
	.linkonce discard
	.align 2
	.globl	_ZNK20wxTopLevelWindowBase21IsTopNavigationDomainEv
	.def	_ZNK20wxTopLevelWindowBase21IsTopNavigationDomainEv;	.scl	2;	.type	32;	.endef
	.seh_proc	_ZNK20wxTopLevelWindowBase21IsTopNavigationDomainEv
_ZNK20wxTopLevelWindowBase21IsTopNavigationDomainEv:
.LFB11533:
	.loc 35 278 18
	.cfi_startproc
	pushq	%rbp
	.seh_pushreg	%rbp
	.cfi_def_cfa_offset 16
	.cfi_offset 6, -16
	movq	%rsp, %rbp
	.seh_setframe	%rbp, 0
	.cfi_def_cfa_register 6
	.seh_endprologue
	movq	%rcx, 16(%rbp)
	.loc 35 278 57
	movl	$1, %eax
	.loc 35 278 63
	popq	%rbp
	.cfi_restore 6
	.cfi_def_cfa 7, 8
	ret
	.cfi_endproc
.LFE11533:
	.seh_endproc
	.section	.text$_ZNK20wxTopLevelWindowBase9IsVisibleEv,"x"
	.linkonce discard
	.align 2
	.globl	_ZNK20wxTopLevelWindowBase9IsVisibleEv
	.def	_ZNK20wxTopLevelWindowBase9IsVisibleEv;	.scl	2;	.type	32;	.endef
	.seh_proc	_ZNK20wxTopLevelWindowBase9IsVisibleEv
_ZNK20wxTopLevelWindowBase9IsVisibleEv:
.LFB11534:
	.loc 35 279 18
	.cfi_startproc
	pushq	%rbp
	.seh_pushreg	%rbp
	.cfi_def_cfa_offset 16
	.cfi_offset 6, -16
	movq	%rsp, %rbp
	.seh_setframe	%rbp, 0
	.cfi_def_cfa_register 6
	subq	$32, %rsp
	.seh_stackalloc	32
	.seh_endprologue
	movq	%rcx, 16(%rbp)
	.loc 35 279 52
	movq	16(%rbp), %rdx
	.loc 35 279 53
	movq	16(%rbp), %rax
	movq	(%rax), %rax
	addq	$480, %rax
	movq	(%rax), %rax
	.loc 35 279 52
	movq	%rdx, %rcx
	call	*%rax
.LVL21:
	.loc 35 279 56
	addq	$32, %rsp
	popq	%rbp
	.cfi_restore 6
	.cfi_def_cfa 7, 8
	ret
	.cfi_endproc
.LFE11534:
	.seh_endproc
	.section	.text$_ZN20wxTopLevelWindowBase14OSXSetModifiedEb,"x"
	.linkonce discard
	.align 2
	.globl	_ZN20wxTopLevelWindowBase14OSXSetModifiedEb
	.def	_ZN20wxTopLevelWindowBase14OSXSetModifiedEb;	.scl	2;	.type	32;	.endef
	.seh_proc	_ZN20wxTopLevelWindowBase14OSXSetModifiedEb
_ZN20wxTopLevelWindowBase14OSXSetModifiedEb:
.LFB11537:
	.loc 35 299 18
	.cfi_startproc
	pushq	%rbp
	.seh_pushreg	%rbp
	.cfi_def_cfa_offset 16
	.cfi_offset 6, -16
	movq	%rsp, %rbp
	.seh_setframe	%rbp, 0
	.cfi_def_cfa_register 6
	.seh_endprologue
	movq	%rcx, 16(%rbp)
	movl	%edx, %eax
	movb	%al, 24(%rbp)
	.loc 35 299 61
	movq	16(%rbp), %rdx
	movzbl	24(%rbp), %eax
	movb	%al, 640(%rdx)
	.loc 35 299 73
	nop
	popq	%rbp
	.cfi_restore 6
	.cfi_def_cfa 7, 8
	ret
	.cfi_endproc
.LFE11537:
	.seh_endproc
	.section	.text$_ZNK20wxTopLevelWindowBase13OSXIsModifiedEv,"x"
	.linkonce discard
	.align 2
	.globl	_ZNK20wxTopLevelWindowBase13OSXIsModifiedEv
	.def	_ZNK20wxTopLevelWindowBase13OSXIsModifiedEv;	.scl	2;	.type	32;	.endef
	.seh_proc	_ZNK20wxTopLevelWindowBase13OSXIsModifiedEv
_ZNK20wxTopLevelWindowBase13OSXIsModifiedEv:
.LFB11538:
	.loc 35 300 18
	.cfi_startproc
	pushq	%rbp
	.seh_pushreg	%rbp
	.cfi_def_cfa_offset 16
	.cfi_offset 6, -16
	movq	%rsp, %rbp
	.seh_setframe	%rbp, 0
	.cfi_def_cfa_register 6
	.seh_endprologue
	movq	%rcx, 16(%rbp)
	.loc 35 300 49
	movq	16(%rbp), %rax
	movzbl	640(%rax), %eax
	.loc 35 300 61
	popq	%rbp
	.cfi_restore 6
	.cfi_def_cfa 7, 8
	ret
	.cfi_endproc
.LFE11538:
	.seh_endproc
	.section	.text$_ZN20wxTopLevelWindowBase22SetRepresentedFilenameERK8wxString,"x"
	.linkonce discard
	.align 2
	.globl	_ZN20wxTopLevelWindowBase22SetRepresentedFilenameERK8wxString
	.def	_ZN20wxTopLevelWindowBase22SetRepresentedFilenameERK8wxString;	.scl	2;	.type	32;	.endef
	.seh_proc	_ZN20wxTopLevelWindowBase22SetRepresentedFilenameERK8wxString
_ZN20wxTopLevelWindowBase22SetRepresentedFilenameERK8wxString:
.LFB11539:
	.loc 35 302 18
	.cfi_startproc
	pushq	%rbp
	.seh_pushreg	%rbp
	.cfi_def_cfa_offset 16
	.cfi_offset 6, -16
	movq	%rsp, %rbp
	.seh_setframe	%rbp, 0
	.cfi_def_cfa_register 6
	.seh_endprologue
	movq	%rcx, 16(%rbp)
	movq	%rdx, 24(%rbp)
	.loc 35 302 61
	nop
	popq	%rbp
	.cfi_restore 6
	.cfi_def_cfa 7, 8
	ret
	.cfi_endproc
.LFE11539:
	.seh_endproc
	.section	.text$_ZN20wxTopLevelWindowBase10DoGiveHelpERK8wxStringb,"x"
	.linkonce discard
	.align 2
	.globl	_ZN20wxTopLevelWindowBase10DoGiveHelpERK8wxStringb
	.def	_ZN20wxTopLevelWindowBase10DoGiveHelpERK8wxStringb;	.scl	2;	.type	32;	.endef
	.seh_proc	_ZN20wxTopLevelWindowBase10DoGiveHelpERK8wxStringb
_ZN20wxTopLevelWindowBase10DoGiveHelpERK8wxStringb:
.LFB11540:
	.loc 35 308 18
	.cfi_startproc
	pushq	%rbp
	.seh_pushreg	%rbp
	.cfi_def_cfa_offset 16
	.cfi_offset 6, -16
	movq	%rsp, %rbp
	.seh_setframe	%rbp, 0
	.cfi_def_cfa_register 6
	.seh_endprologue
	movq	%rcx, 16(%rbp)
	movq	%rdx, 24(%rbp)
	movl	%r8d, %eax
	movb	%al, 32(%rbp)
	.loc 35 308 55
	nop
	popq	%rbp
	.cfi_restore 6
	.cfi_def_cfa 7, 8
	ret
	.cfi_endproc
.LFE11540:
	.seh_endproc
	.section	.text$_ZNK20wxTopLevelWindowBase19DoGetScreenPositionEPiS0_,"x"
	.linkonce discard
	.align 2
	.globl	_ZNK20wxTopLevelWindowBase19DoGetScreenPositionEPiS0_
	.def	_ZNK20wxTopLevelWindowBase19DoGetScreenPositionEPiS0_;	.scl	2;	.type	32;	.endef
	.seh_proc	_ZNK20wxTopLevelWindowBase19DoGetScreenPositionEPiS0_
_ZNK20wxTopLevelWindowBase19DoGetScreenPositionEPiS0_:
.LFB11541:
	.loc 35 322 18
	.cfi_startproc
	pushq	%rbp
	.seh_pushreg	%rbp
	.cfi_def_cfa_offset 16
	.cfi_offset 6, -16
	movq	%rsp, %rbp
	.seh_setframe	%rbp, 0
	.cfi_def_cfa_register 6
	subq	$32, %rsp
	.seh_stackalloc	32
	.seh_endprologue
	movq	%rcx, 16(%rbp)
	movq	%rdx, 24(%rbp)
	movq	%r8, 32(%rbp)
	.loc 35 324 22
	movq	16(%rbp), %rcx
	.loc 35 324 27
	movq	16(%rbp), %rax
	movq	(%rax), %rax
	addq	$1304, %rax
	movq	(%rax), %rax
	.loc 35 324 22
	movq	32(%rbp), %r8
	movq	24(%rbp), %rdx
	call	*%rax
.LVL22:
	.loc 35 325 5
	nop
	addq	$32, %rsp
	popq	%rbp
	.cfi_restore 6
	.cfi_def_cfa 7, 8
	ret
	.cfi_endproc
.LFE11541:
	.seh_endproc
	.section	.text$_ZNK20wxTopLevelWindowBase11IsOneOfBarsEPK8wxWindow,"x"
	.linkonce discard
	.align 2
	.globl	_ZNK20wxTopLevelWindowBase11IsOneOfBarsEPK8wxWindow
	.def	_ZNK20wxTopLevelWindowBase11IsOneOfBarsEPK8wxWindow;	.scl	2;	.type	32;	.endef
	.seh_proc	_ZNK20wxTopLevelWindowBase11IsOneOfBarsEPK8wxWindow
_ZNK20wxTopLevelWindowBase11IsOneOfBarsEPK8wxWindow:
.LFB11542:
	.loc 35 329 18
	.cfi_startproc
	pushq	%rbp
	.seh_pushreg	%rbp
	.cfi_def_cfa_offset 16
	.cfi_offset 6, -16
	movq	%rsp, %rbp
	.seh_setframe	%rbp, 0
	.cfi_def_cfa_register 6
	.seh_endprologue
	movq	%rcx, 16(%rbp)
	movq	%rdx, 24(%rbp)
	.loc 35 330 18
	movl	$0, %eax
	.loc 35 330 25
	popq	%rbp
	.cfi_restore 6
	.cfi_def_cfa 7, 8
	ret
	.cfi_endproc
.LFE11542:
	.seh_endproc
	.section	.text$_ZNK19wxTopLevelWindowMSW12IsFullScreenEv,"x"
	.linkonce discard
	.align 2
	.globl	_ZNK19wxTopLevelWindowMSW12IsFullScreenEv
	.def	_ZNK19wxTopLevelWindowMSW12IsFullScreenEv;	.scl	2;	.type	32;	.endef
	.seh_proc	_ZNK19wxTopLevelWindowMSW12IsFullScreenEv
_ZNK19wxTopLevelWindowMSW12IsFullScreenEv:
.LFB11551:
	.file 36 "../wxMSW-3.0.5_gcc810_x64_Dev/include/wx/msw/toplevel.h"
	.loc 36 66 18
	.cfi_startproc
	pushq	%rbp
	.seh_pushreg	%rbp
	.cfi_def_cfa_offset 16
	.cfi_offset 6, -16
	movq	%rsp, %rbp
	.seh_setframe	%rbp, 0
	.cfi_def_cfa_register 6
	.seh_endprologue
	movq	%rcx, 16(%rbp)
	.loc 36 66 48
	movq	16(%rbp), %rax
	movzbl	669(%rax), %eax
	.loc 36 66 63
	popq	%rbp
	.cfi_restore 6
	.cfi_def_cfa 7, 8
	ret
	.cfi_endproc
.LFE11551:
	.seh_endproc
	.section	.text$_ZNK19wxTopLevelWindowMSW19CanApplyThemeBorderEv,"x"
	.linkonce discard
	.align 2
	.globl	_ZNK19wxTopLevelWindowMSW19CanApplyThemeBorderEv
	.def	_ZNK19wxTopLevelWindowMSW19CanApplyThemeBorderEv;	.scl	2;	.type	32;	.endef
	.seh_proc	_ZNK19wxTopLevelWindowMSW19CanApplyThemeBorderEv
_ZNK19wxTopLevelWindowMSW19CanApplyThemeBorderEv:
.LFB11554:
	.loc 36 122 18
	.cfi_startproc
	pushq	%rbp
	.seh_pushreg	%rbp
	.cfi_def_cfa_offset 16
	.cfi_offset 6, -16
	movq	%rsp, %rbp
	.seh_setframe	%rbp, 0
	.cfi_def_cfa_register 6
	.seh_endprologue
	movq	%rcx, 16(%rbp)
	.loc 36 122 55
	movl	$0, %eax
	.loc 36 122 62
	popq	%rbp
	.cfi_restore 6
	.cfi_def_cfa 7, 8
	ret
	.cfi_endproc
.LFE11554:
	.seh_endproc
	.section	.text$_ZN22wxControlContainerBaseD2Ev,"x"
	.linkonce discard
	.align 2
	.globl	_ZN22wxControlContainerBaseD2Ev
	.def	_ZN22wxControlContainerBaseD2Ev;	.scl	2;	.type	32;	.endef
	.seh_proc	_ZN22wxControlContainerBaseD2Ev
_ZN22wxControlContainerBaseD2Ev:
.LFB11565:
	.file 37 "../wxMSW-3.0.5_gcc810_x64_Dev/include/wx/containr.h"
	.loc 37 53 13
	.cfi_startproc
	pushq	%rbp
	.seh_pushreg	%rbp
	.cfi_def_cfa_offset 16
	.cfi_offset 6, -16
	movq	%rsp, %rbp
	.seh_setframe	%rbp, 0
	.cfi_def_cfa_register 6
	.seh_endprologue
	movq	%rcx, 16(%rbp)
.LBB56:
	.loc 37 53 39
	movq	.refptr._ZTV22wxControlContainerBase(%rip), %rax
	leaq	16(%rax), %rdx
	movq	16(%rbp), %rax
	movq	%rdx, (%rax)
.LBE56:
	.loc 37 53 40
	nop
	popq	%rbp
	.cfi_restore 6
	.cfi_def_cfa 7, 8
	ret
	.cfi_endproc
.LFE11565:
	.seh_endproc
	.section	.text$_ZNK22wxControlContainerBase23AcceptsFocusRecursivelyEv,"x"
	.linkonce discard
	.align 2
	.globl	_ZNK22wxControlContainerBase23AcceptsFocusRecursivelyEv
	.def	_ZNK22wxControlContainerBase23AcceptsFocusRecursivelyEv;	.scl	2;	.type	32;	.endef
	.seh_proc	_ZNK22wxControlContainerBase23AcceptsFocusRecursivelyEv
_ZNK22wxControlContainerBase23AcceptsFocusRecursivelyEv:
.LFB11571:
	.loc 37 81 10
	.cfi_startproc
	pushq	%rbp
	.seh_pushreg	%rbp
	.cfi_def_cfa_offset 16
	.cfi_offset 6, -16
	movq	%rsp, %rbp
	.seh_setframe	%rbp, 0
	.cfi_def_cfa_register 6
	subq	$32, %rsp
	.seh_stackalloc	32
	.seh_endprologue
	movq	%rcx, 16(%rbp)
	.loc 37 82 30
	movq	16(%rbp), %rcx
	call	_ZNK22wxControlContainerBase12AcceptsFocusEv
	.loc 37 82 33
	testb	%al, %al
	jne	.L356
	.loc 37 83 14 discriminator 2
	movq	16(%rbp), %rax
	movzbl	25(%rax), %eax
	.loc 37 82 33 discriminator 2
	testb	%al, %al
	je	.L357
	.loc 37 83 68
	movq	16(%rbp), %rcx
	call	_ZNK22wxControlContainerBase28HasAnyChildrenAcceptingFocusEv
	.loc 37 83 37
	testb	%al, %al
	je	.L357
.L356:
	.loc 37 82 33 discriminator 1
	movl	$1, %eax
	jmp	.L358
.L357:
	.loc 37 82 33 is_stmt 0 discriminator 3
	movl	$0, %eax
.L358:
	.loc 37 83 73 is_stmt 1
	addq	$32, %rsp
	popq	%rbp
	.cfi_restore 6
	.cfi_def_cfa 7, 8
	ret
	.cfi_endproc
.LFE11571:
	.seh_endproc
	.section	.text$_ZNK22wxControlContainerBase24AcceptsFocusFromKeyboardEv,"x"
	.linkonce discard
	.align 2
	.globl	_ZNK22wxControlContainerBase24AcceptsFocusFromKeyboardEv
	.def	_ZNK22wxControlContainerBase24AcceptsFocusFromKeyboardEv;	.scl	2;	.type	32;	.endef
	.seh_proc	_ZNK22wxControlContainerBase24AcceptsFocusFromKeyboardEv
_ZNK22wxControlContainerBase24AcceptsFocusFromKeyboardEv:
.LFB11572:
	.loc 37 86 10
	.cfi_startproc
	pushq	%rbp
	.seh_pushreg	%rbp
	.cfi_def_cfa_offset 16
	.cfi_offset 6, -16
	movq	%rsp, %rbp
	.seh_setframe	%rbp, 0
	.cfi_def_cfa_register 6
	subq	$32, %rsp
	.seh_stackalloc	32
	.seh_endprologue
	movq	%rcx, 16(%rbp)
	.loc 37 86 75
	movq	16(%rbp), %rcx
	call	_ZNK22wxControlContainerBase23AcceptsFocusRecursivelyEv
	.loc 37 86 79
	addq	$32, %rsp
	popq	%rbp
	.cfi_restore 6
	.cfi_def_cfa 7, 8
	ret
	.cfi_endproc
.LFE11572:
	.seh_endproc
	.section	.text$_ZN16wxTopLevelWindowD2Ev,"x"
	.linkonce discard
	.align 2
	.globl	_ZN16wxTopLevelWindowD2Ev
	.def	_ZN16wxTopLevelWindowD2Ev;	.scl	2;	.type	32;	.endef
	.seh_proc	_ZN16wxTopLevelWindowD2Ev
_ZN16wxTopLevelWindowD2Ev:
.LFB16317:
	.loc 35 395 11
	.cfi_startproc
	pushq	%rbp
	.seh_pushreg	%rbp
	.cfi_def_cfa_offset 16
	.cfi_offset 6, -16
	movq	%rsp, %rbp
	.seh_setframe	%rbp, 0
	.cfi_def_cfa_register 6
	subq	$32, %rsp
	.seh_stackalloc	32
	.seh_endprologue
	movq	%rcx, 16(%rbp)
.LBB57:
	.loc 35 395 11
	movq	.refptr._ZTV16wxTopLevelWindow(%rip), %rax
	leaq	16(%rax), %rdx
	movq	16(%rbp), %rax
	movq	%rdx, (%rax)
	movq	16(%rbp), %rax
	movq	%rax, %rcx
	call	_ZN19wxTopLevelWindowMSWD2Ev
.LBE57:
	nop
	addq	$32, %rsp
	popq	%rbp
	.cfi_restore 6
	.cfi_def_cfa 7, 8
	ret
	.cfi_endproc
.LFE16317:
	.seh_endproc
	.section	.text$_ZN19wxNavigationEnabledI16wxTopLevelWindowED2Ev,"x"
	.linkonce discard
	.align 2
	.globl	_ZN19wxNavigationEnabledI16wxTopLevelWindowED2Ev
	.def	_ZN19wxNavigationEnabledI16wxTopLevelWindowED2Ev;	.scl	2;	.type	32;	.endef
	.seh_proc	_ZN19wxNavigationEnabledI16wxTopLevelWindowED2Ev
_ZN19wxNavigationEnabledI16wxTopLevelWindowED2Ev:
.LFB16320:
	.loc 37 182 7
	.cfi_startproc
	pushq	%rbp
	.seh_pushreg	%rbp
	.cfi_def_cfa_offset 16
	.cfi_offset 6, -16
	movq	%rsp, %rbp
	.seh_setframe	%rbp, 0
	.cfi_def_cfa_register 6
	subq	$32, %rsp
	.seh_stackalloc	32
	.seh_endprologue
	movq	%rcx, 16(%rbp)
.LBB58:
	.loc 37 182 7
	leaq	16+_ZTV19wxNavigationEnabledI16wxTopLevelWindowE(%rip), %rdx
	movq	16(%rbp), %rax
	movq	%rdx, (%rax)
	movq	16(%rbp), %rax
	addq	$696, %rax
	movq	%rax, %rcx
	call	_ZN18wxControlContainerD1Ev
	movq	16(%rbp), %rax
	movq	%rax, %rcx
	call	_ZN16wxTopLevelWindowD2Ev
.LBE58:
	nop
	addq	$32, %rsp
	popq	%rbp
	.cfi_restore 6
	.cfi_def_cfa 7, 8
	ret
	.cfi_endproc
.LFE16320:
	.seh_endproc
	.section	.text$_ZN19wxNavigationEnabledI16wxTopLevelWindowED1Ev,"x"
	.linkonce discard
	.align 2
	.globl	_ZN19wxNavigationEnabledI16wxTopLevelWindowED1Ev
	.def	_ZN19wxNavigationEnabledI16wxTopLevelWindowED1Ev;	.scl	2;	.type	32;	.endef
	.seh_proc	_ZN19wxNavigationEnabledI16wxTopLevelWindowED1Ev
_ZN19wxNavigationEnabledI16wxTopLevelWindowED1Ev:
.LFB16321:
	.loc 37 182 7
	.cfi_startproc
	pushq	%rbp
	.seh_pushreg	%rbp
	.cfi_def_cfa_offset 16
	.cfi_offset 6, -16
	movq	%rsp, %rbp
	.seh_setframe	%rbp, 0
	.cfi_def_cfa_register 6
	subq	$32, %rsp
	.seh_stackalloc	32
	.seh_endprologue
	movq	%rcx, 16(%rbp)
.LBB59:
	.loc 37 182 7
	leaq	16+_ZTV19wxNavigationEnabledI16wxTopLevelWindowE(%rip), %rdx
	movq	16(%rbp), %rax
	movq	%rdx, (%rax)
	movq	16(%rbp), %rax
	addq	$696, %rax
	movq	%rax, %rcx
	call	_ZN18wxControlContainerD1Ev
	movq	16(%rbp), %rax
	movq	%rax, %rcx
	call	_ZN16wxTopLevelWindowD2Ev
.LBE59:
	nop
	addq	$32, %rsp
	popq	%rbp
	.cfi_restore 6
	.cfi_def_cfa 7, 8
	ret
	.cfi_endproc
.LFE16321:
	.seh_endproc
	.section	.text$_ZN19wxNavigationEnabledI16wxTopLevelWindowED0Ev,"x"
	.linkonce discard
	.align 2
	.globl	_ZN19wxNavigationEnabledI16wxTopLevelWindowED0Ev
	.def	_ZN19wxNavigationEnabledI16wxTopLevelWindowED0Ev;	.scl	2;	.type	32;	.endef
	.seh_proc	_ZN19wxNavigationEnabledI16wxTopLevelWindowED0Ev
_ZN19wxNavigationEnabledI16wxTopLevelWindowED0Ev:
.LFB16322:
	.loc 37 182 7
	.cfi_startproc
	pushq	%rbp
	.seh_pushreg	%rbp
	.cfi_def_cfa_offset 16
	.cfi_offset 6, -16
	movq	%rsp, %rbp
	.seh_setframe	%rbp, 0
	.cfi_def_cfa_register 6
	subq	$32, %rsp
	.seh_stackalloc	32
	.seh_endprologue
	movq	%rcx, 16(%rbp)
	.loc 37 182 7
	movq	16(%rbp), %rcx
	call	_ZN19wxNavigationEnabledI16wxTopLevelWindowED1Ev
	movq	16(%rbp), %rcx
	call	_ZdlPv
	nop
	addq	$32, %rsp
	popq	%rbp
	.cfi_restore 6
	.cfi_def_cfa 7, 8
	ret
	.cfi_endproc
.LFE16322:
	.seh_endproc
	.section	.text$_ZN12wxDialogBaseD2Ev,"x"
	.linkonce discard
	.align 2
	.globl	_ZN12wxDialogBaseD2Ev
	.def	_ZN12wxDialogBaseD2Ev;	.scl	2;	.type	32;	.endef
	.seh_proc	_ZN12wxDialogBaseD2Ev
_ZN12wxDialogBaseD2Ev:
.LFB16323:
	.file 38 "../wxMSW-3.0.5_gcc810_x64_Dev/include/wx/dialog.h"
	.loc 38 72 13
	.cfi_startproc
	pushq	%rbp
	.seh_pushreg	%rbp
	.cfi_def_cfa_offset 16
	.cfi_offset 6, -16
	movq	%rsp, %rbp
	.seh_setframe	%rbp, 0
	.cfi_def_cfa_register 6
	subq	$32, %rsp
	.seh_stackalloc	32
	.seh_endprologue
	movq	%rcx, 16(%rbp)
.LBB60:
	.loc 38 72 29
	movq	.refptr._ZTV12wxDialogBase(%rip), %rax
	leaq	16(%rax), %rdx
	movq	16(%rbp), %rax
	movq	%rdx, (%rax)
	movq	16(%rbp), %rax
	addq	$744, %rax
	movq	%rax, %rcx
	call	_ZN10wxArrayIntD1Ev
	movq	16(%rbp), %rax
	movq	%rax, %rcx
	call	_ZN19wxNavigationEnabledI16wxTopLevelWindowED2Ev
.LBE60:
	.loc 38 72 31
	nop
	addq	$32, %rsp
	popq	%rbp
	.cfi_restore 6
	.cfi_def_cfa 7, 8
	ret
	.cfi_endproc
.LFE16323:
	.seh_endproc
	.section	.text$_ZNK12wxDialogBase16GetContentWindowEv,"x"
	.linkonce discard
	.align 2
	.globl	_ZNK12wxDialogBase16GetContentWindowEv
	.def	_ZNK12wxDialogBase16GetContentWindowEv;	.scl	2;	.type	32;	.endef
	.seh_proc	_ZNK12wxDialogBase16GetContentWindowEv
_ZNK12wxDialogBase16GetContentWindowEv:
.LFB16331:
	.loc 38 165 23
	.cfi_startproc
	pushq	%rbp
	.seh_pushreg	%rbp
	.cfi_def_cfa_offset 16
	.cfi_offset 6, -16
	movq	%rsp, %rbp
	.seh_setframe	%rbp, 0
	.cfi_def_cfa_register 6
	.seh_endprologue
	movq	%rcx, 16(%rbp)
	.loc 38 165 56
	movl	$0, %eax
	.loc 38 165 62
	popq	%rbp
	.cfi_restore 6
	.cfi_def_cfa 7, 8
	ret
	.cfi_endproc
.LFE16331:
	.seh_endproc
	.section	.text$_ZN8wxDialogC2Ev,"x"
	.linkonce discard
	.align 2
	.globl	_ZN8wxDialogC2Ev
	.def	_ZN8wxDialogC2Ev;	.scl	2;	.type	32;	.endef
	.seh_proc	_ZN8wxDialogC2Ev
_ZN8wxDialogC2Ev:
.LFB16375:
	.file 39 "../wxMSW-3.0.5_gcc810_x64_Dev/include/wx/msw/dialog.h"
	.loc 39 38 5
	.cfi_startproc
	pushq	%rbp
	.seh_pushreg	%rbp
	.cfi_def_cfa_offset 16
	.cfi_offset 6, -16
	pushq	%rbx
	.seh_pushreg	%rbx
	.cfi_def_cfa_offset 24
	.cfi_offset 3, -24
	subq	$40, %rsp
	.seh_stackalloc	40
	.cfi_def_cfa_offset 64
	leaq	128(%rsp), %rbp
	.seh_setframe	%rbp, 128
	.cfi_def_cfa 6, -64
	.seh_endprologue
	movq	%rcx, -64(%rbp)
.LBB61:
	.loc 39 38 16
	movq	-64(%rbp), %rax
	movq	%rax, %rcx
.LEHB30:
	call	_ZN12wxDialogBaseC2Ev
.LEHE30:
	movq	.refptr._ZTV8wxDialog(%rip), %rax
	leaq	16(%rax), %rdx
	movq	-64(%rbp), %rax
	movq	%rdx, (%rax)
	.loc 39 38 22
	movq	-64(%rbp), %rcx
.LEHB31:
	call	_ZN8wxDialog4InitEv
.LEHE31:
.LBE61:
	.loc 39 38 26
	jmp	.L372
.L371:
	movq	%rax, %rbx
.LBB62:
	.loc 39 38 16
	movq	-64(%rbp), %rax
	movq	%rax, %rcx
	call	_ZN12wxDialogBaseD2Ev
	movq	%rbx, %rax
	movq	%rax, %rcx
.LEHB32:
	call	_Unwind_Resume
	nop
.LEHE32:
.L372:
.LBE62:
	.loc 39 38 26
	addq	$40, %rsp
	popq	%rbx
	.cfi_restore 3
	popq	%rbp
	.cfi_restore 6
	.cfi_def_cfa 7, -24
	ret
	.cfi_endproc
.LFE16375:
	.seh_handler	__gxx_personality_seh0, @unwind, @except
	.seh_handlerdata
.LLSDA16375:
	.byte	0xff
	.byte	0xff
	.byte	0x1
	.uleb128 .LLSDACSE16375-.LLSDACSB16375
.LLSDACSB16375:
	.uleb128 .LEHB30-.LFB16375
	.uleb128 .LEHE30-.LEHB30
	.uleb128 0
	.uleb128 0
	.uleb128 .LEHB31-.LFB16375
	.uleb128 .LEHE31-.LEHB31
	.uleb128 .L371-.LFB16375
	.uleb128 0
	.uleb128 .LEHB32-.LFB16375
	.uleb128 .LEHE32-.LEHB32
	.uleb128 0
	.uleb128 0
.LLSDACSE16375:
	.section	.text$_ZN8wxDialogC2Ev,"x"
	.linkonce discard
	.seh_endproc
	.section	.text$_ZNK8wxDialog7IsModalEv,"x"
	.linkonce discard
	.align 2
	.globl	_ZNK8wxDialog7IsModalEv
	.def	_ZNK8wxDialog7IsModalEv;	.scl	2;	.type	32;	.endef
	.seh_proc	_ZNK8wxDialog7IsModalEv
_ZNK8wxDialog7IsModalEv:
.LFB16380:
	.loc 39 63 18
	.cfi_startproc
	pushq	%rbp
	.seh_pushreg	%rbp
	.cfi_def_cfa_offset 16
	.cfi_offset 6, -16
	movq	%rsp, %rbp
	.seh_setframe	%rbp, 0
	.cfi_def_cfa_register 6
	.seh_endprologue
	movq	%rcx, 16(%rbp)
	.loc 39 63 43
	movq	16(%rbp), %rax
	movq	784(%rax), %rax
	.loc 39 63 57
	testq	%rax, %rax
	setne	%al
	.loc 39 63 63
	popq	%rbp
	.cfi_restore 6
	.cfi_def_cfa 7, 8
	ret
	.cfi_endproc
.LFE16380:
	.seh_endproc
	.section	.text$_ZN16wxStaticTextBaseC2Ev,"x"
	.linkonce discard
	.align 2
	.globl	_ZN16wxStaticTextBaseC2Ev
	.def	_ZN16wxStaticTextBaseC2Ev;	.scl	2;	.type	32;	.endef
	.seh_proc	_ZN16wxStaticTextBaseC2Ev
_ZN16wxStaticTextBaseC2Ev:
.LFB16394:
	.file 40 "../wxMSW-3.0.5_gcc810_x64_Dev/include/wx/stattext.h"
	.loc 40 34 5
	.cfi_startproc
	pushq	%rbp
	.seh_pushreg	%rbp
	.cfi_def_cfa_offset 16
	.cfi_offset 6, -16
	movq	%rsp, %rbp
	.seh_setframe	%rbp, 0
	.cfi_def_cfa_register 6
	subq	$32, %rsp
	.seh_stackalloc	32
	.seh_endprologue
	movq	%rcx, 16(%rbp)
.LBB63:
	.loc 40 34 24
	movq	16(%rbp), %rax
	movq	%rax, %rcx
	call	_ZN9wxControlC2Ev
	movq	.refptr._ZTV16wxStaticTextBase(%rip), %rax
	leaq	16(%rax), %rdx
	movq	16(%rbp), %rax
	movq	%rdx, (%rax)
.LBE63:
	.loc 40 34 26
	nop
	addq	$32, %rsp
	popq	%rbp
	.cfi_restore 6
	.cfi_def_cfa 7, 8
	ret
	.cfi_endproc
.LFE16394:
	.seh_endproc
	.section	.text$_ZN16wxStaticTextBaseD2Ev,"x"
	.linkonce discard
	.align 2
	.globl	_ZN16wxStaticTextBaseD2Ev
	.def	_ZN16wxStaticTextBaseD2Ev;	.scl	2;	.type	32;	.endef
	.seh_proc	_ZN16wxStaticTextBaseD2Ev
_ZN16wxStaticTextBaseD2Ev:
.LFB16404:
	.loc 40 31 7
	.cfi_startproc
	pushq	%rbp
	.seh_pushreg	%rbp
	.cfi_def_cfa_offset 16
	.cfi_offset 6, -16
	movq	%rsp, %rbp
	.seh_setframe	%rbp, 0
	.cfi_def_cfa_register 6
	subq	$32, %rsp
	.seh_stackalloc	32
	.seh_endprologue
	movq	%rcx, 16(%rbp)
.LBB64:
	.loc 40 31 7
	movq	.refptr._ZTV16wxStaticTextBase(%rip), %rax
	leaq	16(%rax), %rdx
	movq	16(%rbp), %rax
	movq	%rdx, (%rax)
	movq	16(%rbp), %rax
	movq	%rax, %rcx
	call	_ZN9wxControlD2Ev
.LBE64:
	nop
	addq	$32, %rsp
	popq	%rbp
	.cfi_restore 6
	.cfi_def_cfa 7, 8
	ret
	.cfi_endproc
.LFE16404:
	.seh_endproc
	.section	.text$_ZN12wxStaticTextC1EP8wxWindowiRK8wxStringRK7wxPointRK6wxSizelS4_,"x"
	.linkonce discard
	.align 2
	.globl	_ZN12wxStaticTextC1EP8wxWindowiRK8wxStringRK7wxPointRK6wxSizelS4_
	.def	_ZN12wxStaticTextC1EP8wxWindowiRK8wxStringRK7wxPointRK6wxSizelS4_;	.scl	2;	.type	32;	.endef
	.seh_proc	_ZN12wxStaticTextC1EP8wxWindowiRK8wxStringRK7wxPointRK6wxSizelS4_
_ZN12wxStaticTextC1EP8wxWindowiRK8wxStringRK7wxPointRK6wxSizelS4_:
.LFB16411:
	.file 41 "../wxMSW-3.0.5_gcc810_x64_Dev/include/wx/msw/stattext.h"
	.loc 41 19 5
	.cfi_startproc
	pushq	%rbp
	.seh_pushreg	%rbp
	.cfi_def_cfa_offset 16
	.cfi_offset 6, -16
	pushq	%rbx
	.seh_pushreg	%rbx
	.cfi_def_cfa_offset 24
	.cfi_offset 3, -24
	subq	$72, %rsp
	.seh_stackalloc	72
	.cfi_def_cfa_offset 96
	leaq	128(%rsp), %rbp
	.seh_setframe	%rbp, 128
	.cfi_def_cfa 6, -32
	.seh_endprologue
	movq	%rcx, -32(%rbp)
	movq	%rdx, -24(%rbp)
	movl	%r8d, -16(%rbp)
	movq	%r9, -8(%rbp)
.LBB65:
	.loc 41 26 5
	movq	-32(%rbp), %rax
	movq	%rax, %rcx
.LEHB33:
	call	_ZN16wxStaticTextBaseC2Ev
.LEHE33:
	movq	.refptr._ZTV12wxStaticText(%rip), %rax
	leaq	16(%rax), %rdx
	movq	-32(%rbp), %rax
	movq	%rdx, (%rax)
	.loc 41 27 15
	movq	-8(%rbp), %r8
	movl	-16(%rbp), %ecx
	movq	-24(%rbp), %rax
	movq	24(%rbp), %rdx
	movq	%rdx, 56(%rsp)
	movl	16(%rbp), %edx
	movl	%edx, 48(%rsp)
	movq	8(%rbp), %rdx
	movq	%rdx, 40(%rsp)
	movq	0(%rbp), %rdx
	movq	%rdx, 32(%rsp)
	movq	%r8, %r9
	movl	%ecx, %r8d
	movq	%rax, %rdx
	movq	-32(%rbp), %rcx
.LEHB34:
	call	_ZN12wxStaticText6CreateEP8wxWindowiRK8wxStringRK7wxPointRK6wxSizelS4_
.LEHE34:
.LBE65:
	.loc 41 28 5
	jmp	.L380
.L379:
	movq	%rax, %rbx
.LBB66:
	.loc 41 26 5
	movq	-32(%rbp), %rax
	movq	%rax, %rcx
	call	_ZN16wxStaticTextBaseD2Ev
	movq	%rbx, %rax
	movq	%rax, %rcx
.LEHB35:
	call	_Unwind_Resume
	nop
.LEHE35:
.L380:
.LBE66:
	.loc 41 28 5
	addq	$72, %rsp
	popq	%rbx
	.cfi_restore 3
	popq	%rbp
	.cfi_restore 6
	.cfi_def_cfa 7, -56
	ret
	.cfi_endproc
.LFE16411:
	.seh_handler	__gxx_personality_seh0, @unwind, @except
	.seh_handlerdata
.LLSDA16411:
	.byte	0xff
	.byte	0xff
	.byte	0x1
	.uleb128 .LLSDACSE16411-.LLSDACSB16411
.LLSDACSB16411:
	.uleb128 .LEHB33-.LFB16411
	.uleb128 .LEHE33-.LEHB33
	.uleb128 0
	.uleb128 0
	.uleb128 .LEHB34-.LFB16411
	.uleb128 .LEHE34-.LEHB34
	.uleb128 .L379-.LFB16411
	.uleb128 0
	.uleb128 .LEHB35-.LFB16411
	.uleb128 .LEHE35-.LEHB35
	.uleb128 0
	.uleb128 0
.LLSDACSE16411:
	.section	.text$_ZN12wxStaticTextC1EP8wxWindowiRK8wxStringRK7wxPointRK6wxSizelS4_,"x"
	.linkonce discard
	.seh_endproc
	.section .rdata,"dr"
	.align 4
_ZL21wxOutOfRangeTextCoord:
	.long	-1
	.align 4
_ZL18wxInvalidTextCoord:
	.long	-2
	.section	.text$_ZN10wxTextAttrC1Ev,"x"
	.linkonce discard
	.align 2
	.globl	_ZN10wxTextAttrC1Ev
	.def	_ZN10wxTextAttrC1Ev;	.scl	2;	.type	32;	.endef
	.seh_proc	_ZN10wxTextAttrC1Ev
_ZN10wxTextAttrC1Ev:
.LFB16447:
	.file 42 "../wxMSW-3.0.5_gcc810_x64_Dev/include/wx/textctrl.h"
	.loc 42 286 5
	.cfi_startproc
	pushq	%rbp
	.seh_pushreg	%rbp
	.cfi_def_cfa_offset 16
	.cfi_offset 6, -16
	pushq	%rbx
	.seh_pushreg	%rbx
	.cfi_def_cfa_offset 24
	.cfi_offset 3, -24
	subq	$40, %rsp
	.seh_stackalloc	40
	.cfi_def_cfa_offset 64
	leaq	128(%rsp), %rbp
	.seh_setframe	%rbp, 128
	.cfi_def_cfa 6, -64
	.seh_endprologue
	movq	%rcx, -64(%rbp)
.LBB67:
	.loc 42 286 18
	movq	-64(%rbp), %rax
	addq	$8, %rax
	movq	%rax, %rcx
.LEHB36:
	call	_ZN10wxArrayIntC1Ev
.LEHE36:
	movq	-64(%rbp), %rax
	addq	$80, %rax
	movq	%rax, %rcx
	call	_ZN8wxStringC1Ev
	movq	-64(%rbp), %rax
	subq	$-128, %rax
	movq	%rax, %rcx
	call	_ZN8wxStringC1Ev
	movq	-64(%rbp), %rax
	addq	$176, %rax
	movq	%rax, %rcx
	call	_ZN8wxStringC1Ev
	movq	-64(%rbp), %rax
	addq	$224, %rax
	movq	%rax, %rcx
	call	_ZN8wxStringC1Ev
	movq	-64(%rbp), %rax
	addq	$280, %rax
	movq	%rax, %rcx
.LEHB37:
	call	_ZN8wxColourC1Ev
.LEHE37:
	.loc 42 286 18 is_stmt 0 discriminator 10
	movq	-64(%rbp), %rax
	addq	$312, %rax
	movq	%rax, %rcx
.LEHB38:
	call	_ZN8wxColourC1Ev
.LEHE38:
	.loc 42 286 18 discriminator 12
	movq	-64(%rbp), %rax
	addq	$368, %rax
	movq	%rax, %rcx
	call	_ZN8wxStringC1Ev
	movq	-64(%rbp), %rax
	addq	$416, %rax
	movq	%rax, %rcx
	call	_ZN8wxStringC1Ev
	movq	-64(%rbp), %rax
	addq	$464, %rax
	movq	%rax, %rcx
	call	_ZN8wxStringC1Ev
	movq	-64(%rbp), %rax
	addq	$512, %rax
	movq	%rax, %rcx
	call	_ZN8wxStringC1Ev
	.loc 42 286 24 is_stmt 1 discriminator 12
	movq	-64(%rbp), %rcx
.LEHB39:
	call	_ZN10wxTextAttr4InitEv
.LEHE39:
.LBE67:
	.loc 42 286 28
	jmp	.L388
.L387:
	movq	%rax, %rbx
.LBB68:
	.loc 42 286 18
	movq	-64(%rbp), %rax
	addq	$512, %rax
	movq	%rax, %rcx
	call	_ZN8wxStringD1Ev
	movq	-64(%rbp), %rax
	addq	$464, %rax
	movq	%rax, %rcx
	call	_ZN8wxStringD1Ev
	movq	-64(%rbp), %rax
	addq	$416, %rax
	movq	%rax, %rcx
	call	_ZN8wxStringD1Ev
	movq	-64(%rbp), %rax
	addq	$368, %rax
	movq	%rax, %rcx
	call	_ZN8wxStringD1Ev
	movq	-64(%rbp), %rax
	addq	$312, %rax
	movq	%rax, %rcx
	call	_ZN8wxColourD1Ev
	jmp	.L383
.L386:
	movq	%rax, %rbx
.L383:
	.loc 42 286 18 is_stmt 0 discriminator 11
	movq	-64(%rbp), %rax
	addq	$280, %rax
	movq	%rax, %rcx
	call	_ZN8wxColourD1Ev
	jmp	.L384
.L385:
	movq	%rax, %rbx
.L384:
	.loc 42 286 18 discriminator 9
	movq	-64(%rbp), %rax
	addq	$224, %rax
	movq	%rax, %rcx
	call	_ZN8wxStringD1Ev
	movq	-64(%rbp), %rax
	addq	$176, %rax
	movq	%rax, %rcx
	call	_ZN8wxStringD1Ev
	movq	-64(%rbp), %rax
	subq	$-128, %rax
	movq	%rax, %rcx
	call	_ZN8wxStringD1Ev
	movq	-64(%rbp), %rax
	addq	$80, %rax
	movq	%rax, %rcx
	call	_ZN8wxStringD1Ev
	movq	-64(%rbp), %rax
	addq	$8, %rax
	movq	%rax, %rcx
	call	_ZN10wxArrayIntD1Ev
	movq	%rbx, %rax
	movq	%rax, %rcx
.LEHB40:
	call	_Unwind_Resume
	nop
.LEHE40:
.L388:
.LBE68:
	.loc 42 286 28 is_stmt 1
	addq	$40, %rsp
	popq	%rbx
	.cfi_restore 3
	popq	%rbp
	.cfi_restore 6
	.cfi_def_cfa 7, -24
	ret
	.cfi_endproc
.LFE16447:
	.seh_handler	__gxx_personality_seh0, @unwind, @except
	.seh_handlerdata
.LLSDA16447:
	.byte	0xff
	.byte	0xff
	.byte	0x1
	.uleb128 .LLSDACSE16447-.LLSDACSB16447
.LLSDACSB16447:
	.uleb128 .LEHB36-.LFB16447
	.uleb128 .LEHE36-.LEHB36
	.uleb128 0
	.uleb128 0
	.uleb128 .LEHB37-.LFB16447
	.uleb128 .LEHE37-.LEHB37
	.uleb128 .L385-.LFB16447
	.uleb128 0
	.uleb128 .LEHB38-.LFB16447
	.uleb128 .LEHE38-.LEHB38
	.uleb128 .L386-.LFB16447
	.uleb128 0
	.uleb128 .LEHB39-.LFB16447
	.uleb128 .LEHE39-.LEHB39
	.uleb128 .L387-.LFB16447
	.uleb128 0
	.uleb128 .LEHB40-.LFB16447
	.uleb128 .LEHE40-.LEHB40
	.uleb128 0
	.uleb128 0
.LLSDACSE16447:
	.section	.text$_ZN10wxTextAttrC1Ev,"x"
	.linkonce discard
	.seh_endproc
	.section	.text$_ZN10wxTextAttrD1Ev,"x"
	.linkonce discard
	.align 2
	.globl	_ZN10wxTextAttrD1Ev
	.def	_ZN10wxTextAttrD1Ev;	.scl	2;	.type	32;	.endef
	.seh_proc	_ZN10wxTextAttrD1Ev
_ZN10wxTextAttrD1Ev:
.LFB16560:
	.loc 42 282 7
	.cfi_startproc
	pushq	%rbp
	.seh_pushreg	%rbp
	.cfi_def_cfa_offset 16
	.cfi_offset 6, -16
	movq	%rsp, %rbp
	.seh_setframe	%rbp, 0
	.cfi_def_cfa_register 6
	subq	$32, %rsp
	.seh_stackalloc	32
	.seh_endprologue
	movq	%rcx, 16(%rbp)
.LBB69:
	.loc 42 282 7
	movq	16(%rbp), %rax
	addq	$512, %rax
	movq	%rax, %rcx
	call	_ZN8wxStringD1Ev
	movq	16(%rbp), %rax
	addq	$464, %rax
	movq	%rax, %rcx
	call	_ZN8wxStringD1Ev
	movq	16(%rbp), %rax
	addq	$416, %rax
	movq	%rax, %rcx
	call	_ZN8wxStringD1Ev
	movq	16(%rbp), %rax
	addq	$368, %rax
	movq	%rax, %rcx
	call	_ZN8wxStringD1Ev
	movq	16(%rbp), %rax
	addq	$312, %rax
	movq	%rax, %rcx
	call	_ZN8wxColourD1Ev
	movq	16(%rbp), %rax
	addq	$280, %rax
	movq	%rax, %rcx
	call	_ZN8wxColourD1Ev
	movq	16(%rbp), %rax
	addq	$224, %rax
	movq	%rax, %rcx
	call	_ZN8wxStringD1Ev
	movq	16(%rbp), %rax
	addq	$176, %rax
	movq	%rax, %rcx
	call	_ZN8wxStringD1Ev
	movq	16(%rbp), %rax
	subq	$-128, %rax
	movq	%rax, %rcx
	call	_ZN8wxStringD1Ev
	movq	16(%rbp), %rax
	addq	$80, %rax
	movq	%rax, %rcx
	call	_ZN8wxStringD1Ev
	movq	16(%rbp), %rax
	addq	$8, %rax
	movq	%rax, %rcx
	call	_ZN10wxArrayIntD1Ev
.LBE69:
	nop
	addq	$32, %rsp
	popq	%rbp
	.cfi_restore 6
	.cfi_def_cfa 7, 8
	ret
	.cfi_endproc
.LFE16560:
	.seh_endproc
	.section	.text$_ZN14wxTextAreaBaseC2Ev,"x"
	.linkonce discard
	.align 2
	.globl	_ZN14wxTextAreaBaseC2Ev
	.def	_ZN14wxTextAreaBaseC2Ev;	.scl	2;	.type	32;	.endef
	.seh_proc	_ZN14wxTextAreaBaseC2Ev
_ZN14wxTextAreaBaseC2Ev:
.LFB16563:
	.loc 42 537 5
	.cfi_startproc
	pushq	%rbp
	.seh_pushreg	%rbp
	.cfi_def_cfa_offset 16
	.cfi_offset 6, -16
	pushq	%rbx
	.seh_pushreg	%rbx
	.cfi_def_cfa_offset 24
	.cfi_offset 3, -24
	subq	$40, %rsp
	.seh_stackalloc	40
	.cfi_def_cfa_offset 64
	leaq	128(%rsp), %rbp
	.seh_setframe	%rbp, 128
	.cfi_def_cfa 6, -64
	.seh_endprologue
	movq	%rcx, -64(%rbp)
.LBB70:
	.loc 42 537 22
	movq	.refptr._ZTV14wxTextAreaBase(%rip), %rax
	leaq	16(%rax), %rdx
	movq	-64(%rbp), %rax
	movq	%rdx, (%rax)
	movq	-64(%rbp), %rax
	addq	$8, %rax
	movq	%rax, %rcx
	call	_ZN8wxStringC1Ev
	movq	-64(%rbp), %rax
	addq	$56, %rax
	movq	%rax, %rcx
.LEHB41:
	call	_ZN10wxTextAttrC1Ev
.LEHE41:
.LBE70:
	.loc 42 537 24
	jmp	.L393
.L392:
	movq	%rax, %rbx
.LBB71:
	.loc 42 537 22
	movq	-64(%rbp), %rax
	addq	$8, %rax
	movq	%rax, %rcx
	call	_ZN8wxStringD1Ev
	movq	%rbx, %rax
	movq	%rax, %rcx
.LEHB42:
	call	_Unwind_Resume
	nop
.LEHE42:
.L393:
.LBE71:
	.loc 42 537 24
	addq	$40, %rsp
	popq	%rbx
	.cfi_restore 3
	popq	%rbp
	.cfi_restore 6
	.cfi_def_cfa 7, -24
	ret
	.cfi_endproc
.LFE16563:
	.seh_handler	__gxx_personality_seh0, @unwind, @except
	.seh_handlerdata
.LLSDA16563:
	.byte	0xff
	.byte	0xff
	.byte	0x1
	.uleb128 .LLSDACSE16563-.LLSDACSB16563
.LLSDACSB16563:
	.uleb128 .LEHB41-.LFB16563
	.uleb128 .LEHE41-.LEHB41
	.uleb128 .L392-.LFB16563
	.uleb128 0
	.uleb128 .LEHB42-.LFB16563
	.uleb128 .LEHE42-.LEHB42
	.uleb128 0
	.uleb128 0
.LLSDACSE16563:
	.section	.text$_ZN14wxTextAreaBaseC2Ev,"x"
	.linkonce discard
	.seh_endproc
	.section	.text$_ZN14wxTextAreaBaseD2Ev,"x"
	.linkonce discard
	.align 2
	.globl	_ZN14wxTextAreaBaseD2Ev
	.def	_ZN14wxTextAreaBaseD2Ev;	.scl	2;	.type	32;	.endef
	.seh_proc	_ZN14wxTextAreaBaseD2Ev
_ZN14wxTextAreaBaseD2Ev:
.LFB16566:
	.loc 42 538 13
	.cfi_startproc
	pushq	%rbp
	.seh_pushreg	%rbp
	.cfi_def_cfa_offset 16
	.cfi_offset 6, -16
	movq	%rsp, %rbp
	.seh_setframe	%rbp, 0
	.cfi_def_cfa_register 6
	subq	$32, %rsp
	.seh_stackalloc	32
	.seh_endprologue
	movq	%rcx, 16(%rbp)
.LBB72:
	.loc 42 538 31
	movq	.refptr._ZTV14wxTextAreaBase(%rip), %rax
	leaq	16(%rax), %rdx
	movq	16(%rbp), %rax
	movq	%rdx, (%rax)
	movq	16(%rbp), %rax
	addq	$56, %rax
	movq	%rax, %rcx
	call	_ZN10wxTextAttrD1Ev
	movq	16(%rbp), %rax
	addq	$8, %rax
	movq	%rax, %rcx
	call	_ZN8wxStringD1Ev
.LBE72:
	.loc 42 538 33
	nop
	addq	$32, %rsp
	popq	%rbp
	.cfi_restore 6
	.cfi_def_cfa 7, 8
	ret
	.cfi_endproc
.LFE16566:
	.seh_endproc
	.section	.text$_ZN14wxTextCtrlBaseC2Ev,"x"
	.linkonce discard
	.align 2
	.globl	_ZN14wxTextCtrlBaseC2Ev
	.def	_ZN14wxTextCtrlBaseC2Ev;	.scl	2;	.type	32;	.endef
	.seh_proc	_ZN14wxTextCtrlBaseC2Ev
_ZN14wxTextCtrlBaseC2Ev:
.LFB16579:
	.loc 42 680 5
	.cfi_startproc
	pushq	%rbp
	.seh_pushreg	%rbp
	.cfi_def_cfa_offset 16
	.cfi_offset 6, -16
	pushq	%rbx
	.seh_pushreg	%rbx
	.cfi_def_cfa_offset 24
	.cfi_offset 3, -24
	subq	$40, %rsp
	.seh_stackalloc	40
	.cfi_def_cfa_offset 64
	leaq	128(%rsp), %rbp
	.seh_setframe	%rbp, 128
	.cfi_def_cfa 6, -64
	.seh_endprologue
	movq	%rcx, -64(%rbp)
.LBB73:
	.loc 42 680 22
	movq	-64(%rbp), %rax
	movq	%rax, %rcx
.LEHB43:
	call	_ZN9wxControlC2Ev
.LEHE43:
	movq	-64(%rbp), %rax
	addq	$648, %rax
	movq	%rax, %rcx
.LEHB44:
	call	_ZNSt15basic_streambufIcSt11char_traitsIcEEC2Ev
.LEHE44:
	.loc 42 680 22 is_stmt 0 discriminator 2
	movq	-64(%rbp), %rax
	addq	$712, %rax
	movq	%rax, %rcx
.LEHB45:
	call	_ZN14wxTextAreaBaseC2Ev
.LEHE45:
	.loc 42 680 22 discriminator 4
	movq	-64(%rbp), %rax
	addq	$1328, %rax
	movq	%rax, %rcx
.LEHB46:
	call	_ZN11wxTextEntryC2Ev
.LEHE46:
	.loc 42 680 22 discriminator 6
	movq	.refptr._ZTV14wxTextCtrlBase(%rip), %rax
	leaq	16(%rax), %rdx
	movq	-64(%rbp), %rax
	movq	%rdx, (%rax)
	movq	.refptr._ZTV14wxTextCtrlBase(%rip), %rax
	leaq	1936(%rax), %rdx
	movq	-64(%rbp), %rax
	movq	%rdx, 648(%rax)
	movq	.refptr._ZTV14wxTextCtrlBase(%rip), %rax
	leaq	2064(%rax), %rdx
	movq	-64(%rbp), %rax
	movq	%rdx, 712(%rax)
	movq	.refptr._ZTV14wxTextCtrlBase(%rip), %rax
	leaq	2264(%rax), %rdx
	movq	-64(%rbp), %rax
	movq	%rdx, 1328(%rax)
.LBE73:
	.loc 42 680 24 is_stmt 1 discriminator 6
	jmp	.L402
.L401:
	movq	%rax, %rbx
.LBB74:
	.loc 42 680 22
	movq	-64(%rbp), %rax
	addq	$712, %rax
	movq	%rax, %rcx
	call	_ZN14wxTextAreaBaseD2Ev
	jmp	.L397
.L400:
	movq	%rax, %rbx
.L397:
	.loc 42 680 22 is_stmt 0 discriminator 3
	movq	-64(%rbp), %rax
	addq	$648, %rax
	movq	%rax, %rcx
	call	_ZNSt15basic_streambufIcSt11char_traitsIcEED2Ev
	jmp	.L398
.L399:
	movq	%rax, %rbx
.L398:
	.loc 42 680 22 discriminator 1
	movq	-64(%rbp), %rax
	movq	%rax, %rcx
	call	_ZN9wxControlD2Ev
	movq	%rbx, %rax
	movq	%rax, %rcx
.LEHB47:
	call	_Unwind_Resume
	nop
.LEHE47:
.L402:
.LBE74:
	.loc 42 680 24 is_stmt 1
	addq	$40, %rsp
	popq	%rbx
	.cfi_restore 3
	popq	%rbp
	.cfi_restore 6
	.cfi_def_cfa 7, -24
	ret
	.cfi_endproc
.LFE16579:
	.seh_handler	__gxx_personality_seh0, @unwind, @except
	.seh_handlerdata
.LLSDA16579:
	.byte	0xff
	.byte	0xff
	.byte	0x1
	.uleb128 .LLSDACSE16579-.LLSDACSB16579
.LLSDACSB16579:
	.uleb128 .LEHB43-.LFB16579
	.uleb128 .LEHE43-.LEHB43
	.uleb128 0
	.uleb128 0
	.uleb128 .LEHB44-.LFB16579
	.uleb128 .LEHE44-.LEHB44
	.uleb128 .L399-.LFB16579
	.uleb128 0
	.uleb128 .LEHB45-.LFB16579
	.uleb128 .LEHE45-.LEHB45
	.uleb128 .L400-.LFB16579
	.uleb128 0
	.uleb128 .LEHB46-.LFB16579
	.uleb128 .LEHE46-.LEHB46
	.uleb128 .L401-.LFB16579
	.uleb128 0
	.uleb128 .LEHB47-.LFB16579
	.uleb128 .LEHE47-.LEHB47
	.uleb128 0
	.uleb128 0
.LLSDACSE16579:
	.section	.text$_ZN14wxTextCtrlBaseC2Ev,"x"
	.linkonce discard
	.seh_endproc
	.section	.text$_ZN14wxTextCtrlBaseD2Ev,"x"
	.linkonce discard
	.align 2
	.globl	_ZN14wxTextCtrlBaseD2Ev
	.def	_ZN14wxTextCtrlBaseD2Ev;	.scl	2;	.type	32;	.endef
	.seh_proc	_ZN14wxTextCtrlBaseD2Ev
_ZN14wxTextCtrlBaseD2Ev:
.LFB16582:
	.loc 42 681 13
	.cfi_startproc
	pushq	%rbp
	.seh_pushreg	%rbp
	.cfi_def_cfa_offset 16
	.cfi_offset 6, -16
	movq	%rsp, %rbp
	.seh_setframe	%rbp, 0
	.cfi_def_cfa_register 6
	subq	$32, %rsp
	.seh_stackalloc	32
	.seh_endprologue
	movq	%rcx, 16(%rbp)
.LBB75:
	.loc 42 681 31
	movq	.refptr._ZTV14wxTextCtrlBase(%rip), %rax
	leaq	16(%rax), %rdx
	movq	16(%rbp), %rax
	movq	%rdx, (%rax)
	movq	.refptr._ZTV14wxTextCtrlBase(%rip), %rax
	leaq	1936(%rax), %rdx
	movq	16(%rbp), %rax
	movq	%rdx, 648(%rax)
	movq	.refptr._ZTV14wxTextCtrlBase(%rip), %rax
	leaq	2064(%rax), %rdx
	movq	16(%rbp), %rax
	movq	%rdx, 712(%rax)
	movq	.refptr._ZTV14wxTextCtrlBase(%rip), %rax
	leaq	2264(%rax), %rdx
	movq	16(%rbp), %rax
	movq	%rdx, 1328(%rax)
	movq	16(%rbp), %rax
	addq	$1328, %rax
	movq	%rax, %rcx
	call	_ZN11wxTextEntryD2Ev
	movq	16(%rbp), %rax
	addq	$712, %rax
	movq	%rax, %rcx
	call	_ZN14wxTextAreaBaseD2Ev
	movq	16(%rbp), %rax
	addq	$648, %rax
	movq	%rax, %rcx
	call	_ZNSt15basic_streambufIcSt11char_traitsIcEED2Ev
	movq	16(%rbp), %rax
	movq	%rax, %rcx
	call	_ZN9wxControlD2Ev
.LBE75:
	.loc 42 681 33
	nop
	addq	$32, %rsp
	popq	%rbp
	.cfi_restore 6
	.cfi_def_cfa 7, 8
	ret
	.cfi_endproc
.LFE16582:
	.seh_endproc
	.section	.text$_ZN10wxTextCtrlC1EP8wxWindowiRK8wxStringRK7wxPointRK6wxSizelRK11wxValidatorS4_,"x"
	.linkonce discard
	.align 2
	.globl	_ZN10wxTextCtrlC1EP8wxWindowiRK8wxStringRK7wxPointRK6wxSizelRK11wxValidatorS4_
	.def	_ZN10wxTextCtrlC1EP8wxWindowiRK8wxStringRK7wxPointRK6wxSizelRK11wxValidatorS4_;	.scl	2;	.type	32;	.endef
	.seh_proc	_ZN10wxTextCtrlC1EP8wxWindowiRK8wxStringRK7wxPointRK6wxSizelRK11wxValidatorS4_
_ZN10wxTextCtrlC1EP8wxWindowiRK8wxStringRK7wxPointRK6wxSizelRK11wxValidatorS4_:
.LFB16604:
	.file 43 "../wxMSW-3.0.5_gcc810_x64_Dev/include/wx/msw/textctrl.h"
	.loc 43 21 5
	.cfi_startproc
	pushq	%rbp
	.seh_pushreg	%rbp
	.cfi_def_cfa_offset 16
	.cfi_offset 6, -16
	pushq	%rbx
	.seh_pushreg	%rbx
	.cfi_def_cfa_offset 24
	.cfi_offset 3, -24
	subq	$88, %rsp
	.seh_stackalloc	88
	.cfi_def_cfa_offset 112
	leaq	128(%rsp), %rbp
	.seh_setframe	%rbp, 128
	.cfi_def_cfa 6, -16
	.seh_endprologue
	movq	%rcx, -16(%rbp)
	movq	%rdx, -8(%rbp)
	movl	%r8d, 0(%rbp)
	movq	%r9, 8(%rbp)
.LBB76:
	.loc 43 28 5
	movq	-16(%rbp), %rax
	movq	%rax, %rcx
.LEHB48:
	call	_ZN14wxTextCtrlBaseC2Ev
.LEHE48:
	movq	.refptr._ZTV10wxTextCtrl(%rip), %rax
	leaq	16(%rax), %rdx
	movq	-16(%rbp), %rax
	movq	%rdx, (%rax)
	movq	.refptr._ZTV10wxTextCtrl(%rip), %rax
	leaq	2152(%rax), %rdx
	movq	-16(%rbp), %rax
	movq	%rdx, 648(%rax)
	movq	.refptr._ZTV10wxTextCtrl(%rip), %rax
	leaq	2280(%rax), %rdx
	movq	-16(%rbp), %rax
	movq	%rdx, 712(%rax)
	movq	.refptr._ZTV10wxTextCtrl(%rip), %rax
	leaq	2480(%rax), %rdx
	movq	-16(%rbp), %rax
	movq	%rdx, 1328(%rax)
	.loc 43 29 13
	movq	-16(%rbp), %rcx
.LEHB49:
	call	_ZN10wxTextCtrl4InitEv
	.loc 43 31 15
	movq	8(%rbp), %r8
	movl	0(%rbp), %ecx
	movq	-8(%rbp), %rax
	movq	48(%rbp), %rdx
	movq	%rdx, 64(%rsp)
	movq	40(%rbp), %rdx
	movq	%rdx, 56(%rsp)
	movl	32(%rbp), %edx
	movl	%edx, 48(%rsp)
	movq	24(%rbp), %rdx
	movq	%rdx, 40(%rsp)
	movq	16(%rbp), %rdx
	movq	%rdx, 32(%rsp)
	movq	%r8, %r9
	movl	%ecx, %r8d
	movq	%rax, %rdx
	movq	-16(%rbp), %rcx
	call	_ZN10wxTextCtrl6CreateEP8wxWindowiRK8wxStringRK7wxPointRK6wxSizelRK11wxValidatorS4_
.LEHE49:
.LBE76:
	.loc 43 32 5
	jmp	.L407
.L406:
	movq	%rax, %rbx
.LBB77:
	.loc 43 28 5
	movq	-16(%rbp), %rax
	movq	%rax, %rcx
	call	_ZN14wxTextCtrlBaseD2Ev
	movq	%rbx, %rax
	movq	%rax, %rcx
.LEHB50:
	call	_Unwind_Resume
	nop
.LEHE50:
.L407:
.LBE77:
	.loc 43 32 5
	addq	$88, %rsp
	popq	%rbx
	.cfi_restore 3
	popq	%rbp
	.cfi_restore 6
	.cfi_def_cfa 7, -72
	ret
	.cfi_endproc
.LFE16604:
	.seh_handler	__gxx_personality_seh0, @unwind, @except
	.seh_handlerdata
.LLSDA16604:
	.byte	0xff
	.byte	0xff
	.byte	0x1
	.uleb128 .LLSDACSE16604-.LLSDACSB16604
.LLSDACSB16604:
	.uleb128 .LEHB48-.LFB16604
	.uleb128 .LEHE48-.LEHB48
	.uleb128 0
	.uleb128 0
	.uleb128 .LEHB49-.LFB16604
	.uleb128 .LEHE49-.LEHB49
	.uleb128 .L406-.LFB16604
	.uleb128 0
	.uleb128 .LEHB50-.LFB16604
	.uleb128 .LEHE50-.LEHB50
	.uleb128 0
	.uleb128 0
.LLSDACSE16604:
	.section	.text$_ZN10wxTextCtrlC1EP8wxWindowiRK8wxStringRK7wxPointRK6wxSizelRK11wxValidatorS4_,"x"
	.linkonce discard
	.seh_endproc
	.section	.text$_ZN18wxNumValidatorBase8ValidateEP8wxWindow,"x"
	.linkonce discard
	.align 2
	.globl	_ZN18wxNumValidatorBase8ValidateEP8wxWindow
	.def	_ZN18wxNumValidatorBase8ValidateEP8wxWindow;	.scl	2;	.type	32;	.endef
	.seh_proc	_ZN18wxNumValidatorBase8ValidateEP8wxWindow
_ZN18wxNumValidatorBase8ValidateEP8wxWindow:
.LFB16636:
	.file 44 "../wxMSW-3.0.5_gcc810_x64_Dev/include/wx/valnum.h"
	.loc 44 51 18
	.cfi_startproc
	pushq	%rbp
	.seh_pushreg	%rbp
	.cfi_def_cfa_offset 16
	.cfi_offset 6, -16
	movq	%rsp, %rbp
	.seh_setframe	%rbp, 0
	.cfi_def_cfa_register 6
	.seh_endprologue
	movq	%rcx, 16(%rbp)
	movq	%rdx, 24(%rbp)
	.loc 44 51 49
	movl	$1, %eax
	.loc 44 51 55
	popq	%rbp
	.cfi_restore 6
	.cfi_def_cfa 7, 8
	ret
	.cfi_endproc
.LFE16636:
	.seh_endproc
	.section	.text$_ZN18wxNumValidatorBaseC2Ei,"x"
	.linkonce discard
	.align 2
	.globl	_ZN18wxNumValidatorBaseC2Ei
	.def	_ZN18wxNumValidatorBaseC2Ei;	.scl	2;	.type	32;	.endef
	.seh_proc	_ZN18wxNumValidatorBaseC2Ei
_ZN18wxNumValidatorBaseC2Ei:
.LFB16638:
	.loc 44 54 5
	.cfi_startproc
	pushq	%rbp
	.seh_pushreg	%rbp
	.cfi_def_cfa_offset 16
	.cfi_offset 6, -16
	movq	%rsp, %rbp
	.seh_setframe	%rbp, 0
	.cfi_def_cfa_register 6
	subq	$32, %rsp
	.seh_stackalloc	32
	.seh_endprologue
	movq	%rcx, 16(%rbp)
	movl	%edx, 24(%rbp)
.LBB78:
	.loc 44 55 5
	movq	16(%rbp), %rax
	movq	%rax, %rcx
	call	_ZN11wxValidatorC2Ev
	movq	.refptr._ZTV18wxNumValidatorBase(%rip), %rax
	leaq	16(%rax), %rdx
	movq	16(%rbp), %rax
	movq	%rdx, (%rax)
	.loc 44 56 17
	movq	16(%rbp), %rax
	movl	24(%rbp), %edx
	movl	%edx, 128(%rax)
.LBE78:
	.loc 44 57 5
	nop
	addq	$32, %rsp
	popq	%rbp
	.cfi_restore 6
	.cfi_def_cfa 7, 8
	ret
	.cfi_endproc
.LFE16638:
	.seh_endproc
	.section	.text$_ZN18wxNumValidatorBaseC2ERKS_,"x"
	.linkonce discard
	.align 2
	.globl	_ZN18wxNumValidatorBaseC2ERKS_
	.def	_ZN18wxNumValidatorBaseC2ERKS_;	.scl	2;	.type	32;	.endef
	.seh_proc	_ZN18wxNumValidatorBaseC2ERKS_
_ZN18wxNumValidatorBaseC2ERKS_:
.LFB16641:
	.loc 44 59 5
	.cfi_startproc
	pushq	%rbp
	.seh_pushreg	%rbp
	.cfi_def_cfa_offset 16
	.cfi_offset 6, -16
	movq	%rsp, %rbp
	.seh_setframe	%rbp, 0
	.cfi_def_cfa_register 6
	subq	$32, %rsp
	.seh_stackalloc	32
	.seh_endprologue
	movq	%rcx, 16(%rbp)
	movq	%rdx, 24(%rbp)
.LBB79:
	.loc 44 59 76
	movq	16(%rbp), %rax
	movq	24(%rbp), %rdx
	movq	%rax, %rcx
	call	_ZN11wxValidatorC2ERKS_
	movq	.refptr._ZTV18wxNumValidatorBase(%rip), %rax
	leaq	16(%rax), %rdx
	movq	16(%rbp), %rax
	movq	%rdx, (%rax)
	.loc 44 61 25
	movq	24(%rbp), %rax
	movl	128(%rax), %edx
	.loc 44 61 17
	movq	16(%rbp), %rax
	movl	%edx, 128(%rax)
.LBE79:
	.loc 44 62 5
	nop
	addq	$32, %rsp
	popq	%rbp
	.cfi_restore 6
	.cfi_def_cfa 7, 8
	ret
	.cfi_endproc
.LFE16641:
	.seh_endproc
	.section	.text$_ZNK18wxNumValidatorBase7HasFlagE19wxNumValidatorStyle,"x"
	.linkonce discard
	.align 2
	.globl	_ZNK18wxNumValidatorBase7HasFlagE19wxNumValidatorStyle
	.def	_ZNK18wxNumValidatorBase7HasFlagE19wxNumValidatorStyle;	.scl	2;	.type	32;	.endef
	.seh_proc	_ZNK18wxNumValidatorBase7HasFlagE19wxNumValidatorStyle
_ZNK18wxNumValidatorBase7HasFlagE19wxNumValidatorStyle:
.LFB16643:
	.loc 44 64 10
	.cfi_startproc
	pushq	%rbp
	.seh_pushreg	%rbp
	.cfi_def_cfa_offset 16
	.cfi_offset 6, -16
	movq	%rsp, %rbp
	.seh_setframe	%rbp, 0
	.cfi_def_cfa_register 6
	.seh_endprologue
	movq	%rcx, 16(%rbp)
	movl	%edx, 24(%rbp)
	.loc 44 66 17
	movq	16(%rbp), %rax
	movl	128(%rax), %edx
	.loc 44 66 25
	movl	24(%rbp), %eax
	andl	%edx, %eax
	.loc 44 66 37
	testl	%eax, %eax
	setne	%al
	.loc 44 67 5
	popq	%rbp
	.cfi_restore 6
	.cfi_def_cfa 7, 8
	ret
	.cfi_endproc
.LFE16643:
	.seh_endproc
	.section	.text$_ZN18wxNumValidatorBaseD2Ev,"x"
	.linkonce discard
	.align 2
	.globl	_ZN18wxNumValidatorBaseD2Ev
	.def	_ZN18wxNumValidatorBaseD2Ev;	.scl	2;	.type	32;	.endef
	.seh_proc	_ZN18wxNumValidatorBaseD2Ev
_ZN18wxNumValidatorBaseD2Ev:
.LFB16655:
	.loc 44 42 7
	.cfi_startproc
	pushq	%rbp
	.seh_pushreg	%rbp
	.cfi_def_cfa_offset 16
	.cfi_offset 6, -16
	movq	%rsp, %rbp
	.seh_setframe	%rbp, 0
	.cfi_def_cfa_register 6
	subq	$32, %rsp
	.seh_stackalloc	32
	.seh_endprologue
	movq	%rcx, 16(%rbp)
.LBB80:
	.loc 44 42 7
	movq	.refptr._ZTV18wxNumValidatorBase(%rip), %rax
	leaq	16(%rax), %rdx
	movq	16(%rbp), %rax
	movq	%rdx, (%rax)
	movq	16(%rbp), %rax
	movq	%rax, %rcx
	call	_ZN11wxValidatorD2Ev
.LBE80:
	nop
	addq	$32, %rsp
	popq	%rbp
	.cfi_restore 6
	.cfi_def_cfa 7, 8
	ret
	.cfi_endproc
.LFE16655:
	.seh_endproc
	.section	.text$_ZN28wxFloatingPointValidatorBase12SetPrecisionEj,"x"
	.linkonce discard
	.align 2
	.globl	_ZN28wxFloatingPointValidatorBase12SetPrecisionEj
	.def	_ZN28wxFloatingPointValidatorBase12SetPrecisionEj;	.scl	2;	.type	32;	.endef
	.seh_proc	_ZN28wxFloatingPointValidatorBase12SetPrecisionEj
_ZN28wxFloatingPointValidatorBase12SetPrecisionEj:
.LFB16669:
	.loc 44 355 10
	.cfi_startproc
	pushq	%rbp
	.seh_pushreg	%rbp
	.cfi_def_cfa_offset 16
	.cfi_offset 6, -16
	movq	%rsp, %rbp
	.seh_setframe	%rbp, 0
	.cfi_def_cfa_register 6
	.seh_endprologue
	movq	%rcx, 16(%rbp)
	movl	%edx, 24(%rbp)
	.loc 44 355 57
	movq	16(%rbp), %rax
	movl	24(%rbp), %edx
	movl	%edx, 132(%rax)
	.loc 44 355 70
	nop
	popq	%rbp
	.cfi_restore 6
	.cfi_def_cfa 7, 8
	ret
	.cfi_endproc
.LFE16669:
	.seh_endproc
	.section	.text$_ZN28wxFloatingPointValidatorBaseC2Ei,"x"
	.linkonce discard
	.align 2
	.globl	_ZN28wxFloatingPointValidatorBaseC2Ei
	.def	_ZN28wxFloatingPointValidatorBaseC2Ei;	.scl	2;	.type	32;	.endef
	.seh_proc	_ZN28wxFloatingPointValidatorBaseC2Ei
_ZN28wxFloatingPointValidatorBaseC2Ei:
.LFB16671:
	.loc 44 363 5
	.cfi_startproc
	pushq	%rbp
	.seh_pushreg	%rbp
	.cfi_def_cfa_offset 16
	.cfi_offset 6, -16
	movq	%rsp, %rbp
	.seh_setframe	%rbp, 0
	.cfi_def_cfa_register 6
	subq	$32, %rsp
	.seh_stackalloc	32
	.seh_endprologue
	movq	%rcx, 16(%rbp)
	movl	%edx, 24(%rbp)
.LBB81:
	.loc 44 364 35
	movq	16(%rbp), %rax
	movl	24(%rbp), %edx
	movq	%rax, %rcx
	call	_ZN18wxNumValidatorBaseC2Ei
	movq	.refptr._ZTV28wxFloatingPointValidatorBase(%rip), %rax
	leaq	16(%rax), %rdx
	movq	16(%rbp), %rax
	movq	%rdx, (%rax)
.LBE81:
	.loc 44 366 5
	nop
	addq	$32, %rsp
	popq	%rbp
	.cfi_restore 6
	.cfi_def_cfa 7, 8
	ret
	.cfi_endproc
.LFE16671:
	.seh_endproc
	.section	.text$_ZN28wxFloatingPointValidatorBaseC2ERKS_,"x"
	.linkonce discard
	.align 2
	.globl	_ZN28wxFloatingPointValidatorBaseC2ERKS_
	.def	_ZN28wxFloatingPointValidatorBaseC2ERKS_;	.scl	2;	.type	32;	.endef
	.seh_proc	_ZN28wxFloatingPointValidatorBaseC2ERKS_
_ZN28wxFloatingPointValidatorBaseC2ERKS_:
.LFB16674:
	.loc 44 368 5
	.cfi_startproc
	pushq	%rbp
	.seh_pushreg	%rbp
	.cfi_def_cfa_offset 16
	.cfi_offset 6, -16
	movq	%rsp, %rbp
	.seh_setframe	%rbp, 0
	.cfi_def_cfa_register 6
	subq	$32, %rsp
	.seh_stackalloc	32
	.seh_endprologue
	movq	%rcx, 16(%rbp)
	movq	%rdx, 24(%rbp)
.LBB82:
	.loc 44 369 35
	movq	16(%rbp), %rax
	movq	24(%rbp), %rdx
	movq	%rax, %rcx
	call	_ZN18wxNumValidatorBaseC2ERKS_
	movq	.refptr._ZTV28wxFloatingPointValidatorBase(%rip), %rax
	leaq	16(%rax), %rdx
	movq	16(%rbp), %rax
	movq	%rdx, (%rax)
	.loc 44 371 29
	movq	24(%rbp), %rax
	movl	132(%rax), %edx
	.loc 44 371 21
	movq	16(%rbp), %rax
	movl	%edx, 132(%rax)
	.loc 44 373 23
	movq	24(%rbp), %rax
	movsd	136(%rax), %xmm0
	.loc 44 373 15
	movq	16(%rbp), %rax
	movsd	%xmm0, 136(%rax)
	.loc 44 374 23
	movq	24(%rbp), %rax
	movsd	144(%rax), %xmm0
	.loc 44 374 15
	movq	16(%rbp), %rax
	movsd	%xmm0, 144(%rax)
.LBE82:
	.loc 44 375 5
	nop
	addq	$32, %rsp
	popq	%rbp
	.cfi_restore 6
	.cfi_def_cfa 7, 8
	ret
	.cfi_endproc
.LFE16674:
	.seh_endproc
	.section	.text$_ZN28wxFloatingPointValidatorBase8DoSetMinEd,"x"
	.linkonce discard
	.align 2
	.globl	_ZN28wxFloatingPointValidatorBase8DoSetMinEd
	.def	_ZN28wxFloatingPointValidatorBase8DoSetMinEd;	.scl	2;	.type	32;	.endef
	.seh_proc	_ZN28wxFloatingPointValidatorBase8DoSetMinEd
_ZN28wxFloatingPointValidatorBase8DoSetMinEd:
.LFB16676:
	.loc 44 381 10
	.cfi_startproc
	pushq	%rbp
	.seh_pushreg	%rbp
	.cfi_def_cfa_offset 16
	.cfi_offset 6, -16
	movq	%rsp, %rbp
	.seh_setframe	%rbp, 0
	.cfi_def_cfa_register 6
	.seh_endprologue
	movq	%rcx, 16(%rbp)
	movsd	%xmm1, 24(%rbp)
	.loc 44 381 49
	movq	16(%rbp), %rax
	movsd	24(%rbp), %xmm0
	movsd	%xmm0, 136(%rax)
	.loc 44 381 56
	nop
	popq	%rbp
	.cfi_restore 6
	.cfi_def_cfa 7, 8
	ret
	.cfi_endproc
.LFE16676:
	.seh_endproc
	.section	.text$_ZN28wxFloatingPointValidatorBase8DoSetMaxEd,"x"
	.linkonce discard
	.align 2
	.globl	_ZN28wxFloatingPointValidatorBase8DoSetMaxEd
	.def	_ZN28wxFloatingPointValidatorBase8DoSetMaxEd;	.scl	2;	.type	32;	.endef
	.seh_proc	_ZN28wxFloatingPointValidatorBase8DoSetMaxEd
_ZN28wxFloatingPointValidatorBase8DoSetMaxEd:
.LFB16677:
	.loc 44 382 10
	.cfi_startproc
	pushq	%rbp
	.seh_pushreg	%rbp
	.cfi_def_cfa_offset 16
	.cfi_offset 6, -16
	movq	%rsp, %rbp
	.seh_setframe	%rbp, 0
	.cfi_def_cfa_register 6
	.seh_endprologue
	movq	%rcx, 16(%rbp)
	movsd	%xmm1, 24(%rbp)
	.loc 44 382 49
	movq	16(%rbp), %rax
	movsd	24(%rbp), %xmm0
	movsd	%xmm0, 144(%rax)
	.loc 44 382 56
	nop
	popq	%rbp
	.cfi_restore 6
	.cfi_def_cfa 7, 8
	ret
	.cfi_endproc
.LFE16677:
	.seh_endproc
	.section	.text$_ZNK28wxFloatingPointValidatorBase9IsInRangeEd,"x"
	.linkonce discard
	.align 2
	.globl	_ZNK28wxFloatingPointValidatorBase9IsInRangeEd
	.def	_ZNK28wxFloatingPointValidatorBase9IsInRangeEd;	.scl	2;	.type	32;	.endef
	.seh_proc	_ZNK28wxFloatingPointValidatorBase9IsInRangeEd
_ZNK28wxFloatingPointValidatorBase9IsInRangeEd:
.LFB16678:
	.loc 44 384 10
	.cfi_startproc
	pushq	%rbp
	.seh_pushreg	%rbp
	.cfi_def_cfa_offset 16
	.cfi_offset 6, -16
	movq	%rsp, %rbp
	.seh_setframe	%rbp, 0
	.cfi_def_cfa_register 6
	.seh_endprologue
	movq	%rcx, 16(%rbp)
	movsd	%xmm1, 24(%rbp)
	.loc 44 386 16
	movq	16(%rbp), %rax
	movsd	136(%rax), %xmm1
	.loc 44 386 31
	movsd	24(%rbp), %xmm0
	comisd	%xmm1, %xmm0
	jb	.L421
	.loc 44 386 43 discriminator 1
	movq	16(%rbp), %rax
	movsd	144(%rax), %xmm0
	.loc 44 386 31 discriminator 1
	comisd	24(%rbp), %xmm0
	jb	.L421
	.loc 44 386 31 is_stmt 0 discriminator 3
	movl	$1, %eax
	jmp	.L424
.L421:
	.loc 44 386 31 discriminator 4
	movl	$0, %eax
.L424:
	.loc 44 387 5 is_stmt 1 discriminator 6
	popq	%rbp
	.cfi_restore 6
	.cfi_def_cfa 7, 8
	ret
	.cfi_endproc
.LFE16678:
	.seh_endproc
	.globl	_ZN17ParametrosGDialog36ID_TEXTCTRL_DESVIO_PROVAVEL_ELEVACAOE
	.bss
	.align 4
_ZN17ParametrosGDialog36ID_TEXTCTRL_DESVIO_PROVAVEL_ELEVACAOE:
	.space 4
	.globl	_ZN17ParametrosGDialog38ID_STATICTEXT_DESVIO_PROVAVEL_ELEVACAOE
	.align 4
_ZN17ParametrosGDialog38ID_STATICTEXT_DESVIO_PROVAVEL_ELEVACAOE:
	.space 4
	.globl	_ZN17ParametrosGDialog46ID_STATICTEXT_DESVIO_PROVAVEL_ELEVACAO_UNIDADEE
	.align 4
_ZN17ParametrosGDialog46ID_STATICTEXT_DESVIO_PROVAVEL_ELEVACAO_UNIDADEE:
	.space 4
	.globl	_ZN17ParametrosGDialog35ID_TEXTCTRL_DESVIO_PROVAVEL_ARRASTOE
	.align 4
_ZN17ParametrosGDialog35ID_TEXTCTRL_DESVIO_PROVAVEL_ARRASTOE:
	.space 4
	.globl	_ZN17ParametrosGDialog37ID_STATICTEXT_DESVIO_PROVAVEL_ARRASTOE
	.align 4
_ZN17ParametrosGDialog37ID_STATICTEXT_DESVIO_PROVAVEL_ARRASTOE:
	.space 4
	.globl	_ZN17ParametrosGDialog45ID_STATICTEXT_DESVIO_PROVAVEL_ARRASTO_UNIDADEE
	.align 4
_ZN17ParametrosGDialog45ID_STATICTEXT_DESVIO_PROVAVEL_ARRASTO_UNIDADEE:
	.space 4
	.globl	_ZN17ParametrosGDialog40ID_STATICTEXT_DESVIO_PROVAVEL_VELOCIDADEE
	.align 4
_ZN17ParametrosGDialog40ID_STATICTEXT_DESVIO_PROVAVEL_VELOCIDADEE:
	.space 4
	.globl	_ZN17ParametrosGDialog48ID_STATICTEXT_DESVIO_PROVAVEL_VELOCIDADE_UNIDADEE
	.align 4
_ZN17ParametrosGDialog48ID_STATICTEXT_DESVIO_PROVAVEL_VELOCIDADE_UNIDADEE:
	.space 4
	.globl	_ZN17ParametrosGDialog38ID_TEXTCTRL_DESVIO_PROVAVEL_VELOCIDADEE
	.align 4
_ZN17ParametrosGDialog38ID_TEXTCTRL_DESVIO_PROVAVEL_VELOCIDADEE:
	.space 4
	.globl	_ZN17ParametrosGDialog48ID_TEXTCTRL_FATOR_AJUSTE_DESVIO_PROVAVEL_DIRECAOE
	.align 4
_ZN17ParametrosGDialog48ID_TEXTCTRL_FATOR_AJUSTE_DESVIO_PROVAVEL_DIRECAOE:
	.space 4
	.globl	_ZN17ParametrosGDialog50ID_STATICTEXT_FATOR_AJUSTE_DESVIO_PROVAVEL_DIRECAOE
	.align 4
_ZN17ParametrosGDialog50ID_STATICTEXT_FATOR_AJUSTE_DESVIO_PROVAVEL_DIRECAOE:
	.space 4
	.globl	_ZN17ParametrosGDialog16ID_BUTTON_SALVARE
	.align 4
_ZN17ParametrosGDialog16ID_BUTTON_SALVARE:
	.space 4
	.globl	_ZN17ParametrosGDialog18ID_BUTTON_CANCELARE
	.align 4
_ZN17ParametrosGDialog18ID_BUTTON_CANCELARE:
	.space 4
	.globl	_ZN17ParametrosGDialog13sm_eventTableE
	.section .rdata,"dr"
	.align 16
_ZN17ParametrosGDialog13sm_eventTableE:
	.quad	_ZN12wxDialogBase13sm_eventTableE
	.quad	_ZN17ParametrosGDialog20sm_eventTableEntriesE
	.text
	.align 2
	.globl	_ZNK17ParametrosGDialog13GetEventTableEv
	.def	_ZNK17ParametrosGDialog13GetEventTableEv;	.scl	2;	.type	32;	.endef
	.seh_proc	_ZNK17ParametrosGDialog13GetEventTableEv
_ZNK17ParametrosGDialog13GetEventTableEv:
.LFB16750:
	.file 45 "C:/temp/ballisticKernelCpp/interfaceGrafica/calculadorBalisiticaGraficoWindows/tabelaDialog/ParametrosGDialog.cpp"
	.loc 45 28 191
	.cfi_startproc
	pushq	%rbp
	.seh_pushreg	%rbp
	.cfi_def_cfa_offset 16
	.cfi_offset 6, -16
	movq	%rsp, %rbp
	.seh_setframe	%rbp, 0
	.cfi_def_cfa_register 6
	.seh_endprologue
	movq	%rcx, 16(%rbp)
	.loc 45 28 220
	leaq	_ZN17ParametrosGDialog13sm_eventTableE(%rip), %rax
	.loc 45 28 235
	popq	%rbp
	.cfi_restore 6
	.cfi_def_cfa 7, 8
	ret
	.cfi_endproc
.LFE16750:
	.seh_endproc
	.globl	_ZN17ParametrosGDialog17sm_eventHashTableE
	.bss
	.align 32
_ZN17ParametrosGDialog17sm_eventHashTableE:
	.space 48
	.text
	.align 2
	.globl	_ZNK17ParametrosGDialog17GetEventHashTableEv
	.def	_ZNK17ParametrosGDialog17GetEventHashTableEv;	.scl	2;	.type	32;	.endef
	.seh_proc	_ZNK17ParametrosGDialog17GetEventHashTableEv
_ZNK17ParametrosGDialog17GetEventHashTableEv:
.LFB16751:
	.loc 45 28 389
	.cfi_startproc
	pushq	%rbp
	.seh_pushreg	%rbp
	.cfi_def_cfa_offset 16
	.cfi_offset 6, -16
	movq	%rsp, %rbp
	.seh_setframe	%rbp, 0
	.cfi_def_cfa_register 6
	.seh_endprologue
	movq	%rcx, 16(%rbp)
	.loc 45 28 417
	leaq	_ZN17ParametrosGDialog17sm_eventHashTableE(%rip), %rax
	.loc 45 28 436
	popq	%rbp
	.cfi_restore 6
	.cfi_def_cfa 7, 8
	ret
	.cfi_endproc
.LFE16751:
	.seh_endproc
	.section	.text$_ZN17wxEventTableEntryD1Ev,"x"
	.linkonce discard
	.align 2
	.globl	_ZN17wxEventTableEntryD1Ev
	.def	_ZN17wxEventTableEntryD1Ev;	.scl	2;	.type	32;	.endef
	.seh_proc	_ZN17wxEventTableEntryD1Ev
_ZN17wxEventTableEntryD1Ev:
.LFB16754:
	.loc 20 3217 8
	.cfi_startproc
	pushq	%rbp
	.seh_pushreg	%rbp
	.cfi_def_cfa_offset 16
	.cfi_offset 6, -16
	movq	%rsp, %rbp
	.seh_setframe	%rbp, 0
	.cfi_def_cfa_register 6
	subq	$32, %rsp
	.seh_stackalloc	32
	.seh_endprologue
	movq	%rcx, 16(%rbp)
.LBB83:
	.loc 20 3217 8
	movq	16(%rbp), %rax
	movq	%rax, %rcx
	call	_ZN21wxEventTableEntryBaseD2Ev
.LBE83:
	nop
	addq	$32, %rsp
	popq	%rbp
	.cfi_restore 6
	.cfi_def_cfa 7, 8
	ret
	.cfi_endproc
.LFE16754:
	.seh_endproc
	.globl	_ZN17ParametrosGDialog20sm_eventTableEntriesE
	.bss
	.align 32
_ZN17ParametrosGDialog20sm_eventTableEntriesE:
	.space 32
	.section .rdata,"dr"
	.align 2
.LC8:
	.ascii "w\0x\0I\0D\0_\0A\0N\0Y\0\0\0"
.LC9:
	.ascii "Parametros tabela G\0"
	.align 8
.LC10:
	.ascii "I\0D\0_\0T\0E\0X\0T\0C\0T\0R\0L\0_\0D\0E\0S\0V\0I\0O\0_\0P\0R\0O\0V\0A\0V\0E\0L\0_\0E\0L\0E\0V\0A\0C\0A\0O\0\0\0"
.LC11:
	.ascii "Desvio Provavel em Elevacao:\0"
	.align 8
.LC12:
	.ascii "I\0D\0_\0S\0T\0A\0T\0I\0C\0T\0E\0X\0T\0_\0D\0E\0S\0V\0I\0O\0_\0P\0R\0O\0V\0A\0V\0E\0L\0_\0E\0L\0E\0V\0A\0C\0A\0O\0\0\0"
.LC13:
	.ascii "'''\0"
	.align 8
.LC14:
	.ascii "I\0D\0_\0S\0T\0A\0T\0I\0C\0T\0E\0X\0T\0_\0D\0E\0S\0V\0I\0O\0_\0P\0R\0O\0V\0A\0V\0E\0L\0_\0E\0L\0E\0V\0A\0C\0A\0O\0_\0U\0N\0I\0D\0A\0D\0E\0\0\0"
	.align 8
.LC15:
	.ascii "I\0D\0_\0T\0E\0X\0T\0C\0T\0R\0L\0_\0D\0E\0S\0V\0I\0O\0_\0P\0R\0O\0V\0A\0V\0E\0L\0_\0A\0R\0R\0A\0S\0T\0O\0\0\0"
.LC16:
	.ascii "Desvio Provavel em Arrasto:\0"
	.align 8
.LC17:
	.ascii "I\0D\0_\0S\0T\0A\0T\0I\0C\0T\0E\0X\0T\0_\0D\0E\0S\0V\0I\0O\0_\0P\0R\0O\0V\0A\0V\0E\0L\0_\0A\0R\0R\0A\0S\0T\0O\0\0\0"
.LC18:
	.ascii "%\0"
	.align 8
.LC19:
	.ascii "I\0D\0_\0S\0T\0A\0T\0I\0C\0T\0E\0X\0T\0_\0D\0E\0S\0V\0I\0O\0_\0P\0R\0O\0V\0A\0V\0E\0L\0_\0A\0R\0R\0A\0S\0T\0O\0_\0U\0N\0I\0D\0A\0D\0E\0\0\0"
	.align 8
.LC20:
	.ascii "Desvio Provavel em Velocidade:\0"
	.align 8
.LC21:
	.ascii "I\0D\0_\0S\0T\0A\0T\0I\0C\0T\0E\0X\0T\0_\0D\0E\0S\0V\0I\0O\0_\0P\0R\0O\0V\0A\0V\0E\0L\0_\0V\0E\0L\0O\0C\0I\0D\0A\0D\0E\0\0\0"
.LC22:
	.ascii "m/s\0"
	.align 8
.LC23:
	.ascii "I\0D\0_\0S\0T\0A\0T\0I\0C\0T\0E\0X\0T\0_\0D\0E\0S\0V\0I\0O\0_\0P\0R\0O\0V\0A\0V\0E\0L\0_\0V\0E\0L\0O\0C\0I\0D\0A\0D\0E\0_\0U\0N\0I\0D\0A\0D\0E\0\0\0"
	.align 8
.LC24:
	.ascii "I\0D\0_\0T\0E\0X\0T\0C\0T\0R\0L\0_\0D\0E\0S\0V\0I\0O\0_\0P\0R\0O\0V\0A\0V\0E\0L\0_\0V\0E\0L\0O\0C\0I\0D\0A\0D\0E\0\0\0"
	.align 8
.LC25:
	.ascii "I\0D\0_\0T\0E\0X\0T\0C\0T\0R\0L\0_\0F\0A\0T\0O\0R\0_\0A\0J\0U\0S\0T\0E\0_\0D\0E\0S\0V\0I\0O\0_\0P\0R\0O\0V\0A\0V\0E\0L\0_\0D\0I\0R\0E\0C\0A\0O\0\0\0"
	.align 8
.LC26:
	.ascii "Fator de Ajuste para\12 Desvio Provavel em Direcao\0"
	.align 8
.LC27:
	.ascii "I\0D\0_\0S\0T\0A\0T\0I\0C\0T\0E\0X\0T\0_\0F\0A\0T\0O\0R\0_\0A\0J\0U\0S\0T\0E\0_\0D\0E\0S\0V\0I\0O\0_\0P\0R\0O\0V\0A\0V\0E\0L\0_\0D\0I\0R\0E\0C\0A\0O\0\0\0"
.LC28:
	.ascii "Salvar\0"
	.align 8
.LC29:
	.ascii "I\0D\0_\0B\0U\0T\0T\0O\0N\0_\0S\0A\0L\0V\0A\0R\0\0\0"
.LC30:
	.ascii "Cancelar\0"
	.align 8
.LC31:
	.ascii "I\0D\0_\0B\0U\0T\0T\0O\0N\0_\0C\0A\0N\0C\0E\0L\0A\0R\0\0\0"
.LC32:
	.ascii "Par\342metros tabela G\0"
.LC33:
	.ascii "Desvio Prov\341vel em Eleva\347\343o:\0"
.LC36:
	.ascii "Desvio Prov\341vel em Arrasto:\0"
	.align 8
.LC37:
	.ascii "Desvio Prov\341vel em Velocidade:\0"
	.align 8
.LC38:
	.ascii "Fator de Ajuste para\12 Desvio Prov\341vel em Dire\347\343o:\0"
	.text
	.align 2
	.globl	_ZN17ParametrosGDialogC2EP8wxWindowiRK7wxPointRK6wxSize
	.def	_ZN17ParametrosGDialogC2EP8wxWindowiRK7wxPointRK6wxSize;	.scl	2;	.type	32;	.endef
	.seh_proc	_ZN17ParametrosGDialogC2EP8wxWindowiRK7wxPointRK6wxSize
_ZN17ParametrosGDialogC2EP8wxWindowiRK7wxPointRK6wxSize:
.LFB16759:
	.loc 45 33 1
	.cfi_startproc
	pushq	%rbp
	.seh_pushreg	%rbp
	.cfi_def_cfa_offset 16
	.cfi_offset 6, -16
	pushq	%r15
	.seh_pushreg	%r15
	.cfi_def_cfa_offset 24
	.cfi_offset 15, -24
	pushq	%r14
	.seh_pushreg	%r14
	.cfi_def_cfa_offset 32
	.cfi_offset 14, -32
	pushq	%r13
	.seh_pushreg	%r13
	.cfi_def_cfa_offset 40
	.cfi_offset 13, -40
	pushq	%r12
	.seh_pushreg	%r12
	.cfi_def_cfa_offset 48
	.cfi_offset 12, -48
	pushq	%rdi
	.seh_pushreg	%rdi
	.cfi_def_cfa_offset 56
	.cfi_offset 5, -56
	pushq	%rsi
	.seh_pushreg	%rsi
	.cfi_def_cfa_offset 64
	.cfi_offset 4, -64
	pushq	%rbx
	.seh_pushreg	%rbx
	.cfi_def_cfa_offset 72
	.cfi_offset 3, -72
	movl	$4120, %eax
	call	___chkstk_ms
	subq	%rax, %rsp
	.seh_stackalloc	4120
	.cfi_def_cfa_offset 4192
	leaq	128(%rsp), %rbp
	.seh_setframe	%rbp, 128
	.cfi_def_cfa 6, 4064
	.seh_endprologue
	movq	%rcx, 4064(%rbp)
	movq	%rdx, 4072(%rbp)
	movl	%r8d, 4080(%rbp)
	movq	%r9, 4088(%rbp)
.LBB84:
	.loc 45 33 106
	movq	4064(%rbp), %rax
	movq	%rax, %rcx
.LEHB51:
	call	_ZN8wxDialogC2Ev
.LEHE51:
	leaq	16+_ZTV17ParametrosGDialog(%rip), %rdx
	movq	4064(%rbp), %rax
	movq	%rdx, (%rax)
.LBB85:
	.loc 45 36 8
	movq	4064(%rbp), %rdi
	leaq	832(%rbp), %rax
	leaq	.LC8(%rip), %rdx
	movq	%rax, %rcx
.LEHB52:
	call	_ZN8wxStringC1EPKw
.LEHE52:
	.loc 45 36 8 is_stmt 0 discriminator 1
	leaq	880(%rbp), %rax
	movq	%rax, %rcx
	call	_ZN8wxStringC1Ev
	leaq	928(%rbp), %rax
	leaq	.LC9(%rip), %rdx
	movq	%rax, %rcx
.LEHB53:
	call	_ZN8wxStringC1EPKc
.LEHE53:
	.loc 45 36 8 discriminator 5
	leaq	880(%rbp), %rdx
	leaq	928(%rbp), %rax
	movq	%rax, %rcx
.LEHB54:
	call	_Z16wxGetTranslationRK8wxStringS1_
	movq	%rax, %rcx
	movq	4072(%rbp), %rdx
	leaq	832(%rbp), %rax
	movq	%rax, 56(%rsp)
	movl	$536877056, 48(%rsp)
	movq	.refptr.wxDefaultSize(%rip), %rax
	movq	%rax, 40(%rsp)
	movq	.refptr.wxDefaultPosition(%rip), %rax
	movq	%rax, 32(%rsp)
	movq	%rcx, %r9
	movl	$-1, %r8d
	movq	%rdi, %rcx
	call	_ZN8wxDialog6CreateEP8wxWindowiRK8wxStringRK7wxPointRK6wxSizelS4_
.LEHE54:
	.loc 45 36 8 discriminator 9
	leaq	928(%rbp), %rax
	movq	%rax, %rcx
	call	_ZN8wxStringD1Ev
	leaq	880(%rbp), %rax
	movq	%rax, %rcx
	call	_ZN8wxStringD1Ev
	leaq	832(%rbp), %rax
	movq	%rax, %rcx
	call	_ZN8wxStringD1Ev
	.loc 45 37 15 is_stmt 1 discriminator 9
	movq	4064(%rbp), %rdi
	.loc 45 37 16 discriminator 9
	leaq	984(%rbp), %rax
	movl	$289, %r8d
	movl	$426, %edx
	movq	%rax, %rcx
	call	_ZN6wxSizeC1Eii
	.loc 45 37 15 discriminator 9
	leaq	984(%rbp), %rax
	movq	%rax, %rdx
	movq	%rdi, %rcx
.LEHB55:
	call	_ZN12wxWindowBase13SetClientSizeERK6wxSize
	.loc 45 38 35 discriminator 2
	movq	.refptr.wxEmptyString(%rip), %rax
	movq	(%rax), %rdx
	leaq	992(%rbp), %rax
	movq	%rax, %rcx
	call	_ZN8wxStringC1EPKw
.LEHE55:
	.loc 45 38 35 is_stmt 0 discriminator 1
	leaq	992(%rbp), %rax
	movq	%rax, -40(%rbp)
	.loc 45 38 111 is_stmt 1 discriminator 1
	leaq	1040(%rbp), %rax
	movl	$48, %r8d
	movl	$280, %edx
	movq	%rax, %rcx
	call	_ZN7wxPointC1Eii
	leaq	1040(%rbp), %r14
	.loc 45 38 128 discriminator 1
	leaq	1048(%rbp), %rax
	movl	$21, %r8d
	movl	$48, %edx
	movq	%rax, %rcx
	call	_ZN6wxSizeC1Eii
	leaq	1048(%rbp), %r15
	.loc 45 38 35 discriminator 1
	leaq	1056(%rbp), %rax
	leaq	.LC10(%rip), %rdx
	movq	%rax, %rcx
.LEHB56:
	call	_ZN8wxStringC1EPKw
.LEHE56:
	.loc 45 38 35 is_stmt 0 discriminator 3
	leaq	1056(%rbp), %rdi
	movq	%rdi, -48(%rbp)
	.loc 45 38 217 is_stmt 1 discriminator 3
	movl	$1384, %ecx
.LEHB57:
	call	_Znwy
.LEHE57:
	movq	%rax, %rdi
	movl	_ZN17ParametrosGDialog36ID_TEXTCTRL_DESVIO_PROVAVEL_ELEVACAOE(%rip), %ecx
	movq	4064(%rbp), %rax
	movq	-48(%rbp), %rdx
	movq	%rdx, 64(%rsp)
	movq	.refptr.wxDefaultValidator(%rip), %rdx
	movq	%rdx, 56(%rsp)
	movl	$256, 48(%rsp)
	movq	%r15, 40(%rsp)
	movq	%r14, 32(%rsp)
	movq	-40(%rbp), %r9
	movl	%ecx, %r8d
	movq	%rax, %rdx
	movq	%rdi, %rcx
.LEHB58:
	call	_ZN10wxTextCtrlC1EP8wxWindowiRK8wxStringRK7wxPointRK6wxSizelRK11wxValidatorS4_
.LEHE58:
	.loc 45 38 35 discriminator 7
	movq	4064(%rbp), %rax
	movq	%rdi, 872(%rax)
	leaq	1056(%rbp), %rax
	movq	%rax, %rcx
	call	_ZN8wxStringD1Ev
	leaq	992(%rbp), %rax
	movq	%rax, %rcx
	call	_ZN8wxStringD1Ev
	.loc 45 39 149 discriminator 7
	movq	.refptr.wxEmptyString(%rip), %rax
	movq	(%rax), %rdx
	leaq	1104(%rbp), %rax
	movq	%rax, %rcx
.LEHB59:
	call	_ZN8wxStringC1EPKw
.LEHE59:
	.loc 45 39 149 is_stmt 0 discriminator 1
	leaq	816(%rbp), %rax
	movl	$0, 56(%rsp)
	leaq	1104(%rbp), %rdx
	movq	%rdx, 48(%rsp)
	movl	$0, 40(%rsp)
	movl	$90, 32(%rsp)
	movl	$90, %r9d
	movl	$74, %r8d
	movl	$12, %edx
	movq	%rax, %rcx
.LEHB60:
	call	_ZN6wxFontC1Ei12wxFontFamily11wxFontStyle12wxFontWeightbRK8wxString14wxFontEncoding
.LEHE60:
	leaq	1104(%rbp), %rax
	movq	%rax, %rcx
	call	_ZN8wxStringD1Ev
	.loc 45 40 2 is_stmt 1
	movq	4064(%rbp), %rax
	movq	872(%rax), %rcx
	movq	4064(%rbp), %rax
	movq	872(%rax), %rax
	.loc 45 40 80
	movq	(%rax), %rax
	addq	$848, %rax
	movq	(%rax), %r8
	.loc 45 40 43
	leaq	816(%rbp), %rax
	movq	%rax, %rdx
.LEHB61:
	call	*%r8
.LVL23:
.LEHE61:
	.loc 45 41 151
	leaq	1152(%rbp), %rax
	movq	%rax, %rcx
	call	_ZN8wxStringC1Ev
	leaq	1200(%rbp), %rax
	leaq	.LC11(%rip), %rdx
	movq	%rax, %rcx
.LEHB62:
	call	_ZN8wxStringC1EPKc
.LEHE62:
	.loc 45 41 151 is_stmt 0 discriminator 3
	leaq	1152(%rbp), %rdx
	leaq	1200(%rbp), %rax
	movq	%rax, %rcx
.LEHB63:
	call	_Z16wxGetTranslationRK8wxStringS1_
	movq	%rax, -40(%rbp)
	.loc 45 41 154 is_stmt 1 discriminator 3
	leaq	1256(%rbp), %rax
	movl	$48, %r8d
	movl	$64, %edx
	movq	%rax, %rcx
	call	_ZN7wxPointC1Eii
	leaq	1256(%rbp), %r14
	.loc 45 41 37 discriminator 3
	leaq	1264(%rbp), %rax
	leaq	.LC12(%rip), %rdx
	movq	%rax, %rcx
	call	_ZN8wxStringC1EPKw
.LEHE63:
	.loc 45 41 37 is_stmt 0 discriminator 7
	leaq	1264(%rbp), %r15
	.loc 45 41 214 is_stmt 1 discriminator 7
	movl	$648, %ecx
.LEHB64:
	call	_Znwy
.LEHE64:
	movq	%rax, %rdi
	movl	_ZN17ParametrosGDialog38ID_STATICTEXT_DESVIO_PROVAVEL_ELEVACAOE(%rip), %ecx
	movq	4064(%rbp), %rax
	movq	%r15, 56(%rsp)
	movl	$0, 48(%rsp)
	movq	.refptr.wxDefaultSize(%rip), %rdx
	movq	%rdx, 40(%rsp)
	movq	%r14, 32(%rsp)
	movq	-40(%rbp), %r9
	movl	%ecx, %r8d
	movq	%rax, %rdx
	movq	%rdi, %rcx
.LEHB65:
	call	_ZN12wxStaticTextC1EP8wxWindowiRK8wxStringRK7wxPointRK6wxSizelS4_
.LEHE65:
	.loc 45 41 37 discriminator 11
	movq	4064(%rbp), %rax
	movq	%rdi, 832(%rax)
	leaq	1264(%rbp), %rax
	movq	%rax, %rcx
	call	_ZN8wxStringD1Ev
	.loc 45 41 151 discriminator 11
	leaq	1200(%rbp), %rax
	movq	%rax, %rcx
	call	_ZN8wxStringD1Ev
	leaq	1152(%rbp), %rax
	movq	%rax, %rcx
	call	_ZN8wxStringD1Ev
	.loc 45 42 151 discriminator 11
	movq	.refptr.wxEmptyString(%rip), %rax
	movq	(%rax), %rdx
	leaq	1312(%rbp), %rax
	movq	%rax, %rcx
.LEHB66:
	call	_ZN8wxStringC1EPKw
.LEHE66:
	.loc 45 42 151 is_stmt 0 discriminator 1
	leaq	800(%rbp), %rax
	movl	$0, 56(%rsp)
	leaq	1312(%rbp), %rdx
	movq	%rdx, 48(%rsp)
	movl	$0, 40(%rsp)
	movl	$90, 32(%rsp)
	movl	$90, %r9d
	movl	$74, %r8d
	movl	$12, %edx
	movq	%rax, %rcx
.LEHB67:
	call	_ZN6wxFontC1Ei12wxFontFamily11wxFontStyle12wxFontWeightbRK8wxString14wxFontEncoding
.LEHE67:
	leaq	1312(%rbp), %rax
	movq	%rax, %rcx
	call	_ZN8wxStringD1Ev
	.loc 45 43 2 is_stmt 1
	movq	4064(%rbp), %rax
	movq	832(%rax), %rcx
	movq	4064(%rbp), %rax
	movq	832(%rax), %rax
	.loc 45 43 84
	movq	(%rax), %rax
	addq	$848, %rax
	movq	(%rax), %r8
	.loc 45 43 45
	leaq	800(%rbp), %rax
	movq	%rax, %rdx
.LEHB68:
	call	*%r8
.LVL24:
.LEHE68:
	.loc 45 44 142
	leaq	1360(%rbp), %rax
	movq	%rax, %rcx
	call	_ZN8wxStringC1Ev
	leaq	1408(%rbp), %rax
	leaq	.LC13(%rip), %rdx
	movq	%rax, %rcx
.LEHB69:
	call	_ZN8wxStringC1EPKc
.LEHE69:
	.loc 45 44 142 is_stmt 0 discriminator 3
	leaq	1360(%rbp), %rdx
	leaq	1408(%rbp), %rax
	movq	%rax, %rcx
.LEHB70:
	call	_Z16wxGetTranslationRK8wxStringS1_
	movq	%rax, -40(%rbp)
	.loc 45 44 145 is_stmt 1 discriminator 3
	leaq	1464(%rbp), %rax
	movl	$48, %r8d
	movl	$336, %edx
	movq	%rax, %rcx
	call	_ZN7wxPointC1Eii
	leaq	1464(%rbp), %r14
	.loc 45 44 42 discriminator 3
	leaq	1472(%rbp), %rax
	leaq	.LC14(%rip), %rdx
	movq	%rax, %rcx
	call	_ZN8wxStringC1EPKw
.LEHE70:
	.loc 45 44 42 is_stmt 0 discriminator 7
	leaq	1472(%rbp), %r15
	.loc 45 44 214 is_stmt 1 discriminator 7
	movl	$648, %ecx
.LEHB71:
	call	_Znwy
.LEHE71:
	movq	%rax, %rdi
	movl	_ZN17ParametrosGDialog46ID_STATICTEXT_DESVIO_PROVAVEL_ELEVACAO_UNIDADEE(%rip), %ecx
	movq	4064(%rbp), %rax
	movq	%r15, 56(%rsp)
	movl	$0, 48(%rsp)
	movq	.refptr.wxDefaultSize(%rip), %rdx
	movq	%rdx, 40(%rsp)
	movq	%r14, 32(%rsp)
	movq	-40(%rbp), %r9
	movl	%ecx, %r8d
	movq	%rax, %rdx
	movq	%rdi, %rcx
.LEHB72:
	call	_ZN12wxStaticTextC1EP8wxWindowiRK8wxStringRK7wxPointRK6wxSizelS4_
.LEHE72:
	.loc 45 44 42 discriminator 11
	movq	4064(%rbp), %rax
	movq	%rdi, 808(%rax)
	leaq	1472(%rbp), %rax
	movq	%rax, %rcx
	call	_ZN8wxStringD1Ev
	.loc 45 44 142 discriminator 11
	leaq	1408(%rbp), %rax
	movq	%rax, %rcx
	call	_ZN8wxStringD1Ev
	leaq	1360(%rbp), %rax
	movq	%rax, %rcx
	call	_ZN8wxStringD1Ev
	.loc 45 45 156 discriminator 11
	movq	.refptr.wxEmptyString(%rip), %rax
	movq	(%rax), %rdx
	leaq	1520(%rbp), %rax
	movq	%rax, %rcx
.LEHB73:
	call	_ZN8wxStringC1EPKw
.LEHE73:
	.loc 45 45 156 is_stmt 0 discriminator 1
	leaq	784(%rbp), %rax
	movl	$0, 56(%rsp)
	leaq	1520(%rbp), %rdx
	movq	%rdx, 48(%rsp)
	movl	$0, 40(%rsp)
	movl	$90, 32(%rsp)
	movl	$90, %r9d
	movl	$74, %r8d
	movl	$12, %edx
	movq	%rax, %rcx
.LEHB74:
	call	_ZN6wxFontC1Ei12wxFontFamily11wxFontStyle12wxFontWeightbRK8wxString14wxFontEncoding
.LEHE74:
	leaq	1520(%rbp), %rax
	movq	%rax, %rcx
	call	_ZN8wxStringD1Ev
	.loc 45 46 2 is_stmt 1
	movq	4064(%rbp), %rax
	movq	808(%rax), %rcx
	movq	4064(%rbp), %rax
	movq	808(%rax), %rax
	.loc 45 46 94
	movq	(%rax), %rax
	addq	$848, %rax
	movq	(%rax), %r8
	.loc 45 46 50
	leaq	784(%rbp), %rax
	movq	%rax, %rdx
.LEHB75:
	call	*%r8
.LVL25:
	.loc 45 47 34
	movq	.refptr.wxEmptyString(%rip), %rax
	movq	(%rax), %rdx
	leaq	1568(%rbp), %rax
	movq	%rax, %rcx
	call	_ZN8wxStringC1EPKw
.LEHE75:
	.loc 45 47 34 is_stmt 0 discriminator 1
	leaq	1568(%rbp), %rax
	movq	%rax, -40(%rbp)
	.loc 45 47 109 is_stmt 1 discriminator 1
	leaq	1616(%rbp), %rax
	movl	$88, %r8d
	movl	$272, %edx
	movq	%rax, %rcx
	call	_ZN7wxPointC1Eii
	leaq	1616(%rbp), %r14
	.loc 45 47 126 discriminator 1
	leaq	1624(%rbp), %rax
	movl	$21, %r8d
	movl	$56, %edx
	movq	%rax, %rcx
	call	_ZN6wxSizeC1Eii
	leaq	1624(%rbp), %r15
	.loc 45 47 34 discriminator 1
	leaq	1632(%rbp), %rax
	leaq	.LC15(%rip), %rdx
	movq	%rax, %rcx
.LEHB76:
	call	_ZN8wxStringC1EPKw
.LEHE76:
	.loc 45 47 34 is_stmt 0 discriminator 3
	leaq	1632(%rbp), %rdi
	movq	%rdi, -48(%rbp)
	.loc 45 47 214 is_stmt 1 discriminator 3
	movl	$1384, %ecx
.LEHB77:
	call	_Znwy
.LEHE77:
	movq	%rax, %rdi
	movl	_ZN17ParametrosGDialog35ID_TEXTCTRL_DESVIO_PROVAVEL_ARRASTOE(%rip), %ecx
	movq	4064(%rbp), %rax
	movq	-48(%rbp), %rdx
	movq	%rdx, 64(%rsp)
	movq	.refptr.wxDefaultValidator(%rip), %rdx
	movq	%rdx, 56(%rsp)
	movl	$256, 48(%rsp)
	movq	%r15, 40(%rsp)
	movq	%r14, 32(%rsp)
	movq	-40(%rbp), %r9
	movl	%ecx, %r8d
	movq	%rax, %rdx
	movq	%rdi, %rcx
.LEHB78:
	call	_ZN10wxTextCtrlC1EP8wxWindowiRK8wxStringRK7wxPointRK6wxSizelRK11wxValidatorS4_
.LEHE78:
	.loc 45 47 34 discriminator 7
	movq	4064(%rbp), %rax
	movq	%rdi, 864(%rax)
	leaq	1632(%rbp), %rax
	movq	%rax, %rcx
	call	_ZN8wxStringD1Ev
	leaq	1568(%rbp), %rax
	movq	%rax, %rcx
	call	_ZN8wxStringD1Ev
	.loc 45 48 148 discriminator 7
	movq	.refptr.wxEmptyString(%rip), %rax
	movq	(%rax), %rdx
	leaq	1680(%rbp), %rax
	movq	%rax, %rcx
.LEHB79:
	call	_ZN8wxStringC1EPKw
.LEHE79:
	.loc 45 48 148 is_stmt 0 discriminator 1
	leaq	768(%rbp), %rax
	movl	$0, 56(%rsp)
	leaq	1680(%rbp), %rdx
	movq	%rdx, 48(%rsp)
	movl	$0, 40(%rsp)
	movl	$90, 32(%rsp)
	movl	$90, %r9d
	movl	$74, %r8d
	movl	$12, %edx
	movq	%rax, %rcx
.LEHB80:
	call	_ZN6wxFontC1Ei12wxFontFamily11wxFontStyle12wxFontWeightbRK8wxString14wxFontEncoding
.LEHE80:
	leaq	1680(%rbp), %rax
	movq	%rax, %rcx
	call	_ZN8wxStringD1Ev
	.loc 45 49 2 is_stmt 1
	movq	4064(%rbp), %rax
	movq	864(%rax), %rcx
	movq	4064(%rbp), %rax
	movq	864(%rax), %rax
	.loc 45 49 78
	movq	(%rax), %rax
	addq	$848, %rax
	movq	(%rax), %r8
	.loc 45 49 42
	leaq	768(%rbp), %rax
	movq	%rax, %rdx
.LEHB81:
	call	*%r8
.LVL26:
.LEHE81:
	.loc 45 50 148
	leaq	1728(%rbp), %rax
	movq	%rax, %rcx
	call	_ZN8wxStringC1Ev
	leaq	1776(%rbp), %rax
	leaq	.LC16(%rip), %rdx
	movq	%rax, %rcx
.LEHB82:
	call	_ZN8wxStringC1EPKc
.LEHE82:
	.loc 45 50 148 is_stmt 0 discriminator 3
	leaq	1728(%rbp), %rdx
	leaq	1776(%rbp), %rax
	movq	%rax, %rcx
.LEHB83:
	call	_Z16wxGetTranslationRK8wxStringS1_
	movq	%rax, -40(%rbp)
	.loc 45 50 151 is_stmt 1 discriminator 3
	leaq	1832(%rbp), %rax
	movl	$88, %r8d
	movl	$72, %edx
	movq	%rax, %rcx
	call	_ZN7wxPointC1Eii
	leaq	1832(%rbp), %r14
	.loc 45 50 36 discriminator 3
	leaq	1840(%rbp), %rax
	leaq	.LC17(%rip), %rdx
	movq	%rax, %rcx
	call	_ZN8wxStringC1EPKw
.LEHE83:
	.loc 45 50 36 is_stmt 0 discriminator 7
	leaq	1840(%rbp), %r15
	.loc 45 50 210 is_stmt 1 discriminator 7
	movl	$648, %ecx
.LEHB84:
	call	_Znwy
.LEHE84:
	movq	%rax, %rdi
	movl	_ZN17ParametrosGDialog37ID_STATICTEXT_DESVIO_PROVAVEL_ARRASTOE(%rip), %ecx
	movq	4064(%rbp), %rax
	movq	%r15, 56(%rsp)
	movl	$0, 48(%rsp)
	movq	.refptr.wxDefaultSize(%rip), %rdx
	movq	%rdx, 40(%rsp)
	movq	%r14, 32(%rsp)
	movq	-40(%rbp), %r9
	movl	%ecx, %r8d
	movq	%rax, %rdx
	movq	%rdi, %rcx
.LEHB85:
	call	_ZN12wxStaticTextC1EP8wxWindowiRK8wxStringRK7wxPointRK6wxSizelS4_
.LEHE85:
	.loc 45 50 36 discriminator 11
	movq	4064(%rbp), %rax
	movq	%rdi, 816(%rax)
	leaq	1840(%rbp), %rax
	movq	%rax, %rcx
	call	_ZN8wxStringD1Ev
	.loc 45 50 148 discriminator 11
	leaq	1776(%rbp), %rax
	movq	%rax, %rcx
	call	_ZN8wxStringD1Ev
	leaq	1728(%rbp), %rax
	movq	%rax, %rcx
	call	_ZN8wxStringD1Ev
	.loc 45 51 150 discriminator 11
	movq	.refptr.wxEmptyString(%rip), %rax
	movq	(%rax), %rdx
	leaq	1888(%rbp), %rax
	movq	%rax, %rcx
.LEHB86:
	call	_ZN8wxStringC1EPKw
.LEHE86:
	.loc 45 51 150 is_stmt 0 discriminator 1
	leaq	752(%rbp), %rax
	movl	$0, 56(%rsp)
	leaq	1888(%rbp), %rdx
	movq	%rdx, 48(%rsp)
	movl	$0, 40(%rsp)
	movl	$90, 32(%rsp)
	movl	$90, %r9d
	movl	$74, %r8d
	movl	$12, %edx
	movq	%rax, %rcx
.LEHB87:
	call	_ZN6wxFontC1Ei12wxFontFamily11wxFontStyle12wxFontWeightbRK8wxString14wxFontEncoding
.LEHE87:
	leaq	1888(%rbp), %rax
	movq	%rax, %rcx
	call	_ZN8wxStringD1Ev
	.loc 45 52 2 is_stmt 1
	movq	4064(%rbp), %rax
	movq	816(%rax), %rcx
	movq	4064(%rbp), %rax
	movq	816(%rax), %rax
	.loc 45 52 82
	movq	(%rax), %rax
	addq	$848, %rax
	movq	(%rax), %r8
	.loc 45 52 44
	leaq	752(%rbp), %rax
	movq	%rax, %rdx
.LEHB88:
	call	*%r8
.LVL27:
.LEHE88:
	.loc 45 53 137
	leaq	1936(%rbp), %rax
	movq	%rax, %rcx
	call	_ZN8wxStringC1Ev
	leaq	1984(%rbp), %rax
	leaq	.LC18(%rip), %rdx
	movq	%rax, %rcx
.LEHB89:
	call	_ZN8wxStringC1EPKc
.LEHE89:
	.loc 45 53 137 is_stmt 0 discriminator 3
	leaq	1936(%rbp), %rdx
	leaq	1984(%rbp), %rax
	movq	%rax, %rcx
.LEHB90:
	call	_Z16wxGetTranslationRK8wxStringS1_
	movq	%rax, -40(%rbp)
	.loc 45 53 140 is_stmt 1 discriminator 3
	leaq	2040(%rbp), %rax
	movl	$88, %r8d
	movl	$336, %edx
	movq	%rax, %rcx
	call	_ZN7wxPointC1Eii
	leaq	2040(%rbp), %r14
	.loc 45 53 43 discriminator 3
	leaq	2048(%rbp), %rax
	leaq	.LC19(%rip), %rdx
	movq	%rax, %rcx
	call	_ZN8wxStringC1EPKw
.LEHE90:
	.loc 45 53 43 is_stmt 0 discriminator 7
	leaq	2048(%rbp), %r15
	.loc 45 53 208 is_stmt 1 discriminator 7
	movl	$648, %ecx
.LEHB91:
	call	_Znwy
.LEHE91:
	movq	%rax, %rdi
	movl	_ZN17ParametrosGDialog45ID_STATICTEXT_DESVIO_PROVAVEL_ARRASTO_UNIDADEE(%rip), %ecx
	movq	4064(%rbp), %rax
	movq	%r15, 56(%rsp)
	movl	$0, 48(%rsp)
	movq	.refptr.wxDefaultSize(%rip), %rdx
	movq	%rdx, 40(%rsp)
	movq	%r14, 32(%rsp)
	movq	-40(%rbp), %r9
	movl	%ecx, %r8d
	movq	%rax, %rdx
	movq	%rdi, %rcx
.LEHB92:
	call	_ZN12wxStaticTextC1EP8wxWindowiRK8wxStringRK7wxPointRK6wxSizelS4_
.LEHE92:
	.loc 45 53 43 discriminator 11
	movq	4064(%rbp), %rax
	movq	%rdi, 824(%rax)
	leaq	2048(%rbp), %rax
	movq	%rax, %rcx
	call	_ZN8wxStringD1Ev
	.loc 45 53 137 discriminator 11
	leaq	1984(%rbp), %rax
	movq	%rax, %rcx
	call	_ZN8wxStringD1Ev
	leaq	1936(%rbp), %rax
	movq	%rax, %rcx
	call	_ZN8wxStringD1Ev
	.loc 45 54 157 discriminator 11
	movq	.refptr.wxEmptyString(%rip), %rax
	movq	(%rax), %rdx
	leaq	2096(%rbp), %rax
	movq	%rax, %rcx
.LEHB93:
	call	_ZN8wxStringC1EPKw
.LEHE93:
	.loc 45 54 157 is_stmt 0 discriminator 1
	leaq	736(%rbp), %rax
	movl	$0, 56(%rsp)
	leaq	2096(%rbp), %rdx
	movq	%rdx, 48(%rsp)
	movl	$0, 40(%rsp)
	movl	$90, 32(%rsp)
	movl	$90, %r9d
	movl	$74, %r8d
	movl	$12, %edx
	movq	%rax, %rcx
.LEHB94:
	call	_ZN6wxFontC1Ei12wxFontFamily11wxFontStyle12wxFontWeightbRK8wxString14wxFontEncoding
.LEHE94:
	leaq	2096(%rbp), %rax
	movq	%rax, %rcx
	call	_ZN8wxStringD1Ev
	.loc 45 55 2 is_stmt 1
	movq	4064(%rbp), %rax
	movq	824(%rax), %rcx
	movq	4064(%rbp), %rax
	movq	824(%rax), %rax
	.loc 45 55 96
	movq	(%rax), %rax
	addq	$848, %rax
	movq	(%rax), %r8
	.loc 45 55 51
	leaq	736(%rbp), %rax
	movq	%rax, %rdx
.LEHB95:
	call	*%r8
.LVL28:
.LEHE95:
	.loc 45 56 157
	leaq	2144(%rbp), %rax
	movq	%rax, %rcx
	call	_ZN8wxStringC1Ev
	leaq	2192(%rbp), %rax
	leaq	.LC20(%rip), %rdx
	movq	%rax, %rcx
.LEHB96:
	call	_ZN8wxStringC1EPKc
.LEHE96:
	.loc 45 56 157 is_stmt 0 discriminator 3
	leaq	2144(%rbp), %rdx
	leaq	2192(%rbp), %rax
	movq	%rax, %rcx
.LEHB97:
	call	_Z16wxGetTranslationRK8wxStringS1_
	movq	%rax, -40(%rbp)
	.loc 45 56 160 is_stmt 1 discriminator 3
	leaq	2248(%rbp), %rax
	movl	$128, %r8d
	movl	$48, %edx
	movq	%rax, %rcx
	call	_ZN7wxPointC1Eii
	leaq	2248(%rbp), %r14
	.loc 45 56 39 discriminator 3
	leaq	2256(%rbp), %rax
	leaq	.LC21(%rip), %rdx
	movq	%rax, %rcx
	call	_ZN8wxStringC1EPKw
.LEHE97:
	.loc 45 56 39 is_stmt 0 discriminator 7
	leaq	2256(%rbp), %r15
	.loc 45 56 223 is_stmt 1 discriminator 7
	movl	$648, %ecx
.LEHB98:
	call	_Znwy
.LEHE98:
	movq	%rax, %rdi
	movl	_ZN17ParametrosGDialog40ID_STATICTEXT_DESVIO_PROVAVEL_VELOCIDADEE(%rip), %ecx
	movq	4064(%rbp), %rax
	movq	%r15, 56(%rsp)
	movl	$0, 48(%rsp)
	movq	.refptr.wxDefaultSize(%rip), %rdx
	movq	%rdx, 40(%rsp)
	movq	%r14, 32(%rsp)
	movq	-40(%rbp), %r9
	movl	%ecx, %r8d
	movq	%rax, %rdx
	movq	%rdi, %rcx
.LEHB99:
	call	_ZN12wxStaticTextC1EP8wxWindowiRK8wxStringRK7wxPointRK6wxSizelS4_
.LEHE99:
	.loc 45 56 39 discriminator 11
	movq	4064(%rbp), %rax
	movq	%rdi, 840(%rax)
	leaq	2256(%rbp), %rax
	movq	%rax, %rcx
	call	_ZN8wxStringD1Ev
	.loc 45 56 157 discriminator 11
	leaq	2192(%rbp), %rax
	movq	%rax, %rcx
	call	_ZN8wxStringD1Ev
	leaq	2144(%rbp), %rax
	movq	%rax, %rcx
	call	_ZN8wxStringD1Ev
	.loc 45 57 153 discriminator 11
	movq	.refptr.wxEmptyString(%rip), %rax
	movq	(%rax), %rdx
	leaq	2304(%rbp), %rax
	movq	%rax, %rcx
.LEHB100:
	call	_ZN8wxStringC1EPKw
.LEHE100:
	.loc 45 57 153 is_stmt 0 discriminator 1
	leaq	720(%rbp), %rax
	movl	$0, 56(%rsp)
	leaq	2304(%rbp), %rdx
	movq	%rdx, 48(%rsp)
	movl	$0, 40(%rsp)
	movl	$90, 32(%rsp)
	movl	$90, %r9d
	movl	$74, %r8d
	movl	$12, %edx
	movq	%rax, %rcx
.LEHB101:
	call	_ZN6wxFontC1Ei12wxFontFamily11wxFontStyle12wxFontWeightbRK8wxString14wxFontEncoding
.LEHE101:
	leaq	2304(%rbp), %rax
	movq	%rax, %rcx
	call	_ZN8wxStringD1Ev
	.loc 45 58 2 is_stmt 1
	movq	4064(%rbp), %rax
	movq	840(%rax), %rcx
	movq	4064(%rbp), %rax
	movq	840(%rax), %rax
	.loc 45 58 88
	movq	(%rax), %rax
	addq	$848, %rax
	movq	(%rax), %r8
	.loc 45 58 47
	leaq	720(%rbp), %rax
	movq	%rax, %rdx
.LEHB102:
	call	*%r8
.LVL29:
.LEHE102:
	.loc 45 59 145
	leaq	2352(%rbp), %rax
	movq	%rax, %rcx
	call	_ZN8wxStringC1Ev
	leaq	2400(%rbp), %rax
	leaq	.LC22(%rip), %rdx
	movq	%rax, %rcx
.LEHB103:
	call	_ZN8wxStringC1EPKc
.LEHE103:
	.loc 45 59 145 is_stmt 0 discriminator 3
	leaq	2352(%rbp), %rdx
	leaq	2400(%rbp), %rax
	movq	%rax, %rcx
.LEHB104:
	call	_Z16wxGetTranslationRK8wxStringS1_
	movq	%rax, -40(%rbp)
	.loc 45 59 148 is_stmt 1 discriminator 3
	leaq	2456(%rbp), %rax
	movl	$128, %r8d
	movl	$336, %edx
	movq	%rax, %rcx
	call	_ZN7wxPointC1Eii
	leaq	2456(%rbp), %r14
	.loc 45 59 46 discriminator 3
	leaq	2464(%rbp), %rax
	leaq	.LC23(%rip), %rdx
	movq	%rax, %rcx
	call	_ZN8wxStringC1EPKw
.LEHE104:
	.loc 45 59 46 is_stmt 0 discriminator 7
	leaq	2464(%rbp), %r15
	.loc 45 59 220 is_stmt 1 discriminator 7
	movl	$648, %ecx
.LEHB105:
	call	_Znwy
.LEHE105:
	movq	%rax, %rdi
	movl	_ZN17ParametrosGDialog48ID_STATICTEXT_DESVIO_PROVAVEL_VELOCIDADE_UNIDADEE(%rip), %ecx
	movq	4064(%rbp), %rax
	movq	%r15, 56(%rsp)
	movl	$0, 48(%rsp)
	movq	.refptr.wxDefaultSize(%rip), %rdx
	movq	%rdx, 40(%rsp)
	movq	%r14, 32(%rsp)
	movq	-40(%rbp), %r9
	movl	%ecx, %r8d
	movq	%rax, %rdx
	movq	%rdi, %rcx
.LEHB106:
	call	_ZN12wxStaticTextC1EP8wxWindowiRK8wxStringRK7wxPointRK6wxSizelS4_
.LEHE106:
	.loc 45 59 46 discriminator 11
	movq	4064(%rbp), %rax
	movq	%rdi, 848(%rax)
	leaq	2464(%rbp), %rax
	movq	%rax, %rcx
	call	_ZN8wxStringD1Ev
	.loc 45 59 145 discriminator 11
	leaq	2400(%rbp), %rax
	movq	%rax, %rcx
	call	_ZN8wxStringD1Ev
	leaq	2352(%rbp), %rax
	movq	%rax, %rcx
	call	_ZN8wxStringD1Ev
	.loc 45 60 160 discriminator 11
	movq	.refptr.wxEmptyString(%rip), %rax
	movq	(%rax), %rdx
	leaq	2512(%rbp), %rax
	movq	%rax, %rcx
.LEHB107:
	call	_ZN8wxStringC1EPKw
.LEHE107:
	.loc 45 60 160 is_stmt 0 discriminator 1
	leaq	704(%rbp), %rax
	movl	$0, 56(%rsp)
	leaq	2512(%rbp), %rdx
	movq	%rdx, 48(%rsp)
	movl	$0, 40(%rsp)
	movl	$90, 32(%rsp)
	movl	$90, %r9d
	movl	$74, %r8d
	movl	$12, %edx
	movq	%rax, %rcx
.LEHB108:
	call	_ZN6wxFontC1Ei12wxFontFamily11wxFontStyle12wxFontWeightbRK8wxString14wxFontEncoding
.LEHE108:
	leaq	2512(%rbp), %rax
	movq	%rax, %rcx
	call	_ZN8wxStringD1Ev
	.loc 45 61 2 is_stmt 1
	movq	4064(%rbp), %rax
	movq	848(%rax), %rcx
	movq	4064(%rbp), %rax
	movq	848(%rax), %rax
	.loc 45 61 102
	movq	(%rax), %rax
	addq	$848, %rax
	movq	(%rax), %r8
	.loc 45 61 54
	leaq	704(%rbp), %rax
	movq	%rax, %rdx
.LEHB109:
	call	*%r8
.LVL30:
	.loc 45 62 37
	movq	.refptr.wxEmptyString(%rip), %rax
	movq	(%rax), %rdx
	leaq	2560(%rbp), %rax
	movq	%rax, %rcx
	call	_ZN8wxStringC1EPKw
.LEHE109:
	.loc 45 62 37 is_stmt 0 discriminator 1
	leaq	2560(%rbp), %rax
	movq	%rax, -40(%rbp)
	.loc 45 62 115 is_stmt 1 discriminator 1
	leaq	2608(%rbp), %rax
	movl	$128, %r8d
	movl	$280, %edx
	movq	%rax, %rcx
	call	_ZN7wxPointC1Eii
	leaq	2608(%rbp), %r14
	.loc 45 62 133 discriminator 1
	leaq	2616(%rbp), %rax
	movl	$21, %r8d
	movl	$48, %edx
	movq	%rax, %rcx
	call	_ZN6wxSizeC1Eii
	leaq	2616(%rbp), %r15
	.loc 45 62 37 discriminator 1
	leaq	2624(%rbp), %rax
	leaq	.LC24(%rip), %rdx
	movq	%rax, %rcx
.LEHB110:
	call	_ZN8wxStringC1EPKw
.LEHE110:
	.loc 45 62 37 is_stmt 0 discriminator 3
	leaq	2624(%rbp), %rdi
	movq	%rdi, -48(%rbp)
	.loc 45 62 224 is_stmt 1 discriminator 3
	movl	$1384, %ecx
.LEHB111:
	call	_Znwy
.LEHE111:
	movq	%rax, %rdi
	movl	_ZN17ParametrosGDialog38ID_TEXTCTRL_DESVIO_PROVAVEL_VELOCIDADEE(%rip), %ecx
	movq	4064(%rbp), %rax
	movq	-48(%rbp), %rdx
	movq	%rdx, 64(%rsp)
	movq	.refptr.wxDefaultValidator(%rip), %rdx
	movq	%rdx, 56(%rsp)
	movl	$256, 48(%rsp)
	movq	%r15, 40(%rsp)
	movq	%r14, 32(%rsp)
	movq	-40(%rbp), %r9
	movl	%ecx, %r8d
	movq	%rax, %rdx
	movq	%rdi, %rcx
.LEHB112:
	call	_ZN10wxTextCtrlC1EP8wxWindowiRK8wxStringRK7wxPointRK6wxSizelRK11wxValidatorS4_
.LEHE112:
	.loc 45 62 37 discriminator 7
	movq	4064(%rbp), %rax
	movq	%rdi, 880(%rax)
	leaq	2624(%rbp), %rax
	movq	%rax, %rcx
	call	_ZN8wxStringD1Ev
	leaq	2560(%rbp), %rax
	movq	%rax, %rcx
	call	_ZN8wxStringD1Ev
	.loc 45 63 151 discriminator 7
	movq	.refptr.wxEmptyString(%rip), %rax
	movq	(%rax), %rdx
	leaq	2672(%rbp), %rax
	movq	%rax, %rcx
.LEHB113:
	call	_ZN8wxStringC1EPKw
.LEHE113:
	.loc 45 63 151 is_stmt 0 discriminator 1
	leaq	688(%rbp), %rax
	movl	$0, 56(%rsp)
	leaq	2672(%rbp), %rdx
	movq	%rdx, 48(%rsp)
	movl	$0, 40(%rsp)
	movl	$90, 32(%rsp)
	movl	$90, %r9d
	movl	$74, %r8d
	movl	$12, %edx
	movq	%rax, %rcx
.LEHB114:
	call	_ZN6wxFontC1Ei12wxFontFamily11wxFontStyle12wxFontWeightbRK8wxString14wxFontEncoding
.LEHE114:
	leaq	2672(%rbp), %rax
	movq	%rax, %rcx
	call	_ZN8wxStringD1Ev
	.loc 45 64 2 is_stmt 1
	movq	4064(%rbp), %rax
	movq	880(%rax), %rcx
	movq	4064(%rbp), %rax
	movq	880(%rax), %rax
	.loc 45 64 84
	movq	(%rax), %rax
	addq	$848, %rax
	movq	(%rax), %r8
	.loc 45 64 45
	leaq	688(%rbp), %rax
	movq	%rax, %rdx
.LEHB115:
	call	*%r8
.LVL31:
	.loc 45 65 43
	movq	.refptr.wxEmptyString(%rip), %rax
	movq	(%rax), %rdx
	leaq	2720(%rbp), %rax
	movq	%rax, %rcx
	call	_ZN8wxStringC1EPKw
.LEHE115:
	.loc 45 65 43 is_stmt 0 discriminator 1
	leaq	2720(%rbp), %rax
	movq	%rax, -40(%rbp)
	.loc 45 65 131 is_stmt 1 discriminator 1
	leaq	2768(%rbp), %rax
	movl	$176, %r8d
	movl	$280, %edx
	movq	%rax, %rcx
	call	_ZN7wxPointC1Eii
	leaq	2768(%rbp), %r14
	.loc 45 65 149 discriminator 1
	leaq	2776(%rbp), %rax
	movl	$21, %r8d
	movl	$48, %edx
	movq	%rax, %rcx
	call	_ZN6wxSizeC1Eii
	leaq	2776(%rbp), %r15
	.loc 45 65 43 discriminator 1
	leaq	2784(%rbp), %rax
	leaq	.LC25(%rip), %rdx
	movq	%rax, %rcx
.LEHB116:
	call	_ZN8wxStringC1EPKw
.LEHE116:
	.loc 45 65 43 is_stmt 0 discriminator 3
	leaq	2784(%rbp), %rdi
	movq	%rdi, -48(%rbp)
	.loc 45 65 250 is_stmt 1 discriminator 3
	movl	$1384, %ecx
.LEHB117:
	call	_Znwy
.LEHE117:
	movq	%rax, %rdi
	movl	_ZN17ParametrosGDialog48ID_TEXTCTRL_FATOR_AJUSTE_DESVIO_PROVAVEL_DIRECAOE(%rip), %ecx
	movq	4064(%rbp), %rax
	movq	-48(%rbp), %rdx
	movq	%rdx, 64(%rsp)
	movq	.refptr.wxDefaultValidator(%rip), %rdx
	movq	%rdx, 56(%rsp)
	movl	$256, 48(%rsp)
	movq	%r15, 40(%rsp)
	movq	%r14, 32(%rsp)
	movq	-40(%rbp), %r9
	movl	%ecx, %r8d
	movq	%rax, %rdx
	movq	%rdi, %rcx
.LEHB118:
	call	_ZN10wxTextCtrlC1EP8wxWindowiRK8wxStringRK7wxPointRK6wxSizelRK11wxValidatorS4_
.LEHE118:
	.loc 45 65 43 discriminator 7
	movq	4064(%rbp), %rax
	movq	%rdi, 888(%rax)
	leaq	2784(%rbp), %rax
	movq	%rax, %rcx
	call	_ZN8wxStringD1Ev
	leaq	2720(%rbp), %rax
	movq	%rax, %rcx
	call	_ZN8wxStringD1Ev
	.loc 45 66 157 discriminator 7
	movq	.refptr.wxEmptyString(%rip), %rax
	movq	(%rax), %rdx
	leaq	2832(%rbp), %rax
	movq	%rax, %rcx
.LEHB119:
	call	_ZN8wxStringC1EPKw
.LEHE119:
	.loc 45 66 157 is_stmt 0 discriminator 1
	leaq	672(%rbp), %rax
	movl	$0, 56(%rsp)
	leaq	2832(%rbp), %rdx
	movq	%rdx, 48(%rsp)
	movl	$0, 40(%rsp)
	movl	$90, 32(%rsp)
	movl	$90, %r9d
	movl	$74, %r8d
	movl	$12, %edx
	movq	%rax, %rcx
.LEHB120:
	call	_ZN6wxFontC1Ei12wxFontFamily11wxFontStyle12wxFontWeightbRK8wxString14wxFontEncoding
.LEHE120:
	leaq	2832(%rbp), %rax
	movq	%rax, %rcx
	call	_ZN8wxStringD1Ev
	.loc 45 67 2 is_stmt 1
	movq	4064(%rbp), %rax
	movq	888(%rax), %rcx
	movq	4064(%rbp), %rax
	movq	888(%rax), %rax
	.loc 45 67 96
	movq	(%rax), %rax
	addq	$848, %rax
	movq	(%rax), %r8
	.loc 45 67 51
	leaq	672(%rbp), %rax
	movq	%rax, %rdx
.LEHB121:
	call	*%r8
.LVL32:
.LEHE121:
	.loc 45 68 194
	leaq	2880(%rbp), %rax
	movq	%rax, %rcx
	call	_ZN8wxStringC1Ev
	leaq	2928(%rbp), %rax
	leaq	.LC26(%rip), %rdx
	movq	%rax, %rcx
.LEHB122:
	call	_ZN8wxStringC1EPKc
.LEHE122:
	.loc 45 68 194 is_stmt 0 discriminator 3
	leaq	2880(%rbp), %rdx
	leaq	2928(%rbp), %rax
	movq	%rax, %rcx
.LEHB123:
	call	_Z16wxGetTranslationRK8wxStringS1_
	movq	%rax, -40(%rbp)
	.loc 45 68 197 is_stmt 1 discriminator 3
	leaq	2984(%rbp), %rax
	movl	$168, %r8d
	movl	$64, %edx
	movq	%rax, %rcx
	call	_ZN7wxPointC1Eii
	leaq	2984(%rbp), %r14
	.loc 45 68 47 discriminator 3
	leaq	2992(%rbp), %rax
	leaq	.LC27(%rip), %rdx
	movq	%rax, %rcx
	call	_ZN8wxStringC1EPKw
.LEHE123:
	.loc 45 68 47 is_stmt 0 discriminator 7
	leaq	2992(%rbp), %r15
	.loc 45 68 283 is_stmt 1 discriminator 7
	movl	$648, %ecx
.LEHB124:
	call	_Znwy
.LEHE124:
	movq	%rax, %rdi
	movl	_ZN17ParametrosGDialog50ID_STATICTEXT_FATOR_AJUSTE_DESVIO_PROVAVEL_DIRECAOE(%rip), %ecx
	movq	4064(%rbp), %rax
	movq	%r15, 56(%rsp)
	movl	$2304, 48(%rsp)
	movq	.refptr.wxDefaultSize(%rip), %rdx
	movq	%rdx, 40(%rsp)
	movq	%r14, 32(%rsp)
	movq	-40(%rbp), %r9
	movl	%ecx, %r8d
	movq	%rax, %rdx
	movq	%rdi, %rcx
.LEHB125:
	call	_ZN12wxStaticTextC1EP8wxWindowiRK8wxStringRK7wxPointRK6wxSizelS4_
.LEHE125:
	.loc 45 68 47 discriminator 11
	movq	4064(%rbp), %rax
	movq	%rdi, 856(%rax)
	leaq	2992(%rbp), %rax
	movq	%rax, %rcx
	call	_ZN8wxStringD1Ev
	.loc 45 68 194 discriminator 11
	leaq	2928(%rbp), %rax
	movq	%rax, %rcx
	call	_ZN8wxStringD1Ev
	leaq	2880(%rbp), %rax
	movq	%rax, %rcx
	call	_ZN8wxStringD1Ev
	.loc 45 69 161 discriminator 11
	movq	.refptr.wxEmptyString(%rip), %rax
	movq	(%rax), %rdx
	leaq	3040(%rbp), %rax
	movq	%rax, %rcx
.LEHB126:
	call	_ZN8wxStringC1EPKw
.LEHE126:
	.loc 45 69 161 is_stmt 0 discriminator 1
	leaq	656(%rbp), %rax
	movl	$0, 56(%rsp)
	leaq	3040(%rbp), %rdx
	movq	%rdx, 48(%rsp)
	movl	$0, 40(%rsp)
	movl	$90, 32(%rsp)
	movl	$90, %r9d
	movl	$74, %r8d
	movl	$12, %edx
	movq	%rax, %rcx
.LEHB127:
	call	_ZN6wxFontC1Ei12wxFontFamily11wxFontStyle12wxFontWeightbRK8wxString14wxFontEncoding
.LEHE127:
	leaq	3040(%rbp), %rax
	movq	%rax, %rcx
	call	_ZN8wxStringD1Ev
	.loc 45 70 2 is_stmt 1
	movq	4064(%rbp), %rax
	movq	856(%rax), %rcx
	movq	4064(%rbp), %rax
	movq	856(%rax), %rax
	.loc 45 70 104
	movq	(%rax), %rax
	addq	$848, %rax
	movq	(%rax), %r8
	.loc 45 70 55
	leaq	656(%rbp), %rax
	movq	%rax, %rdx
.LEHB128:
	call	*%r8
.LVL33:
.LEHE128:
	.loc 45 71 81
	leaq	3088(%rbp), %rax
	movq	%rax, %rcx
	call	_ZN8wxStringC1Ev
	leaq	3136(%rbp), %rax
	leaq	.LC28(%rip), %rdx
	movq	%rax, %rcx
.LEHB129:
	call	_ZN8wxStringC1EPKc
.LEHE129:
	.loc 45 71 81 is_stmt 0 discriminator 3
