	.file	"projetilCoeficientesDialog.cpp"
	.text
.Ltext0:
	.cfi_sections	.debug_frame
	.section .rdata,"dr"
_ZStL19piecewise_construct:
	.space 1
	.section	.text$_ZNKSt9type_info4nameEv,"x"
	.linkonce discard
	.align 2
	.globl	_ZNKSt9type_info4nameEv
	.def	_ZNKSt9type_info4nameEv;	.scl	2;	.type	32;	.endef
	.seh_proc	_ZNKSt9type_info4nameEv
_ZNKSt9type_info4nameEv:
.LFB310:
	.file 1 "C:/Program Files/CodeBlocks/MinGW/lib/gcc/x86_64-w64-mingw32/8.1.0/include/c++/typeinfo"
	.loc 1 99 17
	.cfi_startproc
	pushq	%rbp
	.seh_pushreg	%rbp
	.cfi_def_cfa_offset 16
	.cfi_offset 6, -16
	movq	%rsp, %rbp
	.seh_setframe	%rbp, 0
	.cfi_def_cfa_register 6
	.seh_endprologue
	movq	%rcx, 16(%rbp)
	.loc 1 100 14
	movq	16(%rbp), %rax
	movq	8(%rax), %rax
	.loc 1 100 22
	movzbl	(%rax), %eax
	.loc 1 100 31
	cmpb	$42, %al
	jne	.L2
	.loc 1 100 33 discriminator 1
	movq	16(%rbp), %rax
	movq	8(%rax), %rax
	.loc 1 100 31 discriminator 1
	addq	$1, %rax
	.loc 1 100 46 discriminator 1
	jmp	.L4
.L2:
	.loc 1 100 31 discriminator 2
	movq	16(%rbp), %rax
	movq	8(%rax), %rax
.L4:
	.loc 1 100 54 discriminator 5
	popq	%rbp
	.cfi_restore 6
	.cfi_def_cfa 7, 8
	ret
	.cfi_endproc
.LFE310:
	.seh_endproc
	.section	.text$_ZN9wxPrivate17UntypedBufferDataD2Ev,"x"
	.linkonce discard
	.align 2
	.globl	_ZN9wxPrivate17UntypedBufferDataD2Ev
	.def	_ZN9wxPrivate17UntypedBufferDataD2Ev;	.scl	2;	.type	32;	.endef
	.seh_proc	_ZN9wxPrivate17UntypedBufferDataD2Ev
_ZN9wxPrivate17UntypedBufferDataD2Ev:
.LFB934:
	.file 2 "../wxMSW-3.0.5_gcc810_x64_Dev/include/wx/buffer.h"
	.loc 2 41 5
	.cfi_startproc
	pushq	%rbp
	.seh_pushreg	%rbp
	.cfi_def_cfa_offset 16
	.cfi_offset 6, -16
	movq	%rsp, %rbp
	.seh_setframe	%rbp, 0
	.cfi_def_cfa_register 6
	subq	$32, %rsp
	.seh_stackalloc	32
	.seh_endprologue
	movq	%rcx, 16(%rbp)
.LBB2:
	.loc 2 43 14
	movq	16(%rbp), %rax
	movzbl	18(%rax), %eax
	.loc 2 43 9
	testb	%al, %al
	je	.L7
	.loc 2 44 17
	movq	16(%rbp), %rax
	movq	(%rax), %rax
	movq	%rax, %rcx
	call	free
.L7:
.LBE2:
	.loc 2 45 5
	nop
	addq	$32, %rsp
	popq	%rbp
	.cfi_restore 6
	.cfi_def_cfa 7, 8
	ret
	.cfi_endproc
.LFE934:
	.seh_endproc
	.section	.text$_ZN8wxMBConvC2Ev,"x"
	.linkonce discard
	.align 2
	.globl	_ZN8wxMBConvC2Ev
	.def	_ZN8wxMBConvC2Ev;	.scl	2;	.type	32;	.endef
	.seh_proc	_ZN8wxMBConvC2Ev
_ZN8wxMBConvC2Ev:
.LFB1055:
	.file 3 "../wxMSW-3.0.5_gcc810_x64_Dev/include/wx/strconv.h"
	.loc 3 47 7
	.cfi_startproc
	pushq	%rbp
	.seh_pushreg	%rbp
	.cfi_def_cfa_offset 16
	.cfi_offset 6, -16
	movq	%rsp, %rbp
	.seh_setframe	%rbp, 0
	.cfi_def_cfa_register 6
	.seh_endprologue
	movq	%rcx, 16(%rbp)
.LBB3:
	.loc 3 47 7
	movq	.refptr._ZTV8wxMBConv(%rip), %rax
	leaq	16(%rax), %rdx
	movq	16(%rbp), %rax
	movq	%rdx, (%rax)
.LBE3:
	nop
	popq	%rbp
	.cfi_restore 6
	.cfi_def_cfa 7, 8
	ret
	.cfi_endproc
.LFE1055:
	.seh_endproc
	.section	.text$_ZN18wxMBConvStrictUTF8C2Ev,"x"
	.linkonce discard
	.align 2
	.globl	_ZN18wxMBConvStrictUTF8C2Ev
	.def	_ZN18wxMBConvStrictUTF8C2Ev;	.scl	2;	.type	32;	.endef
	.seh_proc	_ZN18wxMBConvStrictUTF8C2Ev
_ZN18wxMBConvStrictUTF8C2Ev:
.LFB1079:
	.loc 3 341 7
	.cfi_startproc
	pushq	%rbp
	.seh_pushreg	%rbp
	.cfi_def_cfa_offset 16
	.cfi_offset 6, -16
	movq	%rsp, %rbp
	.seh_setframe	%rbp, 0
	.cfi_def_cfa_register 6
	subq	$32, %rsp
	.seh_stackalloc	32
	.seh_endprologue
	movq	%rcx, 16(%rbp)
.LBB4:
	.loc 3 341 7
	movq	16(%rbp), %rax
	movq	%rax, %rcx
	call	_ZN8wxMBConvC2Ev
	movq	.refptr._ZTV18wxMBConvStrictUTF8(%rip), %rax
	leaq	16(%rax), %rdx
	movq	16(%rbp), %rax
	movq	%rdx, (%rax)
.LBE4:
	nop
	addq	$32, %rsp
	popq	%rbp
	.cfi_restore 6
	.cfi_def_cfa 7, 8
	ret
	.cfi_endproc
.LFE1079:
	.seh_endproc
	.section	.text$_ZN18wxMBConvStrictUTF8D2Ev,"x"
	.linkonce discard
	.align 2
	.globl	_ZN18wxMBConvStrictUTF8D2Ev
	.def	_ZN18wxMBConvStrictUTF8D2Ev;	.scl	2;	.type	32;	.endef
	.seh_proc	_ZN18wxMBConvStrictUTF8D2Ev
_ZN18wxMBConvStrictUTF8D2Ev:
.LFB1083:
	.loc 3 341 7
	.cfi_startproc
	pushq	%rbp
	.seh_pushreg	%rbp
	.cfi_def_cfa_offset 16
	.cfi_offset 6, -16
	movq	%rsp, %rbp
	.seh_setframe	%rbp, 0
	.cfi_def_cfa_register 6
	subq	$32, %rsp
	.seh_stackalloc	32
	.seh_endprologue
	movq	%rcx, 16(%rbp)
.LBB5:
	.loc 3 341 7
	movq	.refptr._ZTV18wxMBConvStrictUTF8(%rip), %rax
	leaq	16(%rax), %rdx
	movq	16(%rbp), %rax
	movq	%rdx, (%rax)
	movq	16(%rbp), %rax
	movq	%rax, %rcx
	call	_ZN8wxMBConvD2Ev
.LBE5:
	nop
	addq	$32, %rsp
	popq	%rbp
	.cfi_restore 6
	.cfi_def_cfa 7, 8
	ret
	.cfi_endproc
.LFE1083:
	.seh_endproc
	.section	.text$_ZN12wxMBConvUTF8C1Ei,"x"
	.linkonce discard
	.align 2
	.globl	_ZN12wxMBConvUTF8C1Ei
	.def	_ZN12wxMBConvUTF8C1Ei;	.scl	2;	.type	32;	.endef
	.seh_proc	_ZN12wxMBConvUTF8C1Ei
_ZN12wxMBConvUTF8C1Ei:
.LFB1087:
	.loc 3 370 5
	.cfi_startproc
	pushq	%rbp
	.seh_pushreg	%rbp
	.cfi_def_cfa_offset 16
	.cfi_offset 6, -16
	movq	%rsp, %rbp
	.seh_setframe	%rbp, 0
	.cfi_def_cfa_register 6
	subq	$32, %rsp
	.seh_stackalloc	32
	.seh_endprologue
	movq	%rcx, 16(%rbp)
	movl	%edx, 24(%rbp)
.LBB6:
	.loc 3 370 73
	movq	16(%rbp), %rax
	movq	%rax, %rcx
	call	_ZN18wxMBConvStrictUTF8C2Ev
	movq	.refptr._ZTV12wxMBConvUTF8(%rip), %rax
	leaq	16(%rax), %rdx
	movq	16(%rbp), %rax
	movq	%rdx, (%rax)
	movq	16(%rbp), %rax
	movl	24(%rbp), %edx
	movl	%edx, 8(%rax)
.LBE6:
	.loc 3 370 77
	nop
	addq	$32, %rsp
	popq	%rbp
	.cfi_restore 6
	.cfi_def_cfa 7, 8
	ret
	.cfi_endproc
.LFE1087:
	.seh_endproc
	.section	.text$_Z16wxGet_wxConvLibcv,"x"
	.linkonce discard
	.globl	_Z16wxGet_wxConvLibcv
	.def	_Z16wxGet_wxConvLibcv;	.scl	2;	.type	32;	.endef
	.seh_proc	_Z16wxGet_wxConvLibcv
_Z16wxGet_wxConvLibcv:
.LFB1122:
	.loc 3 576 109
	.cfi_startproc
	pushq	%rbp
	.seh_pushreg	%rbp
	.cfi_def_cfa_offset 16
	.cfi_offset 6, -16
	movq	%rsp, %rbp
	.seh_setframe	%rbp, 0
	.cfi_def_cfa_register 6
	subq	$32, %rsp
	.seh_stackalloc	32
	.seh_endprologue
	.loc 3 576 116
	movq	.refptr.wxConvLibcPtr(%rip), %rax
	movq	(%rax), %rax
	.loc 3 576 111
	testq	%rax, %rax
	jne	.L13
	.loc 3 576 168 discriminator 1
	call	_Z19wxGet_wxConvLibcPtrv
	movq	%rax, %rdx
	.loc 3 576 147 discriminator 1
	movq	.refptr.wxConvLibcPtr(%rip), %rax
	movq	%rdx, (%rax)
.L13:
	.loc 3 576 180 discriminator 3
	movq	.refptr.wxConvLibcPtr(%rip), %rax
	movq	(%rax), %rax
	.loc 3 576 195 discriminator 3
	addq	$32, %rsp
	popq	%rbp
	.cfi_restore 6
	.cfi_def_cfa 7, 8
	ret
	.cfi_endproc
.LFE1122:
	.seh_endproc
	.section .rdata,"dr"
	.align 2
.LC0:
	.ascii "\0\0"
	.section	.text$_ZN8wxString7ImplStrEPKw,"x"
	.linkonce discard
	.globl	_ZN8wxString7ImplStrEPKw
	.def	_ZN8wxString7ImplStrEPKw;	.scl	2;	.type	32;	.endef
	.seh_proc	_ZN8wxString7ImplStrEPKw
_ZN8wxString7ImplStrEPKw:
.LFB2053:
	.file 4 "../wxMSW-3.0.5_gcc810_x64_Dev/include/wx/string.h"
	.loc 4 471 25
	.cfi_startproc
	pushq	%rbp
	.seh_pushreg	%rbp
	.cfi_def_cfa_offset 16
	.cfi_offset 6, -16
	movq	%rsp, %rbp
	.seh_setframe	%rbp, 0
	.cfi_def_cfa_register 6
	.seh_endprologue
	movq	%rcx, 16(%rbp)
	.loc 4 472 18
	cmpq	$0, 16(%rbp)
	je	.L16
	.loc 4 472 18 is_stmt 0 discriminator 1
	movq	16(%rbp), %rax
	.loc 4 472 26 is_stmt 1 discriminator 1
	jmp	.L18
.L16:
	.loc 4 472 18 discriminator 2
	leaq	.LC0(%rip), %rax
.L18:
	.loc 4 472 31 discriminator 5
	popq	%rbp
	.cfi_restore 6
	.cfi_def_cfa 7, 8
	ret
	.cfi_endproc
.LFE2053:
	.seh_endproc
	.section	.text$_ZN8wxString17SubstrBufFromTypeI22wxScopedCharTypeBufferIwEED1Ev,"x"
	.linkonce discard
	.align 2
	.globl	_ZN8wxString17SubstrBufFromTypeI22wxScopedCharTypeBufferIwEED1Ev
	.def	_ZN8wxString17SubstrBufFromTypeI22wxScopedCharTypeBufferIwEED1Ev;	.scl	2;	.type	32;	.endef
	.seh_proc	_ZN8wxString17SubstrBufFromTypeI22wxScopedCharTypeBufferIwEED1Ev
_ZN8wxString17SubstrBufFromTypeI22wxScopedCharTypeBufferIwEED1Ev:
.LFB2058:
	.loc 4 425 10
	.cfi_startproc
	pushq	%rbp
	.seh_pushreg	%rbp
	.cfi_def_cfa_offset 16
	.cfi_offset 6, -16
	movq	%rsp, %rbp
	.seh_setframe	%rbp, 0
	.cfi_def_cfa_register 6
	subq	$32, %rsp
	.seh_stackalloc	32
	.seh_endprologue
	movq	%rcx, 16(%rbp)
.LBB7:
	.loc 4 425 10
	movq	16(%rbp), %rax
	movq	%rax, %rcx
	call	_ZN22wxScopedCharTypeBufferIwED1Ev
.LBE7:
	nop
	addq	$32, %rsp
	popq	%rbp
	.cfi_restore 6
	.cfi_def_cfa 7, 8
	ret
	.cfi_endproc
.LFE2058:
	.seh_endproc
	.section	.text$_ZN8wxString7ImplStrEPKcRK8wxMBConv,"x"
	.linkonce discard
	.globl	_ZN8wxString7ImplStrEPKcRK8wxMBConv
	.def	_ZN8wxString7ImplStrEPKcRK8wxMBConv;	.scl	2;	.type	32;	.endef
	.seh_proc	_ZN8wxString7ImplStrEPKcRK8wxMBConv
_ZN8wxString7ImplStrEPKcRK8wxMBConv:
.LFB2055:
	.loc 4 475 30
	.cfi_startproc
	pushq	%rbp
	.seh_pushreg	%rbp
	.cfi_def_cfa_offset 16
	.cfi_offset 6, -16
	pushq	%rbx
	.seh_pushreg	%rbx
	.cfi_def_cfa_offset 24
	.cfi_offset 3, -24
	subq	$56, %rsp
	.seh_stackalloc	56
	.cfi_def_cfa_offset 80
	leaq	128(%rsp), %rbp
	.seh_setframe	%rbp, 128
	.cfi_def_cfa 6, -48
	.seh_endprologue
	movq	%rcx, -48(%rbp)
	movq	%rdx, -40(%rbp)
	movq	%r8, -32(%rbp)
	.loc 4 477 24
	movq	.refptr._ZN8wxString4nposE(%rip), %rax
	movq	(%rax), %rcx
	leaq	-96(%rbp), %rax
	movq	-32(%rbp), %r8
	movq	-40(%rbp), %rdx
	movq	%r8, %r9
	movq	%rcx, %r8
	movq	%rax, %rcx
.LEHB0:
	call	_ZN8wxString10ConvertStrEPKcyRK8wxMBConv
.LEHE0:
	.loc 4 477 42
	leaq	-96(%rbp), %rax
	movq	%rax, %rdx
	movq	-48(%rbp), %rcx
.LEHB1:
	call	_ZN22wxScopedCharTypeBufferIwEC1ERKS0_
.LEHE1:
	nop
	.loc 4 477 24
	leaq	-96(%rbp), %rax
	movq	%rax, %rcx
	call	_ZN8wxString17SubstrBufFromTypeI22wxScopedCharTypeBufferIwEED1Ev
	.loc 4 477 42
	jmp	.L24
.L23:
	movq	%rax, %rbx
	.loc 4 477 24
	leaq	-96(%rbp), %rax
	movq	%rax, %rcx
	call	_ZN8wxString17SubstrBufFromTypeI22wxScopedCharTypeBufferIwEED1Ev
	movq	%rbx, %rax
	movq	%rax, %rcx
.LEHB2:
	call	_Unwind_Resume
.LEHE2:
.L24:
	.loc 4 477 48
	movq	-48(%rbp), %rax
	addq	$56, %rsp
	popq	%rbx
	.cfi_restore 3
	popq	%rbp
	.cfi_restore 6
	.cfi_def_cfa 7, -40
	ret
	.cfi_endproc
.LFE2055:
	.def	__gxx_personality_seh0;	.scl	2;	.type	32;	.endef
	.seh_handler	__gxx_personality_seh0, @unwind, @except
	.seh_handlerdata
.LLSDA2055:
	.byte	0xff
	.byte	0xff
	.byte	0x1
	.uleb128 .LLSDACSE2055-.LLSDACSB2055
.LLSDACSB2055:
	.uleb128 .LEHB0-.LFB2055
	.uleb128 .LEHE0-.LEHB0
	.uleb128 0
	.uleb128 0
	.uleb128 .LEHB1-.LFB2055
	.uleb128 .LEHE1-.LEHB1
	.uleb128 .L23-.LFB2055
	.uleb128 0
	.uleb128 .LEHB2-.LFB2055
	.uleb128 .LEHE2-.LEHB2
	.uleb128 0
	.uleb128 0
.LLSDACSE2055:
	.section	.text$_ZN8wxString7ImplStrEPKcRK8wxMBConv,"x"
	.linkonce discard
	.seh_endproc
	.section	.text$_ZN8wxString7ImplStrEPKcyRK8wxMBConv,"x"
	.linkonce discard
	.globl	_ZN8wxString7ImplStrEPKcyRK8wxMBConv
	.def	_ZN8wxString7ImplStrEPKcyRK8wxMBConv;	.scl	2;	.type	32;	.endef
	.seh_proc	_ZN8wxString7ImplStrEPKcyRK8wxMBConv
_ZN8wxString7ImplStrEPKcyRK8wxMBConv:
.LFB2059:
	.loc 4 478 26
	.cfi_startproc
	pushq	%rbp
	.seh_pushreg	%rbp
	.cfi_def_cfa_offset 16
	.cfi_offset 6, -16
	movq	%rsp, %rbp
	.seh_setframe	%rbp, 0
	.cfi_def_cfa_register 6
	subq	$32, %rsp
	.seh_stackalloc	32
	.seh_endprologue
	movq	%rcx, 16(%rbp)
	movq	%rdx, 24(%rbp)
	movq	%r8, 32(%rbp)
	movq	%r9, 40(%rbp)
	.loc 4 480 37
	movq	16(%rbp), %rax
	movq	40(%rbp), %r8
	movq	32(%rbp), %rcx
	movq	24(%rbp), %rdx
	movq	%r8, %r9
	movq	%rcx, %r8
	movq	%rax, %rcx
	call	_ZN8wxString10ConvertStrEPKcyRK8wxMBConv
	.loc 4 480 40
	movq	16(%rbp), %rax
	addq	$32, %rsp
	popq	%rbp
	.cfi_restore 6
	.cfi_def_cfa 7, 8
	ret
	.cfi_endproc
.LFE2059:
	.seh_endproc
	.section	.text$_ZN8wxStringD1Ev,"x"
	.linkonce discard
	.align 2
	.globl	_ZN8wxStringD1Ev
	.def	_ZN8wxStringD1Ev;	.scl	2;	.type	32;	.endef
	.seh_proc	_ZN8wxStringD1Ev
_ZN8wxStringD1Ev:
.LFB2135:
	.loc 4 393 7
	.cfi_startproc
	pushq	%rbp
	.seh_pushreg	%rbp
	.cfi_def_cfa_offset 16
	.cfi_offset 6, -16
	movq	%rsp, %rbp
	.seh_setframe	%rbp, 0
	.cfi_def_cfa_register 6
	subq	$32, %rsp
	.seh_stackalloc	32
	.seh_endprologue
	movq	%rcx, 16(%rbp)
.LBB8:
	.loc 4 393 7
	movq	16(%rbp), %rax
	addq	$32, %rax
	movq	%rax, %rcx
	call	_ZN8wxString15ConvertedBufferIcED1Ev
	movq	16(%rbp), %rax
	movq	%rax, %rcx
	call	_ZNSt7__cxx1112basic_stringIwSt11char_traitsIwESaIwEED1Ev
.LBE8:
	nop
	addq	$32, %rsp
	popq	%rbp
	.cfi_restore 6
	.cfi_def_cfa 7, 8
	ret
	.cfi_endproc
.LFE2135:
	.seh_endproc
	.section	.text$_ZN8wxStringC1Ev,"x"
	.linkonce discard
	.align 2
	.globl	_ZN8wxStringC1Ev
	.def	_ZN8wxStringC1Ev;	.scl	2;	.type	32;	.endef
	.seh_proc	_ZN8wxStringC1Ev
_ZN8wxStringC1Ev:
.LFB2161:
	.loc 4 1217 3
	.cfi_startproc
	pushq	%rbp
	.seh_pushreg	%rbp
	.cfi_def_cfa_offset 16
	.cfi_offset 6, -16
	movq	%rsp, %rbp
	.seh_setframe	%rbp, 0
	.cfi_def_cfa_register 6
	subq	$32, %rsp
	.seh_stackalloc	32
	.seh_endprologue
	movq	%rcx, 16(%rbp)
.LBB9:
	.loc 4 1217 14
	movq	16(%rbp), %rax
	movq	%rax, %rcx
	call	_ZNSt7__cxx1112basic_stringIwSt11char_traitsIwESaIwEEC1Ev
	movq	16(%rbp), %rax
	addq	$32, %rax
	movq	%rax, %rcx
	call	_ZN8wxString15ConvertedBufferIcEC1Ev
.LBE9:
	.loc 4 1217 15
	nop
	addq	$32, %rsp
	popq	%rbp
	.cfi_restore 6
	.cfi_def_cfa 7, 8
	ret
	.cfi_endproc
.LFE2161:
	.seh_endproc
	.section	.text$_ZN8wxStringC1ERKS_,"x"
	.linkonce discard
	.align 2
	.globl	_ZN8wxStringC1ERKS_
	.def	_ZN8wxStringC1ERKS_;	.scl	2;	.type	32;	.endef
	.seh_proc	_ZN8wxStringC1ERKS_
_ZN8wxStringC1ERKS_:
.LFB2164:
	.loc 4 1220 3
	.cfi_startproc
	pushq	%rbp
	.seh_pushreg	%rbp
	.cfi_def_cfa_offset 16
	.cfi_offset 6, -16
	movq	%rsp, %rbp
	.seh_setframe	%rbp, 0
	.cfi_def_cfa_register 6
	subq	$32, %rsp
	.seh_stackalloc	32
	.seh_endprologue
	movq	%rcx, 16(%rbp)
	movq	%rdx, 24(%rbp)
.LBB10:
	.loc 4 1220 64
	movq	16(%rbp), %rax
	.loc 4 1220 58
	movq	24(%rbp), %rdx
	.loc 4 1220 64
	movq	%rax, %rcx
	call	_ZNSt7__cxx1112basic_stringIwSt11char_traitsIwESaIwEEC1ERKS4_
	movq	16(%rbp), %rax
	addq	$32, %rax
	movq	%rax, %rcx
	call	_ZN8wxString15ConvertedBufferIcEC1Ev
.LBE10:
	.loc 4 1220 68
	nop
	addq	$32, %rsp
	popq	%rbp
	.cfi_restore 6
	.cfi_def_cfa 7, 8
	ret
	.cfi_endproc
.LFE2164:
	.seh_endproc
	.section	.text$_ZN8wxStringC1EPKc,"x"
	.linkonce discard
	.align 2
	.globl	_ZN8wxStringC1EPKc
	.def	_ZN8wxStringC1EPKc;	.scl	2;	.type	32;	.endef
	.seh_proc	_ZN8wxStringC1EPKc
_ZN8wxStringC1EPKc:
.LFB2191:
	.loc 4 1241 3
	.cfi_startproc
	pushq	%rbp
	.seh_pushreg	%rbp
	.cfi_def_cfa_offset 16
	.cfi_offset 6, -16
	pushq	%rbx
	.seh_pushreg	%rbx
	.cfi_def_cfa_offset 24
	.cfi_offset 3, -24
	subq	$56, %rsp
	.seh_stackalloc	56
	.cfi_def_cfa_offset 80
	leaq	128(%rsp), %rbp
	.seh_setframe	%rbp, 128
	.cfi_def_cfa 6, -48
	.seh_endprologue
	movq	%rcx, -48(%rbp)
	movq	%rdx, -40(%rbp)
.LBB11:
	.loc 4 1242 26
	movq	-48(%rbp), %rbx
	leaq	-89(%rbp), %rax
	movq	%rax, %rcx
	call	_ZNSaIwEC1Ev
.LEHB3:
	.loc 4 1242 25
	call	_Z16wxGet_wxConvLibcv
	movq	%rax, %rcx
	.loc 4 1242 21
	leaq	-88(%rbp), %rax
	movq	-40(%rbp), %rdx
	movq	%rcx, %r8
	movq	%rax, %rcx
	call	_ZN8wxString7ImplStrEPKcRK8wxMBConv
.LEHE3:
	.loc 4 1242 26 discriminator 4
	leaq	-88(%rbp), %rax
	movq	%rax, %rcx
.LEHB4:
	call	_ZNK22wxScopedCharTypeBufferIwEcvPKwEv
	movq	%rax, %rdx
	leaq	-89(%rbp), %rax
	movq	%rax, %r8
	movq	%rbx, %rcx
	call	_ZNSt7__cxx1112basic_stringIwSt11char_traitsIwESaIwEEC1EPKwRKS3_
.LEHE4:
	.loc 4 1242 21 discriminator 8
	leaq	-88(%rbp), %rax
	movq	%rax, %rcx
	call	_ZN22wxScopedCharTypeBufferIwED1Ev
	.loc 4 1242 26 discriminator 8
	leaq	-89(%rbp), %rax
	movq	%rax, %rcx
	call	_ZNSaIwED1Ev
	movq	-48(%rbp), %rax
	addq	$32, %rax
	movq	%rax, %rcx
	call	_ZN8wxString15ConvertedBufferIcEC1Ev
.LBE11:
	.loc 4 1242 29 discriminator 8
	jmp	.L35
.L34:
	movq	%rax, %rbx
.LBB12:
	.loc 4 1242 21
	leaq	-88(%rbp), %rax
	movq	%rax, %rcx
	call	_ZN22wxScopedCharTypeBufferIwED1Ev
	jmp	.L32
.L33:
	movq	%rax, %rbx
.L32:
	.loc 4 1242 26 discriminator 3
	leaq	-89(%rbp), %rax
	movq	%rax, %rcx
	call	_ZNSaIwED1Ev
	movq	%rbx, %rax
	movq	%rax, %rcx
.LEHB5:
	call	_Unwind_Resume
	nop
.LEHE5:
.L35:
.LBE12:
	.loc 4 1242 29
	addq	$56, %rsp
	popq	%rbx
	.cfi_restore 3
	popq	%rbp
	.cfi_restore 6
	.cfi_def_cfa 7, -40
	ret
	.cfi_endproc
.LFE2191:
	.seh_handler	__gxx_personality_seh0, @unwind, @except
	.seh_handlerdata
.LLSDA2191:
	.byte	0xff
	.byte	0xff
	.byte	0x1
	.uleb128 .LLSDACSE2191-.LLSDACSB2191
.LLSDACSB2191:
	.uleb128 .LEHB3-.LFB2191
	.uleb128 .LEHE3-.LEHB3
	.uleb128 .L33-.LFB2191
	.uleb128 0
	.uleb128 .LEHB4-.LFB2191
	.uleb128 .LEHE4-.LEHB4
	.uleb128 .L34-.LFB2191
	.uleb128 0
	.uleb128 .LEHB5-.LFB2191
	.uleb128 .LEHE5-.LEHB5
	.uleb128 0
	.uleb128 0
.LLSDACSE2191:
	.section	.text$_ZN8wxStringC1EPKc,"x"
	.linkonce discard
	.seh_endproc
	.section	.text$_ZN8wxStringC1EPKcRK8wxMBConvy,"x"
	.linkonce discard
	.align 2
	.globl	_ZN8wxStringC1EPKcRK8wxMBConvy
	.def	_ZN8wxStringC1EPKcRK8wxMBConvy;	.scl	2;	.type	32;	.endef
	.seh_proc	_ZN8wxStringC1EPKcRK8wxMBConvy
_ZN8wxStringC1EPKcRK8wxMBConvy:
.LFB2200:
	.loc 4 1247 3
	.cfi_startproc
	pushq	%rbp
	.seh_pushreg	%rbp
	.cfi_def_cfa_offset 16
	.cfi_offset 6, -16
	pushq	%rsi
	.seh_pushreg	%rsi
	.cfi_def_cfa_offset 24
	.cfi_offset 4, -24
	pushq	%rbx
	.seh_pushreg	%rbx
	.cfi_def_cfa_offset 32
	.cfi_offset 3, -32
	movq	%rsp, %rbp
	.seh_setframe	%rbp, 0
	.cfi_def_cfa_register 6
	subq	$48, %rsp
	.seh_stackalloc	48
	.seh_endprologue
	movq	%rcx, 32(%rbp)
	movq	%rdx, 40(%rbp)
	movq	%r8, 48(%rbp)
	movq	%r9, 56(%rbp)
.LBB13:
	.loc 4 1248 3
	movq	32(%rbp), %rax
	movq	%rax, %rcx
	call	_ZNSt7__cxx1112basic_stringIwSt11char_traitsIwESaIwEEC1Ev
	movq	32(%rbp), %rax
	addq	$32, %rax
	movq	%rax, %rcx
	call	_ZN8wxString15ConvertedBufferIcEC1Ev
.LBB14:
	.loc 4 1249 52
	leaq	-16(%rbp), %rax
	movq	48(%rbp), %r8
	movq	56(%rbp), %rcx
	movq	40(%rbp), %rdx
	movq	%r8, %r9
	movq	%rcx, %r8
	movq	%rax, %rcx
.LEHB6:
	call	_ZN8wxString7ImplStrEPKcyRK8wxMBConv
.LEHE6:
	.loc 4 1250 36
	movq	32(%rbp), %rbx
	movq	-8(%rbp), %rsi
	leaq	-16(%rbp), %rax
	movq	%rax, %rcx
.LEHB7:
	call	_ZNK22wxScopedCharTypeBufferIwEcvPKwEv
	movq	%rsi, %r8
	movq	%rax, %rdx
	movq	%rbx, %rcx
	call	_ZNSt7__cxx1112basic_stringIwSt11char_traitsIwESaIwEE6assignEPKwy
.LEHE7:
	.loc 4 1249 52
	leaq	-16(%rbp), %rax
	movq	%rax, %rcx
	call	_ZN8wxString17SubstrBufFromTypeI22wxScopedCharTypeBufferIwEED1Ev
.LBE14:
.LBE13:
	.loc 4 1251 3
	jmp	.L41
.L40:
	movq	%rax, %rbx
.LBB16:
.LBB15:
	.loc 4 1249 52
	leaq	-16(%rbp), %rax
	movq	%rax, %rcx
	call	_ZN8wxString17SubstrBufFromTypeI22wxScopedCharTypeBufferIwEED1Ev
	jmp	.L38
.L39:
	movq	%rax, %rbx
.L38:
.LBE15:
	.loc 4 1248 3
	movq	32(%rbp), %rax
	addq	$32, %rax
	movq	%rax, %rcx
	call	_ZN8wxString15ConvertedBufferIcED1Ev
	movq	32(%rbp), %rax
	movq	%rax, %rcx
	call	_ZNSt7__cxx1112basic_stringIwSt11char_traitsIwESaIwEED1Ev
	movq	%rbx, %rax
	movq	%rax, %rcx
.LEHB8:
	call	_Unwind_Resume
	nop
.LEHE8:
.L41:
.LBE16:
	.loc 4 1251 3
	addq	$48, %rsp
	popq	%rbx
	.cfi_restore 3
	popq	%rsi
	.cfi_restore 4
	popq	%rbp
	.cfi_restore 6
	.cfi_def_cfa 7, 24
	ret
	.cfi_endproc
.LFE2200:
	.seh_handler	__gxx_personality_seh0, @unwind, @except
	.seh_handlerdata
.LLSDA2200:
	.byte	0xff
	.byte	0xff
	.byte	0x1
	.uleb128 .LLSDACSE2200-.LLSDACSB2200
.LLSDACSB2200:
	.uleb128 .LEHB6-.LFB2200
	.uleb128 .LEHE6-.LEHB6
	.uleb128 .L39-.LFB2200
	.uleb128 0
	.uleb128 .LEHB7-.LFB2200
	.uleb128 .LEHE7-.LEHB7
	.uleb128 .L40-.LFB2200
	.uleb128 0
	.uleb128 .LEHB8-.LFB2200
	.uleb128 .LEHE8-.LEHB8
	.uleb128 0
	.uleb128 0
.LLSDACSE2200:
	.section	.text$_ZN8wxStringC1EPKcRK8wxMBConvy,"x"
	.linkonce discard
	.seh_endproc
	.section	.text$_ZN8wxStringC1EPKw,"x"
	.linkonce discard
	.align 2
	.globl	_ZN8wxStringC1EPKw
	.def	_ZN8wxStringC1EPKw;	.scl	2;	.type	32;	.endef
	.seh_proc	_ZN8wxStringC1EPKw
_ZN8wxStringC1EPKw:
.LFB2215:
	.loc 4 1267 3
	.cfi_startproc
	pushq	%rbp
	.seh_pushreg	%rbp
	.cfi_def_cfa_offset 16
	.cfi_offset 6, -16
	pushq	%rbx
	.seh_pushreg	%rbx
	.cfi_def_cfa_offset 24
	.cfi_offset 3, -24
	subq	$56, %rsp
	.seh_stackalloc	56
	.cfi_def_cfa_offset 80
	leaq	128(%rsp), %rbp
	.seh_setframe	%rbp, 128
	.cfi_def_cfa 6, -48
	.seh_endprologue
	movq	%rcx, -48(%rbp)
	movq	%rdx, -40(%rbp)
.LBB17:
	.loc 4 1268 26
	movq	-48(%rbp), %rbx
	leaq	-81(%rbp), %rax
	movq	%rax, %rcx
	call	_ZNSaIwEC1Ev
	movq	-40(%rbp), %rax
	movq	%rax, %rcx
	call	_ZN8wxString7ImplStrEPKw
	movq	%rax, %rdx
	leaq	-81(%rbp), %rax
	movq	%rax, %r8
	movq	%rbx, %rcx
.LEHB9:
	call	_ZNSt7__cxx1112basic_stringIwSt11char_traitsIwESaIwEEC1EPKwRKS3_
.LEHE9:
	.loc 4 1268 26 is_stmt 0 discriminator 2
	leaq	-81(%rbp), %rax
	movq	%rax, %rcx
	call	_ZNSaIwED1Ev
	movq	-48(%rbp), %rax
	addq	$32, %rax
	movq	%rax, %rcx
	call	_ZN8wxString15ConvertedBufferIcEC1Ev
.LBE17:
	.loc 4 1268 29 is_stmt 1 discriminator 2
	jmp	.L45
.L44:
	movq	%rax, %rbx
.LBB18:
	.loc 4 1268 26
	leaq	-81(%rbp), %rax
	movq	%rax, %rcx
	call	_ZNSaIwED1Ev
	movq	%rbx, %rax
	movq	%rax, %rcx
.LEHB10:
	call	_Unwind_Resume
	nop
.LEHE10:
.L45:
.LBE18:
	.loc 4 1268 29
	addq	$56, %rsp
	popq	%rbx
	.cfi_restore 3
	popq	%rbp
	.cfi_restore 6
	.cfi_def_cfa 7, -40
	ret
	.cfi_endproc
.LFE2215:
	.seh_handler	__gxx_personality_seh0, @unwind, @except
	.seh_handlerdata
.LLSDA2215:
	.byte	0xff
	.byte	0xff
	.byte	0x1
	.uleb128 .LLSDACSE2215-.LLSDACSB2215
.LLSDACSB2215:
	.uleb128 .LEHB9-.LFB2215
	.uleb128 .LEHE9-.LEHB9
	.uleb128 .L44-.LFB2215
	.uleb128 0
	.uleb128 .LEHB10-.LFB2215
	.uleb128 .LEHE10-.LEHB10
	.uleb128 0
	.uleb128 0
.LLSDACSE2215:
	.section	.text$_ZN8wxStringC1EPKw,"x"
	.linkonce discard
	.seh_endproc
	.section	.text$_ZNK8wxString5emptyEv,"x"
	.linkonce discard
	.align 2
	.globl	_ZNK8wxString5emptyEv
	.def	_ZNK8wxString5emptyEv;	.scl	2;	.type	32;	.endef
	.seh_proc	_ZNK8wxString5emptyEv
_ZNK8wxString5emptyEv:
.LFB2260:
	.loc 4 1444 8
	.cfi_startproc
	pushq	%rbp
	.seh_pushreg	%rbp
	.cfi_def_cfa_offset 16
	.cfi_offset 6, -16
	movq	%rsp, %rbp
	.seh_setframe	%rbp, 0
	.cfi_def_cfa_register 6
	subq	$32, %rsp
	.seh_stackalloc	32
	.seh_endprologue
	movq	%rcx, 16(%rbp)
	.loc 4 1444 43
	movq	16(%rbp), %rax
	movq	%rax, %rcx
	call	_ZNKSt7__cxx1112basic_stringIwSt11char_traitsIwESaIwEE5emptyEv
	.loc 4 1444 47
	addq	$32, %rsp
	popq	%rbp
	.cfi_restore 6
	.cfi_def_cfa 7, 8
	ret
	.cfi_endproc
.LFE2260:
	.seh_endproc
	.section	.text$_ZN8wxString8FromUTF8EPKcy,"x"
	.linkonce discard
	.globl	_ZN8wxString8FromUTF8EPKcy
	.def	_ZN8wxString8FromUTF8EPKcy;	.scl	2;	.type	32;	.endef
	.seh_proc	_ZN8wxString8FromUTF8EPKcy
_ZN8wxString8FromUTF8EPKcy:
.LFB2310:
	.loc 4 1742 21
	.cfi_startproc
	pushq	%rbp
	.seh_pushreg	%rbp
	.cfi_def_cfa_offset 16
	.cfi_offset 6, -16
	pushq	%rbx
	.seh_pushreg	%rbx
	.cfi_def_cfa_offset 24
	.cfi_offset 3, -24
	subq	$56, %rsp
	.seh_stackalloc	56
	.cfi_def_cfa_offset 80
	leaq	128(%rsp), %rbp
	.seh_setframe	%rbp, 128
	.cfi_def_cfa 6, -48
	.seh_endprologue
	movq	%rcx, -48(%rbp)
	movq	%rdx, -40(%rbp)
	movq	%r8, -32(%rbp)
	.loc 4 1743 31
	leaq	-96(%rbp), %rax
	movl	$0, %edx
	movq	%rax, %rcx
	call	_ZN12wxMBConvUTF8C1Ei
	.loc 4 1743 50
	movq	-32(%rbp), %rcx
	leaq	-96(%rbp), %rdx
	movq	-40(%rbp), %rax
	movq	%rcx, %r9
	movq	%rdx, %r8
	movq	%rax, %rdx
	movq	-48(%rbp), %rcx
.LEHB11:
	call	_ZN8wxStringC1EPKcRK8wxMBConvy
.LEHE11:
	nop
	.loc 4 1743 31
	leaq	-96(%rbp), %rax
	movq	%rax, %rcx
	call	_ZN12wxMBConvUTF8D1Ev
	.loc 4 1743 50
	jmp	.L52
.L51:
	movq	%rax, %rbx
	.loc 4 1743 31
	leaq	-96(%rbp), %rax
	movq	%rax, %rcx
	call	_ZN12wxMBConvUTF8D1Ev
	movq	%rbx, %rax
	movq	%rax, %rcx
.LEHB12:
	call	_Unwind_Resume
.LEHE12:
.L52:
	.loc 4 1743 53
	movq	-48(%rbp), %rax
	addq	$56, %rsp
	popq	%rbx
	.cfi_restore 3
	popq	%rbp
	.cfi_restore 6
	.cfi_def_cfa 7, -40
	ret
	.cfi_endproc
.LFE2310:
	.seh_handler	__gxx_personality_seh0, @unwind, @except
	.seh_handlerdata
.LLSDA2310:
	.byte	0xff
	.byte	0xff
	.byte	0x1
	.uleb128 .LLSDACSE2310-.LLSDACSB2310
.LLSDACSB2310:
	.uleb128 .LEHB11-.LFB2310
	.uleb128 .LEHE11-.LEHB11
	.uleb128 .L51-.LFB2310
	.uleb128 0
	.uleb128 .LEHB12-.LFB2310
	.uleb128 .LEHE12-.LEHB12
	.uleb128 0
	.uleb128 0
.LLSDACSE2310:
	.section	.text$_ZN8wxString8FromUTF8EPKcy,"x"
	.linkonce discard
	.seh_endproc
	.section	.text$_ZN8wxStringaSERKS_,"x"
	.linkonce discard
	.align 2
	.globl	_ZN8wxStringaSERKS_
	.def	_ZN8wxStringaSERKS_;	.scl	2;	.type	32;	.endef
	.seh_proc	_ZN8wxStringaSERKS_
_ZN8wxStringaSERKS_:
.LFB2326:
	.loc 4 1877 13
	.cfi_startproc
	pushq	%rbp
	.seh_pushreg	%rbp
	.cfi_def_cfa_offset 16
	.cfi_offset 6, -16
	movq	%rsp, %rbp
	.seh_setframe	%rbp, 0
	.cfi_def_cfa_register 6
	subq	$32, %rsp
	.seh_stackalloc	32
	.seh_endprologue
	movq	%rcx, 16(%rbp)
	movq	%rdx, 24(%rbp)
	.loc 4 1879 5
	movq	16(%rbp), %rax
	cmpq	24(%rbp), %rax
	je	.L54
	.loc 4 1883 28
	movq	24(%rbp), %rdx
	movq	16(%rbp), %rax
	movq	%rax, %rcx
	call	_ZNSt7__cxx1112basic_stringIwSt11char_traitsIwESaIwEEaSERKS4_
.L54:
	.loc 4 1886 13
	movq	16(%rbp), %rax
	.loc 4 1887 3
	addq	$32, %rsp
	popq	%rbp
	.cfi_restore 6
	.cfi_def_cfa 7, 8
	ret
	.cfi_endproc
.LFE2326:
	.seh_endproc
	.section	.text$_ZN8wxObjectC2Ev,"x"
	.linkonce discard
	.align 2
	.globl	_ZN8wxObjectC2Ev
	.def	_ZN8wxObjectC2Ev;	.scl	2;	.type	32;	.endef
	.seh_proc	_ZN8wxObjectC2Ev
_ZN8wxObjectC2Ev:
.LFB4049:
	.file 5 "../wxMSW-3.0.5_gcc810_x64_Dev/include/wx/object.h"
	.loc 5 360 5
	.cfi_startproc
	pushq	%rbp
	.seh_pushreg	%rbp
	.cfi_def_cfa_offset 16
	.cfi_offset 6, -16
	movq	%rsp, %rbp
	.seh_setframe	%rbp, 0
	.cfi_def_cfa_register 6
	.seh_endprologue
	movq	%rcx, 16(%rbp)
.LBB19:
	.loc 5 360 16
	movq	.refptr._ZTV8wxObject(%rip), %rax
	leaq	16(%rax), %rdx
	movq	16(%rbp), %rax
	movq	%rdx, (%rax)
	.loc 5 360 28
	movq	16(%rbp), %rax
	movq	$0, 8(%rax)
.LBE19:
	.loc 5 360 35
	nop
	popq	%rbp
	.cfi_restore 6
	.cfi_def_cfa 7, 8
	ret
	.cfi_endproc
.LFE4049:
	.seh_endproc
	.section	.text$_ZN8wxObjectD2Ev,"x"
	.linkonce discard
	.align 2
	.globl	_ZN8wxObjectD2Ev
	.def	_ZN8wxObjectD2Ev;	.scl	2;	.type	32;	.endef
	.seh_proc	_ZN8wxObjectD2Ev
_ZN8wxObjectD2Ev:
.LFB4052:
	.loc 5 361 13
	.cfi_startproc
	pushq	%rbp
	.seh_pushreg	%rbp
	.cfi_def_cfa_offset 16
	.cfi_offset 6, -16
	movq	%rsp, %rbp
	.seh_setframe	%rbp, 0
	.cfi_def_cfa_register 6
	subq	$32, %rsp
	.seh_stackalloc	32
	.seh_endprologue
	movq	%rcx, 16(%rbp)
.LBB20:
	.loc 5 361 25
	movq	.refptr._ZTV8wxObject(%rip), %rax
	leaq	16(%rax), %rdx
	movq	16(%rbp), %rax
	movq	%rdx, (%rax)
	.loc 5 361 32
	movq	16(%rbp), %rcx
	call	_ZN8wxObject5UnRefEv
.LBE20:
	.loc 5 361 36
	nop
	addq	$32, %rsp
	popq	%rbp
	.cfi_restore 6
	.cfi_def_cfa 7, 8
	ret
	.cfi_endproc
.LFE4052:
	.seh_handler	__gxx_personality_seh0, @unwind, @except
	.seh_handlerdata
.LLSDA4052:
	.byte	0xff
	.byte	0xff
	.byte	0x1
	.uleb128 .LLSDACSE4052-.LLSDACSB4052
.LLSDACSB4052:
.LLSDACSE4052:
	.section	.text$_ZN8wxObjectD2Ev,"x"
	.linkonce discard
	.seh_endproc
	.section	.text$_ZN8wxObjectaSERKS_,"x"
	.linkonce discard
	.align 2
	.globl	_ZN8wxObjectaSERKS_
	.def	_ZN8wxObjectaSERKS_;	.scl	2;	.type	32;	.endef
	.seh_proc	_ZN8wxObjectaSERKS_
_ZN8wxObjectaSERKS_:
.LFB4058:
	.loc 5 370 15
	.cfi_startproc
	pushq	%rbp
	.seh_pushreg	%rbp
	.cfi_def_cfa_offset 16
	.cfi_offset 6, -16
	movq	%rsp, %rbp
	.seh_setframe	%rbp, 0
	.cfi_def_cfa_register 6
	subq	$32, %rsp
	.seh_stackalloc	32
	.seh_endprologue
	movq	%rcx, 16(%rbp)
	movq	%rdx, 24(%rbp)
	.loc 5 372 9
	movq	16(%rbp), %rax
	cmpq	24(%rbp), %rax
	je	.L59
	.loc 5 374 16
	movq	24(%rbp), %rax
	movq	%rax, %rdx
	movq	16(%rbp), %rcx
	call	_ZN8wxObject3RefERKS_
.L59:
	.loc 5 376 17
	movq	16(%rbp), %rax
	.loc 5 377 5
	addq	$32, %rsp
	popq	%rbp
	.cfi_restore 6
	.cfi_def_cfa 7, 8
	ret
	.cfi_endproc
.LFE4058:
	.seh_endproc
	.section	.text$_ZN6wxSizeC1Ev,"x"
	.linkonce discard
	.align 2
	.globl	_ZN6wxSizeC1Ev
	.def	_ZN6wxSizeC1Ev;	.scl	2;	.type	32;	.endef
	.seh_proc	_ZN6wxSizeC1Ev
_ZN6wxSizeC1Ev:
.LFB5371:
	.file 6 "../wxMSW-3.0.5_gcc810_x64_Dev/include/wx/gdicmn.h"
	.loc 6 257 5
	.cfi_startproc
	pushq	%rbp
	.seh_pushreg	%rbp
	.cfi_def_cfa_offset 16
	.cfi_offset 6, -16
	movq	%rsp, %rbp
	.seh_setframe	%rbp, 0
	.cfi_def_cfa_register 6
	.seh_endprologue
	movq	%rcx, 16(%rbp)
.LBB21:
	.loc 6 257 25
	movq	16(%rbp), %rax
	movl	$0, (%rax)
	movq	16(%rbp), %rax
	movl	$0, 4(%rax)
.LBE21:
	.loc 6 257 29
	nop
	popq	%rbp
	.cfi_restore 6
	.cfi_def_cfa 7, 8
	ret
	.cfi_endproc
.LFE5371:
	.seh_endproc
	.section	.text$_ZN6wxSizeC1Eii,"x"
	.linkonce discard
	.align 2
	.globl	_ZN6wxSizeC1Eii
	.def	_ZN6wxSizeC1Eii;	.scl	2;	.type	32;	.endef
	.seh_proc	_ZN6wxSizeC1Eii
_ZN6wxSizeC1Eii:
.LFB5374:
	.loc 6 258 5
	.cfi_startproc
	pushq	%rbp
	.seh_pushreg	%rbp
	.cfi_def_cfa_offset 16
	.cfi_offset 6, -16
	movq	%rsp, %rbp
	.seh_setframe	%rbp, 0
	.cfi_def_cfa_register 6
	.seh_endprologue
	movq	%rcx, 16(%rbp)
	movl	%edx, 24(%rbp)
	movl	%r8d, 32(%rbp)
.LBB22:
	.loc 6 258 41
	movq	16(%rbp), %rax
	movl	24(%rbp), %edx
	movl	%edx, (%rax)
	movq	16(%rbp), %rax
	movl	32(%rbp), %edx
	movl	%edx, 4(%rax)
.LBE22:
	.loc 6 258 45
	nop
	popq	%rbp
	.cfi_restore 6
	.cfi_def_cfa 7, 8
	ret
	.cfi_endproc
.LFE5374:
	.seh_endproc
	.section	.text$_ZN7wxPointC1Ev,"x"
	.linkonce discard
	.align 2
	.globl	_ZN7wxPointC1Ev
	.def	_ZN7wxPointC1Ev;	.scl	2;	.type	32;	.endef
	.seh_proc	_ZN7wxPointC1Ev
_ZN7wxPointC1Ev:
.LFB5454:
	.loc 6 545 5
	.cfi_startproc
	pushq	%rbp
	.seh_pushreg	%rbp
	.cfi_def_cfa_offset 16
	.cfi_offset 6, -16
	movq	%rsp, %rbp
	.seh_setframe	%rbp, 0
	.cfi_def_cfa_register 6
	.seh_endprologue
	movq	%rcx, 16(%rbp)
.LBB23:
	.loc 6 545 26
	movq	16(%rbp), %rax
	movl	$0, (%rax)
	movq	16(%rbp), %rax
	movl	$0, 4(%rax)
.LBE23:
	.loc 6 545 30
	nop
	popq	%rbp
	.cfi_restore 6
	.cfi_def_cfa 7, 8
	ret
	.cfi_endproc
.LFE5454:
	.seh_endproc
	.section	.text$_ZN7wxPointC1Eii,"x"
	.linkonce discard
	.align 2
	.globl	_ZN7wxPointC1Eii
	.def	_ZN7wxPointC1Eii;	.scl	2;	.type	32;	.endef
	.seh_proc	_ZN7wxPointC1Eii
_ZN7wxPointC1Eii:
.LFB5457:
	.loc 6 546 5
	.cfi_startproc
	pushq	%rbp
	.seh_pushreg	%rbp
	.cfi_def_cfa_offset 16
	.cfi_offset 6, -16
	movq	%rsp, %rbp
	.seh_setframe	%rbp, 0
	.cfi_def_cfa_register 6
	.seh_endprologue
	movq	%rcx, 16(%rbp)
	movl	%edx, 24(%rbp)
	movl	%r8d, 32(%rbp)
.LBB24:
	.loc 6 546 42
	movq	16(%rbp), %rax
	movl	24(%rbp), %edx
	movl	%edx, (%rax)
	movq	16(%rbp), %rax
	movl	32(%rbp), %edx
	movl	%edx, 4(%rax)
.LBE24:
	.loc 6 546 46
	nop
	popq	%rbp
	.cfi_restore 6
	.cfi_def_cfa 7, 8
	ret
	.cfi_endproc
.LFE5457:
	.seh_endproc
	.section	.text$_ZN11wxGDIObjectC2Ev,"x"
	.linkonce discard
	.align 2
	.globl	_ZN11wxGDIObjectC2Ev
	.def	_ZN11wxGDIObjectC2Ev;	.scl	2;	.type	32;	.endef
	.seh_proc	_ZN11wxGDIObjectC2Ev
_ZN11wxGDIObjectC2Ev:
.LFB6000:
	.file 7 "../wxMSW-3.0.5_gcc810_x64_Dev/include/wx/gdiobj.h"
	.loc 7 41 7
	.cfi_startproc
	pushq	%rbp
	.seh_pushreg	%rbp
	.cfi_def_cfa_offset 16
	.cfi_offset 6, -16
	movq	%rsp, %rbp
	.seh_setframe	%rbp, 0
	.cfi_def_cfa_register 6
	subq	$32, %rsp
	.seh_stackalloc	32
	.seh_endprologue
	movq	%rcx, 16(%rbp)
.LBB25:
	.loc 7 41 7
	movq	16(%rbp), %rax
	movq	%rax, %rcx
	call	_ZN8wxObjectC2Ev
	movq	.refptr._ZTV11wxGDIObject(%rip), %rax
	leaq	16(%rax), %rdx
	movq	16(%rbp), %rax
	movq	%rdx, (%rax)
.LBE25:
	nop
	addq	$32, %rsp
	popq	%rbp
	.cfi_restore 6
	.cfi_def_cfa 7, 8
	ret
	.cfi_endproc
.LFE6000:
	.seh_endproc
	.section	.text$_ZN10wxGDIImageC2Ev,"x"
	.linkonce discard
	.align 2
	.globl	_ZN10wxGDIImageC2Ev
	.def	_ZN10wxGDIImageC2Ev;	.scl	2;	.type	32;	.endef
	.seh_proc	_ZN10wxGDIImageC2Ev
_ZN10wxGDIImageC2Ev:
.LFB6006:
	.file 8 "../wxMSW-3.0.5_gcc810_x64_Dev/include/wx/msw/gdiimage.h"
	.loc 8 84 7
	.cfi_startproc
	pushq	%rbp
	.seh_pushreg	%rbp
	.cfi_def_cfa_offset 16
	.cfi_offset 6, -16
	movq	%rsp, %rbp
	.seh_setframe	%rbp, 0
	.cfi_def_cfa_register 6
	subq	$32, %rsp
	.seh_stackalloc	32
	.seh_endprologue
	movq	%rcx, 16(%rbp)
.LBB26:
	.loc 8 84 7
	movq	16(%rbp), %rax
	movq	%rax, %rcx
	call	_ZN11wxGDIObjectC2Ev
	movq	.refptr._ZTV10wxGDIImage(%rip), %rax
	leaq	16(%rax), %rdx
	movq	16(%rbp), %rax
	movq	%rdx, (%rax)
.LBE26:
	nop
	addq	$32, %rsp
	popq	%rbp
	.cfi_restore 6
	.cfi_def_cfa 7, 8
	ret
	.cfi_endproc
.LFE6006:
	.seh_endproc
	.section .rdata,"dr"
	.align 4
_ZL15wxInvalidOffset:
	.long	-1
	.section	.text$_ZN10wxArrayIntD1Ev,"x"
	.linkonce discard
	.align 2
	.globl	_ZN10wxArrayIntD1Ev
	.def	_ZN10wxArrayIntD1Ev;	.scl	2;	.type	32;	.endef
	.seh_proc	_ZN10wxArrayIntD1Ev
_ZN10wxArrayIntD1Ev:
.LFB7429:
	.file 9 "../wxMSW-3.0.5_gcc810_x64_Dev/include/wx/dynarray.h"
	.loc 9 1022 348
	.cfi_startproc
	pushq	%rbp
	.seh_pushreg	%rbp
	.cfi_def_cfa_offset 16
	.cfi_offset 6, -16
	movq	%rsp, %rbp
	.seh_setframe	%rbp, 0
	.cfi_def_cfa_register 6
	subq	$32, %rsp
	.seh_stackalloc	32
	.seh_endprologue
	movq	%rcx, 16(%rbp)
.LBB27:
	.loc 9 1022 362
	movq	16(%rbp), %rax
	movq	%rax, %rcx
	call	_ZN14wxBaseArrayIntD2Ev
.LBE27:
	.loc 9 1022 364
	nop
	addq	$32, %rsp
	popq	%rbp
	.cfi_restore 6
	.cfi_def_cfa 7, 8
	ret
	.cfi_endproc
.LFE7429:
	.seh_endproc
	.section	.text$_ZN11wxArrayLongC1Ev,"x"
	.linkonce discard
	.align 2
	.globl	_ZN11wxArrayLongC1Ev
	.def	_ZN11wxArrayLongC1Ev;	.scl	2;	.type	32;	.endef
	.seh_proc	_ZN11wxArrayLongC1Ev
_ZN11wxArrayLongC1Ev:
.LFB7606:
	.loc 9 1024 342
	.cfi_startproc
	pushq	%rbp
	.seh_pushreg	%rbp
	.cfi_def_cfa_offset 16
	.cfi_offset 6, -16
	movq	%rsp, %rbp
	.seh_setframe	%rbp, 0
	.cfi_def_cfa_register 6
	subq	$32, %rsp
	.seh_stackalloc	32
	.seh_endprologue
	movq	%rcx, 16(%rbp)
.LBB28:
	.loc 9 1024 356
	movq	16(%rbp), %rax
	movq	%rax, %rcx
	call	_ZN15wxBaseArrayLongC2Ev
.LBE28:
	.loc 9 1024 358
	nop
	addq	$32, %rsp
	popq	%rbp
	.cfi_restore 6
	.cfi_def_cfa 7, 8
	ret
	.cfi_endproc
.LFE7606:
	.seh_endproc
	.section	.text$_ZN11wxArrayLongD1Ev,"x"
	.linkonce discard
	.align 2
	.globl	_ZN11wxArrayLongD1Ev
	.def	_ZN11wxArrayLongD1Ev;	.scl	2;	.type	32;	.endef
	.seh_proc	_ZN11wxArrayLongD1Ev
_ZN11wxArrayLongD1Ev:
.LFB7609:
	.loc 9 1024 360
	.cfi_startproc
	pushq	%rbp
	.seh_pushreg	%rbp
	.cfi_def_cfa_offset 16
	.cfi_offset 6, -16
	movq	%rsp, %rbp
	.seh_setframe	%rbp, 0
	.cfi_def_cfa_register 6
	subq	$32, %rsp
	.seh_stackalloc	32
	.seh_endprologue
	movq	%rcx, 16(%rbp)
.LBB29:
	.loc 9 1024 375
	movq	16(%rbp), %rax
	movq	%rax, %rcx
	call	_ZN15wxBaseArrayLongD2Ev
.LBE29:
	.loc 9 1024 377
	nop
	addq	$32, %rsp
	popq	%rbp
	.cfi_restore 6
	.cfi_def_cfa 7, 8
	ret
	.cfi_endproc
.LFE7609:
	.seh_endproc
	.section	.text$_ZN23wxCriticalSectionLockerC1ER17wxCriticalSection,"x"
	.linkonce discard
	.align 2
	.globl	_ZN23wxCriticalSectionLockerC1ER17wxCriticalSection
	.def	_ZN23wxCriticalSectionLockerC1ER17wxCriticalSection;	.scl	2;	.type	32;	.endef
	.seh_proc	_ZN23wxCriticalSectionLockerC1ER17wxCriticalSection
_ZN23wxCriticalSectionLockerC1ER17wxCriticalSection:
.LFB7793:
	.file 10 "../wxMSW-3.0.5_gcc810_x64_Dev/include/wx/thread.h"
	.loc 10 304 5
	.cfi_startproc
	pushq	%rbp
	.seh_pushreg	%rbp
	.cfi_def_cfa_offset 16
	.cfi_offset 6, -16
	movq	%rsp, %rbp
	.seh_setframe	%rbp, 0
	.cfi_def_cfa_register 6
	subq	$32, %rsp
	.seh_stackalloc	32
	.seh_endprologue
	movq	%rcx, 16(%rbp)
	movq	%rdx, 24(%rbp)
.LBB30:
	.loc 10 305 24
	movq	16(%rbp), %rax
	movq	24(%rbp), %rdx
	movq	%rdx, (%rax)
	.loc 10 307 9
	movq	16(%rbp), %rax
	movq	(%rax), %rax
	.loc 10 307 25
	movq	%rax, %rcx
	call	_ZN17wxCriticalSection5EnterEv
.LBE30:
	.loc 10 308 5
	nop
	addq	$32, %rsp
	popq	%rbp
	.cfi_restore 6
	.cfi_def_cfa 7, 8
	ret
	.cfi_endproc
.LFE7793:
	.seh_endproc
	.section	.text$_ZN23wxCriticalSectionLockerD1Ev,"x"
	.linkonce discard
	.align 2
	.globl	_ZN23wxCriticalSectionLockerD1Ev
	.def	_ZN23wxCriticalSectionLockerD1Ev;	.scl	2;	.type	32;	.endef
	.seh_proc	_ZN23wxCriticalSectionLockerD1Ev
_ZN23wxCriticalSectionLockerD1Ev:
.LFB7796:
	.loc 10 310 5
	.cfi_startproc
	pushq	%rbp
	.seh_pushreg	%rbp
	.cfi_def_cfa_offset 16
	.cfi_offset 6, -16
	movq	%rsp, %rbp
	.seh_setframe	%rbp, 0
	.cfi_def_cfa_register 6
	subq	$32, %rsp
	.seh_stackalloc	32
	.seh_endprologue
	movq	%rcx, 16(%rbp)
.LBB31:
	.loc 10 312 9
	movq	16(%rbp), %rax
	movq	(%rax), %rax
	.loc 10 312 25
	movq	%rax, %rcx
	call	_ZN17wxCriticalSection5LeaveEv
.LBE31:
	.loc 10 313 5
	nop
	addq	$32, %rsp
	popq	%rbp
	.cfi_restore 6
	.cfi_def_cfa 7, 8
	ret
	.cfi_endproc
.LFE7796:
	.seh_handler	__gxx_personality_seh0, @unwind, @except
	.seh_handlerdata
.LLSDA7796:
	.byte	0xff
	.byte	0xff
	.byte	0x1
	.uleb128 .LLSDACSE7796-.LLSDACSB7796
.LLSDACSB7796:
.LLSDACSE7796:
	.section	.text$_ZN23wxCriticalSectionLockerD1Ev,"x"
	.linkonce discard
	.seh_endproc
	.section	.text$_ZN8wxThread8OnDeleteEv,"x"
	.linkonce discard
	.align 2
	.globl	_ZN8wxThread8OnDeleteEv
	.def	_ZN8wxThread8OnDeleteEv;	.scl	2;	.type	32;	.endef
	.seh_proc	_ZN8wxThread8OnDeleteEv
_ZN8wxThread8OnDeleteEv:
.LFB7802:
	.loc 10 627 18
	.cfi_startproc
	pushq	%rbp
	.seh_pushreg	%rbp
	.cfi_def_cfa_offset 16
	.cfi_offset 6, -16
	movq	%rsp, %rbp
	.seh_setframe	%rbp, 0
	.cfi_def_cfa_register 6
	.seh_endprologue
	movq	%rcx, 16(%rbp)
	.loc 10 627 30
	nop
	popq	%rbp
	.cfi_restore 6
	.cfi_def_cfa 7, 8
	ret
	.cfi_endproc
.LFE7802:
	.seh_endproc
	.section	.text$_ZN8wxThread6OnKillEv,"x"
	.linkonce discard
	.align 2
	.globl	_ZN8wxThread6OnKillEv
	.def	_ZN8wxThread6OnKillEv;	.scl	2;	.type	32;	.endef
	.seh_proc	_ZN8wxThread6OnKillEv
_ZN8wxThread6OnKillEv:
.LFB7803:
	.loc 10 631 18
	.cfi_startproc
	pushq	%rbp
	.seh_pushreg	%rbp
	.cfi_def_cfa_offset 16
	.cfi_offset 6, -16
	movq	%rsp, %rbp
	.seh_setframe	%rbp, 0
	.cfi_def_cfa_register 6
	.seh_endprologue
	movq	%rcx, 16(%rbp)
	.loc 10 631 28
	nop
	popq	%rbp
	.cfi_restore 6
	.cfi_def_cfa 7, 8
	ret
	.cfi_endproc
.LFE7803:
	.seh_endproc
	.section	.text$_ZN8wxThread6OnExitEv,"x"
	.linkonce discard
	.align 2
	.globl	_ZN8wxThread6OnExitEv
	.def	_ZN8wxThread6OnExitEv;	.scl	2;	.type	32;	.endef
	.seh_proc	_ZN8wxThread6OnExitEv
_ZN8wxThread6OnExitEv:
.LFB7804:
	.loc 10 641 18
	.cfi_startproc
	pushq	%rbp
	.seh_pushreg	%rbp
	.cfi_def_cfa_offset 16
	.cfi_offset 6, -16
	movq	%rsp, %rbp
	.seh_setframe	%rbp, 0
	.cfi_def_cfa_register 6
	.seh_endprologue
	movq	%rcx, 16(%rbp)
	.loc 10 641 29
	nop
	popq	%rbp
	.cfi_restore 6
	.cfi_def_cfa 7, 8
	ret
	.cfi_endproc
.LFE7804:
	.seh_endproc
	.section	.text$_ZN20wxThreadHelperThread5EntryEv,"x"
	.linkonce discard
	.align 2
	.globl	_ZN20wxThreadHelperThread5EntryEv
	.def	_ZN20wxThreadHelperThread5EntryEv;	.scl	2;	.type	32;	.endef
	.seh_proc	_ZN20wxThreadHelperThread5EntryEv
_ZN20wxThreadHelperThread5EntryEv:
.LFB7819:
	.loc 10 767 1
	.cfi_startproc
	pushq	%rbp
	.seh_pushreg	%rbp
	.cfi_def_cfa_offset 16
	.cfi_offset 6, -16
	pushq	%rbx
	.seh_pushreg	%rbx
	.cfi_def_cfa_offset 24
	.cfi_offset 3, -24
	subq	$56, %rsp
	.seh_stackalloc	56
	.cfi_def_cfa_offset 80
	leaq	128(%rsp), %rbp
	.seh_setframe	%rbp, 128
	.cfi_def_cfa 6, -48
	.seh_endprologue
	movq	%rcx, -48(%rbp)
	.loc 10 768 27
	movq	-48(%rbp), %rax
	movq	64(%rax), %rdx
	movq	-48(%rbp), %rax
	movq	64(%rax), %rax
	.loc 10 768 41
	movq	(%rax), %rax
	addq	$16, %rax
	movq	(%rax), %rax
	.loc 10 768 40
	movq	%rdx, %rcx
	call	*%rax
.LVL0:
	movq	%rax, -88(%rbp)
	.loc 10 770 36
	movq	-48(%rbp), %rax
	movq	64(%rax), %rax
	.loc 10 770 44
	leaq	24(%rax), %rdx
	.loc 10 770 57
	leaq	-96(%rbp), %rax
	movq	%rax, %rcx
	call	_ZN23wxCriticalSectionLockerC1ER17wxCriticalSection
	.loc 10 776 10
	movq	-48(%rbp), %rax
	movq	64(%rax), %rax
	.loc 10 776 18
	movl	16(%rax), %eax
	.loc 10 776 5
	testl	%eax, %eax
	jne	.L76
	.loc 10 777 9
	movq	-48(%rbp), %rax
	movq	64(%rax), %rax
	.loc 10 777 26
	movq	$0, 8(%rax)
.L76:
	.loc 10 779 12
	movq	-88(%rbp), %rbx
	.loc 10 770 57
	leaq	-96(%rbp), %rax
	movq	%rax, %rcx
	call	_ZN23wxCriticalSectionLockerD1Ev
	.loc 10 779 12
	movq	%rbx, %rax
	.loc 10 780 1
	addq	$56, %rsp
	popq	%rbx
	.cfi_restore 3
	popq	%rbp
	.cfi_restore 6
	.cfi_def_cfa 7, -40
	ret
	.cfi_endproc
.LFE7819:
	.seh_endproc
	.section	.text$_ZN16wxTypeIdentifierC1EPKc,"x"
	.linkonce discard
	.align 2
	.globl	_ZN16wxTypeIdentifierC1EPKc
	.def	_ZN16wxTypeIdentifierC1EPKc;	.scl	2;	.type	32;	.endef
	.seh_proc	_ZN16wxTypeIdentifierC1EPKc
_ZN16wxTypeIdentifierC1EPKc:
.LFB7850:
	.file 11 "../wxMSW-3.0.5_gcc810_x64_Dev/include/wx/typeinfo.h"
	.loc 11 66 5
	.cfi_startproc
	pushq	%rbp
	.seh_pushreg	%rbp
	.cfi_def_cfa_offset 16
	.cfi_offset 6, -16
	movq	%rsp, %rbp
	.seh_setframe	%rbp, 0
	.cfi_def_cfa_register 6
	.seh_endprologue
	movq	%rcx, 16(%rbp)
	movq	%rdx, 24(%rbp)
.LBB32:
	.loc 11 68 21
	movq	16(%rbp), %rax
	movq	24(%rbp), %rdx
	movq	%rdx, (%rax)
.LBE32:
	.loc 11 69 5
	nop
	popq	%rbp
	.cfi_restore 6
	.cfi_def_cfa 7, 8
	ret
	.cfi_endproc
.LFE7850:
	.seh_endproc
	.section	.text$_ZN16wxTypeIdentifiereqERKS_,"x"
	.linkonce discard
	.align 2
	.globl	_ZN16wxTypeIdentifiereqERKS_
	.def	_ZN16wxTypeIdentifiereqERKS_;	.scl	2;	.type	32;	.endef
	.seh_proc	_ZN16wxTypeIdentifiereqERKS_
_ZN16wxTypeIdentifiereqERKS_:
.LFB7851:
	.loc 11 71 10
	.cfi_startproc
	pushq	%rbp
	.seh_pushreg	%rbp
	.cfi_def_cfa_offset 16
	.cfi_offset 6, -16
	movq	%rsp, %rbp
	.seh_setframe	%rbp, 0
	.cfi_def_cfa_register 6
	subq	$32, %rsp
	.seh_stackalloc	32
	.seh_endprologue
	movq	%rcx, 16(%rbp)
	movq	%rdx, 24(%rbp)
	.loc 11 73 42
	movq	24(%rbp), %rax
	movq	(%rax), %rdx
	.loc 11 73 22
	movq	16(%rbp), %rax
	movq	(%rax), %rax
	movq	%rax, %rcx
	call	strcmp
	.loc 11 73 58
	testl	%eax, %eax
	sete	%al
	.loc 11 74 5
	addq	$32, %rsp
	popq	%rbp
	.cfi_restore 6
	.cfi_def_cfa 7, 8
	ret
	.cfi_endproc
.LFE7851:
	.seh_endproc
	.section	.text$_ZN14wxEventFunctorC2Ev,"x"
	.linkonce discard
	.align 2
	.globl	_ZN14wxEventFunctorC2Ev
	.def	_ZN14wxEventFunctorC2Ev;	.scl	2;	.type	32;	.endef
	.seh_proc	_ZN14wxEventFunctorC2Ev
_ZN14wxEventFunctorC2Ev:
.LFB8878:
	.file 12 "../wxMSW-3.0.5_gcc810_x64_Dev/include/wx/event.h"
	.loc 12 211 7
	.cfi_startproc
	pushq	%rbp
	.seh_pushreg	%rbp
	.cfi_def_cfa_offset 16
	.cfi_offset 6, -16
	movq	%rsp, %rbp
	.seh_setframe	%rbp, 0
	.cfi_def_cfa_register 6
	.seh_endprologue
	movq	%rcx, 16(%rbp)
.LBB33:
	.loc 12 211 7
	movq	.refptr._ZTV14wxEventFunctor(%rip), %rax
	leaq	16(%rax), %rdx
	movq	16(%rbp), %rax
	movq	%rdx, (%rax)
.LBE33:
	nop
	popq	%rbp
	.cfi_restore 6
	.cfi_def_cfa 7, 8
	ret
	.cfi_endproc
.LFE8878:
	.seh_endproc
	.section	.text$_ZN20wxObjectEventFunctorC1EM12wxEvtHandlerFvR7wxEventEPS0_,"x"
	.linkonce discard
	.align 2
	.globl	_ZN20wxObjectEventFunctorC1EM12wxEvtHandlerFvR7wxEventEPS0_
	.def	_ZN20wxObjectEventFunctorC1EM12wxEvtHandlerFvR7wxEventEPS0_;	.scl	2;	.type	32;	.endef
	.seh_proc	_ZN20wxObjectEventFunctorC1EM12wxEvtHandlerFvR7wxEventEPS0_
_ZN20wxObjectEventFunctorC1EM12wxEvtHandlerFvR7wxEventEPS0_:
.LFB8881:
	.loc 12 243 5
	.cfi_startproc
	pushq	%rbp
	.seh_pushreg	%rbp
	.cfi_def_cfa_offset 16
	.cfi_offset 6, -16
	pushq	%rbx
	.seh_pushreg	%rbx
	.cfi_def_cfa_offset 24
	.cfi_offset 3, -24
	subq	$56, %rsp
	.seh_stackalloc	56
	.cfi_def_cfa_offset 80
	leaq	128(%rsp), %rbp
	.seh_setframe	%rbp, 128
	.cfi_def_cfa 6, -48
	.seh_endprologue
	movq	%rcx, -48(%rbp)
	movq	%rdx, %rbx
	movq	(%rbx), %rax
	movq	8(%rbx), %rdx
	movq	%rax, -96(%rbp)
	movq	%rdx, -88(%rbp)
	movq	%r8, -32(%rbp)
.LBB34:
	.loc 12 244 50
	movq	-48(%rbp), %rax
	movq	%rax, %rcx
	call	_ZN14wxEventFunctorC2Ev
	leaq	16+_ZTV20wxObjectEventFunctor(%rip), %rdx
	movq	-48(%rbp), %rax
	movq	%rdx, (%rax)
	movq	-48(%rbp), %rax
	movq	-32(%rbp), %rdx
	movq	%rdx, 8(%rax)
	movq	-48(%rbp), %rcx
	movq	-96(%rbp), %rax
	movq	-88(%rbp), %rdx
	movq	%rax, 16(%rcx)
	movq	%rdx, 24(%rcx)
.LBE34:
	.loc 12 245 11
	nop
	addq	$56, %rsp
	popq	%rbx
	.cfi_restore 3
	popq	%rbp
	.cfi_restore 6
	.cfi_def_cfa 7, -40
	ret
	.cfi_endproc
.LFE8881:
	.seh_endproc
	.section	.text$_ZNK20wxObjectEventFunctor10IsMatchingERK14wxEventFunctor,"x"
	.linkonce discard
	.align 2
	.globl	_ZNK20wxObjectEventFunctor10IsMatchingERK14wxEventFunctor
	.def	_ZNK20wxObjectEventFunctor10IsMatchingERK14wxEventFunctor;	.scl	2;	.type	32;	.endef
	.seh_proc	_ZNK20wxObjectEventFunctor10IsMatchingERK14wxEventFunctor
_ZNK20wxObjectEventFunctor10IsMatchingERK14wxEventFunctor:
.LFB8882:
	.loc 12 249 18
	.cfi_startproc
	pushq	%rbp
	.seh_pushreg	%rbp
	.cfi_def_cfa_offset 16
	.cfi_offset 6, -16
	movq	%rsp, %rbp
	.seh_setframe	%rbp, 0
	.cfi_def_cfa_register 6
	subq	$64, %rsp
	.seh_stackalloc	64
	.seh_endprologue
	movq	%rcx, 16(%rbp)
	movq	%rdx, 24(%rbp)
.LBB35:
	.loc 12 251 83
	movq	16(%rbp), %rax
	movq	(%rax), %rax
	subq	$8, %rax
	.loc 12 251 58
	movq	(%rax), %rax
	movq	%rax, %rcx
	call	_ZNKSt9type_info4nameEv
	movq	%rax, %rdx
	leaq	-24(%rbp), %rax
	movq	%rax, %rcx
	call	_ZN16wxTypeIdentifierC1EPKc
	.loc 12 251 38
	movq	24(%rbp), %rax
	movq	(%rax), %rax
	subq	$8, %rax
	.loc 12 251 14
	movq	(%rax), %rax
	movq	%rax, %rcx
	call	_ZNKSt9type_info4nameEv
	movq	%rax, %rdx
	leaq	-16(%rbp), %rax
	movq	%rax, %rcx
	call	_ZN16wxTypeIdentifierC1EPKc
	.loc 12 251 55
	leaq	-24(%rbp), %rdx
	leaq	-16(%rbp), %rax
	movq	%rax, %rcx
	call	_ZN16wxTypeIdentifiereqERKS_
	.loc 12 251 9
	testb	%al, %al
	je	.L84
.LBB36:
	.loc 12 253 41
	movq	24(%rbp), %rax
	movq	%rax, -8(%rbp)
	.loc 12 262 40
	movq	16(%rbp), %rax
	movq	16(%rax), %rdx
	movq	-8(%rbp), %rax
	movq	16(%rax), %rax
	.loc 12 262 74
	cmpq	%rax, %rdx
	jne	.L85
	.loc 12 262 40 discriminator 1
	movq	16(%rbp), %rax
	movq	24(%rax), %rdx
	movq	-8(%rbp), %rax
	movq	24(%rax), %rax
	.loc 12 262 31 discriminator 1
	cmpq	%rax, %rdx
	je	.L86
	.loc 12 262 40 discriminator 4
	movq	16(%rbp), %rax
	movq	16(%rax), %rax
	.loc 12 262 31 discriminator 4
	testq	%rax, %rax
	je	.L86
.L85:
	.loc 12 262 70 discriminator 6
	movq	-8(%rbp), %rax
	movq	16(%rax), %rax
	.loc 12 262 49 discriminator 6
	testq	%rax, %rax
	jne	.L87
.L86:
	.loc 12 263 22 discriminator 7
	movq	16(%rbp), %rax
	movq	8(%rax), %rdx
	.loc 12 263 41 discriminator 7
	movq	-8(%rbp), %rax
	movq	8(%rax), %rax
	.loc 12 262 74 discriminator 7
	cmpq	%rax, %rdx
	je	.L88
	.loc 12 263 60
	movq	-8(%rbp), %rax
	movq	8(%rax), %rax
	.loc 12 263 51
	testq	%rax, %rax
	jne	.L87
.L88:
	.loc 12 262 74 discriminator 9
	movl	$1, %eax
	.loc 12 263 77 discriminator 9
	jmp	.L90
.L87:
	.loc 12 262 74 discriminator 8
	movl	$0, %eax
	.loc 12 263 77 discriminator 8
	jmp	.L90
.L84:
.LBE36:
	.loc 12 266 20
	movl	$0, %eax
.L90:
.LBE35:
	.loc 12 267 5
	addq	$64, %rsp
	popq	%rbp
	.cfi_restore 6
	.cfi_def_cfa 7, 8
	ret
	.cfi_endproc
.LFE8882:
	.seh_endproc
	.section	.text$_ZNK20wxObjectEventFunctor13GetEvtHandlerEv,"x"
	.linkonce discard
	.align 2
	.globl	_ZNK20wxObjectEventFunctor13GetEvtHandlerEv
	.def	_ZNK20wxObjectEventFunctor13GetEvtHandlerEv;	.scl	2;	.type	32;	.endef
	.seh_proc	_ZNK20wxObjectEventFunctor13GetEvtHandlerEv
_ZNK20wxObjectEventFunctor13GetEvtHandlerEv:
.LFB8883:
	.loc 12 269 27
	.cfi_startproc
	pushq	%rbp
	.seh_pushreg	%rbp
	.cfi_def_cfa_offset 16
	.cfi_offset 6, -16
	movq	%rsp, %rbp
	.seh_setframe	%rbp, 0
	.cfi_def_cfa_register 6
	.seh_endprologue
	movq	%rcx, 16(%rbp)
	.loc 12 270 18
	movq	16(%rbp), %rax
	movq	8(%rax), %rax
	.loc 12 270 29
	popq	%rbp
	.cfi_restore 6
	.cfi_def_cfa 7, 8
	ret
	.cfi_endproc
.LFE8883:
	.seh_endproc
	.section	.text$_ZNK20wxObjectEventFunctor12GetEvtMethodEv,"x"
	.linkonce discard
	.align 2
	.globl	_ZNK20wxObjectEventFunctor12GetEvtMethodEv
	.def	_ZNK20wxObjectEventFunctor12GetEvtMethodEv;	.scl	2;	.type	32;	.endef
	.seh_proc	_ZNK20wxObjectEventFunctor12GetEvtMethodEv
_ZNK20wxObjectEventFunctor12GetEvtMethodEv:
.LFB8884:
	.loc 12 272 29
	.cfi_startproc
	pushq	%rbp
	.seh_pushreg	%rbp
	.cfi_def_cfa_offset 16
	.cfi_offset 6, -16
	movq	%rsp, %rbp
	.seh_setframe	%rbp, 0
	.cfi_def_cfa_register 6
	.seh_endprologue
	movq	%rcx, 16(%rbp)
	movq	%rdx, 24(%rbp)
	.loc 12 273 18
	movq	16(%rbp), %rcx
	movq	24(%rbp), %rax
	movq	24(%rax), %rdx
	movq	16(%rax), %rax
	movq	%rax, (%rcx)
	movq	%rdx, 8(%rcx)
	.loc 12 273 28
	movq	16(%rbp), %rax
	popq	%rbp
	.cfi_restore 6
	.cfi_def_cfa 7, 8
	ret
	.cfi_endproc
.LFE8884:
	.seh_endproc
	.section	.text$_Z17wxNewEventFunctorRKiM12wxEvtHandlerFvR7wxEventEPS1_,"x"
	.linkonce discard
	.globl	_Z17wxNewEventFunctorRKiM12wxEvtHandlerFvR7wxEventEPS1_
	.def	_Z17wxNewEventFunctorRKiM12wxEvtHandlerFvR7wxEventEPS1_;	.scl	2;	.type	32;	.endef
	.seh_proc	_Z17wxNewEventFunctorRKiM12wxEvtHandlerFvR7wxEventEPS1_
_Z17wxNewEventFunctorRKiM12wxEvtHandlerFvR7wxEventEPS1_:
.LFB8888:
	.loc 12 290 1
	.cfi_startproc
	pushq	%rbp
	.seh_pushreg	%rbp
	.cfi_def_cfa_offset 16
	.cfi_offset 6, -16
	pushq	%rbx
	.seh_pushreg	%rbx
	.cfi_def_cfa_offset 24
	.cfi_offset 3, -24
	subq	$72, %rsp
	.seh_stackalloc	72
	.cfi_def_cfa_offset 96
	leaq	128(%rsp), %rbp
	.seh_setframe	%rbp, 128
	.cfi_def_cfa 6, -32
	.seh_endprologue
	movq	%rcx, -32(%rbp)
	movq	%rdx, %rbx
	movq	(%rbx), %rax
	movq	8(%rbx), %rdx
	movq	%rax, -80(%rbp)
	movq	%rdx, -72(%rbp)
	movq	%r8, -16(%rbp)
	.loc 12 291 52
	movl	$32, %ecx
	call	_Znwy
	movq	%rax, %rbx
	movq	-80(%rbp), %rax
	movq	-72(%rbp), %rdx
	movq	%rax, -96(%rbp)
	movq	%rdx, -88(%rbp)
	movq	-16(%rbp), %rdx
	leaq	-96(%rbp), %rax
	movq	%rdx, %r8
	movq	%rax, %rdx
	movq	%rbx, %rcx
	call	_ZN20wxObjectEventFunctorC1EM12wxEvtHandlerFvR7wxEventEPS0_
	movq	%rbx, %rax
	.loc 12 292 1
	addq	$72, %rsp
	popq	%rbx
	.cfi_restore 3
	popq	%rbp
	.cfi_restore 6
	.cfi_def_cfa 7, -56
	ret
	.cfi_endproc
.LFE8888:
	.seh_endproc
	.section .rdata,"dr"
	.align 8
.LC1:
	.ascii "idLast == wxID_ANY || winid <= idLast\0"
	.align 8
.LC2:
	.ascii "..\\wxMSW-3.0.5_gcc810_x64_Dev\\include/wx/event.h\0"
	.align 8
.LC3:
	.ascii "invalid IDs range: lower bound > upper bound\0"
	.section	.text$_ZN21wxEventTableEntryBaseC2EiiP14wxEventFunctorP8wxObject,"x"
	.linkonce discard
	.align 2
	.globl	_ZN21wxEventTableEntryBaseC2EiiP14wxEventFunctorP8wxObject
	.def	_ZN21wxEventTableEntryBaseC2EiiP14wxEventFunctorP8wxObject;	.scl	2;	.type	32;	.endef
	.seh_proc	_ZN21wxEventTableEntryBaseC2EiiP14wxEventFunctorP8wxObject
_ZN21wxEventTableEntryBaseC2EiiP14wxEventFunctorP8wxObject:
.LFB9456:
	.loc 12 3170 5
	.cfi_startproc
	pushq	%rbp
	.seh_pushreg	%rbp
	.cfi_def_cfa_offset 16
	.cfi_offset 6, -16
	movq	%rsp, %rbp
	.seh_setframe	%rbp, 0
	.cfi_def_cfa_register 6
	subq	$48, %rsp
	.seh_stackalloc	48
	.seh_endprologue
	movq	%rcx, 16(%rbp)
	movl	%edx, 24(%rbp)
	movl	%r8d, 32(%rbp)
	movq	%r9, 40(%rbp)
.LBB37:
	.loc 12 3175 34
	movq	16(%rbp), %rax
	movl	24(%rbp), %edx
	movl	%edx, (%rax)
	movq	16(%rbp), %rax
	movl	32(%rbp), %edx
	movl	%edx, 4(%rax)
	movq	16(%rbp), %rax
	movq	40(%rbp), %rdx
	movq	%rdx, 8(%rax)
	movq	16(%rbp), %rax
	movq	48(%rbp), %rdx
	movq	%rdx, 16(%rax)
	.loc 12 3177 80
	movq	.refptr.wxTheAssertHandler(%rip), %rax
	movq	(%rax), %rax
	.loc 12 3177 82
	testq	%rax, %rax
	je	.L98
	.loc 12 3177 38 discriminator 1
	cmpl	$-1, 32(%rbp)
	je	.L98
	.loc 12 3177 41 discriminator 3
	movl	24(%rbp), %eax
	cmpl	32(%rbp), %eax
	jle	.L98
	.loc 12 3177 96 discriminator 5
	leaq	.LC3(%rip), %rax
	movq	%rax, 32(%rsp)
	leaq	.LC1(%rip), %r9
	leaq	_ZZN21wxEventTableEntryBaseC4EiiP14wxEventFunctorP8wxObjectE12__FUNCTION__(%rip), %r8
	movl	$3178, %edx
	leaq	.LC2(%rip), %rcx
	call	_Z10wxOnAssertPKciS0_S0_S0_
	.loc 12 3177 82 discriminator 5
	movq	.refptr.wxTrapInAssert(%rip), %rax
	movzbl	(%rax), %eax
	testb	%al, %al
	je	.L98
	.loc 12 3177 82 is_stmt 0 discriminator 7
	movl	$1, %eax
	jmp	.L99
.L98:
	.loc 12 3177 82 discriminator 8
	movl	$0, %eax
.L99:
	.loc 12 3177 14 is_stmt 1 discriminator 10
	testb	%al, %al
	je	.L101
	.loc 12 3177 150 discriminator 11
	movq	.refptr.wxTrapInAssert(%rip), %rax
	movb	$0, (%rax)
	.loc 12 3177 165 discriminator 11
	call	_Z6wxTrapv
.L101:
.LBE37:
	.loc 12 3179 5
	nop
	addq	$48, %rsp
	popq	%rbp
	.cfi_restore 6
	.cfi_def_cfa 7, 8
	ret
	.cfi_endproc
.LFE9456:
	.seh_endproc
	.section	.text$_ZN21wxEventTableEntryBaseD2Ev,"x"
	.linkonce discard
	.align 2
	.globl	_ZN21wxEventTableEntryBaseD2Ev
	.def	_ZN21wxEventTableEntryBaseD2Ev;	.scl	2;	.type	32;	.endef
	.seh_proc	_ZN21wxEventTableEntryBaseD2Ev
_ZN21wxEventTableEntryBaseD2Ev:
.LFB9462:
	.loc 12 3196 5
	.cfi_startproc
	pushq	%rbp
	.seh_pushreg	%rbp
	.cfi_def_cfa_offset 16
	.cfi_offset 6, -16
	movq	%rsp, %rbp
	.seh_setframe	%rbp, 0
	.cfi_def_cfa_register 6
	subq	$32, %rsp
	.seh_stackalloc	32
	.seh_endprologue
	movq	%rcx, 16(%rbp)
.LBB38:
	.loc 12 3198 16
	movq	16(%rbp), %rax
	movq	8(%rax), %rax
	.loc 12 3198 20
	testq	%rax, %rax
	je	.L104
	.loc 12 3198 16 discriminator 1
	movq	16(%rbp), %rax
	movq	8(%rax), %rdx
	movq	16(%rbp), %rax
	movq	8(%rax), %rax
	movq	(%rax), %rax
	addq	$8, %rax
	movq	(%rax), %rax
	movq	%rdx, %rcx
	call	*%rax
.LVL1:
.L104:
.LBE38:
	.loc 12 3199 5
	nop
	addq	$32, %rsp
	popq	%rbp
	.cfi_restore 6
	.cfi_def_cfa 7, 8
	ret
	.cfi_endproc
.LFE9462:
	.seh_endproc
	.section	.text$_ZN17wxEventTableEntryC1ERKiiiP14wxEventFunctorP8wxObject,"x"
	.linkonce discard
	.align 2
	.globl	_ZN17wxEventTableEntryC1ERKiiiP14wxEventFunctorP8wxObject
	.def	_ZN17wxEventTableEntryC1ERKiiiP14wxEventFunctorP8wxObject;	.scl	2;	.type	32;	.endef
	.seh_proc	_ZN17wxEventTableEntryC1ERKiiiP14wxEventFunctorP8wxObject
_ZN17wxEventTableEntryC1ERKiiiP14wxEventFunctorP8wxObject:
.LFB9466:
	.loc 12 3219 5
	.cfi_startproc
	pushq	%rbp
	.seh_pushreg	%rbp
	.cfi_def_cfa_offset 16
	.cfi_offset 6, -16
	movq	%rsp, %rbp
	.seh_setframe	%rbp, 0
	.cfi_def_cfa_register 6
	subq	$48, %rsp
	.seh_stackalloc	48
	.seh_endprologue
	movq	%rcx, 16(%rbp)
	movq	%rdx, 24(%rbp)
	movl	%r8d, 32(%rbp)
	movl	%r9d, 40(%rbp)
.LBB39:
	.loc 12 3222 27
	movq	16(%rbp), %rax
	movq	48(%rbp), %r9
	movl	40(%rbp), %r8d
	movl	32(%rbp), %edx
	movq	56(%rbp), %rcx
	movq	%rcx, 32(%rsp)
	movq	%rax, %rcx
	call	_ZN21wxEventTableEntryBaseC2EiiP14wxEventFunctorP8wxObject
	movq	16(%rbp), %rax
	movq	24(%rbp), %rdx
	movq	%rdx, 24(%rax)
.LBE39:
	.loc 12 3223 7
	nop
	addq	$48, %rsp
	popq	%rbp
	.cfi_restore 6
	.cfi_def_cfa 7, 8
	ret
	.cfi_endproc
.LFE9466:
	.seh_endproc
	.section	.text$_ZN12wxEvtHandler15AddPendingEventERK7wxEvent,"x"
	.linkonce discard
	.align 2
	.globl	_ZN12wxEvtHandler15AddPendingEventERK7wxEvent
	.def	_ZN12wxEvtHandler15AddPendingEventERK7wxEvent;	.scl	2;	.type	32;	.endef
	.seh_proc	_ZN12wxEvtHandler15AddPendingEventERK7wxEvent
_ZN12wxEvtHandler15AddPendingEventERK7wxEvent:
.LFB9566:
	.loc 12 3408 18
	.cfi_startproc
	pushq	%rbp
	.seh_pushreg	%rbp
	.cfi_def_cfa_offset 16
	.cfi_offset 6, -16
	pushq	%rbx
	.seh_pushreg	%rbx
	.cfi_def_cfa_offset 24
	.cfi_offset 3, -24
	subq	$40, %rsp
	.seh_stackalloc	40
	.cfi_def_cfa_offset 64
	leaq	128(%rsp), %rbp
	.seh_setframe	%rbp, 128
	.cfi_def_cfa 6, -64
	.seh_endprologue
	movq	%rcx, -64(%rbp)
	movq	%rdx, -56(%rbp)
	.loc 12 3416 33
	movq	-64(%rbp), %rax
	movq	(%rax), %rax
	addq	$64, %rax
	movq	(%rax), %rbx
	.loc 12 3416 32
	movq	-56(%rbp), %rax
	movq	(%rax), %rax
	addq	$40, %rax
	movq	(%rax), %rax
	.loc 12 3416 19
	movq	-56(%rbp), %rdx
	movq	%rdx, %rcx
	call	*%rax
.LVL2:
	movq	%rax, %rdx
	movq	-64(%rbp), %rcx
	call	*%rbx
.LVL3:
	.loc 12 3417 5
	nop
	addq	$40, %rsp
	popq	%rbx
	.cfi_restore 3
	popq	%rbp
	.cfi_restore 6
	.cfi_def_cfa 7, -24
	ret
	.cfi_endproc
.LFE9566:
	.seh_endproc
	.section	.text$_ZN12wxEvtHandler7ConnectEiiiMS_FvR7wxEventEP8wxObjectPS_,"x"
	.linkonce discard
	.align 2
	.globl	_ZN12wxEvtHandler7ConnectEiiiMS_FvR7wxEventEP8wxObjectPS_
	.def	_ZN12wxEvtHandler7ConnectEiiiMS_FvR7wxEventEP8wxObjectPS_;	.scl	2;	.type	32;	.endef
	.seh_proc	_ZN12wxEvtHandler7ConnectEiiiMS_FvR7wxEventEP8wxObjectPS_
_ZN12wxEvtHandler7ConnectEiiiMS_FvR7wxEventEP8wxObjectPS_:
.LFB9571:
	.loc 12 3490 10
	.cfi_startproc
	pushq	%rbp
	.seh_pushreg	%rbp
	.cfi_def_cfa_offset 16
	.cfi_offset 6, -16
	pushq	%rbx
	.seh_pushreg	%rbx
	.cfi_def_cfa_offset 24
	.cfi_offset 3, -24
	subq	$88, %rsp
	.seh_stackalloc	88
	.cfi_def_cfa_offset 112
	leaq	128(%rsp), %rbp
	.seh_setframe	%rbp, 128
	.cfi_def_cfa 6, -16
	.seh_endprologue
	movq	%rcx, -16(%rbp)
	movl	%edx, -8(%rbp)
	movl	%r8d, 0(%rbp)
	movl	%r9d, 8(%rbp)
	movq	16(%rbp), %rbx
	movq	(%rbx), %rax
	movq	8(%rbx), %rdx
	movq	%rax, -64(%rbp)
	movq	%rdx, -56(%rbp)
	.loc 12 3498 36
	movq	-64(%rbp), %rax
	movq	-56(%rbp), %rdx
	movq	%rax, -80(%rbp)
	movq	%rdx, -72(%rbp)
	movq	32(%rbp), %rcx
	leaq	-80(%rbp), %rdx
	leaq	8(%rbp), %rax
	movq	%rcx, %r8
	movq	%rax, %rcx
	call	_Z17wxNewEventFunctorRKiM12wxEvtHandlerFvR7wxEventEPS1_
	movq	%rax, %r9
	.loc 12 3497 15
	movl	8(%rbp), %r8d
	movl	0(%rbp), %ecx
	movl	-8(%rbp), %eax
	movq	24(%rbp), %rdx
	movq	%rdx, 40(%rsp)
	movq	%r9, 32(%rsp)
	movl	%r8d, %r9d
	movl	%ecx, %r8d
	movl	%eax, %edx
	movq	-16(%rbp), %rcx
	call	_ZN12wxEvtHandler6DoBindEiiiP14wxEventFunctorP8wxObject
	.loc 12 3500 5
	nop
	addq	$88, %rsp
	popq	%rbx
	.cfi_restore 3
	popq	%rbp
	.cfi_restore 6
	.cfi_def_cfa 7, -72
	ret
	.cfi_endproc
.LFE9571:
	.seh_endproc
	.section	.text$_ZN12wxEvtHandler7ConnectEiiMS_FvR7wxEventEP8wxObjectPS_,"x"
	.linkonce discard
	.align 2
	.globl	_ZN12wxEvtHandler7ConnectEiiMS_FvR7wxEventEP8wxObjectPS_
	.def	_ZN12wxEvtHandler7ConnectEiiMS_FvR7wxEventEP8wxObjectPS_;	.scl	2;	.type	32;	.endef
	.seh_proc	_ZN12wxEvtHandler7ConnectEiiMS_FvR7wxEventEP8wxObjectPS_
_ZN12wxEvtHandler7ConnectEiiMS_FvR7wxEventEP8wxObjectPS_:
.LFB9572:
	.loc 12 3503 10
	.cfi_startproc
	pushq	%rbp
	.seh_pushreg	%rbp
	.cfi_def_cfa_offset 16
	.cfi_offset 6, -16
	pushq	%rbx
	.seh_pushreg	%rbx
	.cfi_def_cfa_offset 24
	.cfi_offset 3, -24
	subq	$104, %rsp
	.seh_stackalloc	104
	.cfi_def_cfa_offset 128
	leaq	128(%rsp), %rbp
	.seh_setframe	%rbp, 128
	.cfi_def_cfa 6, 0
	.seh_endprologue
	movq	%rcx, 0(%rbp)
	movl	%edx, 8(%rbp)
	movl	%r8d, 16(%rbp)
	movq	%r9, %rbx
	movq	(%rbx), %rax
	movq	8(%rbx), %rdx
	movq	%rax, -48(%rbp)
	movq	%rdx, -40(%rbp)
	.loc 12 3508 18
	movq	-48(%rbp), %rax
	movq	-40(%rbp), %rdx
	movq	%rax, -64(%rbp)
	movq	%rdx, -56(%rbp)
	movl	16(%rbp), %ecx
	movl	8(%rbp), %edx
	movq	40(%rbp), %rax
	movq	%rax, 48(%rsp)
	movq	32(%rbp), %rax
	movq	%rax, 40(%rsp)
	leaq	-64(%rbp), %rax
	movq	%rax, 32(%rsp)
	movl	%ecx, %r9d
	movl	$-1, %r8d
	movq	0(%rbp), %rcx
	call	_ZN12wxEvtHandler7ConnectEiiiMS_FvR7wxEventEP8wxObjectPS_
	.loc 12 3508 75
	nop
	addq	$104, %rsp
	popq	%rbx
	.cfi_restore 3
	popq	%rbp
	.cfi_restore 6
	.cfi_def_cfa 7, -88
	ret
	.cfi_endproc
.LFE9572:
	.seh_endproc
	.section	.text$_ZN12wxEvtHandler12TryValidatorER7wxEvent,"x"
	.linkonce discard
	.align 2
	.globl	_ZN12wxEvtHandler12TryValidatorER7wxEvent
	.def	_ZN12wxEvtHandler12TryValidatorER7wxEvent;	.scl	2;	.type	32;	.endef
	.seh_proc	_ZN12wxEvtHandler12TryValidatorER7wxEvent
_ZN12wxEvtHandler12TryValidatorER7wxEvent:
.LFB9590:
	.loc 12 3703 46
	.cfi_startproc
	pushq	%rbp
	.seh_pushreg	%rbp
	.cfi_def_cfa_offset 16
	.cfi_offset 6, -16
	movq	%rsp, %rbp
	.seh_setframe	%rbp, 0
	.cfi_def_cfa_register 6
	.seh_endprologue
	movq	%rcx, 16(%rbp)
	movq	%rdx, 24(%rbp)
	.loc 12 3703 79
	movl	$0, %eax
	.loc 12 3703 86
	popq	%rbp
	.cfi_restore 6
	.cfi_def_cfa 7, 8
	ret
	.cfi_endproc
.LFE9590:
	.seh_endproc
	.section	.text$_ZN12wxEvtHandler9TryParentER7wxEvent,"x"
	.linkonce discard
	.align 2
	.globl	_ZN12wxEvtHandler9TryParentER7wxEvent
	.def	_ZN12wxEvtHandler9TryParentER7wxEvent;	.scl	2;	.type	32;	.endef
	.seh_proc	_ZN12wxEvtHandler9TryParentER7wxEvent
_ZN12wxEvtHandler9TryParentER7wxEvent:
.LFB9591:
	.loc 12 3706 46
	.cfi_startproc
	pushq	%rbp
	.seh_pushreg	%rbp
	.cfi_def_cfa_offset 16
	.cfi_offset 6, -16
	movq	%rsp, %rbp
	.seh_setframe	%rbp, 0
	.cfi_def_cfa_register 6
	subq	$32, %rsp
	.seh_stackalloc	32
	.seh_endprologue
	movq	%rcx, 16(%rbp)
	movq	%rdx, 24(%rbp)
	.loc 12 3706 89
	movq	24(%rbp), %rax
	movq	%rax, %rdx
	movq	16(%rbp), %rcx
	call	_ZN12wxEvtHandler8DoTryAppER7wxEvent
	.loc 12 3706 98
	addq	$32, %rsp
	popq	%rbp
	.cfi_restore 6
	.cfi_def_cfa 7, 8
	ret
	.cfi_endproc
.LFE9591:
	.seh_endproc
	.section	.text$_ZN20wxObjectEventFunctorclEP12wxEvtHandlerR7wxEvent,"x"
	.linkonce discard
	.align 2
	.globl	_ZN20wxObjectEventFunctorclEP12wxEvtHandlerR7wxEvent
	.def	_ZN20wxObjectEventFunctorclEP12wxEvtHandlerR7wxEvent;	.scl	2;	.type	32;	.endef
	.seh_proc	_ZN20wxObjectEventFunctorclEP12wxEvtHandlerR7wxEvent
_ZN20wxObjectEventFunctorclEP12wxEvtHandlerR7wxEvent:
.LFB9682:
	.loc 12 3775 1
	.cfi_startproc
	pushq	%rbp
	.seh_pushreg	%rbp
	.cfi_def_cfa_offset 16
	.cfi_offset 6, -16
	movq	%rsp, %rbp
	.seh_setframe	%rbp, 0
	.cfi_def_cfa_register 6
	subq	$48, %rsp
	.seh_stackalloc	48
	.seh_endprologue
	movq	%rcx, 16(%rbp)
	movq	%rdx, 24(%rbp)
	movq	%r8, 32(%rbp)
	.loc 12 3776 40
	movq	16(%rbp), %rax
	movq	8(%rax), %rax
	.loc 12 3776 50
	testq	%rax, %rax
	je	.L114
	.loc 12 3776 50 is_stmt 0 discriminator 1
	movq	16(%rbp), %rax
	movq	8(%rax), %rax
	jmp	.L115
.L114:
	.loc 12 3776 50 discriminator 2
	movq	24(%rbp), %rax
.L115:
	.loc 12 3776 26 is_stmt 1 discriminator 4
	movq	%rax, -8(%rbp)
	.loc 12 3778 35 discriminator 4
	movq	16(%rbp), %rax
	movq	24(%rax), %rax
	.loc 12 3778 29 discriminator 4
	movq	%rax, %rdx
	movq	-8(%rbp), %rax
	leaq	(%rdx,%rax), %rcx
	.loc 12 3778 35 discriminator 4
	movq	16(%rbp), %rax
	movq	16(%rax), %rax
	andl	$1, %eax
	testq	%rax, %rax
	je	.L116
	.loc 12 3778 35 is_stmt 0 discriminator 1
	movq	16(%rbp), %rax
	movq	24(%rax), %rax
	movq	%rax, %rdx
	movq	-8(%rbp), %rax
	addq	%rdx, %rax
	movq	(%rax), %rdx
	movq	16(%rbp), %rax
	movq	16(%rax), %rax
	subq	$1, %rax
	addq	%rdx, %rax
	movq	(%rax), %rax
	jmp	.L117
.L116:
	.loc 12 3778 35 discriminator 2
	movq	16(%rbp), %rax
	movq	16(%rax), %rax
.L117:
	.loc 12 3778 29 is_stmt 1 discriminator 4
	movq	32(%rbp), %rdx
	call	*%rax
.LVL4:
	.loc 12 3779 1 discriminator 4
	nop
	addq	$48, %rsp
	popq	%rbp
	.cfi_restore 6
	.cfi_def_cfa 7, 8
	ret
	.cfi_endproc
.LFE9682:
	.seh_endproc
	.section	.text$_ZN10wxFontBaseC2Ev,"x"
	.linkonce discard
	.align 2
	.globl	_ZN10wxFontBaseC2Ev
	.def	_ZN10wxFontBaseC2Ev;	.scl	2;	.type	32;	.endef
	.seh_proc	_ZN10wxFontBaseC2Ev
_ZN10wxFontBaseC2Ev:
.LFB9746:
	.file 13 "../wxMSW-3.0.5_gcc810_x64_Dev/include/wx/font.h"
	.loc 13 258 7
	.cfi_startproc
	pushq	%rbp
	.seh_pushreg	%rbp
	.cfi_def_cfa_offset 16
	.cfi_offset 6, -16
	movq	%rsp, %rbp
	.seh_setframe	%rbp, 0
	.cfi_def_cfa_register 6
	subq	$32, %rsp
	.seh_stackalloc	32
	.seh_endprologue
	movq	%rcx, 16(%rbp)
.LBB40:
	.loc 13 258 7
	movq	16(%rbp), %rax
	movq	%rax, %rcx
	call	_ZN11wxGDIObjectC2Ev
	movq	.refptr._ZTV10wxFontBase(%rip), %rax
	leaq	16(%rax), %rdx
	movq	16(%rbp), %rax
	movq	%rdx, (%rax)
.LBE40:
	nop
	addq	$32, %rsp
	popq	%rbp
	.cfi_restore 6
	.cfi_def_cfa 7, 8
	ret
	.cfi_endproc
.LFE9746:
	.seh_endproc
	.section	.text$_ZN6wxFontC1Ei12wxFontFamily11wxFontStyle12wxFontWeightbRK8wxString14wxFontEncoding,"x"
	.linkonce discard
	.align 2
	.globl	_ZN6wxFontC1Ei12wxFontFamily11wxFontStyle12wxFontWeightbRK8wxString14wxFontEncoding
	.def	_ZN6wxFontC1Ei12wxFontFamily11wxFontStyle12wxFontWeightbRK8wxString14wxFontEncoding;	.scl	2;	.type	32;	.endef
	.seh_proc	_ZN6wxFontC1Ei12wxFontFamily11wxFontStyle12wxFontWeightbRK8wxString14wxFontEncoding
_ZN6wxFontC1Ei12wxFontFamily11wxFontStyle12wxFontWeightbRK8wxString14wxFontEncoding:
.LFB9755:
	.file 14 "../wxMSW-3.0.5_gcc810_x64_Dev/include/wx/msw/font.h"
	.loc 14 41 5
	.cfi_startproc
	pushq	%rbp
	.seh_pushreg	%rbp
	.cfi_def_cfa_offset 16
	.cfi_offset 6, -16
	pushq	%rbx
	.seh_pushreg	%rbx
	.cfi_def_cfa_offset 24
	.cfi_offset 3, -24
	subq	$88, %rsp
	.seh_stackalloc	88
	.cfi_def_cfa_offset 112
	leaq	128(%rsp), %rbp
	.seh_setframe	%rbp, 128
	.cfi_def_cfa 6, -16
	.seh_endprologue
	movq	%rcx, -16(%rbp)
	movl	%edx, -8(%rbp)
	movl	%r8d, 0(%rbp)
	movl	%r9d, 8(%rbp)
	movl	24(%rbp), %eax
	movb	%al, -52(%rbp)
.LBB41:
	.loc 14 48 5
	movq	-16(%rbp), %rax
	movq	%rax, %rcx
	call	_ZN10wxFontBaseC2Ev
	movq	.refptr._ZTV6wxFont(%rip), %rax
	leaq	16(%rax), %rdx
	movq	-16(%rbp), %rax
	movq	%rdx, (%rax)
	.loc 14 49 15
	movzbl	-52(%rbp), %eax
	movl	8(%rbp), %r9d
	movl	0(%rbp), %r8d
	movl	-8(%rbp), %edx
	movl	40(%rbp), %ecx
	movl	%ecx, 56(%rsp)
	movq	32(%rbp), %rcx
	movq	%rcx, 48(%rsp)
	movl	%eax, 40(%rsp)
	movl	16(%rbp), %eax
	movl	%eax, 32(%rsp)
	movq	-16(%rbp), %rcx
.LEHB13:
	call	_ZN6wxFont6CreateEi12wxFontFamily11wxFontStyle12wxFontWeightbRK8wxString14wxFontEncoding
.LEHE13:
.LBE41:
	.loc 14 50 5
	jmp	.L122
.L121:
	movq	%rax, %rbx
.LBB42:
	.loc 14 48 5
	movq	-16(%rbp), %rax
	movq	%rax, %rcx
	call	_ZN10wxFontBaseD2Ev
	movq	%rbx, %rax
	movq	%rax, %rcx
.LEHB14:
	call	_Unwind_Resume
	nop
.LEHE14:
.L122:
.LBE42:
	.loc 14 50 5
	addq	$88, %rsp
	popq	%rbx
	.cfi_restore 3
	popq	%rbp
	.cfi_restore 6
	.cfi_def_cfa 7, -72
	ret
	.cfi_endproc
.LFE9755:
	.seh_handler	__gxx_personality_seh0, @unwind, @except
	.seh_handlerdata
.LLSDA9755:
	.byte	0xff
	.byte	0xff
	.byte	0x1
	.uleb128 .LLSDACSE9755-.LLSDACSB9755
.LLSDACSB9755:
	.uleb128 .LEHB13-.LFB9755
	.uleb128 .LEHE13-.LEHB13
	.uleb128 .L121-.LFB9755
	.uleb128 0
	.uleb128 .LEHB14-.LFB9755
	.uleb128 .LEHE14-.LEHB14
	.uleb128 0
	.uleb128 0
.LLSDACSE9755:
	.section	.text$_ZN6wxFontC1Ei12wxFontFamily11wxFontStyle12wxFontWeightbRK8wxString14wxFontEncoding,"x"
	.linkonce discard
	.seh_endproc
	.section	.text$_ZN6wxFont6CreateEi12wxFontFamily11wxFontStyle12wxFontWeightbRK8wxString14wxFontEncoding,"x"
	.linkonce discard
	.align 2
	.globl	_ZN6wxFont6CreateEi12wxFontFamily11wxFontStyle12wxFontWeightbRK8wxString14wxFontEncoding
	.def	_ZN6wxFont6CreateEi12wxFontFamily11wxFontStyle12wxFontWeightbRK8wxString14wxFontEncoding;	.scl	2;	.type	32;	.endef
	.seh_proc	_ZN6wxFont6CreateEi12wxFontFamily11wxFontStyle12wxFontWeightbRK8wxString14wxFontEncoding
_ZN6wxFont6CreateEi12wxFontFamily11wxFontStyle12wxFontWeightbRK8wxString14wxFontEncoding:
.LFB9756:
	.loc 14 52 10
	.cfi_startproc
	pushq	%rbp
	.seh_pushreg	%rbp
	.cfi_def_cfa_offset 16
	.cfi_offset 6, -16
	movq	%rsp, %rbp
	.seh_setframe	%rbp, 0
	.cfi_def_cfa_register 6
	subq	$96, %rsp
	.seh_stackalloc	96
	.seh_endprologue
	movq	%rcx, 16(%rbp)
	movl	%edx, 24(%rbp)
	movl	%r8d, 32(%rbp)
	movl	%r9d, 40(%rbp)
	movl	56(%rbp), %eax
	movb	%al, -4(%rbp)
	.loc 14 60 24
	movzbl	-4(%rbp), %eax
	movl	24(%rbp), %edx
	movl	72(%rbp), %ecx
	movl	%ecx, 72(%rsp)
	movq	64(%rbp), %rcx
	movq	%rcx, 64(%rsp)
	movl	%eax, 56(%rsp)
	movl	48(%rbp), %eax
	movl	%eax, 48(%rsp)
	movl	40(%rbp), %eax
	movl	%eax, 40(%rsp)
	movl	32(%rbp), %eax
	movl	%eax, 32(%rsp)
	movl	$0, %r9d
	movq	.refptr.wxDefaultSize(%rip), %r8
	movq	16(%rbp), %rcx
	call	_ZN6wxFont8DoCreateEiRK6wxSizeb12wxFontFamily11wxFontStyle12wxFontWeightbRK8wxString14wxFontEncoding
	.loc 14 62 5
	addq	$96, %rsp
	popq	%rbp
	.cfi_restore 6
	.cfi_def_cfa 7, 8
	ret
	.cfi_endproc
.LFE9756:
	.seh_endproc
	.section .rdata,"dr"
_ZL19wxALPHA_TRANSPARENT:
	.space 1
_ZL14wxALPHA_OPAQUE:
	.byte	-1
	.section	.text$_ZN12wxColourBaseC2Ev,"x"
	.linkonce discard
	.align 2
	.globl	_ZN12wxColourBaseC2Ev
	.def	_ZN12wxColourBaseC2Ev;	.scl	2;	.type	32;	.endef
	.seh_proc	_ZN12wxColourBaseC2Ev
_ZN12wxColourBaseC2Ev:
.LFB9791:
	.file 15 "../wxMSW-3.0.5_gcc810_x64_Dev/include/wx/colour.h"
	.loc 15 85 5
	.cfi_startproc
	pushq	%rbp
	.seh_pushreg	%rbp
	.cfi_def_cfa_offset 16
	.cfi_offset 6, -16
	movq	%rsp, %rbp
	.seh_setframe	%rbp, 0
	.cfi_def_cfa_register 6
	subq	$32, %rsp
	.seh_stackalloc	32
	.seh_endprologue
	movq	%rcx, 16(%rbp)
.LBB43:
	.loc 15 85 20
	movq	16(%rbp), %rax
	movq	%rax, %rcx
	call	_ZN8wxObjectC2Ev
	movq	.refptr._ZTV12wxColourBase(%rip), %rax
	leaq	16(%rax), %rdx
	movq	16(%rbp), %rax
	movq	%rdx, (%rax)
.LBE43:
	.loc 15 85 21
	nop
	addq	$32, %rsp
	popq	%rbp
	.cfi_restore 6
	.cfi_def_cfa 7, 8
	ret
	.cfi_endproc
.LFE9791:
	.seh_endproc
	.section	.text$_ZN12wxColourBaseD2Ev,"x"
	.linkonce discard
	.align 2
	.globl	_ZN12wxColourBaseD2Ev
	.def	_ZN12wxColourBaseD2Ev;	.scl	2;	.type	32;	.endef
	.seh_proc	_ZN12wxColourBaseD2Ev
_ZN12wxColourBaseD2Ev:
.LFB9794:
	.loc 15 86 13
	.cfi_startproc
	pushq	%rbp
	.seh_pushreg	%rbp
	.cfi_def_cfa_offset 16
	.cfi_offset 6, -16
	movq	%rsp, %rbp
	.seh_setframe	%rbp, 0
	.cfi_def_cfa_register 6
	subq	$32, %rsp
	.seh_stackalloc	32
	.seh_endprologue
	movq	%rcx, 16(%rbp)
.LBB44:
	.loc 15 86 29
	movq	.refptr._ZTV12wxColourBase(%rip), %rax
	leaq	16(%rax), %rdx
	movq	16(%rbp), %rax
	movq	%rdx, (%rax)
	movq	16(%rbp), %rax
	movq	%rax, %rcx
	call	_ZN8wxObjectD2Ev
.LBE44:
	.loc 15 86 30
	nop
	addq	$32, %rsp
	popq	%rbp
	.cfi_restore 6
	.cfi_def_cfa 7, 8
	ret
	.cfi_endproc
.LFE9794:
	.seh_endproc
	.section	.text$_ZN12wxColourBase3SetEhhhh,"x"
	.linkonce discard
	.align 2
	.globl	_ZN12wxColourBase3SetEhhhh
	.def	_ZN12wxColourBase3SetEhhhh;	.scl	2;	.type	32;	.endef
	.seh_proc	_ZN12wxColourBase3SetEhhhh
_ZN12wxColourBase3SetEhhhh:
.LFB9797:
	.loc 15 92 10
	.cfi_startproc
	pushq	%rbp
	.seh_pushreg	%rbp
	.cfi_def_cfa_offset 16
	.cfi_offset 6, -16
	movq	%rsp, %rbp
	.seh_setframe	%rbp, 0
	.cfi_def_cfa_register 6
	subq	$64, %rsp
	.seh_stackalloc	64
	.seh_endprologue
	movq	%rcx, 16(%rbp)
	movl	%edx, %eax
	movl	%r9d, %ecx
	movl	48(%rbp), %edx
	movb	%al, 24(%rbp)
	movl	%r8d, %eax
	movb	%al, 32(%rbp)
	movl	%ecx, %eax
	movb	%al, 40(%rbp)
	movl	%edx, %eax
	movb	%al, -4(%rbp)
	.loc 15 96 43
	movq	16(%rbp), %rax
	movq	(%rax), %rax
	addq	$88, %rax
	movq	(%rax), %r10
	.loc 15 96 19
	movzbl	-4(%rbp), %edx
	movzbl	40(%rbp), %r8d
	movzbl	32(%rbp), %ecx
	movzbl	24(%rbp), %eax
	movl	%edx, 32(%rsp)
	movl	%r8d, %r9d
	movl	%ecx, %r8d
	movl	%eax, %edx
	movq	16(%rbp), %rcx
	call	*%r10
.LVL5:
	.loc 15 96 46
	nop
	addq	$64, %rsp
	popq	%rbp
	.cfi_restore 6
	.cfi_def_cfa 7, 8
	ret
	.cfi_endproc
.LFE9797:
	.seh_endproc
	.section	.text$_ZN8wxColourC1Ehhhh,"x"
	.linkonce discard
	.align 2
	.globl	_ZN8wxColourC1Ehhhh
	.def	_ZN8wxColourC1Ehhhh;	.scl	2;	.type	32;	.endef
	.seh_proc	_ZN8wxColourC1Ehhhh
_ZN8wxColourC1Ehhhh:
.LFB9812:
	.file 16 "../wxMSW-3.0.5_gcc810_x64_Dev/include/wx/msw/colour.h"
	.loc 16 25 28
	.cfi_startproc
	pushq	%rbp
	.seh_pushreg	%rbp
	.cfi_def_cfa_offset 16
	.cfi_offset 6, -16
	pushq	%rbx
	.seh_pushreg	%rbx
	.cfi_def_cfa_offset 24
	.cfi_offset 3, -24
	subq	$72, %rsp
	.seh_stackalloc	72
	.cfi_def_cfa_offset 96
	leaq	128(%rsp), %rbp
	.seh_setframe	%rbp, 128
	.cfi_def_cfa 6, -32
	.seh_endprologue
	movq	%rcx, -32(%rbp)
	movl	%edx, %eax
	movl	%r9d, %ecx
	movl	0(%rbp), %edx
	movb	%al, -24(%rbp)
	movl	%r8d, %eax
	movb	%al, -16(%rbp)
	movl	%ecx, %eax
	movb	%al, -8(%rbp)
	movl	%edx, %eax
	movb	%al, -68(%rbp)
.LBB45:
	.loc 16 25 127
	movq	-32(%rbp), %rax
	movq	%rax, %rcx
	call	_ZN12wxColourBaseC2Ev
	movq	.refptr._ZTV8wxColour(%rip), %rax
	leaq	16(%rax), %rdx
	movq	-32(%rbp), %rax
	movq	%rdx, (%rax)
	.loc 16 25 133
	movq	-32(%rbp), %rcx
.LEHB15:
	call	_ZN8wxColour4InitEv
	.loc 16 25 140 discriminator 2
	movq	-32(%rbp), %rcx
	movzbl	-68(%rbp), %edx
	movzbl	-8(%rbp), %r9d
	movzbl	-16(%rbp), %r8d
	movzbl	-24(%rbp), %eax
	movl	%edx, 32(%rsp)
	movl	%eax, %edx
	call	_ZN12wxColourBase3SetEhhhh
.LEHE15:
.LBE45:
	.loc 16 25 167
	jmp	.L131
.L130:
	movq	%rax, %rbx
.LBB46:
	.loc 16 25 127
	movq	-32(%rbp), %rax
	movq	%rax, %rcx
	call	_ZN12wxColourBaseD2Ev
	movq	%rbx, %rax
	movq	%rax, %rcx
.LEHB16:
	call	_Unwind_Resume
	nop
.LEHE16:
.L131:
.LBE46:
	.loc 16 25 167
	addq	$72, %rsp
	popq	%rbx
	.cfi_restore 3
	popq	%rbp
	.cfi_restore 6
	.cfi_def_cfa 7, -56
	ret
	.cfi_endproc
.LFE9812:
	.seh_handler	__gxx_personality_seh0, @unwind, @except
	.seh_handlerdata
.LLSDA9812:
	.byte	0xff
	.byte	0xff
	.byte	0x1
	.uleb128 .LLSDACSE9812-.LLSDACSB9812
.LLSDACSB9812:
	.uleb128 .LEHB15-.LFB9812
	.uleb128 .LEHE15-.LEHB15
	.uleb128 .L130-.LFB9812
	.uleb128 0
	.uleb128 .LEHB16-.LFB9812
	.uleb128 .LEHE16-.LEHB16
	.uleb128 0
	.uleb128 0
.LLSDACSE9812:
	.section	.text$_ZN8wxColourC1Ehhhh,"x"
	.linkonce discard
	.seh_endproc
	.section	.text$_Z16wxGetTranslationRK8wxStringS1_,"x"
	.linkonce discard
	.globl	_Z16wxGetTranslationRK8wxStringS1_
	.def	_Z16wxGetTranslationRK8wxStringS1_;	.scl	2;	.type	32;	.endef
	.seh_proc	_Z16wxGetTranslationRK8wxStringS1_
_Z16wxGetTranslationRK8wxStringS1_:
.LFB9924:
	.file 17 "../wxMSW-3.0.5_gcc810_x64_Dev/include/wx/translation.h"
	.loc 17 245 1
	.cfi_startproc
	pushq	%rbp
	.seh_pushreg	%rbp
	.cfi_def_cfa_offset 16
	.cfi_offset 6, -16
	movq	%rsp, %rbp
	.seh_setframe	%rbp, 0
	.cfi_def_cfa_register 6
	subq	$48, %rsp
	.seh_stackalloc	48
	.seh_endprologue
	movq	%rcx, 16(%rbp)
	movq	%rdx, 24(%rbp)
	.loc 17 246 48
	call	_ZN14wxTranslations3GetEv
	movq	%rax, -8(%rbp)
	.loc 17 247 38
	cmpq	$0, -8(%rbp)
	je	.L133
	.loc 17 247 66 discriminator 1
	movq	24(%rbp), %rdx
	movq	-8(%rbp), %rax
	movq	%rdx, %r8
	movq	16(%rbp), %rdx
	movq	%rax, %rcx
	call	_ZNK14wxTranslations19GetTranslatedStringERK8wxStringS2_
	jmp	.L134
.L133:
	.loc 17 247 38 discriminator 2
	movl	$0, %eax
.L134:
	.loc 17 248 39
	movq	%rax, -16(%rbp)
	.loc 17 249 5
	cmpq	$0, -16(%rbp)
	je	.L135
	.loc 17 250 17
	movq	-16(%rbp), %rax
	jmp	.L136
.L135:
	.loc 17 254 57
	movq	16(%rbp), %rcx
	call	_ZN14wxTranslations21GetUntranslatedStringERK8wxString
.L136:
	.loc 17 255 1
	addq	$48, %rsp
	popq	%rbp
	.cfi_restore 6
	.cfi_def_cfa 7, 8
	ret
	.cfi_endproc
.LFE9924:
	.seh_endproc
	.section	.text$_ZN12wxWindowBase7SetNameERK8wxString,"x"
	.linkonce discard
	.align 2
	.globl	_ZN12wxWindowBase7SetNameERK8wxString
	.def	_ZN12wxWindowBase7SetNameERK8wxString;	.scl	2;	.type	32;	.endef
	.seh_proc	_ZN12wxWindowBase7SetNameERK8wxString
_ZN12wxWindowBase7SetNameERK8wxString:
.LFB10132:
	.file 18 "../wxMSW-3.0.5_gcc810_x64_Dev/include/wx/window.h"
	.loc 18 215 18
	.cfi_startproc
	pushq	%rbp
	.seh_pushreg	%rbp
	.cfi_def_cfa_offset 16
	.cfi_offset 6, -16
	movq	%rsp, %rbp
	.seh_setframe	%rbp, 0
	.cfi_def_cfa_register 6
	subq	$32, %rsp
	.seh_stackalloc	32
	.seh_endprologue
	movq	%rcx, 16(%rbp)
	movq	%rdx, 24(%rbp)
	.loc 18 215 67
	movq	16(%rbp), %rax
	addq	$408, %rax
	movq	24(%rbp), %rdx
	movq	%rax, %rcx
	call	_ZN8wxStringaSERKS_
	.loc 18 215 73
	nop
	addq	$32, %rsp
	popq	%rbp
	.cfi_restore 6
	.cfi_def_cfa 7, 8
	ret
	.cfi_endproc
.LFE10132:
	.seh_endproc
	.section	.text$_ZNK12wxWindowBase7GetNameEv,"x"
	.linkonce discard
	.align 2
	.globl	_ZNK12wxWindowBase7GetNameEv
	.def	_ZNK12wxWindowBase7GetNameEv;	.scl	2;	.type	32;	.endef
	.seh_proc	_ZNK12wxWindowBase7GetNameEv
_ZNK12wxWindowBase7GetNameEv:
.LFB10133:
	.loc 18 216 22
	.cfi_startproc
	pushq	%rbp
	.seh_pushreg	%rbp
	.cfi_def_cfa_offset 16
	.cfi_offset 6, -16
	movq	%rsp, %rbp
	.seh_setframe	%rbp, 0
	.cfi_def_cfa_register 6
	subq	$32, %rsp
	.seh_stackalloc	32
	.seh_endprologue
	movq	%rcx, 16(%rbp)
	movq	%rdx, 24(%rbp)
	.loc 18 216 47
	movq	24(%rbp), %rax
	addq	$408, %rax
	movq	%rax, %rdx
	movq	16(%rbp), %rcx
	call	_ZN8wxStringC1ERKS_
	.loc 18 216 61
	movq	16(%rbp), %rax
	addq	$32, %rsp
	popq	%rbp
	.cfi_restore 6
	.cfi_def_cfa 7, 8
	ret
	.cfi_endproc
.LFE10133:
	.seh_endproc
	.section	.text$_ZNK12wxWindowBase16GetWindowVariantEv,"x"
	.linkonce discard
	.align 2
	.globl	_ZNK12wxWindowBase16GetWindowVariantEv
	.def	_ZNK12wxWindowBase16GetWindowVariantEv;	.scl	2;	.type	32;	.endef
	.seh_proc	_ZNK12wxWindowBase16GetWindowVariantEv
_ZNK12wxWindowBase16GetWindowVariantEv:
.LFB10134:
	.loc 18 221 21
	.cfi_startproc
	pushq	%rbp
	.seh_pushreg	%rbp
	.cfi_def_cfa_offset 16
	.cfi_offset 6, -16
	movq	%rsp, %rbp
	.seh_setframe	%rbp, 0
	.cfi_def_cfa_register 6
	.seh_endprologue
	movq	%rcx, 16(%rbp)
	.loc 18 221 55
	movq	16(%rbp), %rax
	movl	504(%rax), %eax
	.loc 18 221 72
	popq	%rbp
	.cfi_restore 6
	.cfi_def_cfa 7, 8
	ret
	.cfi_endproc
.LFE10134:
	.seh_endproc
	.section	.text$_ZN12wxWindowBase13SetClientSizeERK6wxSize,"x"
	.linkonce discard
	.align 2
	.globl	_ZN12wxWindowBase13SetClientSizeERK6wxSize
	.def	_ZN12wxWindowBase13SetClientSizeERK6wxSize;	.scl	2;	.type	32;	.endef
	.seh_proc	_ZN12wxWindowBase13SetClientSizeERK6wxSize
_ZN12wxWindowBase13SetClientSizeERK6wxSize:
.LFB10149:
	.loc 18 293 10
	.cfi_startproc
	pushq	%rbp
	.seh_pushreg	%rbp
	.cfi_def_cfa_offset 16
	.cfi_offset 6, -16
	movq	%rsp, %rbp
	.seh_setframe	%rbp, 0
	.cfi_def_cfa_register 6
	subq	$32, %rsp
	.seh_stackalloc	32
	.seh_endprologue
	movq	%rcx, 16(%rbp)
	movq	%rdx, 24(%rbp)
	.loc 18 294 41
	movq	16(%rbp), %rax
	movq	(%rax), %rax
	addq	$1376, %rax
	movq	(%rax), %rax
	.loc 18 294 40
	movq	24(%rbp), %rdx
	movl	4(%rdx), %ecx
	.loc 18 294 32
	movq	24(%rbp), %rdx
	movl	(%rdx), %edx
	.loc 18 294 26
	movl	%ecx, %r8d
	movq	16(%rbp), %rcx
	call	*%rax
.LVL6:
	.loc 18 294 44
	nop
	addq	$32, %rsp
	popq	%rbp
	.cfi_restore 6
	.cfi_def_cfa 7, 8
	ret
	.cfi_endproc
.LFE10149:
	.seh_endproc
	.section	.text$_ZNK12wxWindowBase13GetClientSizeEv,"x"
	.linkonce discard
	.align 2
	.globl	_ZNK12wxWindowBase13GetClientSizeEv
	.def	_ZNK12wxWindowBase13GetClientSizeEv;	.scl	2;	.type	32;	.endef
	.seh_proc	_ZNK12wxWindowBase13GetClientSizeEv
_ZNK12wxWindowBase13GetClientSizeEv:
.LFB10158:
	.loc 18 332 12
	.cfi_startproc
	pushq	%rbp
	.seh_pushreg	%rbp
	.cfi_def_cfa_offset 16
	.cfi_offset 6, -16
	movq	%rsp, %rbp
	.seh_setframe	%rbp, 0
	.cfi_def_cfa_register 6
	subq	$48, %rsp
	.seh_stackalloc	48
	.seh_endprologue
	movq	%rcx, 16(%rbp)
	.loc 18 335 31
	movq	16(%rbp), %rax
	movq	(%rax), %rax
	addq	$1328, %rax
	movq	(%rax), %r9
	.loc 18 335 24
	leaq	-16(%rbp), %rdx
	leaq	-12(%rbp), %rax
	movq	%rdx, %r8
	movq	%rax, %rdx
	movq	16(%rbp), %rcx
	call	*%r9
.LVL7:
	.loc 18 337 16
	movl	-16(%rbp), %ecx
	movl	-12(%rbp), %edx
	leaq	-8(%rbp), %rax
	movl	%ecx, %r8d
	movq	%rax, %rcx
	call	_ZN6wxSizeC1Eii
	.loc 18 337 27
	movq	-8(%rbp), %rax
	.loc 18 338 5
	addq	$48, %rsp
	popq	%rbp
	.cfi_restore 6
	.cfi_def_cfa 7, 8
	ret
	.cfi_endproc
.LFE10158:
	.seh_endproc
	.section	.text$_ZN12wxWindowBase12SetSizeHintsEiiiiii,"x"
	.linkonce discard
	.align 2
	.globl	_ZN12wxWindowBase12SetSizeHintsEiiiiii
	.def	_ZN12wxWindowBase12SetSizeHintsEiiiiii;	.scl	2;	.type	32;	.endef
	.seh_proc	_ZN12wxWindowBase12SetSizeHintsEiiiiii
_ZN12wxWindowBase12SetSizeHintsEiiiiii:
.LFB10170:
	.loc 18 446 18
	.cfi_startproc
	pushq	%rbp
	.seh_pushreg	%rbp
	.cfi_def_cfa_offset 16
	.cfi_offset 6, -16
	movq	%rsp, %rbp
	.seh_setframe	%rbp, 0
	.cfi_def_cfa_register 6
	subq	$64, %rsp
	.seh_stackalloc	64
	.seh_endprologue
	movq	%rcx, 16(%rbp)
	movl	%edx, 24(%rbp)
	movl	%r8d, 32(%rbp)
	movl	%r9d, 40(%rbp)
	.loc 18 449 56
	movq	16(%rbp), %rax
	movq	(%rax), %rax
	addq	$1384, %rax
	movq	(%rax), %rax
	.loc 18 449 21
	movl	40(%rbp), %r9d
	movl	32(%rbp), %r8d
	movl	24(%rbp), %edx
	movl	64(%rbp), %ecx
	movl	%ecx, 48(%rsp)
	movl	56(%rbp), %ecx
	movl	%ecx, 40(%rsp)
	movl	48(%rbp), %ecx
	movl	%ecx, 32(%rsp)
	movq	16(%rbp), %rcx
	call	*%rax
.LVL8:
	.loc 18 449 59
	nop
	addq	$64, %rsp
	popq	%rbp
	.cfi_restore 6
	.cfi_def_cfa 7, 8
	ret
	.cfi_endproc
.LFE10170:
	.seh_endproc
	.section	.text$_ZN12wxWindowBase16SetMinClientSizeERK6wxSize,"x"
	.linkonce discard
	.align 2
	.globl	_ZN12wxWindowBase16SetMinClientSizeERK6wxSize
	.def	_ZN12wxWindowBase16SetMinClientSizeERK6wxSize;	.scl	2;	.type	32;	.endef
	.seh_proc	_ZN12wxWindowBase16SetMinClientSizeERK6wxSize
_ZN12wxWindowBase16SetMinClientSizeERK6wxSize:
.LFB10172:
	.loc 18 473 18
	.cfi_startproc
	pushq	%rbp
	.seh_pushreg	%rbp
	.cfi_def_cfa_offset 16
	.cfi_offset 6, -16
	pushq	%rbx
	.seh_pushreg	%rbx
	.cfi_def_cfa_offset 24
	.cfi_offset 3, -24
	subq	$56, %rsp
	.seh_stackalloc	56
	.cfi_def_cfa_offset 80
	leaq	128(%rsp), %rbp
	.seh_setframe	%rbp, 128
	.cfi_def_cfa 6, -48
	.seh_endprologue
	movq	%rcx, -48(%rbp)
	movq	%rdx, -40(%rbp)
	.loc 18 474 46
	movq	-48(%rbp), %rax
	movq	(%rax), %rax
	addq	$312, %rax
	movq	(%rax), %rbx
	.loc 18 474 45
	movq	-48(%rbp), %rax
	movq	(%rax), %rax
	addq	$256, %rax
	movq	(%rax), %rax
	movq	-40(%rbp), %rdx
	movq	-48(%rbp), %rcx
	call	*%rax
.LVL9:
	movq	%rax, -88(%rbp)
	.loc 18 474 21
	leaq	-88(%rbp), %rax
	movq	%rax, %rdx
	movq	-48(%rbp), %rcx
	call	*%rbx
.LVL10:
	.loc 18 474 49
	nop
	addq	$56, %rsp
	popq	%rbx
	.cfi_restore 3
	popq	%rbp
	.cfi_restore 6
	.cfi_def_cfa 7, -40
	ret
	.cfi_endproc
.LFE10172:
	.seh_endproc
	.section	.text$_ZN12wxWindowBase16SetMaxClientSizeERK6wxSize,"x"
	.linkonce discard
	.align 2
	.globl	_ZN12wxWindowBase16SetMaxClientSizeERK6wxSize
	.def	_ZN12wxWindowBase16SetMaxClientSizeERK6wxSize;	.scl	2;	.type	32;	.endef
	.seh_proc	_ZN12wxWindowBase16SetMaxClientSizeERK6wxSize
_ZN12wxWindowBase16SetMaxClientSizeERK6wxSize:
.LFB10173:
	.loc 18 475 18
	.cfi_startproc
	pushq	%rbp
	.seh_pushreg	%rbp
	.cfi_def_cfa_offset 16
	.cfi_offset 6, -16
	pushq	%rbx
	.seh_pushreg	%rbx
	.cfi_def_cfa_offset 24
	.cfi_offset 3, -24
	subq	$56, %rsp
	.seh_stackalloc	56
	.cfi_def_cfa_offset 80
	leaq	128(%rsp), %rbp
	.seh_setframe	%rbp, 128
	.cfi_def_cfa 6, -48
	.seh_endprologue
	movq	%rcx, -48(%rbp)
	movq	%rdx, -40(%rbp)
	.loc 18 476 46
	movq	-48(%rbp), %rax
	movq	(%rax), %rax
	addq	$320, %rax
	movq	(%rax), %rbx
	.loc 18 476 45
	movq	-48(%rbp), %rax
	movq	(%rax), %rax
	addq	$256, %rax
	movq	(%rax), %rax
	movq	-40(%rbp), %rdx
	movq	-48(%rbp), %rcx
	call	*%rax
.LVL11:
	movq	%rax, -88(%rbp)
	.loc 18 476 21
	leaq	-88(%rbp), %rax
	movq	%rax, %rdx
	movq	-48(%rbp), %rcx
	call	*%rbx
.LVL12:
	.loc 18 476 49
	nop
	addq	$56, %rsp
	popq	%rbx
	.cfi_restore 3
	popq	%rbp
	.cfi_restore 6
	.cfi_def_cfa 7, -40
	ret
	.cfi_endproc
.LFE10173:
	.seh_endproc
	.section	.text$_ZNK12wxWindowBase10GetMinSizeEv,"x"
	.linkonce discard
	.align 2
	.globl	_ZNK12wxWindowBase10GetMinSizeEv
	.def	_ZNK12wxWindowBase10GetMinSizeEv;	.scl	2;	.type	32;	.endef
	.seh_proc	_ZNK12wxWindowBase10GetMinSizeEv
_ZNK12wxWindowBase10GetMinSizeEv:
.LFB10174:
	.loc 18 481 20
	.cfi_startproc
	pushq	%rbp
	.seh_pushreg	%rbp
	.cfi_def_cfa_offset 16
	.cfi_offset 6, -16
	movq	%rsp, %rbp
	.seh_setframe	%rbp, 0
	.cfi_def_cfa_register 6
	subq	$48, %rsp
	.seh_stackalloc	48
	.seh_endprologue
	movq	%rcx, 16(%rbp)
	.loc 18 481 67
	movq	16(%rbp), %rax
	movl	180(%rax), %ecx
	.loc 18 481 55
	movq	16(%rbp), %rax
	movl	176(%rax), %edx
	.loc 18 481 48
	leaq	-8(%rbp), %rax
	movl	%ecx, %r8d
	movq	%rax, %rcx
	call	_ZN6wxSizeC1Eii
	.loc 18 481 78
	movq	-8(%rbp), %rax
	.loc 18 481 81
	addq	$48, %rsp
	popq	%rbp
	.cfi_restore 6
	.cfi_def_cfa 7, 8
	ret
	.cfi_endproc
.LFE10174:
	.seh_endproc
	.section	.text$_ZNK12wxWindowBase10GetMaxSizeEv,"x"
	.linkonce discard
	.align 2
	.globl	_ZNK12wxWindowBase10GetMaxSizeEv
	.def	_ZNK12wxWindowBase10GetMaxSizeEv;	.scl	2;	.type	32;	.endef
	.seh_proc	_ZNK12wxWindowBase10GetMaxSizeEv
_ZNK12wxWindowBase10GetMaxSizeEv:
.LFB10175:
	.loc 18 482 20
	.cfi_startproc
	pushq	%rbp
	.seh_pushreg	%rbp
	.cfi_def_cfa_offset 16
	.cfi_offset 6, -16
	movq	%rsp, %rbp
	.seh_setframe	%rbp, 0
	.cfi_def_cfa_register 6
	subq	$48, %rsp
	.seh_stackalloc	48
	.seh_endprologue
	movq	%rcx, 16(%rbp)
	.loc 18 482 67
	movq	16(%rbp), %rax
	movl	188(%rax), %ecx
	.loc 18 482 55
	movq	16(%rbp), %rax
	movl	184(%rax), %edx
	.loc 18 482 48
	leaq	-8(%rbp), %rax
	movl	%ecx, %r8d
	movq	%rax, %rcx
	call	_ZN6wxSizeC1Eii
	.loc 18 482 78
	movq	-8(%rbp), %rax
	.loc 18 482 81
	addq	$48, %rsp
	popq	%rbp
	.cfi_restore 6
	.cfi_def_cfa 7, 8
	ret
	.cfi_endproc
.LFE10175:
	.seh_endproc
	.section	.text$_ZNK12wxWindowBase16GetMinClientSizeEv,"x"
	.linkonce discard
	.align 2
	.globl	_ZNK12wxWindowBase16GetMinClientSizeEv
	.def	_ZNK12wxWindowBase16GetMinClientSizeEv;	.scl	2;	.type	32;	.endef
	.seh_proc	_ZNK12wxWindowBase16GetMinClientSizeEv
_ZNK12wxWindowBase16GetMinClientSizeEv:
.LFB10176:
	.loc 18 485 20
	.cfi_startproc
	pushq	%rbp
	.seh_pushreg	%rbp
	.cfi_def_cfa_offset 16
	.cfi_offset 6, -16
	pushq	%rbx
	.seh_pushreg	%rbx
	.cfi_def_cfa_offset 24
	.cfi_offset 3, -24
	subq	$56, %rsp
	.seh_stackalloc	56
	.cfi_def_cfa_offset 80
	leaq	128(%rsp), %rbp
	.seh_setframe	%rbp, 128
	.cfi_def_cfa 6, -48
	.seh_endprologue
	movq	%rcx, -48(%rbp)
	.loc 18 486 49
	movq	-48(%rbp), %rax
	movq	(%rax), %rax
	addq	$264, %rax
	movq	(%rax), %rbx
	.loc 18 486 48
	movq	-48(%rbp), %rax
	movq	(%rax), %rax
	addq	$344, %rax
	movq	(%rax), %rax
	movq	-48(%rbp), %rcx
	call	*%rax
.LVL13:
	movq	%rax, -88(%rbp)
	.loc 18 486 49
	leaq	-88(%rbp), %rax
	movq	%rax, %rdx
	movq	-48(%rbp), %rcx
	call	*%rbx
.LVL14:
	.loc 18 486 52
	addq	$56, %rsp
	popq	%rbx
	.cfi_restore 3
	popq	%rbp
	.cfi_restore 6
	.cfi_def_cfa 7, -40
	ret
	.cfi_endproc
.LFE10176:
	.seh_endproc
	.section	.text$_ZNK12wxWindowBase16GetMaxClientSizeEv,"x"
	.linkonce discard
	.align 2
	.globl	_ZNK12wxWindowBase16GetMaxClientSizeEv
	.def	_ZNK12wxWindowBase16GetMaxClientSizeEv;	.scl	2;	.type	32;	.endef
	.seh_proc	_ZNK12wxWindowBase16GetMaxClientSizeEv
_ZNK12wxWindowBase16GetMaxClientSizeEv:
.LFB10177:
	.loc 18 487 20
	.cfi_startproc
	pushq	%rbp
	.seh_pushreg	%rbp
	.cfi_def_cfa_offset 16
	.cfi_offset 6, -16
	pushq	%rbx
	.seh_pushreg	%rbx
	.cfi_def_cfa_offset 24
	.cfi_offset 3, -24
	subq	$56, %rsp
	.seh_stackalloc	56
	.cfi_def_cfa_offset 80
	leaq	128(%rsp), %rbp
	.seh_setframe	%rbp, 128
	.cfi_def_cfa 6, -48
	.seh_endprologue
	movq	%rcx, -48(%rbp)
	.loc 18 488 49
	movq	-48(%rbp), %rax
	movq	(%rax), %rax
	addq	$264, %rax
	movq	(%rax), %rbx
	.loc 18 488 48
	movq	-48(%rbp), %rax
	movq	(%rax), %rax
	addq	$352, %rax
	movq	(%rax), %rax
	movq	-48(%rbp), %rcx
	call	*%rax
.LVL15:
	movq	%rax, -88(%rbp)
	.loc 18 488 49
	leaq	-88(%rbp), %rax
	movq	%rax, %rdx
	movq	-48(%rbp), %rcx
	call	*%rbx
.LVL16:
	.loc 18 488 52
	addq	$56, %rsp
	popq	%rbx
	.cfi_restore 3
	popq	%rbp
	.cfi_restore 6
	.cfi_def_cfa 7, -40
	ret
	.cfi_endproc
.LFE10177:
	.seh_endproc
	.section	.text$_ZNK12wxWindowBase18GetBestVirtualSizeEv,"x"
	.linkonce discard
	.align 2
	.globl	_ZNK12wxWindowBase18GetBestVirtualSizeEv
	.def	_ZNK12wxWindowBase18GetBestVirtualSizeEv;	.scl	2;	.type	32;	.endef
	.seh_proc	_ZNK12wxWindowBase18GetBestVirtualSizeEv
_ZNK12wxWindowBase18GetBestVirtualSizeEv:
.LFB10186:
	.loc 18 527 20
	.cfi_startproc
	pushq	%rbp
	.seh_pushreg	%rbp
	.cfi_def_cfa_offset 16
	.cfi_offset 6, -16
	pushq	%rbx
	.seh_pushreg	%rbx
	.cfi_def_cfa_offset 24
	.cfi_offset 3, -24
	subq	$72, %rsp
	.seh_stackalloc	72
	.cfi_def_cfa_offset 96
	leaq	128(%rsp), %rbp
	.seh_setframe	%rbp, 128
	.cfi_def_cfa 6, -32
	.seh_endprologue
	movq	%rcx, -32(%rbp)
	.loc 18 529 38
	movq	-32(%rbp), %rcx
	call	_ZNK12wxWindowBase13GetClientSizeEv
	movq	%rax, -80(%rbp)
	.loc 18 530 34
	movq	-32(%rbp), %rcx
	call	_ZNK12wxWindowBase11GetBestSizeEv
	movq	%rax, -88(%rbp)
	.loc 18 532 16
	movl	-84(%rbp), %edx
	movl	-76(%rbp), %eax
	movl	%eax, %ecx
	call	_Z5wxMaxIiiEN24wxImplicitConversionTypeIT_T0_E5valueES1_S2_
	movl	%eax, %ebx
	movl	-88(%rbp), %edx
	movl	-80(%rbp), %eax
	movl	%eax, %ecx
	call	_Z5wxMaxIiiEN24wxImplicitConversionTypeIT_T0_E5valueES1_S2_
	movl	%eax, %edx
	leaq	-72(%rbp), %rax
	movl	%ebx, %r8d
	movq	%rax, %rcx
	call	_ZN6wxSizeC1Eii
	.loc 18 532 77
	movq	-72(%rbp), %rax
	.loc 18 533 5
	addq	$72, %rsp
	popq	%rbx
	.cfi_restore 3
	popq	%rbp
	.cfi_restore 6
	.cfi_def_cfa 7, -56
	ret
	.cfi_endproc
.LFE10186:
	.seh_endproc
	.section	.text$_ZNK12wxWindowBase21GetContentScaleFactorEv,"x"
	.linkonce discard
	.align 2
	.globl	_ZNK12wxWindowBase21GetContentScaleFactorEv
	.def	_ZNK12wxWindowBase21GetContentScaleFactorEv;	.scl	2;	.type	32;	.endef
	.seh_proc	_ZNK12wxWindowBase21GetContentScaleFactorEv
_ZNK12wxWindowBase21GetContentScaleFactorEv:
.LFB10187:
	.loc 18 537 20
	.cfi_startproc
	pushq	%rbp
	.seh_pushreg	%rbp
	.cfi_def_cfa_offset 16
	.cfi_offset 6, -16
	movq	%rsp, %rbp
	.seh_setframe	%rbp, 0
	.cfi_def_cfa_register 6
	.seh_endprologue
	movq	%rcx, 16(%rbp)
	.loc 18 538 14
	movsd	.LC4(%rip), %xmm0
	movq	%xmm0, %rax
	.loc 18 538 19
	movq	%rax, %xmm0
	popq	%rbp
	.cfi_restore 6
	.cfi_def_cfa 7, 8
	ret
	.cfi_endproc
.LFE10187:
	.seh_endproc
	.section	.text$_ZNK12wxWindowBase7IsShownEv,"x"
	.linkonce discard
	.align 2
	.globl	_ZNK12wxWindowBase7IsShownEv
	.def	_ZNK12wxWindowBase7IsShownEv;	.scl	2;	.type	32;	.endef
	.seh_proc	_ZNK12wxWindowBase7IsShownEv
_ZNK12wxWindowBase7IsShownEv:
.LFB10202:
	.loc 18 641 18
	.cfi_startproc
	pushq	%rbp
	.seh_pushreg	%rbp
	.cfi_def_cfa_offset 16
	.cfi_offset 6, -16
	movq	%rsp, %rbp
	.seh_setframe	%rbp, 0
	.cfi_def_cfa_register 6
	.seh_endprologue
	movq	%rcx, 16(%rbp)
	.loc 18 641 43
	movq	16(%rbp), %rax
	movzbl	392(%rax), %eax
	shrb	%al
	andl	$1, %eax
	.loc 18 641 54
	popq	%rbp
	.cfi_restore 6
	.cfi_def_cfa 7, 8
	ret
	.cfi_endproc
.LFE10202:
	.seh_endproc
	.section	.text$_ZNK12wxWindowBase18GetWindowStyleFlagEv,"x"
	.linkonce discard
	.align 2
	.globl	_ZNK12wxWindowBase18GetWindowStyleFlagEv
	.def	_ZNK12wxWindowBase18GetWindowStyleFlagEv;	.scl	2;	.type	32;	.endef
	.seh_proc	_ZNK12wxWindowBase18GetWindowStyleFlagEv
_ZNK12wxWindowBase18GetWindowStyleFlagEv:
.LFB10205:
	.loc 18 665 18
	.cfi_startproc
	pushq	%rbp
	.seh_pushreg	%rbp
	.cfi_def_cfa_offset 16
	.cfi_offset 6, -16
	movq	%rsp, %rbp
	.seh_setframe	%rbp, 0
	.cfi_def_cfa_register 6
	.seh_endprologue
	movq	%rcx, 16(%rbp)
	.loc 18 665 54
	movq	16(%rbp), %rax
	movl	396(%rax), %eax
	.loc 18 665 69
	popq	%rbp
	.cfi_restore 6
	.cfi_def_cfa 7, 8
	ret
	.cfi_endproc
.LFE10205:
	.seh_endproc
	.section	.text$_ZNK12wxWindowBase7HasFlagEi,"x"
	.linkonce discard
	.align 2
	.globl	_ZNK12wxWindowBase7HasFlagEi
	.def	_ZNK12wxWindowBase7HasFlagEi;	.scl	2;	.type	32;	.endef
	.seh_proc	_ZNK12wxWindowBase7HasFlagEi
_ZNK12wxWindowBase7HasFlagEi:
.LFB10208:
	.loc 18 672 10
	.cfi_startproc
	pushq	%rbp
	.seh_pushreg	%rbp
	.cfi_def_cfa_offset 16
	.cfi_offset 6, -16
	movq	%rsp, %rbp
	.seh_setframe	%rbp, 0
	.cfi_def_cfa_register 6
	.seh_endprologue
	movq	%rcx, 16(%rbp)
	movl	%edx, 24(%rbp)
	.loc 18 672 44
	movq	16(%rbp), %rax
	movl	396(%rax), %eax
	.loc 18 672 58
	andl	24(%rbp), %eax
	.loc 18 672 69
	testl	%eax, %eax
	setne	%al
	.loc 18 672 72
	popq	%rbp
	.cfi_restore 6
	.cfi_def_cfa 7, 8
	ret
	.cfi_endproc
.LFE10208:
	.seh_endproc
	.section	.text$_ZNK12wxWindowBase10IsRetainedEv,"x"
	.linkonce discard
	.align 2
	.globl	_ZNK12wxWindowBase10IsRetainedEv
	.def	_ZNK12wxWindowBase10IsRetainedEv;	.scl	2;	.type	32;	.endef
	.seh_proc	_ZNK12wxWindowBase10IsRetainedEv
_ZNK12wxWindowBase10IsRetainedEv:
.LFB10209:
	.loc 18 673 18
	.cfi_startproc
	pushq	%rbp
	.seh_pushreg	%rbp
	.cfi_def_cfa_offset 16
	.cfi_offset 6, -16
	movq	%rsp, %rbp
	.seh_setframe	%rbp, 0
	.cfi_def_cfa_register 6
	subq	$32, %rsp
	.seh_stackalloc	32
	.seh_endprologue
	movq	%rcx, 16(%rbp)
	.loc 18 673 53
	movl	$0, %edx
	movq	16(%rbp), %rcx
	call	_ZNK12wxWindowBase7HasFlagEi
	.loc 18 673 67
	addq	$32, %rsp
	popq	%rbp
	.cfi_restore 6
	.cfi_def_cfa 7, 8
	ret
	.cfi_endproc
.LFE10209:
	.seh_endproc
	.section	.text$_ZN12wxWindowBase15SetThemeEnabledEb,"x"
	.linkonce discard
	.align 2
	.globl	_ZN12wxWindowBase15SetThemeEnabledEb
	.def	_ZN12wxWindowBase15SetThemeEnabledEb;	.scl	2;	.type	32;	.endef
	.seh_proc	_ZN12wxWindowBase15SetThemeEnabledEb
_ZN12wxWindowBase15SetThemeEnabledEb:
.LFB10213:
	.loc 18 694 18
	.cfi_startproc
	pushq	%rbp
	.seh_pushreg	%rbp
	.cfi_def_cfa_offset 16
	.cfi_offset 6, -16
	movq	%rsp, %rbp
	.seh_setframe	%rbp, 0
	.cfi_def_cfa_register 6
	.seh_endprologue
	movq	%rcx, 16(%rbp)
	movl	%edx, %eax
	movb	%al, 24(%rbp)
	.loc 18 694 69
	movq	16(%rbp), %rdx
	movzbl	24(%rbp), %eax
	movb	%al, 456(%rdx)
	.loc 18 694 84
	nop
	popq	%rbp
	.cfi_restore 6
	.cfi_def_cfa 7, 8
	ret
	.cfi_endproc
.LFE10213:
	.seh_endproc
	.section	.text$_ZNK12wxWindowBase15GetThemeEnabledEv,"x"
	.linkonce discard
	.align 2
	.globl	_ZNK12wxWindowBase15GetThemeEnabledEv
	.def	_ZNK12wxWindowBase15GetThemeEnabledEv;	.scl	2;	.type	32;	.endef
	.seh_proc	_ZNK12wxWindowBase15GetThemeEnabledEv
_ZNK12wxWindowBase15GetThemeEnabledEv:
.LFB10214:
	.loc 18 695 18
	.cfi_startproc
	pushq	%rbp
	.seh_pushreg	%rbp
	.cfi_def_cfa_offset 16
	.cfi_offset 6, -16
	movq	%rsp, %rbp
	.seh_setframe	%rbp, 0
	.cfi_def_cfa_register 6
	.seh_endprologue
	movq	%rcx, 16(%rbp)
	.loc 18 695 51
	movq	16(%rbp), %rax
	movzbl	456(%rax), %eax
	.loc 18 695 67
	popq	%rbp
	.cfi_restore 6
	.cfi_def_cfa 7, 8
	ret
	.cfi_endproc
.LFE10214:
	.seh_endproc
	.section	.text$_ZNK12wxWindowBase12AcceptsFocusEv,"x"
	.linkonce discard
	.align 2
	.globl	_ZNK12wxWindowBase12AcceptsFocusEv
	.def	_ZNK12wxWindowBase12AcceptsFocusEv;	.scl	2;	.type	32;	.endef
	.seh_proc	_ZNK12wxWindowBase12AcceptsFocusEv
_ZNK12wxWindowBase12AcceptsFocusEv:
.LFB10216:
	.loc 18 724 18
	.cfi_startproc
	pushq	%rbp
	.seh_pushreg	%rbp
	.cfi_def_cfa_offset 16
	.cfi_offset 6, -16
	movq	%rsp, %rbp
	.seh_setframe	%rbp, 0
	.cfi_def_cfa_register 6
	.seh_endprologue
	movq	%rcx, 16(%rbp)
	.loc 18 724 48
	movl	$1, %eax
	.loc 18 724 54
	popq	%rbp
	.cfi_restore 6
	.cfi_def_cfa 7, 8
	ret
	.cfi_endproc
.LFE10216:
	.seh_endproc
	.section	.text$_ZNK12wxWindowBase23AcceptsFocusRecursivelyEv,"x"
	.linkonce discard
	.align 2
	.globl	_ZNK12wxWindowBase23AcceptsFocusRecursivelyEv
	.def	_ZNK12wxWindowBase23AcceptsFocusRecursivelyEv;	.scl	2;	.type	32;	.endef
	.seh_proc	_ZNK12wxWindowBase23AcceptsFocusRecursivelyEv
_ZNK12wxWindowBase23AcceptsFocusRecursivelyEv:
.LFB10217:
	.loc 18 730 18
	.cfi_startproc
	pushq	%rbp
	.seh_pushreg	%rbp
	.cfi_def_cfa_offset 16
	.cfi_offset 6, -16
	movq	%rsp, %rbp
	.seh_setframe	%rbp, 0
	.cfi_def_cfa_register 6
	subq	$32, %rsp
	.seh_stackalloc	32
	.seh_endprologue
	movq	%rcx, 16(%rbp)
	.loc 18 730 72
	movq	16(%rbp), %rax
	movq	(%rax), %rax
	addq	$576, %rax
	movq	(%rax), %rax
	.loc 18 730 71
	movq	16(%rbp), %rcx
	call	*%rax
.LVL17:
	.loc 18 730 75
	addq	$32, %rsp
	popq	%rbp
	.cfi_restore 6
	.cfi_def_cfa 7, 8
	ret
	.cfi_endproc
.LFE10217:
	.seh_endproc
	.section	.text$_ZNK12wxWindowBase24AcceptsFocusFromKeyboardEv,"x"
	.linkonce discard
	.align 2
	.globl	_ZNK12wxWindowBase24AcceptsFocusFromKeyboardEv
	.def	_ZNK12wxWindowBase24AcceptsFocusFromKeyboardEv;	.scl	2;	.type	32;	.endef
	.seh_proc	_ZNK12wxWindowBase24AcceptsFocusFromKeyboardEv
_ZNK12wxWindowBase24AcceptsFocusFromKeyboardEv:
.LFB10218:
	.loc 18 735 18
	.cfi_startproc
	pushq	%rbp
	.seh_pushreg	%rbp
	.cfi_def_cfa_offset 16
	.cfi_offset 6, -16
	movq	%rsp, %rbp
	.seh_setframe	%rbp, 0
	.cfi_def_cfa_register 6
	subq	$32, %rsp
	.seh_stackalloc	32
	.seh_endprologue
	movq	%rcx, 16(%rbp)
	.loc 18 735 73
	movq	16(%rbp), %rax
	movq	(%rax), %rax
	addq	$576, %rax
	movq	(%rax), %rax
	.loc 18 735 72
	movq	16(%rbp), %rcx
	call	*%rax
.LVL18:
	.loc 18 735 76
	addq	$32, %rsp
	popq	%rbp
	.cfi_restore 6
	.cfi_def_cfa 7, 8
	ret
	.cfi_endproc
.LFE10218:
	.seh_endproc
	.section	.text$_ZNK12wxWindowBase12CanBeFocusedEv,"x"
	.linkonce discard
	.align 2
	.globl	_ZNK12wxWindowBase12CanBeFocusedEv
	.def	_ZNK12wxWindowBase12CanBeFocusedEv;	.scl	2;	.type	32;	.endef
	.seh_proc	_ZNK12wxWindowBase12CanBeFocusedEv
_ZNK12wxWindowBase12CanBeFocusedEv:
.LFB10219:
	.loc 18 744 18
	.cfi_startproc
	pushq	%rbp
	.seh_pushreg	%rbp
	.cfi_def_cfa_offset 16
	.cfi_offset 6, -16
	movq	%rsp, %rbp
	.seh_setframe	%rbp, 0
	.cfi_def_cfa_register 6
	subq	$32, %rsp
	.seh_stackalloc	32
	.seh_endprologue
	movq	%rcx, 16(%rbp)
	.loc 18 744 56
	movq	16(%rbp), %rax
	movq	(%rax), %rax
	addq	$480, %rax
	movq	(%rax), %rax
	.loc 18 744 55
	movq	16(%rbp), %rcx
	call	*%rax
.LVL19:
	.loc 18 744 58
	testb	%al, %al
	je	.L178
	.loc 18 744 70 discriminator 1
	movq	16(%rbp), %rcx
	call	_ZNK12wxWindowBase9IsEnabledEv
	.loc 18 744 58 discriminator 1
	testb	%al, %al
	je	.L178
	.loc 18 744 58 is_stmt 0 discriminator 3
	movl	$1, %eax
	jmp	.L179
.L178:
	.loc 18 744 58 discriminator 4
	movl	$0, %eax
.L179:
	.loc 18 744 74 is_stmt 1 discriminator 6
	addq	$32, %rsp
	popq	%rbp
	.cfi_restore 6
	.cfi_def_cfa 7, 8
	ret
	.cfi_endproc
.LFE10219:
	.seh_endproc
	.section	.text$_ZN12wxWindowBase11SetCanFocusEb,"x"
	.linkonce discard
	.align 2
	.globl	_ZN12wxWindowBase11SetCanFocusEb
	.def	_ZN12wxWindowBase11SetCanFocusEb;	.scl	2;	.type	32;	.endef
	.seh_proc	_ZN12wxWindowBase11SetCanFocusEb
_ZN12wxWindowBase11SetCanFocusEb:
.LFB10223:
	.loc 18 762 18
	.cfi_startproc
	pushq	%rbp
	.seh_pushreg	%rbp
	.cfi_def_cfa_offset 16
	.cfi_offset 6, -16
	movq	%rsp, %rbp
	.seh_setframe	%rbp, 0
	.cfi_def_cfa_register 6
	.seh_endprologue
	movq	%rcx, 16(%rbp)
	movl	%edx, %eax
	movb	%al, 24(%rbp)
	.loc 18 762 39
	nop
	popq	%rbp
	.cfi_restore 6
	.cfi_def_cfa 7, 8
	ret
	.cfi_endproc
.LFE10223:
	.seh_endproc
	.section	.text$_ZNK12wxWindowBase17IsClientAreaChildEPK8wxWindow,"x"
	.linkonce discard
	.align 2
	.globl	_ZNK12wxWindowBase17IsClientAreaChildEPK8wxWindow
	.def	_ZNK12wxWindowBase17IsClientAreaChildEPK8wxWindow;	.scl	2;	.type	32;	.endef
	.seh_proc	_ZNK12wxWindowBase17IsClientAreaChildEPK8wxWindow
_ZNK12wxWindowBase17IsClientAreaChildEPK8wxWindow:
.LFB10234:
	.loc 18 824 18
	.cfi_startproc
	pushq	%rbp
	.seh_pushreg	%rbp
	.cfi_def_cfa_offset 16
	.cfi_offset 6, -16
	movq	%rsp, %rbp
	.seh_setframe	%rbp, 0
	.cfi_def_cfa_register 6
	.seh_endprologue
	movq	%rcx, 16(%rbp)
	movq	%rdx, 24(%rbp)
	.loc 18 825 18
	movl	$1, %eax
	.loc 18 825 24
	popq	%rbp
	.cfi_restore 6
	.cfi_def_cfa 7, 8
	ret
	.cfi_endproc
.LFE10234:
	.seh_endproc
	.section	.text$_ZN12wxWindowBase12GetValidatorEv,"x"
	.linkonce discard
	.align 2
	.globl	_ZN12wxWindowBase12GetValidatorEv
	.def	_ZN12wxWindowBase12GetValidatorEv;	.scl	2;	.type	32;	.endef
	.seh_proc	_ZN12wxWindowBase12GetValidatorEv
_ZN12wxWindowBase12GetValidatorEv:
.LFB10238:
	.loc 18 924 26
	.cfi_startproc
	pushq	%rbp
	.seh_pushreg	%rbp
	.cfi_def_cfa_offset 16
	.cfi_offset 6, -16
	movq	%rsp, %rbp
	.seh_setframe	%rbp, 0
	.cfi_def_cfa_register 6
	.seh_endprologue
	movq	%rcx, 16(%rbp)
	.loc 18 924 50
	movq	16(%rbp), %rax
	movq	200(%rax), %rax
	.loc 18 924 69
	popq	%rbp
	.cfi_restore 6
	.cfi_def_cfa 7, 8
	ret
	.cfi_endproc
.LFE10238:
	.seh_endproc
	.section	.text$_ZN18wxAcceleratorTableaSERKS_,"x"
	.linkonce discard
	.align 2
	.globl	_ZN18wxAcceleratorTableaSERKS_
	.def	_ZN18wxAcceleratorTableaSERKS_;	.scl	2;	.type	32;	.endef
	.seh_proc	_ZN18wxAcceleratorTableaSERKS_
_ZN18wxAcceleratorTableaSERKS_:
.LFB10240:
	.file 19 "../wxMSW-3.0.5_gcc810_x64_Dev/include/wx/msw/accel.h"
	.loc 19 20 7
	.cfi_startproc
	pushq	%rbp
	.seh_pushreg	%rbp
	.cfi_def_cfa_offset 16
	.cfi_offset 6, -16
	movq	%rsp, %rbp
	.seh_setframe	%rbp, 0
	.cfi_def_cfa_register 6
	subq	$32, %rsp
	.seh_stackalloc	32
	.seh_endprologue
	movq	%rcx, 16(%rbp)
	movq	%rdx, 24(%rbp)
	.loc 19 20 7
	movq	16(%rbp), %rax
	movq	24(%rbp), %rdx
	movq	%rax, %rcx
	call	_ZN8wxObjectaSERKS_
	movq	16(%rbp), %rax
	addq	$32, %rsp
	popq	%rbp
	.cfi_restore 6
	.cfi_def_cfa 7, 8
	ret
	.cfi_endproc
.LFE10240:
	.seh_endproc
	.section	.text$_ZN12wxWindowBase19SetAcceleratorTableERK18wxAcceleratorTable,"x"
	.linkonce discard
	.align 2
	.globl	_ZN12wxWindowBase19SetAcceleratorTableERK18wxAcceleratorTable
	.def	_ZN12wxWindowBase19SetAcceleratorTableERK18wxAcceleratorTable;	.scl	2;	.type	32;	.endef
	.seh_proc	_ZN12wxWindowBase19SetAcceleratorTableERK18wxAcceleratorTable
_ZN12wxWindowBase19SetAcceleratorTableERK18wxAcceleratorTable:
.LFB10239:
	.loc 18 943 18
	.cfi_startproc
	pushq	%rbp
	.seh_pushreg	%rbp
	.cfi_def_cfa_offset 16
	.cfi_offset 6, -16
	movq	%rsp, %rbp
	.seh_setframe	%rbp, 0
	.cfi_def_cfa_register 6
	subq	$32, %rsp
	.seh_stackalloc	32
	.seh_endprologue
	movq	%rcx, 16(%rbp)
	movq	%rdx, 24(%rbp)
	.loc 18 944 32
	movq	16(%rbp), %rax
	addq	$336, %rax
	movq	24(%rbp), %rdx
	movq	%rax, %rcx
	call	_ZN18wxAcceleratorTableaSERKS_
	.loc 18 944 39
	nop
	addq	$32, %rsp
	popq	%rbp
	.cfi_restore 6
	.cfi_def_cfa 7, 8
	ret
	.cfi_endproc
.LFE10239:
	.seh_endproc
	.section	.text$_ZNK12wxWindowBase10HasCaptureEv,"x"
	.linkonce discard
	.align 2
	.globl	_ZNK12wxWindowBase10HasCaptureEv
	.def	_ZNK12wxWindowBase10HasCaptureEv;	.scl	2;	.type	32;	.endef
	.seh_proc	_ZNK12wxWindowBase10HasCaptureEv
_ZNK12wxWindowBase10HasCaptureEv:
.LFB10244:
	.loc 18 995 18
	.cfi_startproc
	pushq	%rbp
	.seh_pushreg	%rbp
	.cfi_def_cfa_offset 16
	.cfi_offset 6, -16
	movq	%rsp, %rbp
	.seh_setframe	%rbp, 0
	.cfi_def_cfa_register 6
	subq	$32, %rsp
	.seh_stackalloc	32
	.seh_endprologue
	movq	%rcx, 16(%rbp)
	.loc 18 996 48
	call	_ZN12wxWindowBase10GetCaptureEv
	.loc 18 996 49
	cmpq	%rax, 16(%rbp)
	sete	%al
	.loc 18 996 52
	addq	$32, %rsp
	popq	%rbp
	.cfi_restore 6
	.cfi_def_cfa 7, 8
	ret
	.cfi_endproc
.LFE10244:
	.seh_endproc
	.section	.text$_ZN12wxWindowBase9PrepareDCER4wxDC,"x"
	.linkonce discard
	.align 2
	.globl	_ZN12wxWindowBase9PrepareDCER4wxDC
	.def	_ZN12wxWindowBase9PrepareDCER4wxDC;	.scl	2;	.type	32;	.endef
	.seh_proc	_ZN12wxWindowBase9PrepareDCER4wxDC
_ZN12wxWindowBase9PrepareDCER4wxDC:
.LFB10248:
	.loc 18 1028 18
	.cfi_startproc
	pushq	%rbp
	.seh_pushreg	%rbp
	.cfi_def_cfa_offset 16
	.cfi_offset 6, -16
	movq	%rsp, %rbp
	.seh_setframe	%rbp, 0
	.cfi_def_cfa_register 6
	.seh_endprologue
	movq	%rcx, 16(%rbp)
	movq	%rdx, 24(%rbp)
	.loc 18 1028 40
	nop
	popq	%rbp
	.cfi_restore 6
	.cfi_def_cfa 7, 8
	ret
	.cfi_endproc
.LFE10248:
	.seh_endproc
	.section	.text$_ZNK12wxWindowBase20GetDefaultAttributesEv,"x"
	.linkonce discard
	.align 2
	.globl	_ZNK12wxWindowBase20GetDefaultAttributesEv
	.def	_ZNK12wxWindowBase20GetDefaultAttributesEv;	.scl	2;	.type	32;	.endef
	.seh_proc	_ZNK12wxWindowBase20GetDefaultAttributesEv
_ZNK12wxWindowBase20GetDefaultAttributesEv:
.LFB10256:
	.loc 18 1065 32
	.cfi_startproc
	pushq	%rbp
	.seh_pushreg	%rbp
	.cfi_def_cfa_offset 16
	.cfi_offset 6, -16
	movq	%rsp, %rbp
	.seh_setframe	%rbp, 0
	.cfi_def_cfa_register 6
	subq	$32, %rsp
	.seh_stackalloc	32
	.seh_endprologue
	movq	%rcx, 16(%rbp)
	movq	%rdx, 24(%rbp)
	.loc 18 1067 60
	movq	24(%rbp), %rax
	movq	%rax, %rcx
	call	_ZNK12wxWindowBase16GetWindowVariantEv
	movl	%eax, %edx
	movq	16(%rbp), %rax
	movq	%rax, %rcx
	call	_ZN12wxWindowBase25GetClassDefaultAttributesE15wxWindowVariant
	.loc 18 1068 5
	movq	16(%rbp), %rax
	addq	$32, %rsp
	popq	%rbp
	.cfi_restore 6
	.cfi_def_cfa 7, 8
	ret
	.cfi_endproc
.LFE10256:
	.seh_endproc
	.section	.text$_ZNK12wxWindowBase24InheritsBackgroundColourEv,"x"
	.linkonce discard
	.align 2
	.globl	_ZNK12wxWindowBase24InheritsBackgroundColourEv
	.def	_ZNK12wxWindowBase24InheritsBackgroundColourEv;	.scl	2;	.type	32;	.endef
	.seh_proc	_ZNK12wxWindowBase24InheritsBackgroundColourEv
_ZNK12wxWindowBase24InheritsBackgroundColourEv:
.LFB10270:
	.loc 18 1084 10
	.cfi_startproc
	pushq	%rbp
	.seh_pushreg	%rbp
	.cfi_def_cfa_offset 16
	.cfi_offset 6, -16
	movq	%rsp, %rbp
	.seh_setframe	%rbp, 0
	.cfi_def_cfa_register 6
	.seh_endprologue
	movq	%rcx, 16(%rbp)
	.loc 18 1086 16
	movq	16(%rbp), %rax
	movzbl	392(%rax), %eax
	shrb	$7, %al
	.loc 18 1087 5
	popq	%rbp
	.cfi_restore 6
	.cfi_def_cfa 7, 8
	ret
	.cfi_endproc
.LFE10270:
	.seh_endproc
	.section	.text$_ZN12wxWindowBase24HasTransparentBackgroundEv,"x"
	.linkonce discard
	.align 2
	.globl	_ZN12wxWindowBase24HasTransparentBackgroundEv
	.def	_ZN12wxWindowBase24HasTransparentBackgroundEv;	.scl	2;	.type	32;	.endef
	.seh_proc	_ZN12wxWindowBase24HasTransparentBackgroundEv
_ZN12wxWindowBase24HasTransparentBackgroundEv:
.LFB10274:
	.loc 18 1109 18
	.cfi_startproc
	pushq	%rbp
	.seh_pushreg	%rbp
	.cfi_def_cfa_offset 16
	.cfi_offset 6, -16
	movq	%rsp, %rbp
	.seh_setframe	%rbp, 0
	.cfi_def_cfa_register 6
	.seh_endprologue
	movq	%rcx, 16(%rbp)
	.loc 18 1109 54
	movl	$0, %eax
	.loc 18 1109 61
	popq	%rbp
	.cfi_restore 6
	.cfi_def_cfa 7, 8
	ret
	.cfi_endproc
.LFE10274:
	.seh_endproc
	.section	.text$_ZNK12wxWindowBase16HasMultiplePagesEv,"x"
	.linkonce discard
	.align 2
	.globl	_ZNK12wxWindowBase16HasMultiplePagesEv
	.def	_ZNK12wxWindowBase16HasMultiplePagesEv;	.scl	2;	.type	32;	.endef
	.seh_proc	_ZNK12wxWindowBase16HasMultiplePagesEv
_ZNK12wxWindowBase16HasMultiplePagesEv:
.LFB10290:
	.loc 18 1229 18
	.cfi_startproc
	pushq	%rbp
	.seh_pushreg	%rbp
	.cfi_def_cfa_offset 16
	.cfi_offset 6, -16
	movq	%rsp, %rbp
	.seh_setframe	%rbp, 0
	.cfi_def_cfa_register 6
	.seh_endprologue
	movq	%rcx, 16(%rbp)
	.loc 18 1229 52
	movl	$0, %eax
	.loc 18 1229 59
	popq	%rbp
	.cfi_restore 6
	.cfi_def_cfa 7, 8
	ret
	.cfi_endproc
.LFE10290:
	.seh_endproc
	.section	.text$_ZN12wxWindowBase20AlwaysShowScrollbarsEbb,"x"
	.linkonce discard
	.align 2
	.globl	_ZN12wxWindowBase20AlwaysShowScrollbarsEbb
	.def	_ZN12wxWindowBase20AlwaysShowScrollbarsEbb;	.scl	2;	.type	32;	.endef
	.seh_proc	_ZN12wxWindowBase20AlwaysShowScrollbarsEbb
_ZN12wxWindowBase20AlwaysShowScrollbarsEbb:
.LFB10297:
	.loc 18 1270 18
	.cfi_startproc
	pushq	%rbp
	.seh_pushreg	%rbp
	.cfi_def_cfa_offset 16
	.cfi_offset 6, -16
	movq	%rsp, %rbp
	.seh_setframe	%rbp, 0
	.cfi_def_cfa_register 6
	.seh_endprologue
	movq	%rcx, 16(%rbp)
	movl	%edx, %eax
	movl	%r8d, %edx
	movb	%al, 24(%rbp)
	movl	%edx, %eax
	movb	%al, 32(%rbp)
	.loc 18 1273 5
	nop
	popq	%rbp
	.cfi_restore 6
	.cfi_def_cfa 7, 8
	ret
	.cfi_endproc
.LFE10297:
	.seh_endproc
	.section	.text$_ZNK12wxWindowBase22IsScrollbarAlwaysShownEi,"x"
	.linkonce discard
	.align 2
	.globl	_ZNK12wxWindowBase22IsScrollbarAlwaysShownEi
	.def	_ZNK12wxWindowBase22IsScrollbarAlwaysShownEi;	.scl	2;	.type	32;	.endef
	.seh_proc	_ZNK12wxWindowBase22IsScrollbarAlwaysShownEi
_ZNK12wxWindowBase22IsScrollbarAlwaysShownEi:
.LFB10298:
	.loc 18 1277 18
	.cfi_startproc
	pushq	%rbp
	.seh_pushreg	%rbp
	.cfi_def_cfa_offset 16
	.cfi_offset 6, -16
	movq	%rsp, %rbp
	.seh_setframe	%rbp, 0
	.cfi_def_cfa_register 6
	.seh_endprologue
	movq	%rcx, 16(%rbp)
	movl	%edx, 24(%rbp)
	.loc 18 1279 16
	movl	$0, %eax
	.loc 18 1280 5
	popq	%rbp
	.cfi_restore 6
	.cfi_def_cfa 7, 8
	ret
	.cfi_endproc
.LFE10298:
	.seh_endproc
	.section	.text$_ZNK12wxWindowBase10GetToolTipEv,"x"
	.linkonce discard
	.align 2
	.globl	_ZNK12wxWindowBase10GetToolTipEv
	.def	_ZNK12wxWindowBase10GetToolTipEv;	.scl	2;	.type	32;	.endef
	.seh_proc	_ZNK12wxWindowBase10GetToolTipEv
_ZNK12wxWindowBase10GetToolTipEv:
.LFB10302:
	.loc 18 1327 16
	.cfi_startproc
	pushq	%rbp
	.seh_pushreg	%rbp
	.cfi_def_cfa_offset 16
	.cfi_offset 6, -16
	movq	%rsp, %rbp
	.seh_setframe	%rbp, 0
	.cfi_def_cfa_register 6
	.seh_endprologue
	movq	%rcx, 16(%rbp)
	.loc 18 1327 44
	movq	16(%rbp), %rax
	movq	352(%rax), %rax
	.loc 18 1327 55
	popq	%rbp
	.cfi_restore 6
	.cfi_def_cfa 7, 8
	ret
	.cfi_endproc
.LFE10302:
	.seh_endproc
	.section	.text$_ZNK12wxWindowBase13GetDropTargetEv,"x"
	.linkonce discard
	.align 2
	.globl	_ZNK12wxWindowBase13GetDropTargetEv
	.def	_ZNK12wxWindowBase13GetDropTargetEv;	.scl	2;	.type	32;	.endef
	.seh_proc	_ZNK12wxWindowBase13GetDropTargetEv
_ZNK12wxWindowBase13GetDropTargetEv:
.LFB10303:
	.loc 18 1351 27
	.cfi_startproc
	pushq	%rbp
	.seh_pushreg	%rbp
	.cfi_def_cfa_offset 16
	.cfi_offset 6, -16
	movq	%rsp, %rbp
	.seh_setframe	%rbp, 0
	.cfi_def_cfa_register 6
	.seh_endprologue
	movq	%rcx, 16(%rbp)
	.loc 18 1351 58
	movq	16(%rbp), %rax
	movq	208(%rax), %rax
	.loc 18 1351 72
	popq	%rbp
	.cfi_restore 6
	.cfi_def_cfa 7, 8
	ret
	.cfi_endproc
.LFE10303:
	.seh_endproc
	.section	.text$_ZN12wxWindowBase14SetTransparentEh,"x"
	.linkonce discard
	.align 2
	.globl	_ZN12wxWindowBase14SetTransparentEh
	.def	_ZN12wxWindowBase14SetTransparentEh;	.scl	2;	.type	32;	.endef
	.seh_proc	_ZN12wxWindowBase14SetTransparentEh
_ZN12wxWindowBase14SetTransparentEh:
.LFB10310:
	.loc 18 1432 18
	.cfi_startproc
	pushq	%rbp
	.seh_pushreg	%rbp
	.cfi_def_cfa_offset 16
	.cfi_offset 6, -16
	movq	%rsp, %rbp
	.seh_setframe	%rbp, 0
	.cfi_def_cfa_register 6
	.seh_endprologue
	movq	%rcx, 16(%rbp)
	movl	%edx, %eax
	movb	%al, 24(%rbp)
	.loc 18 1432 51
	movl	$0, %eax
	.loc 18 1432 58
	popq	%rbp
	.cfi_restore 6
	.cfi_def_cfa 7, 8
	ret
	.cfi_endproc
.LFE10310:
	.seh_endproc
	.section	.text$_ZN12wxWindowBase17CanSetTransparentEv,"x"
	.linkonce discard
	.align 2
	.globl	_ZN12wxWindowBase17CanSetTransparentEv
	.def	_ZN12wxWindowBase17CanSetTransparentEv;	.scl	2;	.type	32;	.endef
	.seh_proc	_ZN12wxWindowBase17CanSetTransparentEv
_ZN12wxWindowBase17CanSetTransparentEv:
.LFB10311:
	.loc 18 1433 18
	.cfi_startproc
	pushq	%rbp
	.seh_pushreg	%rbp
	.cfi_def_cfa_offset 16
	.cfi_offset 6, -16
	movq	%rsp, %rbp
	.seh_setframe	%rbp, 0
	.cfi_def_cfa_register 6
	.seh_endprologue
	movq	%rcx, 16(%rbp)
	.loc 18 1433 47
	movl	$0, %eax
	.loc 18 1433 54
	popq	%rbp
	.cfi_restore 6
	.cfi_def_cfa 7, 8
	ret
	.cfi_endproc
.LFE10311:
	.seh_endproc
	.section	.text$_ZNK12wxWindowBase20ShouldInheritColoursEv,"x"
	.linkonce discard
	.align 2
	.globl	_ZNK12wxWindowBase20ShouldInheritColoursEv
	.def	_ZNK12wxWindowBase20ShouldInheritColoursEv;	.scl	2;	.type	32;	.endef
	.seh_proc	_ZNK12wxWindowBase20ShouldInheritColoursEv
_ZNK12wxWindowBase20ShouldInheritColoursEv:
.LFB10322:
	.loc 18 1490 18
	.cfi_startproc
	pushq	%rbp
	.seh_pushreg	%rbp
	.cfi_def_cfa_offset 16
	.cfi_offset 6, -16
	movq	%rsp, %rbp
	.seh_setframe	%rbp, 0
	.cfi_def_cfa_register 6
	.seh_endprologue
	movq	%rcx, 16(%rbp)
	.loc 18 1490 56
	movl	$0, %eax
	.loc 18 1490 63
	popq	%rbp
	.cfi_restore 6
	.cfi_def_cfa 7, 8
	ret
	.cfi_endproc
.LFE10322:
	.seh_endproc
	.section	.text$_ZNK12wxWindowBase22CanBeOutsideClientAreaEv,"x"
	.linkonce discard
	.align 2
	.globl	_ZNK12wxWindowBase22CanBeOutsideClientAreaEv
	.def	_ZNK12wxWindowBase22CanBeOutsideClientAreaEv;	.scl	2;	.type	32;	.endef
	.seh_proc	_ZNK12wxWindowBase22CanBeOutsideClientAreaEv
_ZNK12wxWindowBase22CanBeOutsideClientAreaEv:
.LFB10323:
	.loc 18 1494 18
	.cfi_startproc
	pushq	%rbp
	.seh_pushreg	%rbp
	.cfi_def_cfa_offset 16
	.cfi_offset 6, -16
	movq	%rsp, %rbp
	.seh_setframe	%rbp, 0
	.cfi_def_cfa_register 6
	.seh_endprologue
	movq	%rcx, 16(%rbp)
	.loc 18 1494 58
	movl	$0, %eax
	.loc 18 1494 65
	popq	%rbp
	.cfi_restore 6
	.cfi_def_cfa 7, 8
	ret
	.cfi_endproc
.LFE10323:
	.seh_endproc
	.section	.text$_ZNK12wxWindowBase19CanApplyThemeBorderEv,"x"
	.linkonce discard
	.align 2
	.globl	_ZNK12wxWindowBase19CanApplyThemeBorderEv
	.def	_ZNK12wxWindowBase19CanApplyThemeBorderEv;	.scl	2;	.type	32;	.endef
	.seh_proc	_ZNK12wxWindowBase19CanApplyThemeBorderEv
_ZNK12wxWindowBase19CanApplyThemeBorderEv:
.LFB10324:
	.loc 18 1498 18
	.cfi_startproc
	pushq	%rbp
	.seh_pushreg	%rbp
	.cfi_def_cfa_offset 16
	.cfi_offset 6, -16
	movq	%rsp, %rbp
	.seh_setframe	%rbp, 0
	.cfi_def_cfa_register 6
	.seh_endprologue
	movq	%rcx, 16(%rbp)
	.loc 18 1498 55
	movl	$1, %eax
	.loc 18 1498 61
	popq	%rbp
	.cfi_restore 6
	.cfi_def_cfa 7, 8
	ret
	.cfi_endproc
.LFE10324:
	.seh_endproc
	.section	.text$_ZN12wxWindowBase31GetMainWindowOfCompositeControlEv,"x"
	.linkonce discard
	.align 2
	.globl	_ZN12wxWindowBase31GetMainWindowOfCompositeControlEv
	.def	_ZN12wxWindowBase31GetMainWindowOfCompositeControlEv;	.scl	2;	.type	32;	.endef
	.seh_proc	_ZN12wxWindowBase31GetMainWindowOfCompositeControlEv
_ZN12wxWindowBase31GetMainWindowOfCompositeControlEv:
.LFB10325:
	.loc 18 1503 23
	.cfi_startproc
	pushq	%rbp
	.seh_pushreg	%rbp
	.cfi_def_cfa_offset 16
	.cfi_offset 6, -16
	movq	%rsp, %rbp
	.seh_setframe	%rbp, 0
	.cfi_def_cfa_register 6
	.seh_endprologue
	movq	%rcx, 16(%rbp)
	.loc 18 1504 29
	movq	16(%rbp), %rax
	.loc 18 1504 35
	popq	%rbp
	.cfi_restore 6
	.cfi_def_cfa 7, 8
	ret
	.cfi_endproc
.LFE10325:
	.seh_endproc
	.section	.text$_ZNK12wxWindowBase21IsTopNavigationDomainEv,"x"
	.linkonce discard
	.align 2
	.globl	_ZNK12wxWindowBase21IsTopNavigationDomainEv
	.def	_ZNK12wxWindowBase21IsTopNavigationDomainEv;	.scl	2;	.type	32;	.endef
	.seh_proc	_ZNK12wxWindowBase21IsTopNavigationDomainEv
_ZNK12wxWindowBase21IsTopNavigationDomainEv:
.LFB10326:
	.loc 18 1512 18
	.cfi_startproc
	pushq	%rbp
	.seh_pushreg	%rbp
	.cfi_def_cfa_offset 16
	.cfi_offset 6, -16
	movq	%rsp, %rbp
	.seh_setframe	%rbp, 0
	.cfi_def_cfa_register 6
	.seh_endprologue
	movq	%rcx, 16(%rbp)
	.loc 18 1512 57
	movl	$0, %eax
	.loc 18 1512 64
	popq	%rbp
	.cfi_restore 6
	.cfi_def_cfa 7, 8
	ret
	.cfi_endproc
.LFE10326:
	.seh_endproc
	.section	.text$_ZNK12wxWindowBase19DoGetBestClientSizeEv,"x"
	.linkonce discard
	.align 2
	.globl	_ZNK12wxWindowBase19DoGetBestClientSizeEv
	.def	_ZNK12wxWindowBase19DoGetBestClientSizeEv;	.scl	2;	.type	32;	.endef
	.seh_proc	_ZNK12wxWindowBase19DoGetBestClientSizeEv
_ZNK12wxWindowBase19DoGetBestClientSizeEv:
.LFB10331:
	.loc 18 1746 20
	.cfi_startproc
	pushq	%rbp
	.seh_pushreg	%rbp
	.cfi_def_cfa_offset 16
	.cfi_offset 6, -16
	movq	%rsp, %rbp
	.seh_setframe	%rbp, 0
	.cfi_def_cfa_register 6
	.seh_endprologue
	movq	%rcx, 16(%rbp)
	.loc 18 1746 57
	movq	.refptr.wxDefaultSize(%rip), %rax
	movq	(%rax), %rax
	.loc 18 1746 72
	popq	%rbp
	.cfi_restore 6
	.cfi_def_cfa 7, 8
	ret
	.cfi_endproc
.LFE10331:
	.seh_endproc
	.section	.text$_ZNK12wxWindowBase21DoGetBestClientHeightEi,"x"
	.linkonce discard
	.align 2
	.globl	_ZNK12wxWindowBase21DoGetBestClientHeightEi
	.def	_ZNK12wxWindowBase21DoGetBestClientHeightEi;	.scl	2;	.type	32;	.endef
	.seh_proc	_ZNK12wxWindowBase21DoGetBestClientHeightEi
_ZNK12wxWindowBase21DoGetBestClientHeightEi:
.LFB10332:
	.loc 18 1751 17
	.cfi_startproc
	pushq	%rbp
	.seh_pushreg	%rbp
	.cfi_def_cfa_offset 16
	.cfi_offset 6, -16
	movq	%rsp, %rbp
	.seh_setframe	%rbp, 0
	.cfi_def_cfa_register 6
	.seh_endprologue
	movq	%rcx, 16(%rbp)
	movl	%edx, 24(%rbp)
	.loc 18 1752 18
	movl	$-1, %eax
	.loc 18 1752 34
	popq	%rbp
	.cfi_restore 6
	.cfi_def_cfa 7, 8
	ret
	.cfi_endproc
.LFE10332:
	.seh_endproc
	.section	.text$_ZNK12wxWindowBase20DoGetBestClientWidthEi,"x"
	.linkonce discard
	.align 2
	.globl	_ZNK12wxWindowBase20DoGetBestClientWidthEi
	.def	_ZNK12wxWindowBase20DoGetBestClientWidthEi;	.scl	2;	.type	32;	.endef
	.seh_proc	_ZNK12wxWindowBase20DoGetBestClientWidthEi
_ZNK12wxWindowBase20DoGetBestClientWidthEi:
.LFB10333:
	.loc 18 1753 17
	.cfi_startproc
	pushq	%rbp
	.seh_pushreg	%rbp
	.cfi_def_cfa_offset 16
	.cfi_offset 6, -16
	movq	%rsp, %rbp
	.seh_setframe	%rbp, 0
	.cfi_def_cfa_register 6
	.seh_endprologue
	movq	%rcx, 16(%rbp)
	movl	%edx, 24(%rbp)
	.loc 18 1754 18
	movl	$-1, %eax
	.loc 18 1754 34
	popq	%rbp
	.cfi_restore 6
	.cfi_def_cfa 7, 8
	ret
	.cfi_endproc
.LFE10333:
	.seh_endproc
	.section	.text$_ZN12wxWindowBase18SetInitialBestSizeERK6wxSize,"x"
	.linkonce discard
	.align 2
	.globl	_ZN12wxWindowBase18SetInitialBestSizeERK6wxSize
	.def	_ZN12wxWindowBase18SetInitialBestSizeERK6wxSize;	.scl	2;	.type	32;	.endef
	.seh_proc	_ZN12wxWindowBase18SetInitialBestSizeERK6wxSize
_ZN12wxWindowBase18SetInitialBestSizeERK6wxSize:
.LFB10339:
	.loc 18 1873 1
	.cfi_startproc
	pushq	%rbp
	.seh_pushreg	%rbp
	.cfi_def_cfa_offset 16
	.cfi_offset 6, -16
	movq	%rsp, %rbp
	.seh_setframe	%rbp, 0
	.cfi_def_cfa_register 6
	subq	$32, %rsp
	.seh_stackalloc	32
	.seh_endprologue
	movq	%rcx, 16(%rbp)
	movq	%rdx, 24(%rbp)
	.loc 18 1874 19
	movq	24(%rbp), %rax
	movq	%rax, %rdx
	movq	16(%rbp), %rcx
	call	_ZN12wxWindowBase14SetInitialSizeERK6wxSize
	.loc 18 1875 1
	nop
	addq	$32, %rsp
	popq	%rbp
	.cfi_restore 6
	.cfi_def_cfa 7, 8
	ret
	.cfi_endproc
.LFE10339:
	.seh_endproc
	.section	.text$_ZN8wxWindowC2Ev,"x"
	.linkonce discard
	.align 2
	.globl	_ZN8wxWindowC2Ev
	.def	_ZN8wxWindowC2Ev;	.scl	2;	.type	32;	.endef
	.seh_proc	_ZN8wxWindowC2Ev
_ZN8wxWindowC2Ev:
.LFB10341:
	.file 20 "../wxMSW-3.0.5_gcc810_x64_Dev/include/wx/msw/window.h"
	.loc 20 40 5
	.cfi_startproc
	pushq	%rbp
	.seh_pushreg	%rbp
	.cfi_def_cfa_offset 16
	.cfi_offset 6, -16
	pushq	%rbx
	.seh_pushreg	%rbx
	.cfi_def_cfa_offset 24
	.cfi_offset 3, -24
	subq	$40, %rsp
	.seh_stackalloc	40
	.cfi_def_cfa_offset 64
	leaq	128(%rsp), %rbp
	.seh_setframe	%rbp, 128
	.cfi_def_cfa 6, -64
	.seh_endprologue
	movq	%rcx, -64(%rbp)
.LBB47:
	.loc 20 40 16
	movq	-64(%rbp), %rax
	movq	%rax, %rcx
.LEHB17:
	call	_ZN12wxWindowBaseC2Ev
.LEHE17:
	movq	.refptr._ZTV8wxWindow(%rip), %rax
	leaq	16(%rax), %rdx
	movq	-64(%rbp), %rax
	movq	%rdx, (%rax)
	movq	-64(%rbp), %rax
	addq	$560, %rax
	movq	%rax, %rcx
	call	_ZN7wxPointC1Ev
	movq	-64(%rbp), %rax
	addq	$568, %rax
	movq	%rax, %rcx
	call	_ZN6wxSizeC1Ev
	.loc 20 40 22
	movq	-64(%rbp), %rcx
.LEHB18:
	call	_ZN8wxWindow4InitEv
.LEHE18:
.LBE47:
	.loc 20 40 26
	jmp	.L231
.L230:
	movq	%rax, %rbx
.LBB48:
	.loc 20 40 16
	movq	-64(%rbp), %rax
	movq	%rax, %rcx
	call	_ZN12wxWindowBaseD2Ev
	movq	%rbx, %rax
	movq	%rax, %rcx
.LEHB19:
	call	_Unwind_Resume
	nop
.LEHE19:
.L231:
.LBE48:
	.loc 20 40 26
	addq	$40, %rsp
	popq	%rbx
	.cfi_restore 3
	popq	%rbp
	.cfi_restore 6
	.cfi_def_cfa 7, -24
	ret
	.cfi_endproc
.LFE10341:
	.seh_handler	__gxx_personality_seh0, @unwind, @except
	.seh_handlerdata
.LLSDA10341:
	.byte	0xff
	.byte	0xff
	.byte	0x1
	.uleb128 .LLSDACSE10341-.LLSDACSB10341
.LLSDACSB10341:
	.uleb128 .LEHB17-.LFB10341
	.uleb128 .LEHE17-.LEHB17
	.uleb128 0
	.uleb128 0
	.uleb128 .LEHB18-.LFB10341
	.uleb128 .LEHE18-.LEHB18
	.uleb128 .L230-.LFB10341
	.uleb128 0
	.uleb128 .LEHB19-.LFB10341
	.uleb128 .LEHE19-.LEHB19
	.uleb128 0
	.uleb128 0
.LLSDACSE10341:
	.section	.text$_ZN8wxWindowC2Ev,"x"
	.linkonce discard
	.seh_endproc
	.section	.text$_ZN8wxWindow14ShowWithEffectE12wxShowEffectj,"x"
	.linkonce discard
	.align 2
	.globl	_ZN8wxWindow14ShowWithEffectE12wxShowEffectj
	.def	_ZN8wxWindow14ShowWithEffectE12wxShowEffectj;	.scl	2;	.type	32;	.endef
	.seh_proc	_ZN8wxWindow14ShowWithEffectE12wxShowEffectj
_ZN8wxWindow14ShowWithEffectE12wxShowEffectj:
.LFB10346:
	.loc 20 73 18
	.cfi_startproc
	pushq	%rbp
	.seh_pushreg	%rbp
	.cfi_def_cfa_offset 16
	.cfi_offset 6, -16
	movq	%rsp, %rbp
	.seh_setframe	%rbp, 0
	.cfi_def_cfa_register 6
	subq	$32, %rsp
	.seh_stackalloc	32
	.seh_endprologue
	movq	%rcx, 16(%rbp)
	movl	%edx, 24(%rbp)
	movl	%r8d, 32(%rbp)
	.loc 20 76 33
	movl	32(%rbp), %edx
	movl	24(%rbp), %eax
	movl	%edx, %r9d
	movl	%eax, %r8d
	movl	$1, %edx
	movq	16(%rbp), %rcx
	call	_ZN8wxWindow17MSWShowWithEffectEb12wxShowEffectj
	.loc 20 77 5
	addq	$32, %rsp
	popq	%rbp
	.cfi_restore 6
	.cfi_def_cfa 7, 8
	ret
	.cfi_endproc
.LFE10346:
	.seh_endproc
	.section	.text$_ZN8wxWindow14HideWithEffectE12wxShowEffectj,"x"
	.linkonce discard
	.align 2
	.globl	_ZN8wxWindow14HideWithEffectE12wxShowEffectj
	.def	_ZN8wxWindow14HideWithEffectE12wxShowEffectj;	.scl	2;	.type	32;	.endef
	.seh_proc	_ZN8wxWindow14HideWithEffectE12wxShowEffectj
_ZN8wxWindow14HideWithEffectE12wxShowEffectj:
.LFB10347:
	.loc 20 78 18
	.cfi_startproc
	pushq	%rbp
	.seh_pushreg	%rbp
	.cfi_def_cfa_offset 16
	.cfi_offset 6, -16
	movq	%rsp, %rbp
	.seh_setframe	%rbp, 0
	.cfi_def_cfa_register 6
	subq	$32, %rsp
	.seh_stackalloc	32
	.seh_endprologue
	movq	%rcx, 16(%rbp)
	movl	%edx, 24(%rbp)
	movl	%r8d, 32(%rbp)
	.loc 20 81 33
	movl	32(%rbp), %edx
	movl	24(%rbp), %eax
	movl	%edx, %r9d
	movl	%eax, %r8d
	movl	$0, %edx
	movq	16(%rbp), %rcx
	call	_ZN8wxWindow17MSWShowWithEffectEb12wxShowEffectj
	.loc 20 82 5
	addq	$32, %rsp
	popq	%rbp
	.cfi_restore 6
	.cfi_def_cfa 7, 8
	ret
	.cfi_endproc
.LFE10347:
	.seh_endproc
	.section	.text$_ZNK8wxWindow7GetHWNDEv,"x"
	.linkonce discard
	.align 2
	.globl	_ZNK8wxWindow7GetHWNDEv
	.def	_ZNK8wxWindow7GetHWNDEv;	.scl	2;	.type	32;	.endef
	.seh_proc	_ZNK8wxWindow7GetHWNDEv
_ZNK8wxWindow7GetHWNDEv:
.LFB10348:
	.loc 20 151 12
	.cfi_startproc
	pushq	%rbp
	.seh_pushreg	%rbp
	.cfi_def_cfa_offset 16
	.cfi_offset 6, -16
	movq	%rsp, %rbp
	.seh_setframe	%rbp, 0
	.cfi_def_cfa_register 6
	.seh_endprologue
	movq	%rcx, 16(%rbp)
	.loc 20 151 37
	movq	16(%rbp), %rax
	movq	520(%rax), %rax
	.loc 20 151 45
	popq	%rbp
	.cfi_restore 6
	.cfi_def_cfa 7, 8
	ret
	.cfi_endproc
.LFE10348:
	.seh_endproc
	.section	.text$_ZNK8wxWindow9GetHandleEv,"x"
	.linkonce discard
	.align 2
	.globl	_ZNK8wxWindow9GetHandleEv
	.def	_ZNK8wxWindow9GetHandleEv;	.scl	2;	.type	32;	.endef
	.seh_proc	_ZNK8wxWindow9GetHandleEv
_ZNK8wxWindow9GetHandleEv:
.LFB10350:
	.loc 20 153 22
	.cfi_startproc
	pushq	%rbp
	.seh_pushreg	%rbp
	.cfi_def_cfa_offset 16
	.cfi_offset 6, -16
	movq	%rsp, %rbp
	.seh_setframe	%rbp, 0
	.cfi_def_cfa_register 6
	subq	$32, %rsp
	.seh_stackalloc	32
	.seh_endprologue
	movq	%rcx, 16(%rbp)
	.loc 20 153 56
	movq	16(%rbp), %rcx
	call	_ZNK8wxWindow7GetHWNDEv
	.loc 20 153 60
	addq	$32, %rsp
	popq	%rbp
	.cfi_restore 6
	.cfi_def_cfa 7, 8
	ret
	.cfi_endproc
.LFE10350:
	.seh_endproc
	.section	.text$_ZNK8wxWindow12ContainsHWNDEP6HWND__,"x"
	.linkonce discard
	.align 2
	.globl	_ZNK8wxWindow12ContainsHWNDEP6HWND__
	.def	_ZNK8wxWindow12ContainsHWNDEP6HWND__;	.scl	2;	.type	32;	.endef
	.seh_proc	_ZNK8wxWindow12ContainsHWNDEP6HWND__
_ZNK8wxWindow12ContainsHWNDEP6HWND__:
.LFB10354:
	.loc 20 213 18
	.cfi_startproc
	pushq	%rbp
	.seh_pushreg	%rbp
	.cfi_def_cfa_offset 16
	.cfi_offset 6, -16
	movq	%rsp, %rbp
	.seh_setframe	%rbp, 0
	.cfi_def_cfa_register 6
	.seh_endprologue
	movq	%rcx, 16(%rbp)
	movq	%rdx, 24(%rbp)
	.loc 20 213 55
	movl	$0, %eax
	.loc 20 213 62
	popq	%rbp
	.cfi_restore 6
	.cfi_def_cfa 7, 8
	ret
	.cfi_endproc
.LFE10354:
	.seh_endproc
	.section	.text$_ZNK8wxWindow11HasToolTipsEv,"x"
	.linkonce discard
	.align 2
	.globl	_ZNK8wxWindow11HasToolTipsEv
	.def	_ZNK8wxWindow11HasToolTipsEv;	.scl	2;	.type	32;	.endef
	.seh_proc	_ZNK8wxWindow11HasToolTipsEv
_ZNK8wxWindow11HasToolTipsEv:
.LFB10355:
	.loc 20 217 18
	.cfi_startproc
	pushq	%rbp
	.seh_pushreg	%rbp
	.cfi_def_cfa_offset 16
	.cfi_offset 6, -16
	movq	%rsp, %rbp
	.seh_setframe	%rbp, 0
	.cfi_def_cfa_register 6
	subq	$32, %rsp
	.seh_stackalloc	32
	.seh_endprologue
	movq	%rcx, 16(%rbp)
	.loc 20 217 57
	movq	16(%rbp), %rax
	movq	%rax, %rcx
	call	_ZNK12wxWindowBase10GetToolTipEv
	.loc 20 217 62
	testq	%rax, %rax
	setne	%al
	.loc 20 217 68
	addq	$32, %rsp
	popq	%rbp
	.cfi_restore 6
	.cfi_def_cfa 7, 8
	ret
	.cfi_endproc
.LFE10355:
	.seh_endproc
	.section	.text$_ZNK8wxWindow17MSWAdjustBrushOrgEPiS0_,"x"
	.linkonce discard
	.align 2
	.globl	_ZNK8wxWindow17MSWAdjustBrushOrgEPiS0_
	.def	_ZNK8wxWindow17MSWAdjustBrushOrgEPiS0_;	.scl	2;	.type	32;	.endef
	.seh_proc	_ZNK8wxWindow17MSWAdjustBrushOrgEPiS0_
_ZNK8wxWindow17MSWAdjustBrushOrgEPiS0_:
.LFB10357:
	.loc 20 421 18
	.cfi_startproc
	pushq	%rbp
	.seh_pushreg	%rbp
	.cfi_def_cfa_offset 16
	.cfi_offset 6, -16
	movq	%rsp, %rbp
	.seh_setframe	%rbp, 0
	.cfi_def_cfa_register 6
	.seh_endprologue
	movq	%rcx, 16(%rbp)
	movq	%rdx, 24(%rbp)
	movq	%r8, 32(%rbp)
	.loc 20 424 5
	nop
	popq	%rbp
	.cfi_restore 6
	.cfi_def_cfa 7, 8
	ret
	.cfi_endproc
.LFE10357:
	.seh_endproc
	.section	.text$_ZN8wxWindow19MSWGetCustomBgBrushEv,"x"
	.linkonce discard
	.align 2
	.globl	_ZN8wxWindow19MSWGetCustomBgBrushEv
	.def	_ZN8wxWindow19MSWGetCustomBgBrushEv;	.scl	2;	.type	32;	.endef
	.seh_proc	_ZN8wxWindow19MSWGetCustomBgBrushEv
_ZN8wxWindow19MSWGetCustomBgBrushEv:
.LFB10358:
	.loc 20 429 22
	.cfi_startproc
	pushq	%rbp
	.seh_pushreg	%rbp
	.cfi_def_cfa_offset 16
	.cfi_offset 6, -16
	movq	%rsp, %rbp
	.seh_setframe	%rbp, 0
	.cfi_def_cfa_register 6
	.seh_endprologue
	movq	%rcx, 16(%rbp)
	.loc 20 429 53
	movl	$0, %eax
	.loc 20 429 56
	popq	%rbp
	.cfi_restore 6
	.cfi_def_cfa 7, 8
	ret
	.cfi_endproc
.LFE10358:
	.seh_endproc
	.section	.text$_ZN8wxWindow13MSWPrintChildEP5HDC__PS_,"x"
	.linkonce discard
	.align 2
	.globl	_ZN8wxWindow13MSWPrintChildEP5HDC__PS_
	.def	_ZN8wxWindow13MSWPrintChildEP5HDC__PS_;	.scl	2;	.type	32;	.endef
	.seh_proc	_ZN8wxWindow13MSWPrintChildEP5HDC__PS_
_ZN8wxWindow13MSWPrintChildEP5HDC__PS_:
.LFB10359:
	.loc 20 468 18
	.cfi_startproc
	pushq	%rbp
	.seh_pushreg	%rbp
	.cfi_def_cfa_offset 16
	.cfi_offset 6, -16
	movq	%rsp, %rbp
	.seh_setframe	%rbp, 0
	.cfi_def_cfa_register 6
	.seh_endprologue
	movq	%rcx, 16(%rbp)
	movq	%rdx, 24(%rbp)
	movq	%r8, 32(%rbp)
	.loc 20 470 16
	movl	$0, %eax
	.loc 20 471 5
	popq	%rbp
	.cfi_restore 6
	.cfi_def_cfa 7, 8
	ret
	.cfi_endproc
.LFE10359:
	.seh_endproc
	.section	.text$_ZN8wxWindow28MSWShouldPropagatePrintChildEv,"x"
	.linkonce discard
	.align 2
	.globl	_ZN8wxWindow28MSWShouldPropagatePrintChildEv
	.def	_ZN8wxWindow28MSWShouldPropagatePrintChildEv;	.scl	2;	.type	32;	.endef
	.seh_proc	_ZN8wxWindow28MSWShouldPropagatePrintChildEv
_ZN8wxWindow28MSWShouldPropagatePrintChildEv:
.LFB10360:
	.loc 20 476 18
	.cfi_startproc
	pushq	%rbp
	.seh_pushreg	%rbp
	.cfi_def_cfa_offset 16
	.cfi_offset 6, -16
	movq	%rsp, %rbp
	.seh_setframe	%rbp, 0
	.cfi_def_cfa_register 6
	.seh_endprologue
	movq	%rcx, 16(%rbp)
	.loc 20 478 16
	movl	$1, %eax
	.loc 20 479 5
	popq	%rbp
	.cfi_restore 6
	.cfi_def_cfa 7, 8
	ret
	.cfi_endproc
.LFE10360:
	.seh_endproc
	.section	.text$_ZNK8wxWindow27MSWHasInheritableBackgroundEv,"x"
	.linkonce discard
	.align 2
	.globl	_ZNK8wxWindow27MSWHasInheritableBackgroundEv
	.def	_ZNK8wxWindow27MSWHasInheritableBackgroundEv;	.scl	2;	.type	32;	.endef
	.seh_proc	_ZNK8wxWindow27MSWHasInheritableBackgroundEv
_ZNK8wxWindow27MSWHasInheritableBackgroundEv:
.LFB10361:
	.loc 20 487 18
	.cfi_startproc
	pushq	%rbp
	.seh_pushreg	%rbp
	.cfi_def_cfa_offset 16
	.cfi_offset 6, -16
	movq	%rsp, %rbp
	.seh_setframe	%rbp, 0
	.cfi_def_cfa_register 6
	subq	$32, %rsp
	.seh_stackalloc	32
	.seh_endprologue
	movq	%rcx, 16(%rbp)
	.loc 20 489 40
	movq	16(%rbp), %rax
	movq	%rax, %rcx
	call	_ZNK12wxWindowBase24InheritsBackgroundColourEv
	.loc 20 490 5
	addq	$32, %rsp
	popq	%rbp
	.cfi_restore 6
	.cfi_def_cfa 7, 8
	ret
	.cfi_endproc
.LFE10361:
	.seh_endproc
	.section	.text$_ZN8wxWindow14MSWEraseBgHookEP5HDC__,"x"
	.linkonce discard
	.align 2
	.globl	_ZN8wxWindow14MSWEraseBgHookEP5HDC__
	.def	_ZN8wxWindow14MSWEraseBgHookEP5HDC__;	.scl	2;	.type	32;	.endef
	.seh_proc	_ZN8wxWindow14MSWEraseBgHookEP5HDC__
_ZN8wxWindow14MSWEraseBgHookEP5HDC__:
.LFB10362:
	.loc 20 510 18
	.cfi_startproc
	pushq	%rbp
	.seh_pushreg	%rbp
	.cfi_def_cfa_offset 16
	.cfi_offset 6, -16
	movq	%rsp, %rbp
	.seh_setframe	%rbp, 0
	.cfi_def_cfa_register 6
	.seh_endprologue
	movq	%rcx, 16(%rbp)
	movq	%rdx, 24(%rbp)
	.loc 20 510 50
	movl	$0, %eax
	.loc 20 510 57
	popq	%rbp
	.cfi_restore 6
	.cfi_def_cfa 7, 8
	ret
	.cfi_endproc
.LFE10362:
	.seh_endproc
	.section	.text$_ZNK8wxWindow11MSWFindItemElP6HWND__,"x"
	.linkonce discard
	.align 2
	.globl	_ZNK8wxWindow11MSWFindItemElP6HWND__
	.def	_ZNK8wxWindow11MSWFindItemElP6HWND__;	.scl	2;	.type	32;	.endef
	.seh_proc	_ZNK8wxWindow11MSWFindItemElP6HWND__
_ZNK8wxWindow11MSWFindItemElP6HWND__:
.LFB10363:
	.loc 20 670 23
	.cfi_startproc
	pushq	%rbp
	.seh_pushreg	%rbp
	.cfi_def_cfa_offset 16
	.cfi_offset 6, -16
	movq	%rsp, %rbp
	.seh_setframe	%rbp, 0
	.cfi_def_cfa_register 6
	.seh_endprologue
	movq	%rcx, 16(%rbp)
	movl	%edx, 24(%rbp)
	movq	%r8, 32(%rbp)
	.loc 20 672 15
	movl	$0, %eax
	.loc 20 673 5
	popq	%rbp
	.cfi_restore 6
	.cfi_def_cfa 7, 8
	ret
	.cfi_endproc
.LFE10363:
	.seh_endproc
	.section	.text$_ZN8wxWindow20MSWEndDeferWindowPosEv,"x"
	.linkonce discard
	.align 2
	.globl	_ZN8wxWindow20MSWEndDeferWindowPosEv
	.def	_ZN8wxWindow20MSWEndDeferWindowPosEv;	.scl	2;	.type	32;	.endef
	.seh_proc	_ZN8wxWindow20MSWEndDeferWindowPosEv
_ZN8wxWindow20MSWEndDeferWindowPosEv:
.LFB10364:
	.loc 20 695 18
	.cfi_startproc
	pushq	%rbp
	.seh_pushreg	%rbp
	.cfi_def_cfa_offset 16
	.cfi_offset 6, -16
	movq	%rsp, %rbp
	.seh_setframe	%rbp, 0
	.cfi_def_cfa_register 6
	.seh_endprologue
	movq	%rcx, 16(%rbp)
	.loc 20 697 27
	movq	16(%rbp), %rax
	movq	.refptr.wxDefaultPosition(%rip), %rdx
	movq	(%rdx), %rdx
	movq	%rdx, 560(%rax)
	.loc 20 698 23
	movq	16(%rbp), %rax
	movq	.refptr.wxDefaultSize(%rip), %rdx
	movq	(%rdx), %rdx
	movq	%rdx, 568(%rax)
	.loc 20 699 5
	nop
	popq	%rbp
	.cfi_restore 6
	.cfi_def_cfa 7, 8
	ret
	.cfi_endproc
.LFE10364:
	.seh_endproc
	.section .rdata,"dr"
	.align 4
_ZL5wxEOF:
	.long	-1
_ZL25wxIMAGE_ALPHA_TRANSPARENT:
	.space 1
_ZL23wxIMAGE_ALPHA_THRESHOLD:
	.byte	-128
_ZL20wxIMAGE_ALPHA_OPAQUE:
	.byte	-1
	.section	.text$_ZN8wxBitmapC1Ev,"x"
	.linkonce discard
	.align 2
	.globl	_ZN8wxBitmapC1Ev
	.def	_ZN8wxBitmapC1Ev;	.scl	2;	.type	32;	.endef
	.seh_proc	_ZN8wxBitmapC1Ev
_ZN8wxBitmapC1Ev:
.LFB10722:
	.file 21 "../wxMSW-3.0.5_gcc810_x64_Dev/include/wx/msw/bitmap.h"
	.loc 21 51 5
	.cfi_startproc
	pushq	%rbp
	.seh_pushreg	%rbp
	.cfi_def_cfa_offset 16
	.cfi_offset 6, -16
	movq	%rsp, %rbp
	.seh_setframe	%rbp, 0
	.cfi_def_cfa_register 6
	subq	$32, %rsp
	.seh_stackalloc	32
	.seh_endprologue
	movq	%rcx, 16(%rbp)
.LBB49:
	.loc 21 51 16
	movq	16(%rbp), %rax
	movq	%rax, %rcx
	call	_ZN10wxGDIImageC2Ev
	movq	.refptr._ZTV8wxBitmap(%rip), %rax
	leaq	16(%rax), %rdx
	movq	16(%rbp), %rax
	movq	%rdx, (%rax)
.LBE49:
	.loc 21 51 18
	nop
	addq	$32, %rsp
	popq	%rbp
	.cfi_restore 6
	.cfi_def_cfa 7, 8
	ret
	.cfi_endproc
.LFE10722:
	.seh_endproc
	.section	.text$_ZN22wxControlContainerBaseD2Ev,"x"
	.linkonce discard
	.align 2
	.globl	_ZN22wxControlContainerBaseD2Ev
	.def	_ZN22wxControlContainerBaseD2Ev;	.scl	2;	.type	32;	.endef
	.seh_proc	_ZN22wxControlContainerBaseD2Ev
_ZN22wxControlContainerBaseD2Ev:
.LFB11226:
	.file 22 "../wxMSW-3.0.5_gcc810_x64_Dev/include/wx/containr.h"
	.loc 22 53 13
	.cfi_startproc
	pushq	%rbp
	.seh_pushreg	%rbp
	.cfi_def_cfa_offset 16
	.cfi_offset 6, -16
	movq	%rsp, %rbp
	.seh_setframe	%rbp, 0
	.cfi_def_cfa_register 6
	.seh_endprologue
	movq	%rcx, 16(%rbp)
.LBB50:
	.loc 22 53 39
	movq	.refptr._ZTV22wxControlContainerBase(%rip), %rax
	leaq	16(%rax), %rdx
	movq	16(%rbp), %rax
	movq	%rdx, (%rax)
.LBE50:
	.loc 22 53 40
	nop
	popq	%rbp
	.cfi_restore 6
	.cfi_def_cfa 7, 8
	ret
	.cfi_endproc
.LFE11226:
	.seh_endproc
	.section	.text$_ZNK22wxControlContainerBase23AcceptsFocusRecursivelyEv,"x"
	.linkonce discard
	.align 2
	.globl	_ZNK22wxControlContainerBase23AcceptsFocusRecursivelyEv
	.def	_ZNK22wxControlContainerBase23AcceptsFocusRecursivelyEv;	.scl	2;	.type	32;	.endef
	.seh_proc	_ZNK22wxControlContainerBase23AcceptsFocusRecursivelyEv
_ZNK22wxControlContainerBase23AcceptsFocusRecursivelyEv:
.LFB11232:
	.loc 22 81 10
	.cfi_startproc
	pushq	%rbp
	.seh_pushreg	%rbp
	.cfi_def_cfa_offset 16
	.cfi_offset 6, -16
	movq	%rsp, %rbp
	.seh_setframe	%rbp, 0
	.cfi_def_cfa_register 6
	subq	$32, %rsp
	.seh_stackalloc	32
	.seh_endprologue
	movq	%rcx, 16(%rbp)
	.loc 22 82 30
	movq	16(%rbp), %rcx
	call	_ZNK22wxControlContainerBase12AcceptsFocusEv
	.loc 22 82 33
	testb	%al, %al
	jne	.L261
	.loc 22 83 14 discriminator 2
	movq	16(%rbp), %rax
	movzbl	25(%rax), %eax
	.loc 22 82 33 discriminator 2
	testb	%al, %al
	je	.L262
	.loc 22 83 68
	movq	16(%rbp), %rcx
	call	_ZNK22wxControlContainerBase28HasAnyChildrenAcceptingFocusEv
	.loc 22 83 37
	testb	%al, %al
	je	.L262
.L261:
	.loc 22 82 33 discriminator 1
	movl	$1, %eax
	jmp	.L263
.L262:
	.loc 22 82 33 is_stmt 0 discriminator 3
	movl	$0, %eax
.L263:
	.loc 22 83 73 is_stmt 1
	addq	$32, %rsp
	popq	%rbp
	.cfi_restore 6
	.cfi_def_cfa 7, 8
	ret
	.cfi_endproc
.LFE11232:
	.seh_endproc
	.section	.text$_ZNK22wxControlContainerBase24AcceptsFocusFromKeyboardEv,"x"
	.linkonce discard
	.align 2
	.globl	_ZNK22wxControlContainerBase24AcceptsFocusFromKeyboardEv
	.def	_ZNK22wxControlContainerBase24AcceptsFocusFromKeyboardEv;	.scl	2;	.type	32;	.endef
	.seh_proc	_ZNK22wxControlContainerBase24AcceptsFocusFromKeyboardEv
_ZNK22wxControlContainerBase24AcceptsFocusFromKeyboardEv:
.LFB11233:
	.loc 22 86 10
	.cfi_startproc
	pushq	%rbp
	.seh_pushreg	%rbp
	.cfi_def_cfa_offset 16
	.cfi_offset 6, -16
	movq	%rsp, %rbp
	.seh_setframe	%rbp, 0
	.cfi_def_cfa_register 6
	subq	$32, %rsp
	.seh_stackalloc	32
	.seh_endprologue
	movq	%rcx, 16(%rbp)
	.loc 22 86 75
	movq	16(%rbp), %rcx
	call	_ZNK22wxControlContainerBase23AcceptsFocusRecursivelyEv
	.loc 22 86 79
	addq	$32, %rsp
	popq	%rbp
	.cfi_restore 6
	.cfi_def_cfa 7, 8
	ret
	.cfi_endproc
.LFE11233:
	.seh_endproc
	.section .rdata,"dr"
	.align 4
_ZL20wxPRINTMEDIA_DEFAULT:
	.space 4
	.section	.text$_ZNK20wxNonOwnedWindowBase27AdjustForParentClientOriginERiS0_i,"x"
	.linkonce discard
	.align 2
	.globl	_ZNK20wxNonOwnedWindowBase27AdjustForParentClientOriginERiS0_i
	.def	_ZNK20wxNonOwnedWindowBase27AdjustForParentClientOriginERiS0_i;	.scl	2;	.type	32;	.endef
	.seh_proc	_ZNK20wxNonOwnedWindowBase27AdjustForParentClientOriginERiS0_i
_ZNK20wxNonOwnedWindowBase27AdjustForParentClientOriginERiS0_i:
.LFB11970:
	.file 23 "../wxMSW-3.0.5_gcc810_x64_Dev/include/wx/nonownedwnd.h"
	.loc 23 64 18
	.cfi_startproc
	pushq	%rbp
	.seh_pushreg	%rbp
	.cfi_def_cfa_offset 16
	.cfi_offset 6, -16
	movq	%rsp, %rbp
	.seh_setframe	%rbp, 0
	.cfi_def_cfa_register 6
	.seh_endprologue
	movq	%rcx, 16(%rbp)
	movq	%rdx, 24(%rbp)
	movq	%r8, 32(%rbp)
	movl	%r9d, 40(%rbp)
	.loc 23 69 5
	nop
	popq	%rbp
	.cfi_restore 6
	.cfi_def_cfa 7, 8
	ret
	.cfi_endproc
.LFE11970:
	.seh_endproc
	.section	.text$_ZN20wxNonOwnedWindowBase17InheritAttributesEv,"x"
	.linkonce discard
	.align 2
	.globl	_ZN20wxNonOwnedWindowBase17InheritAttributesEv
	.def	_ZN20wxNonOwnedWindowBase17InheritAttributesEv;	.scl	2;	.type	32;	.endef
	.seh_proc	_ZN20wxNonOwnedWindowBase17InheritAttributesEv
_ZN20wxNonOwnedWindowBase17InheritAttributesEv:
.LFB11971:
	.loc 23 71 18
	.cfi_startproc
	pushq	%rbp
	.seh_pushreg	%rbp
	.cfi_def_cfa_offset 16
	.cfi_offset 6, -16
	movq	%rsp, %rbp
	.seh_setframe	%rbp, 0
	.cfi_def_cfa_register 6
	.seh_endprologue
	movq	%rcx, 16(%rbp)
	.loc 23 76 5
	nop
	popq	%rbp
	.cfi_restore 6
	.cfi_def_cfa 7, 8
	ret
	.cfi_endproc
.LFE11971:
	.seh_endproc
	.section	.text$_ZN20wxTopLevelWindowBase8IsActiveEv,"x"
	.linkonce discard
	.align 2
	.globl	_ZN20wxTopLevelWindowBase8IsActiveEv
	.def	_ZN20wxTopLevelWindowBase8IsActiveEv;	.scl	2;	.type	32;	.endef
	.seh_proc	_ZN20wxTopLevelWindowBase8IsActiveEv
_ZN20wxTopLevelWindowBase8IsActiveEv:
.LFB12082:
	.file 24 "../wxMSW-3.0.5_gcc810_x64_Dev/include/wx/toplevel.h"
	.loc 24 226 18
	.cfi_startproc
	pushq	%rbp
	.seh_pushreg	%rbp
	.cfi_def_cfa_offset 16
	.cfi_offset 6, -16
	pushq	%rbx
	.seh_pushreg	%rbx
	.cfi_def_cfa_offset 24
	.cfi_offset 3, -24
	subq	$40, %rsp
	.seh_stackalloc	40
	.cfi_def_cfa_offset 64
	leaq	128(%rsp), %rbp
	.seh_setframe	%rbp, 128
	.cfi_def_cfa 6, -64
	.seh_endprologue
	movq	%rcx, -64(%rbp)
	.loc 24 226 50
	movq	-64(%rbp), %rbx
	.loc 24 226 60
	call	_ZN12wxWindowBase9FindFocusEv
	.loc 24 226 50
	movq	%rax, %rdx
	movq	%rbx, %rcx
	call	_ZNK12wxWindowBase12IsDescendantEPS_
	.loc 24 226 65
	addq	$40, %rsp
	popq	%rbx
	.cfi_restore 3
	popq	%rbp
	.cfi_restore 6
	.cfi_def_cfa 7, -24
	ret
	.cfi_endproc
.LFE12082:
	.seh_endproc
	.section	.text$_ZNK20wxTopLevelWindowBase20ShouldPreventAppExitEv,"x"
	.linkonce discard
	.align 2
	.globl	_ZNK20wxTopLevelWindowBase20ShouldPreventAppExitEv
	.def	_ZNK20wxTopLevelWindowBase20ShouldPreventAppExitEv;	.scl	2;	.type	32;	.endef
	.seh_proc	_ZNK20wxTopLevelWindowBase20ShouldPreventAppExitEv
_ZNK20wxTopLevelWindowBase20ShouldPreventAppExitEv:
.LFB12083:
	.loc 24 233 18
	.cfi_startproc
	pushq	%rbp
	.seh_pushreg	%rbp
	.cfi_def_cfa_offset 16
	.cfi_offset 6, -16
	movq	%rsp, %rbp
	.seh_setframe	%rbp, 0
	.cfi_def_cfa_register 6
	.seh_endprologue
	movq	%rcx, 16(%rbp)
	.loc 24 233 56
	movl	$1, %eax
	.loc 24 233 62
	popq	%rbp
	.cfi_restore 6
	.cfi_def_cfa 7, 8
	ret
	.cfi_endproc
.LFE12083:
	.seh_endproc
	.section	.text$_ZNK20wxTopLevelWindowBase10IsTopLevelEv,"x"
	.linkonce discard
	.align 2
	.globl	_ZNK20wxTopLevelWindowBase10IsTopLevelEv
	.def	_ZNK20wxTopLevelWindowBase10IsTopLevelEv;	.scl	2;	.type	32;	.endef
	.seh_proc	_ZNK20wxTopLevelWindowBase10IsTopLevelEv
_ZNK20wxTopLevelWindowBase10IsTopLevelEv:
.LFB12090:
	.loc 24 277 18
	.cfi_startproc
	pushq	%rbp
	.seh_pushreg	%rbp
	.cfi_def_cfa_offset 16
	.cfi_offset 6, -16
	movq	%rsp, %rbp
	.seh_setframe	%rbp, 0
	.cfi_def_cfa_register 6
	.seh_endprologue
	movq	%rcx, 16(%rbp)
	.loc 24 277 46
	movl	$1, %eax
	.loc 24 277 52
	popq	%rbp
	.cfi_restore 6
	.cfi_def_cfa 7, 8
	ret
	.cfi_endproc
.LFE12090:
	.seh_endproc
	.section	.text$_ZNK20wxTopLevelWindowBase21IsTopNavigationDomainEv,"x"
	.linkonce discard
	.align 2
	.globl	_ZNK20wxTopLevelWindowBase21IsTopNavigationDomainEv
	.def	_ZNK20wxTopLevelWindowBase21IsTopNavigationDomainEv;	.scl	2;	.type	32;	.endef
	.seh_proc	_ZNK20wxTopLevelWindowBase21IsTopNavigationDomainEv
_ZNK20wxTopLevelWindowBase21IsTopNavigationDomainEv:
.LFB12091:
	.loc 24 278 18
	.cfi_startproc
	pushq	%rbp
	.seh_pushreg	%rbp
	.cfi_def_cfa_offset 16
	.cfi_offset 6, -16
	movq	%rsp, %rbp
	.seh_setframe	%rbp, 0
	.cfi_def_cfa_register 6
	.seh_endprologue
	movq	%rcx, 16(%rbp)
	.loc 24 278 57
	movl	$1, %eax
	.loc 24 278 63
	popq	%rbp
	.cfi_restore 6
	.cfi_def_cfa 7, 8
	ret
	.cfi_endproc
.LFE12091:
	.seh_endproc
	.section	.text$_ZNK20wxTopLevelWindowBase9IsVisibleEv,"x"
	.linkonce discard
	.align 2
	.globl	_ZNK20wxTopLevelWindowBase9IsVisibleEv
	.def	_ZNK20wxTopLevelWindowBase9IsVisibleEv;	.scl	2;	.type	32;	.endef
	.seh_proc	_ZNK20wxTopLevelWindowBase9IsVisibleEv
_ZNK20wxTopLevelWindowBase9IsVisibleEv:
.LFB12092:
	.loc 24 279 18
	.cfi_startproc
	pushq	%rbp
	.seh_pushreg	%rbp
	.cfi_def_cfa_offset 16
	.cfi_offset 6, -16
	movq	%rsp, %rbp
	.seh_setframe	%rbp, 0
	.cfi_def_cfa_register 6
	subq	$32, %rsp
	.seh_stackalloc	32
	.seh_endprologue
	movq	%rcx, 16(%rbp)
	.loc 24 279 52
	movq	16(%rbp), %rdx
	.loc 24 279 53
	movq	16(%rbp), %rax
	movq	(%rax), %rax
	addq	$480, %rax
	movq	(%rax), %rax
	.loc 24 279 52
	movq	%rdx, %rcx
	call	*%rax
.LVL20:
	.loc 24 279 56
	addq	$32, %rsp
	popq	%rbp
	.cfi_restore 6
	.cfi_def_cfa 7, 8
	ret
	.cfi_endproc
.LFE12092:
	.seh_endproc
	.section	.text$_ZN20wxTopLevelWindowBase14OSXSetModifiedEb,"x"
	.linkonce discard
	.align 2
	.globl	_ZN20wxTopLevelWindowBase14OSXSetModifiedEb
	.def	_ZN20wxTopLevelWindowBase14OSXSetModifiedEb;	.scl	2;	.type	32;	.endef
	.seh_proc	_ZN20wxTopLevelWindowBase14OSXSetModifiedEb
_ZN20wxTopLevelWindowBase14OSXSetModifiedEb:
.LFB12095:
	.loc 24 299 18
	.cfi_startproc
	pushq	%rbp
	.seh_pushreg	%rbp
	.cfi_def_cfa_offset 16
	.cfi_offset 6, -16
	movq	%rsp, %rbp
	.seh_setframe	%rbp, 0
	.cfi_def_cfa_register 6
	.seh_endprologue
	movq	%rcx, 16(%rbp)
	movl	%edx, %eax
	movb	%al, 24(%rbp)
	.loc 24 299 61
	movq	16(%rbp), %rdx
	movzbl	24(%rbp), %eax
	movb	%al, 640(%rdx)
	.loc 24 299 73
	nop
	popq	%rbp
	.cfi_restore 6
	.cfi_def_cfa 7, 8
	ret
	.cfi_endproc
.LFE12095:
	.seh_endproc
	.section	.text$_ZNK20wxTopLevelWindowBase13OSXIsModifiedEv,"x"
	.linkonce discard
	.align 2
	.globl	_ZNK20wxTopLevelWindowBase13OSXIsModifiedEv
	.def	_ZNK20wxTopLevelWindowBase13OSXIsModifiedEv;	.scl	2;	.type	32;	.endef
	.seh_proc	_ZNK20wxTopLevelWindowBase13OSXIsModifiedEv
_ZNK20wxTopLevelWindowBase13OSXIsModifiedEv:
.LFB12096:
	.loc 24 300 18
	.cfi_startproc
	pushq	%rbp
	.seh_pushreg	%rbp
	.cfi_def_cfa_offset 16
	.cfi_offset 6, -16
	movq	%rsp, %rbp
	.seh_setframe	%rbp, 0
	.cfi_def_cfa_register 6
	.seh_endprologue
	movq	%rcx, 16(%rbp)
	.loc 24 300 49
	movq	16(%rbp), %rax
	movzbl	640(%rax), %eax
	.loc 24 300 61
	popq	%rbp
	.cfi_restore 6
	.cfi_def_cfa 7, 8
	ret
	.cfi_endproc
.LFE12096:
	.seh_endproc
	.section	.text$_ZN20wxTopLevelWindowBase22SetRepresentedFilenameERK8wxString,"x"
	.linkonce discard
	.align 2
	.globl	_ZN20wxTopLevelWindowBase22SetRepresentedFilenameERK8wxString
	.def	_ZN20wxTopLevelWindowBase22SetRepresentedFilenameERK8wxString;	.scl	2;	.type	32;	.endef
	.seh_proc	_ZN20wxTopLevelWindowBase22SetRepresentedFilenameERK8wxString
_ZN20wxTopLevelWindowBase22SetRepresentedFilenameERK8wxString:
.LFB12097:
	.loc 24 302 18
	.cfi_startproc
	pushq	%rbp
	.seh_pushreg	%rbp
	.cfi_def_cfa_offset 16
	.cfi_offset 6, -16
	movq	%rsp, %rbp
	.seh_setframe	%rbp, 0
	.cfi_def_cfa_register 6
	.seh_endprologue
	movq	%rcx, 16(%rbp)
	movq	%rdx, 24(%rbp)
	.loc 24 302 61
	nop
	popq	%rbp
	.cfi_restore 6
	.cfi_def_cfa 7, 8
	ret
	.cfi_endproc
.LFE12097:
	.seh_endproc
	.section	.text$_ZN20wxTopLevelWindowBase10DoGiveHelpERK8wxStringb,"x"
	.linkonce discard
	.align 2
	.globl	_ZN20wxTopLevelWindowBase10DoGiveHelpERK8wxStringb
	.def	_ZN20wxTopLevelWindowBase10DoGiveHelpERK8wxStringb;	.scl	2;	.type	32;	.endef
	.seh_proc	_ZN20wxTopLevelWindowBase10DoGiveHelpERK8wxStringb
_ZN20wxTopLevelWindowBase10DoGiveHelpERK8wxStringb:
.LFB12098:
	.loc 24 308 18
	.cfi_startproc
	pushq	%rbp
	.seh_pushreg	%rbp
	.cfi_def_cfa_offset 16
	.cfi_offset 6, -16
	movq	%rsp, %rbp
	.seh_setframe	%rbp, 0
	.cfi_def_cfa_register 6
	.seh_endprologue
	movq	%rcx, 16(%rbp)
	movq	%rdx, 24(%rbp)
	movl	%r8d, %eax
	movb	%al, 32(%rbp)
	.loc 24 308 55
	nop
	popq	%rbp
	.cfi_restore 6
	.cfi_def_cfa 7, 8
	ret
	.cfi_endproc
.LFE12098:
	.seh_endproc
	.section	.text$_ZNK20wxTopLevelWindowBase19DoGetScreenPositionEPiS0_,"x"
	.linkonce discard
	.align 2
	.globl	_ZNK20wxTopLevelWindowBase19DoGetScreenPositionEPiS0_
	.def	_ZNK20wxTopLevelWindowBase19DoGetScreenPositionEPiS0_;	.scl	2;	.type	32;	.endef
	.seh_proc	_ZNK20wxTopLevelWindowBase19DoGetScreenPositionEPiS0_
_ZNK20wxTopLevelWindowBase19DoGetScreenPositionEPiS0_:
.LFB12099:
	.loc 24 322 18
	.cfi_startproc
	pushq	%rbp
	.seh_pushreg	%rbp
	.cfi_def_cfa_offset 16
	.cfi_offset 6, -16
	movq	%rsp, %rbp
	.seh_setframe	%rbp, 0
	.cfi_def_cfa_register 6
	subq	$32, %rsp
	.seh_stackalloc	32
	.seh_endprologue
	movq	%rcx, 16(%rbp)
	movq	%rdx, 24(%rbp)
	movq	%r8, 32(%rbp)
	.loc 24 324 22
	movq	16(%rbp), %rcx
	.loc 24 324 27
	movq	16(%rbp), %rax
	movq	(%rax), %rax
	addq	$1304, %rax
	movq	(%rax), %rax
	.loc 24 324 22
	movq	32(%rbp), %r8
	movq	24(%rbp), %rdx
	call	*%rax
.LVL21:
	.loc 24 325 5
	nop
	addq	$32, %rsp
	popq	%rbp
	.cfi_restore 6
	.cfi_def_cfa 7, 8
	ret
	.cfi_endproc
.LFE12099:
	.seh_endproc
	.section	.text$_ZNK20wxTopLevelWindowBase11IsOneOfBarsEPK8wxWindow,"x"
	.linkonce discard
	.align 2
	.globl	_ZNK20wxTopLevelWindowBase11IsOneOfBarsEPK8wxWindow
	.def	_ZNK20wxTopLevelWindowBase11IsOneOfBarsEPK8wxWindow;	.scl	2;	.type	32;	.endef
	.seh_proc	_ZNK20wxTopLevelWindowBase11IsOneOfBarsEPK8wxWindow
_ZNK20wxTopLevelWindowBase11IsOneOfBarsEPK8wxWindow:
.LFB12100:
	.loc 24 329 18
	.cfi_startproc
	pushq	%rbp
	.seh_pushreg	%rbp
	.cfi_def_cfa_offset 16
	.cfi_offset 6, -16
	movq	%rsp, %rbp
	.seh_setframe	%rbp, 0
	.cfi_def_cfa_register 6
	.seh_endprologue
	movq	%rcx, 16(%rbp)
	movq	%rdx, 24(%rbp)
	.loc 24 330 18
	movl	$0, %eax
	.loc 24 330 25
	popq	%rbp
	.cfi_restore 6
	.cfi_def_cfa 7, 8
	ret
	.cfi_endproc
.LFE12100:
	.seh_endproc
	.section	.text$_ZNK19wxTopLevelWindowMSW12IsFullScreenEv,"x"
	.linkonce discard
	.align 2
	.globl	_ZNK19wxTopLevelWindowMSW12IsFullScreenEv
	.def	_ZNK19wxTopLevelWindowMSW12IsFullScreenEv;	.scl	2;	.type	32;	.endef
	.seh_proc	_ZNK19wxTopLevelWindowMSW12IsFullScreenEv
_ZNK19wxTopLevelWindowMSW12IsFullScreenEv:
.LFB12109:
	.file 25 "../wxMSW-3.0.5_gcc810_x64_Dev/include/wx/msw/toplevel.h"
	.loc 25 66 18
	.cfi_startproc
	pushq	%rbp
	.seh_pushreg	%rbp
	.cfi_def_cfa_offset 16
	.cfi_offset 6, -16
	movq	%rsp, %rbp
	.seh_setframe	%rbp, 0
	.cfi_def_cfa_register 6
	.seh_endprologue
	movq	%rcx, 16(%rbp)
	.loc 25 66 48
	movq	16(%rbp), %rax
	movzbl	669(%rax), %eax
	.loc 25 66 63
	popq	%rbp
	.cfi_restore 6
	.cfi_def_cfa 7, 8
	ret
	.cfi_endproc
.LFE12109:
	.seh_endproc
	.section	.text$_ZNK19wxTopLevelWindowMSW19CanApplyThemeBorderEv,"x"
	.linkonce discard
	.align 2
	.globl	_ZNK19wxTopLevelWindowMSW19CanApplyThemeBorderEv
	.def	_ZNK19wxTopLevelWindowMSW19CanApplyThemeBorderEv;	.scl	2;	.type	32;	.endef
	.seh_proc	_ZNK19wxTopLevelWindowMSW19CanApplyThemeBorderEv
_ZNK19wxTopLevelWindowMSW19CanApplyThemeBorderEv:
.LFB12112:
	.loc 25 122 18
	.cfi_startproc
	pushq	%rbp
	.seh_pushreg	%rbp
	.cfi_def_cfa_offset 16
	.cfi_offset 6, -16
	movq	%rsp, %rbp
	.seh_setframe	%rbp, 0
	.cfi_def_cfa_register 6
	.seh_endprologue
	movq	%rcx, 16(%rbp)
	.loc 25 122 55
	movl	$0, %eax
	.loc 25 122 62
	popq	%rbp
	.cfi_restore 6
	.cfi_def_cfa 7, 8
	ret
	.cfi_endproc
.LFE12112:
	.seh_endproc
	.section	.text$_ZN16wxTopLevelWindowD2Ev,"x"
	.linkonce discard
	.align 2
	.globl	_ZN16wxTopLevelWindowD2Ev
	.def	_ZN16wxTopLevelWindowD2Ev;	.scl	2;	.type	32;	.endef
	.seh_proc	_ZN16wxTopLevelWindowD2Ev
_ZN16wxTopLevelWindowD2Ev:
.LFB16852:
	.loc 24 395 11
	.cfi_startproc
	pushq	%rbp
	.seh_pushreg	%rbp
	.cfi_def_cfa_offset 16
	.cfi_offset 6, -16
	movq	%rsp, %rbp
	.seh_setframe	%rbp, 0
	.cfi_def_cfa_register 6
	subq	$32, %rsp
	.seh_stackalloc	32
	.seh_endprologue
	movq	%rcx, 16(%rbp)
.LBB51:
	.loc 24 395 11
	movq	.refptr._ZTV16wxTopLevelWindow(%rip), %rax
	leaq	16(%rax), %rdx
	movq	16(%rbp), %rax
	movq	%rdx, (%rax)
	movq	16(%rbp), %rax
	movq	%rax, %rcx
	call	_ZN19wxTopLevelWindowMSWD2Ev
.LBE51:
	nop
	addq	$32, %rsp
	popq	%rbp
	.cfi_restore 6
	.cfi_def_cfa 7, 8
	ret
	.cfi_endproc
.LFE16852:
	.seh_endproc
	.section	.text$_ZN19wxNavigationEnabledI16wxTopLevelWindowED2Ev,"x"
	.linkonce discard
	.align 2
	.globl	_ZN19wxNavigationEnabledI16wxTopLevelWindowED2Ev
	.def	_ZN19wxNavigationEnabledI16wxTopLevelWindowED2Ev;	.scl	2;	.type	32;	.endef
	.seh_proc	_ZN19wxNavigationEnabledI16wxTopLevelWindowED2Ev
_ZN19wxNavigationEnabledI16wxTopLevelWindowED2Ev:
.LFB16855:
	.loc 22 182 7
	.cfi_startproc
	pushq	%rbp
	.seh_pushreg	%rbp
	.cfi_def_cfa_offset 16
	.cfi_offset 6, -16
	movq	%rsp, %rbp
	.seh_setframe	%rbp, 0
	.cfi_def_cfa_register 6
	subq	$32, %rsp
	.seh_stackalloc	32
	.seh_endprologue
	movq	%rcx, 16(%rbp)
.LBB52:
	.loc 22 182 7
	leaq	16+_ZTV19wxNavigationEnabledI16wxTopLevelWindowE(%rip), %rdx
	movq	16(%rbp), %rax
	movq	%rdx, (%rax)
	movq	16(%rbp), %rax
	addq	$696, %rax
	movq	%rax, %rcx
	call	_ZN18wxControlContainerD1Ev
	movq	16(%rbp), %rax
	movq	%rax, %rcx
	call	_ZN16wxTopLevelWindowD2Ev
.LBE52:
	nop
	addq	$32, %rsp
	popq	%rbp
	.cfi_restore 6
	.cfi_def_cfa 7, 8
	ret
	.cfi_endproc
.LFE16855:
	.seh_endproc
	.section	.text$_ZN19wxNavigationEnabledI16wxTopLevelWindowED1Ev,"x"
	.linkonce discard
	.align 2
	.globl	_ZN19wxNavigationEnabledI16wxTopLevelWindowED1Ev
	.def	_ZN19wxNavigationEnabledI16wxTopLevelWindowED1Ev;	.scl	2;	.type	32;	.endef
	.seh_proc	_ZN19wxNavigationEnabledI16wxTopLevelWindowED1Ev
_ZN19wxNavigationEnabledI16wxTopLevelWindowED1Ev:
.LFB16856:
	.loc 22 182 7
	.cfi_startproc
	pushq	%rbp
	.seh_pushreg	%rbp
	.cfi_def_cfa_offset 16
	.cfi_offset 6, -16
	movq	%rsp, %rbp
	.seh_setframe	%rbp, 0
	.cfi_def_cfa_register 6
	subq	$32, %rsp
	.seh_stackalloc	32
	.seh_endprologue
	movq	%rcx, 16(%rbp)
.LBB53:
	.loc 22 182 7
	leaq	16+_ZTV19wxNavigationEnabledI16wxTopLevelWindowE(%rip), %rdx
	movq	16(%rbp), %rax
	movq	%rdx, (%rax)
	movq	16(%rbp), %rax
	addq	$696, %rax
	movq	%rax, %rcx
	call	_ZN18wxControlContainerD1Ev
	movq	16(%rbp), %rax
	movq	%rax, %rcx
	call	_ZN16wxTopLevelWindowD2Ev
.LBE53:
	nop
	addq	$32, %rsp
	popq	%rbp
	.cfi_restore 6
	.cfi_def_cfa 7, 8
	ret
	.cfi_endproc
.LFE16856:
	.seh_endproc
	.section	.text$_ZN19wxNavigationEnabledI16wxTopLevelWindowED0Ev,"x"
	.linkonce discard
	.align 2
	.globl	_ZN19wxNavigationEnabledI16wxTopLevelWindowED0Ev
	.def	_ZN19wxNavigationEnabledI16wxTopLevelWindowED0Ev;	.scl	2;	.type	32;	.endef
	.seh_proc	_ZN19wxNavigationEnabledI16wxTopLevelWindowED0Ev
_ZN19wxNavigationEnabledI16wxTopLevelWindowED0Ev:
.LFB16857:
	.loc 22 182 7
	.cfi_startproc
	pushq	%rbp
	.seh_pushreg	%rbp
	.cfi_def_cfa_offset 16
	.cfi_offset 6, -16
	movq	%rsp, %rbp
	.seh_setframe	%rbp, 0
	.cfi_def_cfa_register 6
	subq	$32, %rsp
	.seh_stackalloc	32
	.seh_endprologue
	movq	%rcx, 16(%rbp)
	.loc 22 182 7
	movq	16(%rbp), %rcx
	call	_ZN19wxNavigationEnabledI16wxTopLevelWindowED1Ev
	movq	16(%rbp), %rcx
	call	_ZdlPv
	nop
	addq	$32, %rsp
	popq	%rbp
	.cfi_restore 6
	.cfi_def_cfa 7, 8
	ret
	.cfi_endproc
.LFE16857:
	.seh_endproc
	.section	.text$_ZN12wxDialogBaseD2Ev,"x"
	.linkonce discard
	.align 2
	.globl	_ZN12wxDialogBaseD2Ev
	.def	_ZN12wxDialogBaseD2Ev;	.scl	2;	.type	32;	.endef
	.seh_proc	_ZN12wxDialogBaseD2Ev
_ZN12wxDialogBaseD2Ev:
.LFB16858:
	.file 26 "../wxMSW-3.0.5_gcc810_x64_Dev/include/wx/dialog.h"
	.loc 26 72 13
	.cfi_startproc
	pushq	%rbp
	.seh_pushreg	%rbp
	.cfi_def_cfa_offset 16
	.cfi_offset 6, -16
	movq	%rsp, %rbp
	.seh_setframe	%rbp, 0
	.cfi_def_cfa_register 6
	subq	$32, %rsp
	.seh_stackalloc	32
	.seh_endprologue
	movq	%rcx, 16(%rbp)
.LBB54:
	.loc 26 72 29
	movq	.refptr._ZTV12wxDialogBase(%rip), %rax
	leaq	16(%rax), %rdx
	movq	16(%rbp), %rax
	movq	%rdx, (%rax)
	movq	16(%rbp), %rax
	addq	$744, %rax
	movq	%rax, %rcx
	call	_ZN10wxArrayIntD1Ev
	movq	16(%rbp), %rax
	movq	%rax, %rcx
	call	_ZN19wxNavigationEnabledI16wxTopLevelWindowED2Ev
.LBE54:
	.loc 26 72 31
	nop
	addq	$32, %rsp
	popq	%rbp
	.cfi_restore 6
	.cfi_def_cfa 7, 8
	ret
	.cfi_endproc
.LFE16858:
	.seh_endproc
	.section	.text$_ZNK12wxDialogBase16GetContentWindowEv,"x"
	.linkonce discard
	.align 2
	.globl	_ZNK12wxDialogBase16GetContentWindowEv
	.def	_ZNK12wxDialogBase16GetContentWindowEv;	.scl	2;	.type	32;	.endef
	.seh_proc	_ZNK12wxDialogBase16GetContentWindowEv
_ZNK12wxDialogBase16GetContentWindowEv:
.LFB16866:
	.loc 26 165 23
	.cfi_startproc
	pushq	%rbp
	.seh_pushreg	%rbp
	.cfi_def_cfa_offset 16
	.cfi_offset 6, -16
	movq	%rsp, %rbp
	.seh_setframe	%rbp, 0
	.cfi_def_cfa_register 6
	.seh_endprologue
	movq	%rcx, 16(%rbp)
	.loc 26 165 56
	movl	$0, %eax
	.loc 26 165 62
	popq	%rbp
	.cfi_restore 6
	.cfi_def_cfa 7, 8
	ret
	.cfi_endproc
.LFE16866:
	.seh_endproc
	.section	.text$_ZN8wxDialogC2Ev,"x"
	.linkonce discard
	.align 2
	.globl	_ZN8wxDialogC2Ev
	.def	_ZN8wxDialogC2Ev;	.scl	2;	.type	32;	.endef
	.seh_proc	_ZN8wxDialogC2Ev
_ZN8wxDialogC2Ev:
.LFB16890:
	.file 27 "../wxMSW-3.0.5_gcc810_x64_Dev/include/wx/msw/dialog.h"
	.loc 27 38 5
	.cfi_startproc
	pushq	%rbp
	.seh_pushreg	%rbp
	.cfi_def_cfa_offset 16
	.cfi_offset 6, -16
	pushq	%rbx
	.seh_pushreg	%rbx
	.cfi_def_cfa_offset 24
	.cfi_offset 3, -24
	subq	$40, %rsp
	.seh_stackalloc	40
	.cfi_def_cfa_offset 64
	leaq	128(%rsp), %rbp
	.seh_setframe	%rbp, 128
	.cfi_def_cfa 6, -64
	.seh_endprologue
	movq	%rcx, -64(%rbp)
.LBB55:
	.loc 27 38 16
	movq	-64(%rbp), %rax
	movq	%rax, %rcx
.LEHB20:
	call	_ZN12wxDialogBaseC2Ev
.LEHE20:
	movq	.refptr._ZTV8wxDialog(%rip), %rax
	leaq	16(%rax), %rdx
	movq	-64(%rbp), %rax
	movq	%rdx, (%rax)
	.loc 27 38 22
	movq	-64(%rbp), %rcx
.LEHB21:
	call	_ZN8wxDialog4InitEv
.LEHE21:
.LBE55:
	.loc 27 38 26
	jmp	.L301
.L300:
	movq	%rax, %rbx
.LBB56:
	.loc 27 38 16
	movq	-64(%rbp), %rax
	movq	%rax, %rcx
	call	_ZN12wxDialogBaseD2Ev
	movq	%rbx, %rax
	movq	%rax, %rcx
.LEHB22:
	call	_Unwind_Resume
	nop
.LEHE22:
.L301:
.LBE56:
	.loc 27 38 26
	addq	$40, %rsp
	popq	%rbx
	.cfi_restore 3
	popq	%rbp
	.cfi_restore 6
	.cfi_def_cfa 7, -24
	ret
	.cfi_endproc
.LFE16890:
	.seh_handler	__gxx_personality_seh0, @unwind, @except
	.seh_handlerdata
.LLSDA16890:
	.byte	0xff
	.byte	0xff
	.byte	0x1
	.uleb128 .LLSDACSE16890-.LLSDACSB16890
.LLSDACSB16890:
	.uleb128 .LEHB20-.LFB16890
	.uleb128 .LEHE20-.LEHB20
	.uleb128 0
	.uleb128 0
	.uleb128 .LEHB21-.LFB16890
	.uleb128 .LEHE21-.LEHB21
	.uleb128 .L300-.LFB16890
	.uleb128 0
	.uleb128 .LEHB22-.LFB16890
	.uleb128 .LEHE22-.LEHB22
	.uleb128 0
	.uleb128 0
.LLSDACSE16890:
	.section	.text$_ZN8wxDialogC2Ev,"x"
	.linkonce discard
	.seh_endproc
	.section	.text$_ZNK8wxDialog7IsModalEv,"x"
	.linkonce discard
	.align 2
	.globl	_ZNK8wxDialog7IsModalEv
	.def	_ZNK8wxDialog7IsModalEv;	.scl	2;	.type	32;	.endef
	.seh_proc	_ZNK8wxDialog7IsModalEv
_ZNK8wxDialog7IsModalEv:
.LFB16895:
	.loc 27 63 18
	.cfi_startproc
	pushq	%rbp
	.seh_pushreg	%rbp
	.cfi_def_cfa_offset 16
	.cfi_offset 6, -16
	movq	%rsp, %rbp
	.seh_setframe	%rbp, 0
	.cfi_def_cfa_register 6
	.seh_endprologue
	movq	%rcx, 16(%rbp)
	.loc 27 63 43
	movq	16(%rbp), %rax
	movq	784(%rax), %rax
	.loc 27 63 57
	testq	%rax, %rax
	setne	%al
	.loc 27 63 63
	popq	%rbp
	.cfi_restore 6
	.cfi_def_cfa 7, 8
	ret
	.cfi_endproc
.LFE16895:
	.seh_endproc
	.section	.text$_ZN13wxControlBaseC2Ev,"x"
	.linkonce discard
	.align 2
	.globl	_ZN13wxControlBaseC2Ev
	.def	_ZN13wxControlBaseC2Ev;	.scl	2;	.type	32;	.endef
	.seh_proc	_ZN13wxControlBaseC2Ev
_ZN13wxControlBaseC2Ev:
.LFB16909:
	.file 28 "../wxMSW-3.0.5_gcc810_x64_Dev/include/wx/control.h"
	.loc 28 58 5
	.cfi_startproc
	pushq	%rbp
	.seh_pushreg	%rbp
	.cfi_def_cfa_offset 16
	.cfi_offset 6, -16
	movq	%rsp, %rbp
	.seh_setframe	%rbp, 0
	.cfi_def_cfa_register 6
	subq	$32, %rsp
	.seh_stackalloc	32
	.seh_endprologue
	movq	%rcx, 16(%rbp)
.LBB57:
	.loc 28 58 21
	movq	16(%rbp), %rax
	movq	%rax, %rcx
	call	_ZN8wxWindowC2Ev
	movq	.refptr._ZTV13wxControlBase(%rip), %rax
	leaq	16(%rax), %rdx
	movq	16(%rbp), %rax
	movq	%rdx, (%rax)
	movq	16(%rbp), %rax
	addq	$576, %rax
	movq	%rax, %rcx
	call	_ZN8wxStringC1Ev
.LBE57:
	.loc 28 58 23
	nop
	addq	$32, %rsp
	popq	%rbp
	.cfi_restore 6
	.cfi_def_cfa 7, 8
	ret
	.cfi_endproc
.LFE16909:
	.seh_endproc
	.section	.text$_ZN13wxControlBase8SetLabelERK8wxString,"x"
	.linkonce discard
	.align 2
	.globl	_ZN13wxControlBase8SetLabelERK8wxString
	.def	_ZN13wxControlBase8SetLabelERK8wxString;	.scl	2;	.type	32;	.endef
	.seh_proc	_ZN13wxControlBase8SetLabelERK8wxString
_ZN13wxControlBase8SetLabelERK8wxString:
.LFB16912:
	.loc 28 74 18
	.cfi_startproc
	pushq	%rbp
	.seh_pushreg	%rbp
	.cfi_def_cfa_offset 16
	.cfi_offset 6, -16
	movq	%rsp, %rbp
	.seh_setframe	%rbp, 0
	.cfi_def_cfa_register 6
	subq	$32, %rsp
	.seh_stackalloc	32
	.seh_endprologue
	movq	%rcx, 16(%rbp)
	movq	%rdx, 24(%rbp)
	.loc 28 76 23
	movq	16(%rbp), %rax
	addq	$576, %rax
	movq	24(%rbp), %rdx
	movq	%rax, %rcx
	call	_ZN8wxStringaSERKS_
	.loc 28 78 27
	movq	16(%rbp), %rax
	movq	%rax, %rcx
	call	_ZN12wxWindowBase18InvalidateBestSizeEv
	.loc 28 80 27
	movq	16(%rbp), %rax
	movq	24(%rbp), %rdx
	movq	%rax, %rcx
	call	_ZN8wxWindow8SetLabelERK8wxString
	.loc 28 81 5
	nop
	addq	$32, %rsp
	popq	%rbp
	.cfi_restore 6
	.cfi_def_cfa 7, 8
	ret
	.cfi_endproc
.LFE16912:
	.seh_endproc
	.section	.text$_ZNK13wxControlBase8GetLabelEv,"x"
	.linkonce discard
	.align 2
	.globl	_ZNK13wxControlBase8GetLabelEv
	.def	_ZNK13wxControlBase8GetLabelEv;	.scl	2;	.type	32;	.endef
	.seh_proc	_ZNK13wxControlBase8GetLabelEv
_ZNK13wxControlBase8GetLabelEv:
.LFB16913:
	.loc 28 85 22
	.cfi_startproc
	pushq	%rbp
	.seh_pushreg	%rbp
	.cfi_def_cfa_offset 16
	.cfi_offset 6, -16
	movq	%rsp, %rbp
	.seh_setframe	%rbp, 0
	.cfi_def_cfa_register 6
	subq	$32, %rsp
	.seh_stackalloc	32
	.seh_endprologue
	movq	%rcx, 16(%rbp)
	movq	%rdx, 24(%rbp)
	.loc 28 85 48
	movq	24(%rbp), %rax
	addq	$576, %rax
	movq	%rax, %rdx
	movq	16(%rbp), %rcx
	call	_ZN8wxStringC1ERKS_
	.loc 28 85 61
	movq	16(%rbp), %rax
	addq	$32, %rsp
	popq	%rbp
	.cfi_restore 6
	.cfi_def_cfa 7, 8
	ret
	.cfi_endproc
.LFE16913:
	.seh_endproc
	.section	.text$_ZN13wxControlBase12SetLabelTextERK8wxString,"x"
	.linkonce discard
	.align 2
	.globl	_ZN13wxControlBase12SetLabelTextERK8wxString
	.def	_ZN13wxControlBase12SetLabelTextERK8wxString;	.scl	2;	.type	32;	.endef
	.seh_proc	_ZN13wxControlBase12SetLabelTextERK8wxString
_ZN13wxControlBase12SetLabelTextERK8wxString:
.LFB16914:
	.loc 28 88 18
	.cfi_startproc
	pushq	%rbp
	.seh_pushreg	%rbp
	.cfi_def_cfa_offset 16
	.cfi_offset 6, -16
	pushq	%rbx
	.seh_pushreg	%rbx
	.cfi_def_cfa_offset 24
	.cfi_offset 3, -24
	subq	$88, %rsp
	.seh_stackalloc	88
	.cfi_def_cfa_offset 112
	leaq	128(%rsp), %rbp
	.seh_setframe	%rbp, 128
	.cfi_def_cfa 6, -16
	.seh_endprologue
	movq	%rcx, -16(%rbp)
	movq	%rdx, -8(%rbp)
	.loc 28 90 39
	movq	-16(%rbp), %rax
	movq	(%rax), %rax
	addq	$176, %rax
	movq	(%rax), %rbx
	.loc 28 90 33
	leaq	-96(%rbp), %rax
	movq	-8(%rbp), %rdx
	movq	%rax, %rcx
.LEHB23:
	call	_ZN13wxControlBase15EscapeMnemonicsERK8wxString
.LEHE23:
	.loc 28 90 17
	leaq	-96(%rbp), %rax
	movq	%rax, %rdx
	movq	-16(%rbp), %rcx
.LEHB24:
	call	*%rbx
.LVL22:
.LEHE24:
	.loc 28 90 33 discriminator 2
	leaq	-96(%rbp), %rax
	movq	%rax, %rcx
	call	_ZN8wxStringD1Ev
	.loc 28 91 5 discriminator 2
	jmp	.L311
.L310:
	movq	%rax, %rbx
	.loc 28 90 33
	leaq	-96(%rbp), %rax
	movq	%rax, %rcx
	call	_ZN8wxStringD1Ev
	movq	%rbx, %rax
	movq	%rax, %rcx
.LEHB25:
	call	_Unwind_Resume
	nop
.LEHE25:
.L311:
	.loc 28 91 5
	addq	$88, %rsp
	popq	%rbx
	.cfi_restore 3
	popq	%rbp
	.cfi_restore 6
	.cfi_def_cfa 7, -72
	ret
	.cfi_endproc
.LFE16914:
	.seh_handler	__gxx_personality_seh0, @unwind, @except
	.seh_handlerdata
.LLSDA16914:
	.byte	0xff
	.byte	0xff
	.byte	0x1
	.uleb128 .LLSDACSE16914-.LLSDACSB16914
.LLSDACSB16914:
	.uleb128 .LEHB23-.LFB16914
	.uleb128 .LEHE23-.LEHB23
	.uleb128 0
	.uleb128 0
	.uleb128 .LEHB24-.LFB16914
	.uleb128 .LEHE24-.LEHB24
	.uleb128 .L310-.LFB16914
	.uleb128 0
	.uleb128 .LEHB25-.LFB16914
	.uleb128 .LEHE25-.LEHB25
	.uleb128 0
	.uleb128 0
.LLSDACSE16914:
	.section	.text$_ZN13wxControlBase12SetLabelTextERK8wxString,"x"
	.linkonce discard
	.seh_endproc
	.section	.text$_ZNK13wxControlBase12GetLabelTextEv,"x"
	.linkonce discard
	.align 2
	.globl	_ZNK13wxControlBase12GetLabelTextEv
	.def	_ZNK13wxControlBase12GetLabelTextEv;	.scl	2;	.type	32;	.endef
	.seh_proc	_ZNK13wxControlBase12GetLabelTextEv
_ZNK13wxControlBase12GetLabelTextEv:
.LFB16915:
	.loc 28 94 22
	.cfi_startproc
	pushq	%rbp
	.seh_pushreg	%rbp
	.cfi_def_cfa_offset 16
	.cfi_offset 6, -16
	pushq	%rbx
	.seh_pushreg	%rbx
	.cfi_def_cfa_offset 24
	.cfi_offset 3, -24
	subq	$88, %rsp
	.seh_stackalloc	88
	.cfi_def_cfa_offset 112
	leaq	128(%rsp), %rbp
	.seh_setframe	%rbp, 128
	.cfi_def_cfa 6, -16
	.seh_endprologue
	movq	%rcx, -16(%rbp)
	movq	%rdx, -8(%rbp)
	.loc 28 94 74
	movq	-8(%rbp), %rax
	movq	(%rax), %rax
	addq	$184, %rax
	movq	(%rax), %r8
	.loc 28 94 73
	leaq	-96(%rbp), %rax
	movq	-8(%rbp), %rdx
	movq	%rax, %rcx
.LEHB26:
	call	*%r8
.LVL23:
.LEHE26:
	.loc 28 94 75
	movq	-16(%rbp), %rcx
	leaq	-96(%rbp), %rax
	movq	%rax, %rdx
.LEHB27:
	call	_ZN13wxControlBase12GetLabelTextERK8wxString
.LEHE27:
	nop
	.loc 28 94 73
	leaq	-96(%rbp), %rax
	movq	%rax, %rcx
	call	_ZN8wxStringD1Ev
	.loc 28 94 75
	jmp	.L316
.L315:
	movq	%rax, %rbx
	.loc 28 94 73
	leaq	-96(%rbp), %rax
	movq	%rax, %rcx
	call	_ZN8wxStringD1Ev
	movq	%rbx, %rax
	movq	%rax, %rcx
.LEHB28:
	call	_Unwind_Resume
.LEHE28:
.L316:
	.loc 28 94 78
	movq	-16(%rbp), %rax
	addq	$88, %rsp
	popq	%rbx
	.cfi_restore 3
	popq	%rbp
	.cfi_restore 6
	.cfi_def_cfa 7, -72
	ret
	.cfi_endproc
.LFE16915:
	.seh_handler	__gxx_personality_seh0, @unwind, @except
	.seh_handlerdata
.LLSDA16915:
	.byte	0xff
	.byte	0xff
	.byte	0x1
	.uleb128 .LLSDACSE16915-.LLSDACSB16915
.LLSDACSB16915:
	.uleb128 .LEHB26-.LFB16915
	.uleb128 .LEHE26-.LEHB26
	.uleb128 0
	.uleb128 0
	.uleb128 .LEHB27-.LFB16915
	.uleb128 .LEHE27-.LEHB27
	.uleb128 .L315-.LFB16915
	.uleb128 0
	.uleb128 .LEHB28-.LFB16915
	.uleb128 .LEHE28-.LEHB28
	.uleb128 0
	.uleb128 0
.LLSDACSE16915:
	.section	.text$_ZNK13wxControlBase12GetLabelTextEv,"x"
	.linkonce discard
	.seh_endproc
	.section	.text$_ZNK13wxControlBase20ShouldInheritColoursEv,"x"
	.linkonce discard
	.align 2
	.globl	_ZNK13wxControlBase20ShouldInheritColoursEv
	.def	_ZNK13wxControlBase20ShouldInheritColoursEv;	.scl	2;	.type	32;	.endef
	.seh_proc	_ZNK13wxControlBase20ShouldInheritColoursEv
_ZNK13wxControlBase20ShouldInheritColoursEv:
.LFB16917:
	.loc 28 122 18
	.cfi_startproc
	pushq	%rbp
	.seh_pushreg	%rbp
	.cfi_def_cfa_offset 16
	.cfi_offset 6, -16
	movq	%rsp, %rbp
	.seh_setframe	%rbp, 0
	.cfi_def_cfa_register 6
	.seh_endprologue
	movq	%rcx, 16(%rbp)
	.loc 28 122 56
	movl	$1, %eax
	.loc 28 122 62
	popq	%rbp
	.cfi_restore 6
	.cfi_def_cfa 7, 8
	ret
	.cfi_endproc
.LFE16917:
	.seh_endproc
	.section	.text$_ZN9wxControlC2Ev,"x"
	.linkonce discard
	.align 2
	.globl	_ZN9wxControlC2Ev
	.def	_ZN9wxControlC2Ev;	.scl	2;	.type	32;	.endef
	.seh_proc	_ZN9wxControlC2Ev
_ZN9wxControlC2Ev:
.LFB16921:
	.file 29 "../wxMSW-3.0.5_gcc810_x64_Dev/include/wx/msw/control.h"
	.loc 29 20 5
	.cfi_startproc
	pushq	%rbp
	.seh_pushreg	%rbp
	.cfi_def_cfa_offset 16
	.cfi_offset 6, -16
	pushq	%rbx
	.seh_pushreg	%rbx
	.cfi_def_cfa_offset 24
	.cfi_offset 3, -24
	subq	$40, %rsp
	.seh_stackalloc	40
	.cfi_def_cfa_offset 64
	leaq	128(%rsp), %rbp
	.seh_setframe	%rbp, 128
	.cfi_def_cfa 6, -64
	.seh_endprologue
	movq	%rcx, -64(%rbp)
.LBB58:
	.loc 29 20 17
	movq	-64(%rbp), %rax
	movq	%rax, %rcx
.LEHB29:
	call	_ZN13wxControlBaseC2Ev
.LEHE29:
	movq	.refptr._ZTV9wxControl(%rip), %rax
	leaq	16(%rax), %rdx
	movq	-64(%rbp), %rax
	movq	%rdx, (%rax)
	movq	-64(%rbp), %rax
	addq	$624, %rax
	movq	%rax, %rcx
.LEHB30:
	call	_ZN11wxArrayLongC1Ev
.LEHE30:
.LBE58:
	.loc 29 20 19
	jmp	.L322
.L321:
	movq	%rax, %rbx
.LBB59:
	.loc 29 20 17
	movq	-64(%rbp), %rax
	movq	%rax, %rcx
	call	_ZN13wxControlBaseD2Ev
	movq	%rbx, %rax
	movq	%rax, %rcx
.LEHB31:
	call	_Unwind_Resume
	nop
.LEHE31:
.L322:
.LBE59:
	.loc 29 20 19
	addq	$40, %rsp
	popq	%rbx
	.cfi_restore 3
	popq	%rbp
	.cfi_restore 6
	.cfi_def_cfa 7, -24
	ret
	.cfi_endproc
.LFE16921:
	.seh_handler	__gxx_personality_seh0, @unwind, @except
	.seh_handlerdata
.LLSDA16921:
	.byte	0xff
	.byte	0xff
	.byte	0x1
	.uleb128 .LLSDACSE16921-.LLSDACSB16921
.LLSDACSB16921:
	.uleb128 .LEHB29-.LFB16921
	.uleb128 .LEHE29-.LEHB29
	.uleb128 0
	.uleb128 0
	.uleb128 .LEHB30-.LFB16921
	.uleb128 .LEHE30-.LEHB30
	.uleb128 .L321-.LFB16921
	.uleb128 0
	.uleb128 .LEHB31-.LFB16921
	.uleb128 .LEHE31-.LEHB31
	.uleb128 0
	.uleb128 0
.LLSDACSE16921:
	.section	.text$_ZN9wxControlC2Ev,"x"
	.linkonce discard
	.seh_endproc
	.section	.text$_ZN9wxControl7CommandER14wxCommandEvent,"x"
	.linkonce discard
	.align 2
	.globl	_ZN9wxControl7CommandER14wxCommandEvent
	.def	_ZN9wxControl7CommandER14wxCommandEvent;	.scl	2;	.type	32;	.endef
	.seh_proc	_ZN9wxControl7CommandER14wxCommandEvent
_ZN9wxControl7CommandER14wxCommandEvent:
.LFB16926:
	.loc 29 39 18
	.cfi_startproc
	pushq	%rbp
	.seh_pushreg	%rbp
	.cfi_def_cfa_offset 16
	.cfi_offset 6, -16
	movq	%rsp, %rbp
	.seh_setframe	%rbp, 0
	.cfi_def_cfa_register 6
	subq	$32, %rsp
	.seh_stackalloc	32
	.seh_endprologue
	movq	%rcx, 16(%rbp)
	movq	%rdx, 24(%rbp)
	.loc 29 39 65
	movq	24(%rbp), %rax
	movq	%rax, %rdx
	movq	16(%rbp), %rcx
	call	_ZN9wxControl14ProcessCommandER14wxCommandEvent
	.loc 29 39 74
	nop
	addq	$32, %rsp
	popq	%rbp
	.cfi_restore 6
	.cfi_def_cfa 7, 8
	ret
	.cfi_endproc
.LFE16926:
	.seh_endproc
	.section	.text$_ZNK9wxControl20GetDefaultAttributesEv,"x"
	.linkonce discard
	.align 2
	.globl	_ZNK9wxControl20GetDefaultAttributesEv
	.def	_ZNK9wxControl20GetDefaultAttributesEv;	.scl	2;	.type	32;	.endef
	.seh_proc	_ZNK9wxControl20GetDefaultAttributesEv
_ZNK9wxControl20GetDefaultAttributesEv:
.LFB16927:
	.loc 29 45 32
	.cfi_startproc
	pushq	%rbp
	.seh_pushreg	%rbp
	.cfi_def_cfa_offset 16
	.cfi_offset 6, -16
	movq	%rsp, %rbp
	.seh_setframe	%rbp, 0
	.cfi_def_cfa_register 6
	subq	$32, %rsp
	.seh_stackalloc	32
	.seh_endprologue
	movq	%rcx, 16(%rbp)
	movq	%rdx, 24(%rbp)
	.loc 29 47 60
	movq	24(%rbp), %rax
	movq	%rax, %rcx
	call	_ZNK12wxWindowBase16GetWindowVariantEv
	movl	%eax, %edx
	movq	16(%rbp), %rax
	movq	%rax, %rcx
	call	_ZN9wxControl25GetClassDefaultAttributesE15wxWindowVariant
	.loc 29 48 5
	movq	16(%rbp), %rax
	addq	$32, %rsp
	popq	%rbp
	.cfi_restore 6
	.cfi_def_cfa 7, 8
	ret
	.cfi_endproc
.LFE16927:
	.seh_endproc
	.section	.text$_ZN9wxControl9MSWOnDrawEPPv,"x"
	.linkonce discard
	.align 2
	.globl	_ZN9wxControl9MSWOnDrawEPPv
	.def	_ZN9wxControl9MSWOnDrawEPPv;	.scl	2;	.type	32;	.endef
	.seh_proc	_ZN9wxControl9MSWOnDrawEPPv
_ZN9wxControl9MSWOnDrawEPPv:
.LFB16928:
	.loc 29 60 18
	.cfi_startproc
	pushq	%rbp
	.seh_pushreg	%rbp
	.cfi_def_cfa_offset 16
	.cfi_offset 6, -16
	movq	%rsp, %rbp
	.seh_setframe	%rbp, 0
	.cfi_def_cfa_register 6
	.seh_endprologue
	movq	%rcx, 16(%rbp)
	movq	%rdx, 24(%rbp)
	.loc 29 60 57
	movl	$0, %eax
	.loc 29 60 64
	popq	%rbp
	.cfi_restore 6
	.cfi_def_cfa 7, 8
	ret
	.cfi_endproc
.LFE16928:
	.seh_endproc
	.section	.text$_ZN9wxControl12MSWOnMeasureEPPv,"x"
	.linkonce discard
	.align 2
	.globl	_ZN9wxControl12MSWOnMeasureEPPv
	.def	_ZN9wxControl12MSWOnMeasureEPPv;	.scl	2;	.type	32;	.endef
	.seh_proc	_ZN9wxControl12MSWOnMeasureEPPv
_ZN9wxControl12MSWOnMeasureEPPv:
.LFB16929:
	.loc 29 61 18
	.cfi_startproc
	pushq	%rbp
	.seh_pushreg	%rbp
	.cfi_def_cfa_offset 16
	.cfi_offset 6, -16
	movq	%rsp, %rbp
	.seh_setframe	%rbp, 0
	.cfi_def_cfa_register 6
	.seh_endprologue
	movq	%rcx, 16(%rbp)
	movq	%rdx, 24(%rbp)
	.loc 29 61 63
	movl	$0, %eax
	.loc 29 61 70
	popq	%rbp
	.cfi_restore 6
	.cfi_def_cfa 7, 8
	ret
	.cfi_endproc
.LFE16929:
	.seh_endproc
	.section	.text$_ZN9wxControlD2Ev,"x"
	.linkonce discard
	.align 2
	.globl	_ZN9wxControlD2Ev
	.def	_ZN9wxControlD2Ev;	.scl	2;	.type	32;	.endef
	.seh_proc	_ZN9wxControlD2Ev
_ZN9wxControlD2Ev:
.LFB17384:
	.loc 29 17 7
	.cfi_startproc
	pushq	%rbp
	.seh_pushreg	%rbp
	.cfi_def_cfa_offset 16
	.cfi_offset 6, -16
	movq	%rsp, %rbp
	.seh_setframe	%rbp, 0
	.cfi_def_cfa_register 6
	subq	$32, %rsp
	.seh_stackalloc	32
	.seh_endprologue
	movq	%rcx, 16(%rbp)
.LBB60:
	.loc 29 17 7
	movq	.refptr._ZTV9wxControl(%rip), %rax
	leaq	16(%rax), %rdx
	movq	16(%rbp), %rax
	movq	%rdx, (%rax)
	movq	16(%rbp), %rax
	addq	$624, %rax
	movq	%rax, %rcx
	call	_ZN11wxArrayLongD1Ev
	movq	16(%rbp), %rax
	movq	%rax, %rcx
	call	_ZN13wxControlBaseD2Ev
.LBE60:
	nop
	addq	$32, %rsp
	popq	%rbp
	.cfi_restore 6
	.cfi_def_cfa 7, 8
	ret
	.cfi_endproc
.LFE17384:
	.seh_endproc
	.section	.text$_ZN15wxAnyButtonBaseC2Ev,"x"
	.linkonce discard
	.align 2
	.globl	_ZN15wxAnyButtonBaseC2Ev
	.def	_ZN15wxAnyButtonBaseC2Ev;	.scl	2;	.type	32;	.endef
	.seh_proc	_ZN15wxAnyButtonBaseC2Ev
_ZN15wxAnyButtonBaseC2Ev:
.LFB17387:
	.file 30 "../wxMSW-3.0.5_gcc810_x64_Dev/include/wx/anybutton.h"
	.loc 30 54 5
	.cfi_startproc
	pushq	%rbp
	.seh_pushreg	%rbp
	.cfi_def_cfa_offset 16
	.cfi_offset 6, -16
	movq	%rsp, %rbp
	.seh_setframe	%rbp, 0
	.cfi_def_cfa_register 6
	subq	$32, %rsp
	.seh_stackalloc	32
	.seh_endprologue
	movq	%rcx, 16(%rbp)
.LBB61:
	.loc 30 54 23
	movq	16(%rbp), %rax
	movq	%rax, %rcx
	call	_ZN9wxControlC2Ev
	leaq	16+_ZTV15wxAnyButtonBase(%rip), %rdx
	movq	16(%rbp), %rax
	movq	%rdx, (%rax)
.LBE61:
	.loc 30 54 25
	nop
	addq	$32, %rsp
	popq	%rbp
	.cfi_restore 6
	.cfi_def_cfa 7, 8
	ret
	.cfi_endproc
.LFE17387:
	.seh_endproc
	.section	.text$_ZNK15wxAnyButtonBase20ShouldInheritColoursEv,"x"
	.linkonce discard
	.align 2
	.globl	_ZNK15wxAnyButtonBase20ShouldInheritColoursEv
	.def	_ZNK15wxAnyButtonBase20ShouldInheritColoursEv;	.scl	2;	.type	32;	.endef
	.seh_proc	_ZNK15wxAnyButtonBase20ShouldInheritColoursEv
_ZNK15wxAnyButtonBase20ShouldInheritColoursEv:
.LFB17404:
	.loc 30 105 18
	.cfi_startproc
	pushq	%rbp
	.seh_pushreg	%rbp
	.cfi_def_cfa_offset 16
	.cfi_offset 6, -16
	movq	%rsp, %rbp
	.seh_setframe	%rbp, 0
	.cfi_def_cfa_register 6
	.seh_endprologue
	movq	%rcx, 16(%rbp)
	.loc 30 105 56
	movl	$0, %eax
	.loc 30 105 63
	popq	%rbp
	.cfi_restore 6
	.cfi_def_cfa 7, 8
	ret
	.cfi_endproc
.LFE17404:
	.seh_endproc
	.section	.text$_ZNK15wxAnyButtonBase16GetDefaultBorderEv,"x"
	.linkonce discard
	.align 2
	.globl	_ZNK15wxAnyButtonBase16GetDefaultBorderEv
	.def	_ZNK15wxAnyButtonBase16GetDefaultBorderEv;	.scl	2;	.type	32;	.endef
	.seh_proc	_ZNK15wxAnyButtonBase16GetDefaultBorderEv
_ZNK15wxAnyButtonBase16GetDefaultBorderEv:
.LFB17413:
	.loc 30 153 22
	.cfi_startproc
	pushq	%rbp
	.seh_pushreg	%rbp
	.cfi_def_cfa_offset 16
	.cfi_offset 6, -16
	movq	%rsp, %rbp
	.seh_setframe	%rbp, 0
	.cfi_def_cfa_register 6
	.seh_endprologue
	movq	%rcx, 16(%rbp)
	.loc 30 153 56
	movl	$2097152, %eax
	.loc 30 153 71
	popq	%rbp
	.cfi_restore 6
	.cfi_def_cfa 7, 8
	ret
	.cfi_endproc
.LFE17413:
	.seh_endproc
	.section	.text$_ZNK15wxAnyButtonBase11DoGetBitmapENS_5StateE,"x"
	.linkonce discard
	.align 2
	.globl	_ZNK15wxAnyButtonBase11DoGetBitmapENS_5StateE
	.def	_ZNK15wxAnyButtonBase11DoGetBitmapENS_5StateE;	.scl	2;	.type	32;	.endef
	.seh_proc	_ZNK15wxAnyButtonBase11DoGetBitmapENS_5StateE
_ZNK15wxAnyButtonBase11DoGetBitmapENS_5StateE:
.LFB17414:
	.loc 30 155 22
	.cfi_startproc
	pushq	%rbp
	.seh_pushreg	%rbp
	.cfi_def_cfa_offset 16
	.cfi_offset 6, -16
	movq	%rsp, %rbp
	.seh_setframe	%rbp, 0
	.cfi_def_cfa_register 6
	subq	$32, %rsp
	.seh_stackalloc	32
	.seh_endprologue
	movq	%rcx, 16(%rbp)
	movq	%rdx, 24(%rbp)
	movl	%r8d, 32(%rbp)
	.loc 30 156 27
	movq	16(%rbp), %rcx
	call	_ZN8wxBitmapC1Ev
	.loc 30 156 30
	movq	16(%rbp), %rax
	addq	$32, %rsp
	popq	%rbp
	.cfi_restore 6
	.cfi_def_cfa 7, 8
	ret
	.cfi_endproc
.LFE17414:
	.seh_endproc
	.section	.text$_ZN15wxAnyButtonBase11DoSetBitmapERK8wxBitmapNS_5StateE,"x"
	.linkonce discard
	.align 2
	.globl	_ZN15wxAnyButtonBase11DoSetBitmapERK8wxBitmapNS_5StateE
	.def	_ZN15wxAnyButtonBase11DoSetBitmapERK8wxBitmapNS_5StateE;	.scl	2;	.type	32;	.endef
	.seh_proc	_ZN15wxAnyButtonBase11DoSetBitmapERK8wxBitmapNS_5StateE
_ZN15wxAnyButtonBase11DoSetBitmapERK8wxBitmapNS_5StateE:
.LFB17415:
	.loc 30 157 18
	.cfi_startproc
	pushq	%rbp
	.seh_pushreg	%rbp
	.cfi_def_cfa_offset 16
	.cfi_offset 6, -16
	movq	%rsp, %rbp
	.seh_setframe	%rbp, 0
	.cfi_def_cfa_register 6
	.seh_endprologue
	movq	%rcx, 16(%rbp)
	movq	%rdx, 24(%rbp)
	movl	%r8d, 32(%rbp)
	.loc 30 159 11
	nop
	popq	%rbp
	.cfi_restore 6
	.cfi_def_cfa 7, 8
	ret
	.cfi_endproc
.LFE17415:
	.seh_endproc
	.section	.text$_ZNK15wxAnyButtonBase18DoGetBitmapMarginsEv,"x"
	.linkonce discard
	.align 2
	.globl	_ZNK15wxAnyButtonBase18DoGetBitmapMarginsEv
	.def	_ZNK15wxAnyButtonBase18DoGetBitmapMarginsEv;	.scl	2;	.type	32;	.endef
	.seh_proc	_ZNK15wxAnyButtonBase18DoGetBitmapMarginsEv
_ZNK15wxAnyButtonBase18DoGetBitmapMarginsEv:
.LFB17416:
	.loc 30 161 20
	.cfi_startproc
	pushq	%rbp
	.seh_pushreg	%rbp
	.cfi_def_cfa_offset 16
	.cfi_offset 6, -16
	movq	%rsp, %rbp
	.seh_setframe	%rbp, 0
	.cfi_def_cfa_register 6
	subq	$48, %rsp
	.seh_stackalloc	48
	.seh_endprologue
	movq	%rcx, 16(%rbp)
	.loc 30 162 18
	leaq	-8(%rbp), %rax
	movl	$0, %r8d
	movl	$0, %edx
	movq	%rax, %rcx
	call	_ZN6wxSizeC1Eii
	.loc 30 162 29
	movq	-8(%rbp), %rax
	.loc 30 162 32
	addq	$48, %rsp
	popq	%rbp
	.cfi_restore 6
	.cfi_def_cfa 7, 8
	ret
	.cfi_endproc
.LFE17416:
	.seh_endproc
	.section	.text$_ZN15wxAnyButtonBase18DoSetBitmapMarginsEii,"x"
	.linkonce discard
	.align 2
	.globl	_ZN15wxAnyButtonBase18DoSetBitmapMarginsEii
	.def	_ZN15wxAnyButtonBase18DoSetBitmapMarginsEii;	.scl	2;	.type	32;	.endef
	.seh_proc	_ZN15wxAnyButtonBase18DoSetBitmapMarginsEii
_ZN15wxAnyButtonBase18DoSetBitmapMarginsEii:
.LFB17417:
	.loc 30 164 18
	.cfi_startproc
	pushq	%rbp
	.seh_pushreg	%rbp
	.cfi_def_cfa_offset 16
	.cfi_offset 6, -16
	movq	%rsp, %rbp
	.seh_setframe	%rbp, 0
	.cfi_def_cfa_register 6
	.seh_endprologue
	movq	%rcx, 16(%rbp)
	movl	%edx, 24(%rbp)
	movl	%r8d, 32(%rbp)
	.loc 30 165 11
	nop
	popq	%rbp
	.cfi_restore 6
	.cfi_def_cfa 7, 8
	ret
	.cfi_endproc
.LFE17417:
	.seh_endproc
	.section	.text$_ZN15wxAnyButtonBase19DoSetBitmapPositionE11wxDirection,"x"
	.linkonce discard
	.align 2
	.globl	_ZN15wxAnyButtonBase19DoSetBitmapPositionE11wxDirection
	.def	_ZN15wxAnyButtonBase19DoSetBitmapPositionE11wxDirection;	.scl	2;	.type	32;	.endef
	.seh_proc	_ZN15wxAnyButtonBase19DoSetBitmapPositionE11wxDirection
_ZN15wxAnyButtonBase19DoSetBitmapPositionE11wxDirection:
.LFB17418:
	.loc 30 167 18
	.cfi_startproc
	pushq	%rbp
	.seh_pushreg	%rbp
	.cfi_def_cfa_offset 16
	.cfi_offset 6, -16
	movq	%rsp, %rbp
	.seh_setframe	%rbp, 0
	.cfi_def_cfa_register 6
	.seh_endprologue
	movq	%rcx, 16(%rbp)
	movl	%edx, 24(%rbp)
	.loc 30 168 11
	nop
	popq	%rbp
	.cfi_restore 6
	.cfi_def_cfa 7, 8
	ret
	.cfi_endproc
.LFE17418:
	.seh_endproc
	.section	.text$_ZNK15wxAnyButtonBase15DoGetAuthNeededEv,"x"
	.linkonce discard
	.align 2
	.globl	_ZNK15wxAnyButtonBase15DoGetAuthNeededEv
	.def	_ZNK15wxAnyButtonBase15DoGetAuthNeededEv;	.scl	2;	.type	32;	.endef
	.seh_proc	_ZNK15wxAnyButtonBase15DoGetAuthNeededEv
_ZNK15wxAnyButtonBase15DoGetAuthNeededEv:
.LFB17419:
	.loc 30 170 18
	.cfi_startproc
	pushq	%rbp
	.seh_pushreg	%rbp
	.cfi_def_cfa_offset 16
	.cfi_offset 6, -16
	movq	%rsp, %rbp
	.seh_setframe	%rbp, 0
	.cfi_def_cfa_register 6
	.seh_endprologue
	movq	%rcx, 16(%rbp)
	.loc 30 170 51
	movl	$0, %eax
	.loc 30 170 58
	popq	%rbp
	.cfi_restore 6
	.cfi_def_cfa 7, 8
	ret
	.cfi_endproc
.LFE17419:
	.seh_endproc
	.section	.text$_ZN15wxAnyButtonBase15DoSetAuthNeededEb,"x"
	.linkonce discard
	.align 2
	.globl	_ZN15wxAnyButtonBase15DoSetAuthNeededEb
	.def	_ZN15wxAnyButtonBase15DoSetAuthNeededEb;	.scl	2;	.type	32;	.endef
	.seh_proc	_ZN15wxAnyButtonBase15DoSetAuthNeededEb
_ZN15wxAnyButtonBase15DoSetAuthNeededEb:
.LFB17420:
	.loc 30 171 18
	.cfi_startproc
	pushq	%rbp
	.seh_pushreg	%rbp
	.cfi_def_cfa_offset 16
	.cfi_offset 6, -16
	movq	%rsp, %rbp
	.seh_setframe	%rbp, 0
	.cfi_def_cfa_register 6
	.seh_endprologue
	movq	%rcx, 16(%rbp)
	movl	%edx, %eax
	movb	%al, 24(%rbp)
	.loc 30 171 43
	nop
	popq	%rbp
	.cfi_restore 6
	.cfi_def_cfa 7, 8
	ret
	.cfi_endproc
.LFE17420:
	.seh_endproc
	.section	.text$_ZN15wxAnyButtonBaseD1Ev,"x"
	.linkonce discard
	.align 2
	.globl	_ZN15wxAnyButtonBaseD1Ev
	.def	_ZN15wxAnyButtonBaseD1Ev;	.scl	2;	.type	32;	.endef
	.seh_proc	_ZN15wxAnyButtonBaseD1Ev
_ZN15wxAnyButtonBaseD1Ev:
.LFB17424:
	.loc 30 51 7
	.cfi_startproc
	pushq	%rbp
	.seh_pushreg	%rbp
	.cfi_def_cfa_offset 16
	.cfi_offset 6, -16
	movq	%rsp, %rbp
	.seh_setframe	%rbp, 0
	.cfi_def_cfa_register 6
	subq	$32, %rsp
	.seh_stackalloc	32
	.seh_endprologue
	movq	%rcx, 16(%rbp)
.LBB62:
	.loc 30 51 7
	leaq	16+_ZTV15wxAnyButtonBase(%rip), %rdx
	movq	16(%rbp), %rax
	movq	%rdx, (%rax)
	movq	16(%rbp), %rax
	movq	%rax, %rcx
	call	_ZN9wxControlD2Ev
.LBE62:
	nop
	addq	$32, %rsp
	popq	%rbp
	.cfi_restore 6
	.cfi_def_cfa 7, 8
	ret
	.cfi_endproc
.LFE17424:
	.seh_endproc
	.section	.text$_ZN15wxAnyButtonBaseD0Ev,"x"
	.linkonce discard
	.align 2
	.globl	_ZN15wxAnyButtonBaseD0Ev
	.def	_ZN15wxAnyButtonBaseD0Ev;	.scl	2;	.type	32;	.endef
	.seh_proc	_ZN15wxAnyButtonBaseD0Ev
_ZN15wxAnyButtonBaseD0Ev:
.LFB17425:
	.loc 30 51 7
	.cfi_startproc
	pushq	%rbp
	.seh_pushreg	%rbp
	.cfi_def_cfa_offset 16
	.cfi_offset 6, -16
	movq	%rsp, %rbp
	.seh_setframe	%rbp, 0
	.cfi_def_cfa_register 6
	subq	$32, %rsp
	.seh_stackalloc	32
	.seh_endprologue
	movq	%rcx, 16(%rbp)
	.loc 30 51 7
	movq	16(%rbp), %rcx
	call	_ZN15wxAnyButtonBaseD1Ev
	movq	16(%rbp), %rcx
	call	_ZdlPv
	nop
	addq	$32, %rsp
	popq	%rbp
	.cfi_restore 6
	.cfi_def_cfa 7, 8
	ret
	.cfi_endproc
.LFE17425:
	.seh_endproc
	.section	.text$_ZN11wxAnyButtonC2Ev,"x"
	.linkonce discard
	.align 2
	.globl	_ZN11wxAnyButtonC2Ev
	.def	_ZN11wxAnyButtonC2Ev;	.scl	2;	.type	32;	.endef
	.seh_proc	_ZN11wxAnyButtonC2Ev
_ZN11wxAnyButtonC2Ev:
.LFB17426:
	.file 31 "../wxMSW-3.0.5_gcc810_x64_Dev/include/wx/msw/anybutton.h"
	.loc 31 20 5
	.cfi_startproc
	pushq	%rbp
	.seh_pushreg	%rbp
	.cfi_def_cfa_offset 16
	.cfi_offset 6, -16
	movq	%rsp, %rbp
	.seh_setframe	%rbp, 0
	.cfi_def_cfa_register 6
	subq	$32, %rsp
	.seh_stackalloc	32
	.seh_endprologue
	movq	%rcx, 16(%rbp)
.LBB63:
	.loc 31 21 5
	movq	16(%rbp), %rax
	movq	%rax, %rcx
	call	_ZN15wxAnyButtonBaseC2Ev
	movq	.refptr._ZTV11wxAnyButton(%rip), %rax
	leaq	16(%rax), %rdx
	movq	16(%rbp), %rax
	movq	%rdx, (%rax)
	.loc 31 22 21
	movq	16(%rbp), %rax
	movq	$0, 648(%rax)
	.loc 31 24 22
	movq	16(%rbp), %rax
	movq	$0, 656(%rax)
.LBE63:
	.loc 31 26 5
	nop
	addq	$32, %rsp
	popq	%rbp
	.cfi_restore 6
	.cfi_def_cfa 7, 8
	ret
	.cfi_endproc
.LFE17426:
	.seh_endproc
	.section	.text$_ZN12wxButtonBaseC2Ev,"x"
	.linkonce discard
	.align 2
	.globl	_ZN12wxButtonBaseC2Ev
	.def	_ZN12wxButtonBaseC2Ev;	.scl	2;	.type	32;	.endef
	.seh_proc	_ZN12wxButtonBaseC2Ev
_ZN12wxButtonBaseC2Ev:
.LFB17431:
	.file 32 "../wxMSW-3.0.5_gcc810_x64_Dev/include/wx/button.h"
	.loc 32 29 5
	.cfi_startproc
	pushq	%rbp
	.seh_pushreg	%rbp
	.cfi_def_cfa_offset 16
	.cfi_offset 6, -16
	movq	%rsp, %rbp
	.seh_setframe	%rbp, 0
	.cfi_def_cfa_register 6
	subq	$32, %rsp
	.seh_stackalloc	32
	.seh_endprologue
	movq	%rcx, 16(%rbp)
.LBB64:
	.loc 32 29 20
	movq	16(%rbp), %rax
	movq	%rax, %rcx
	call	_ZN11wxAnyButtonC2Ev
	movq	.refptr._ZTV12wxButtonBase(%rip), %rax
	leaq	16(%rax), %rdx
	movq	16(%rbp), %rax
	movq	%rdx, (%rax)
.LBE64:
	.loc 32 29 22
	nop
	addq	$32, %rsp
	popq	%rbp
	.cfi_restore 6
	.cfi_def_cfa 7, 8
	ret
	.cfi_endproc
.LFE17431:
	.seh_endproc
	.section	.text$_ZN12wxButtonBaseD2Ev,"x"
	.linkonce discard
	.align 2
	.globl	_ZN12wxButtonBaseD2Ev
	.def	_ZN12wxButtonBaseD2Ev;	.scl	2;	.type	32;	.endef
	.seh_proc	_ZN12wxButtonBaseD2Ev
_ZN12wxButtonBaseD2Ev:
.LFB17437:
	.loc 32 26 7
	.cfi_startproc
	pushq	%rbp
	.seh_pushreg	%rbp
	.cfi_def_cfa_offset 16
	.cfi_offset 6, -16
	movq	%rsp, %rbp
	.seh_setframe	%rbp, 0
	.cfi_def_cfa_register 6
	subq	$32, %rsp
	.seh_stackalloc	32
	.seh_endprologue
	movq	%rcx, 16(%rbp)
.LBB65:
	.loc 32 26 7
	movq	.refptr._ZTV12wxButtonBase(%rip), %rax
	leaq	16(%rax), %rdx
	movq	16(%rbp), %rax
	movq	%rdx, (%rax)
	movq	16(%rbp), %rax
	movq	%rax, %rcx
	call	_ZN11wxAnyButtonD2Ev
.LBE65:
	nop
	addq	$32, %rsp
	popq	%rbp
	.cfi_restore 6
	.cfi_def_cfa 7, 8
	ret
	.cfi_endproc
.LFE17437:
	.seh_endproc
	.section	.text$_ZN8wxButtonC1EP8wxWindowiRK8wxStringRK7wxPointRK6wxSizelRK11wxValidatorS4_,"x"
	.linkonce discard
	.align 2
	.globl	_ZN8wxButtonC1EP8wxWindowiRK8wxStringRK7wxPointRK6wxSizelRK11wxValidatorS4_
	.def	_ZN8wxButtonC1EP8wxWindowiRK8wxStringRK7wxPointRK6wxSizelRK11wxValidatorS4_;	.scl	2;	.type	32;	.endef
	.seh_proc	_ZN8wxButtonC1EP8wxWindowiRK8wxStringRK7wxPointRK6wxSizelRK11wxValidatorS4_
_ZN8wxButtonC1EP8wxWindowiRK8wxStringRK7wxPointRK6wxSizelRK11wxValidatorS4_:
.LFB17444:
	.file 33 "../wxMSW-3.0.5_gcc810_x64_Dev/include/wx/msw/button.h"
	.loc 33 22 5
	.cfi_startproc
	pushq	%rbp
	.seh_pushreg	%rbp
	.cfi_def_cfa_offset 16
	.cfi_offset 6, -16
	pushq	%rbx
	.seh_pushreg	%rbx
	.cfi_def_cfa_offset 24
	.cfi_offset 3, -24
	subq	$88, %rsp
	.seh_stackalloc	88
	.cfi_def_cfa_offset 112
	leaq	128(%rsp), %rbp
	.seh_setframe	%rbp, 128
	.cfi_def_cfa 6, -16
	.seh_endprologue
	movq	%rcx, -16(%rbp)
	movq	%rdx, -8(%rbp)
	movl	%r8d, 0(%rbp)
	movq	%r9, 8(%rbp)
.LBB66:
	.loc 33 30 5
	movq	-16(%rbp), %rax
	movq	%rax, %rcx
.LEHB32:
	call	_ZN12wxButtonBaseC2Ev
.LEHE32:
	movq	.refptr._ZTV8wxButton(%rip), %rax
	leaq	16(%rax), %rdx
	movq	-16(%rbp), %rax
	movq	%rdx, (%rax)
	.loc 33 31 13
	movq	-16(%rbp), %rcx
	call	_ZN8wxButton4InitEv
	.loc 33 33 15
	movq	8(%rbp), %r8
	movl	0(%rbp), %ecx
	movq	-8(%rbp), %rax
	movq	48(%rbp), %rdx
	movq	%rdx, 64(%rsp)
	movq	40(%rbp), %rdx
	movq	%rdx, 56(%rsp)
	movl	32(%rbp), %edx
	movl	%edx, 48(%rsp)
	movq	24(%rbp), %rdx
	movq	%rdx, 40(%rsp)
	movq	16(%rbp), %rdx
	movq	%rdx, 32(%rsp)
	movq	%r8, %r9
	movl	%ecx, %r8d
	movq	%rax, %rdx
	movq	-16(%rbp), %rcx
.LEHB33:
	call	_ZN8wxButton6CreateEP8wxWindowiRK8wxStringRK7wxPointRK6wxSizelRK11wxValidatorS4_
.LEHE33:
.LBE66:
	.loc 33 34 5
	jmp	.L354
.L353:
	movq	%rax, %rbx
.LBB67:
	.loc 33 30 5
	movq	-16(%rbp), %rax
	movq	%rax, %rcx
	call	_ZN12wxButtonBaseD2Ev
	movq	%rbx, %rax
	movq	%rax, %rcx
.LEHB34:
	call	_Unwind_Resume
	nop
.LEHE34:
.L354:
.LBE67:
	.loc 33 34 5
	addq	$88, %rsp
	popq	%rbx
	.cfi_restore 3
	popq	%rbp
	.cfi_restore 6
	.cfi_def_cfa 7, -72
	ret
	.cfi_endproc
.LFE17444:
	.seh_handler	__gxx_personality_seh0, @unwind, @except
	.seh_handlerdata
.LLSDA17444:
	.byte	0xff
	.byte	0xff
	.byte	0x1
	.uleb128 .LLSDACSE17444-.LLSDACSB17444
.LLSDACSB17444:
	.uleb128 .LEHB32-.LFB17444
	.uleb128 .LEHE32-.LEHB32
	.uleb128 0
	.uleb128 0
	.uleb128 .LEHB33-.LFB17444
	.uleb128 .LEHE33-.LEHB33
	.uleb128 .L353-.LFB17444
	.uleb128 0
	.uleb128 .LEHB34-.LFB17444
	.uleb128 .LEHE34-.LEHB34
	.uleb128 0
	.uleb128 0
.LLSDACSE17444:
	.section	.text$_ZN8wxButtonC1EP8wxWindowiRK8wxStringRK7wxPointRK6wxSizelRK11wxValidatorS4_,"x"
	.linkonce discard
	.seh_endproc
	.section	.text$_ZN8wxButton4InitEv,"x"
	.linkonce discard
	.align 2
	.globl	_ZN8wxButton4InitEv
	.def	_ZN8wxButton4InitEv;	.scl	2;	.type	32;	.endef
	.seh_proc	_ZN8wxButton4InitEv
_ZN8wxButton4InitEv:
.LFB17445:
	.loc 33 74 10
	.cfi_startproc
	pushq	%rbp
	.seh_pushreg	%rbp
	.cfi_def_cfa_offset 16
	.cfi_offset 6, -16
	movq	%rsp, %rbp
	.seh_setframe	%rbp, 0
	.cfi_def_cfa_register 6
	.seh_endprologue
	movq	%rcx, 16(%rbp)
	.loc 33 76 22
	movq	16(%rbp), %rax
	movb	$0, 664(%rax)
	.loc 33 77 5
	nop
	popq	%rbp
	.cfi_restore 6
	.cfi_def_cfa 7, 8
	ret
	.cfi_endproc
.LFE17445:
	.seh_endproc
	.section	.text$_ZN15wxStaticBoxBase24HasTransparentBackgroundEv,"x"
	.linkonce discard
	.align 2
	.globl	_ZN15wxStaticBoxBase24HasTransparentBackgroundEv
	.def	_ZN15wxStaticBoxBase24HasTransparentBackgroundEv;	.scl	2;	.type	32;	.endef
	.seh_proc	_ZN15wxStaticBoxBase24HasTransparentBackgroundEv
_ZN15wxStaticBoxBase24HasTransparentBackgroundEv:
.LFB17616:
	.file 34 "../wxMSW-3.0.5_gcc810_x64_Dev/include/wx/statbox.h"
	.loc 34 33 18
	.cfi_startproc
	pushq	%rbp
	.seh_pushreg	%rbp
	.cfi_def_cfa_offset 16
	.cfi_offset 6, -16
	movq	%rsp, %rbp
	.seh_setframe	%rbp, 0
	.cfi_def_cfa_register 6
	.seh_endprologue
	movq	%rcx, 16(%rbp)
	.loc 34 33 54
	movl	$1, %eax
	.loc 34 33 60
	popq	%rbp
	.cfi_restore 6
	.cfi_def_cfa 7, 8
	ret
	.cfi_endproc
.LFE17616:
	.seh_endproc
	.section	.text$_ZNK15wxStaticBoxBase18GetBordersForSizerEPiS0_,"x"
	.linkonce discard
	.align 2
	.globl	_ZNK15wxStaticBoxBase18GetBordersForSizerEPiS0_
	.def	_ZNK15wxStaticBoxBase18GetBordersForSizerEPiS0_;	.scl	2;	.type	32;	.endef
	.seh_proc	_ZNK15wxStaticBoxBase18GetBordersForSizerEPiS0_
_ZNK15wxStaticBoxBase18GetBordersForSizerEPiS0_:
.LFB17617:
	.loc 34 40 18
	.cfi_startproc
	pushq	%rbp
	.seh_pushreg	%rbp
	.cfi_def_cfa_offset 16
	.cfi_offset 6, -16
	pushq	%rbx
	.seh_pushreg	%rbx
	.cfi_def_cfa_offset 24
	.cfi_offset 3, -24
	subq	$104, %rsp
	.seh_stackalloc	104
	.cfi_def_cfa_offset 128
	leaq	128(%rsp), %rbp
	.seh_setframe	%rbp, 128
	.cfi_def_cfa 6, 0
	.seh_endprologue
	movq	%rcx, 0(%rbp)
	movq	%rdx, 8(%rbp)
	movq	%r8, 16(%rbp)
	.loc 34 42 19
	movl	$5, -36(%rbp)
	.loc 34 44 30
	movq	0(%rbp), %rdx
	.loc 34 44 31
	movq	0(%rbp), %rax
	movq	(%rax), %rax
	addq	$184, %rax
	movq	(%rax), %r8
	.loc 34 44 30
	leaq	-96(%rbp), %rax
	movq	%rax, %rcx
.LEHB35:
	call	*%r8
.LVL24:
.LEHE35:
	.loc 34 44 38
	leaq	-96(%rbp), %rax
	movq	%rax, %rcx
	call	_ZNK8wxString5emptyEv
	.loc 34 44 41
	testb	%al, %al
	je	.L359
	.loc 34 44 41 is_stmt 0 discriminator 1
	movl	$5, %edx
	jmp	.L360
.L359:
	.loc 34 44 65 is_stmt 1 discriminator 2
	movq	0(%rbp), %rdx
	.loc 34 44 66 discriminator 2
	movq	0(%rbp), %rax
	movq	(%rax), %rax
	addq	$864, %rax
	movq	(%rax), %rax
	.loc 34 44 65 discriminator 2
	movq	%rdx, %rcx
.LEHB36:
	call	*%rax
.LVL25:
.LEHE36:
	movl	%eax, %edx
.L360:
	.loc 34 44 20 discriminator 6
	movq	8(%rbp), %rax
	movl	%edx, (%rax)
	.loc 34 44 30 discriminator 6
	leaq	-96(%rbp), %rax
	movq	%rax, %rcx
	call	_ZN8wxStringD1Ev
	.loc 34 45 22 discriminator 6
	movq	16(%rbp), %rax
	movl	$5, (%rax)
	.loc 34 46 5 discriminator 6
	jmp	.L363
.L362:
	movq	%rax, %rbx
	.loc 34 44 30
	leaq	-96(%rbp), %rax
	movq	%rax, %rcx
	call	_ZN8wxStringD1Ev
	movq	%rbx, %rax
	movq	%rax, %rcx
.LEHB37:
	call	_Unwind_Resume
	nop
.LEHE37:
.L363:
	.loc 34 46 5
	addq	$104, %rsp
	popq	%rbx
	.cfi_restore 3
	popq	%rbp
	.cfi_restore 6
	.cfi_def_cfa 7, -88
	ret
	.cfi_endproc
.LFE17617:
	.seh_handler	__gxx_personality_seh0, @unwind, @except
	.seh_handlerdata
.LLSDA17617:
	.byte	0xff
	.byte	0xff
	.byte	0x1
	.uleb128 .LLSDACSE17617-.LLSDACSB17617
.LLSDACSB17617:
	.uleb128 .LEHB35-.LFB17617
	.uleb128 .LEHE35-.LEHB35
	.uleb128 0
	.uleb128 0
	.uleb128 .LEHB36-.LFB17617
	.uleb128 .LEHE36-.LEHB36
	.uleb128 .L362-.LFB17617
	.uleb128 0
	.uleb128 .LEHB37-.LFB17617
	.uleb128 .LEHE37-.LEHB37
	.uleb128 0
	.uleb128 0
.LLSDACSE17617:
	.section	.text$_ZNK15wxStaticBoxBase18GetBordersForSizerEPiS0_,"x"
	.linkonce discard
	.seh_endproc
	.section	.text$_ZNK15wxStaticBoxBase16GetDefaultBorderEv,"x"
	.linkonce discard
	.align 2
	.globl	_ZNK15wxStaticBoxBase16GetDefaultBorderEv
	.def	_ZNK15wxStaticBoxBase16GetDefaultBorderEv;	.scl	2;	.type	32;	.endef
	.seh_proc	_ZNK15wxStaticBoxBase16GetDefaultBorderEv
_ZNK15wxStaticBoxBase16GetDefaultBorderEv:
.LFB17618:
	.loc 34 50 22
	.cfi_startproc
	pushq	%rbp
	.seh_pushreg	%rbp
	.cfi_def_cfa_offset 16
	.cfi_offset 6, -16
	movq	%rsp, %rbp
	.seh_setframe	%rbp, 0
	.cfi_def_cfa_register 6
	.seh_endprologue
	movq	%rcx, 16(%rbp)
	.loc 34 50 56
	movl	$2097152, %eax
	.loc 34 50 71
	popq	%rbp
	.cfi_restore 6
	.cfi_def_cfa 7, 8
	ret
	.cfi_endproc
.LFE17618:
	.seh_endproc
	.section	.text$_ZN19wxNavigationEnabledI9wxControlED2Ev,"x"
	.linkonce discard
	.align 2
	.globl	_ZN19wxNavigationEnabledI9wxControlED2Ev
	.def	_ZN19wxNavigationEnabledI9wxControlED2Ev;	.scl	2;	.type	32;	.endef
	.seh_proc	_ZN19wxNavigationEnabledI9wxControlED2Ev
_ZN19wxNavigationEnabledI9wxControlED2Ev:
.LFB17622:
	.loc 22 182 7
	.cfi_startproc
	pushq	%rbp
	.seh_pushreg	%rbp
	.cfi_def_cfa_offset 16
	.cfi_offset 6, -16
	movq	%rsp, %rbp
	.seh_setframe	%rbp, 0
	.cfi_def_cfa_register 6
	subq	$32, %rsp
	.seh_stackalloc	32
	.seh_endprologue
	movq	%rcx, 16(%rbp)
.LBB68:
	.loc 22 182 7
	leaq	16+_ZTV19wxNavigationEnabledI9wxControlE(%rip), %rdx
	movq	16(%rbp), %rax
	movq	%rdx, (%rax)
	movq	16(%rbp), %rax
	addq	$648, %rax
	movq	%rax, %rcx
	call	_ZN18wxControlContainerD1Ev
	movq	16(%rbp), %rax
	movq	%rax, %rcx
	call	_ZN9wxControlD2Ev
.LBE68:
	nop
	addq	$32, %rsp
	popq	%rbp
	.cfi_restore 6
	.cfi_def_cfa 7, 8
	ret
	.cfi_endproc
.LFE17622:
	.seh_endproc
	.section	.text$_ZN19wxNavigationEnabledI9wxControlED1Ev,"x"
	.linkonce discard
	.align 2
	.globl	_ZN19wxNavigationEnabledI9wxControlED1Ev
	.def	_ZN19wxNavigationEnabledI9wxControlED1Ev;	.scl	2;	.type	32;	.endef
	.seh_proc	_ZN19wxNavigationEnabledI9wxControlED1Ev
_ZN19wxNavigationEnabledI9wxControlED1Ev:
.LFB17623:
	.loc 22 182 7
	.cfi_startproc
	pushq	%rbp
	.seh_pushreg	%rbp
	.cfi_def_cfa_offset 16
	.cfi_offset 6, -16
	movq	%rsp, %rbp
	.seh_setframe	%rbp, 0
	.cfi_def_cfa_register 6
	subq	$32, %rsp
	.seh_stackalloc	32
	.seh_endprologue
	movq	%rcx, 16(%rbp)
.LBB69:
	.loc 22 182 7
	leaq	16+_ZTV19wxNavigationEnabledI9wxControlE(%rip), %rdx
	movq	16(%rbp), %rax
	movq	%rdx, (%rax)
	movq	16(%rbp), %rax
	addq	$648, %rax
	movq	%rax, %rcx
	call	_ZN18wxControlContainerD1Ev
	movq	16(%rbp), %rax
	movq	%rax, %rcx
	call	_ZN9wxControlD2Ev
.LBE69:
	nop
	addq	$32, %rsp
	popq	%rbp
	.cfi_restore 6
	.cfi_def_cfa 7, 8
	ret
	.cfi_endproc
.LFE17623:
	.seh_endproc
	.section	.text$_ZN19wxNavigationEnabledI9wxControlED0Ev,"x"
	.linkonce discard
	.align 2
	.globl	_ZN19wxNavigationEnabledI9wxControlED0Ev
	.def	_ZN19wxNavigationEnabledI9wxControlED0Ev;	.scl	2;	.type	32;	.endef
	.seh_proc	_ZN19wxNavigationEnabledI9wxControlED0Ev
_ZN19wxNavigationEnabledI9wxControlED0Ev:
.LFB17624:
	.loc 22 182 7
	.cfi_startproc
	pushq	%rbp
	.seh_pushreg	%rbp
	.cfi_def_cfa_offset 16
	.cfi_offset 6, -16
	movq	%rsp, %rbp
	.seh_setframe	%rbp, 0
	.cfi_def_cfa_register 6
	subq	$32, %rsp
	.seh_stackalloc	32
	.seh_endprologue
	movq	%rcx, 16(%rbp)
	.loc 22 182 7
	movq	16(%rbp), %rcx
	call	_ZN19wxNavigationEnabledI9wxControlED1Ev
	movq	16(%rbp), %rcx
	call	_ZdlPv
	nop
	addq	$32, %rsp
	popq	%rbp
	.cfi_restore 6
	.cfi_def_cfa 7, 8
	ret
	.cfi_endproc
.LFE17624:
	.seh_endproc
	.section	.text$_ZN15wxStaticBoxBaseD2Ev,"x"
	.linkonce discard
	.align 2
	.globl	_ZN15wxStaticBoxBaseD2Ev
	.def	_ZN15wxStaticBoxBaseD2Ev;	.scl	2;	.type	32;	.endef
	.seh_proc	_ZN15wxStaticBoxBaseD2Ev
_ZN15wxStaticBoxBaseD2Ev:
.LFB17625:
	.loc 34 27 7
	.cfi_startproc
	pushq	%rbp
	.seh_pushreg	%rbp
	.cfi_def_cfa_offset 16
	.cfi_offset 6, -16
	movq	%rsp, %rbp
	.seh_setframe	%rbp, 0
	.cfi_def_cfa_register 6
	subq	$32, %rsp
	.seh_stackalloc	32
	.seh_endprologue
	movq	%rcx, 16(%rbp)
.LBB70:
	.loc 34 27 7
	leaq	16+_ZTV15wxStaticBoxBase(%rip), %rdx
	movq	16(%rbp), %rax
	movq	%rdx, (%rax)
	movq	16(%rbp), %rax
	movq	%rax, %rcx
	call	_ZN19wxNavigationEnabledI9wxControlED2Ev
.LBE70:
	nop
	addq	$32, %rsp
	popq	%rbp
	.cfi_restore 6
	.cfi_def_cfa 7, 8
	ret
	.cfi_endproc
.LFE17625:
	.seh_endproc
	.section	.text$_ZN15wxStaticBoxBaseD1Ev,"x"
	.linkonce discard
	.align 2
	.globl	_ZN15wxStaticBoxBaseD1Ev
	.def	_ZN15wxStaticBoxBaseD1Ev;	.scl	2;	.type	32;	.endef
	.seh_proc	_ZN15wxStaticBoxBaseD1Ev
_ZN15wxStaticBoxBaseD1Ev:
.LFB17626:
	.loc 34 27 7
	.cfi_startproc
	pushq	%rbp
	.seh_pushreg	%rbp
	.cfi_def_cfa_offset 16
	.cfi_offset 6, -16
	movq	%rsp, %rbp
	.seh_setframe	%rbp, 0
	.cfi_def_cfa_register 6
	subq	$32, %rsp
	.seh_stackalloc	32
	.seh_endprologue
	movq	%rcx, 16(%rbp)
.LBB71:
	.loc 34 27 7
	leaq	16+_ZTV15wxStaticBoxBase(%rip), %rdx
	movq	16(%rbp), %rax
	movq	%rdx, (%rax)
	movq	16(%rbp), %rax
	movq	%rax, %rcx
	call	_ZN19wxNavigationEnabledI9wxControlED2Ev
.LBE71:
	nop
	addq	$32, %rsp
	popq	%rbp
	.cfi_restore 6
	.cfi_def_cfa 7, 8
	ret
	.cfi_endproc
.LFE17626:
	.seh_endproc
	.section	.text$_ZN15wxStaticBoxBaseD0Ev,"x"
	.linkonce discard
	.align 2
	.globl	_ZN15wxStaticBoxBaseD0Ev
	.def	_ZN15wxStaticBoxBaseD0Ev;	.scl	2;	.type	32;	.endef
	.seh_proc	_ZN15wxStaticBoxBaseD0Ev
_ZN15wxStaticBoxBaseD0Ev:
.LFB17627:
	.loc 34 27 7
	.cfi_startproc
	pushq	%rbp
	.seh_pushreg	%rbp
	.cfi_def_cfa_offset 16
	.cfi_offset 6, -16
	movq	%rsp, %rbp
	.seh_setframe	%rbp, 0
	.cfi_def_cfa_register 6
	subq	$32, %rsp
	.seh_stackalloc	32
	.seh_endprologue
	movq	%rcx, 16(%rbp)
	.loc 34 27 7
	movq	16(%rbp), %rcx
	call	_ZN15wxStaticBoxBaseD1Ev
	movq	16(%rbp), %rcx
	call	_ZdlPv
	nop
	addq	$32, %rsp
	popq	%rbp
	.cfi_restore 6
	.cfi_def_cfa 7, 8
	ret
	.cfi_endproc
.LFE17627:
	.seh_endproc
	.section	.text$_ZN11wxStaticBoxC1EP8wxWindowiRK8wxStringRK7wxPointRK6wxSizelS4_,"x"
	.linkonce discard
	.align 2
	.globl	_ZN11wxStaticBoxC1EP8wxWindowiRK8wxStringRK7wxPointRK6wxSizelS4_
	.def	_ZN11wxStaticBoxC1EP8wxWindowiRK8wxStringRK7wxPointRK6wxSizelS4_;	.scl	2;	.type	32;	.endef
	.seh_proc	_ZN11wxStaticBoxC1EP8wxWindowiRK8wxStringRK7wxPointRK6wxSizelS4_
_ZN11wxStaticBoxC1EP8wxWindowiRK8wxStringRK7wxPointRK6wxSizelS4_:
.LFB17632:
	.file 35 "../wxMSW-3.0.5_gcc810_x64_Dev/include/wx/msw/statbox.h"
	.loc 35 20 5
	.cfi_startproc
	pushq	%rbp
	.seh_pushreg	%rbp
	.cfi_def_cfa_offset 16
	.cfi_offset 6, -16
	pushq	%rbx
	.seh_pushreg	%rbx
	.cfi_def_cfa_offset 24
	.cfi_offset 3, -24
	subq	$72, %rsp
	.seh_stackalloc	72
	.cfi_def_cfa_offset 96
	leaq	128(%rsp), %rbp
	.seh_setframe	%rbp, 128
	.cfi_def_cfa 6, -32
	.seh_endprologue
	movq	%rcx, -32(%rbp)
	movq	%rdx, -24(%rbp)
	movl	%r8d, -16(%rbp)
	movq	%r9, -8(%rbp)
.LBB72:
	.loc 35 26 5
	movq	-32(%rbp), %rax
	movq	%rax, %rcx
.LEHB38:
	call	_ZN15wxStaticBoxBaseC2Ev
.LEHE38:
	movq	.refptr._ZTV11wxStaticBox(%rip), %rax
	leaq	16(%rax), %rdx
	movq	-32(%rbp), %rax
	movq	%rdx, (%rax)
	.loc 35 27 15
	movq	-8(%rbp), %r8
	movl	-16(%rbp), %ecx
	movq	-24(%rbp), %rax
	movq	24(%rbp), %rdx
	movq	%rdx, 56(%rsp)
	movl	16(%rbp), %edx
	movl	%edx, 48(%rsp)
	movq	8(%rbp), %rdx
	movq	%rdx, 40(%rsp)
	movq	0(%rbp), %rdx
	movq	%rdx, 32(%rsp)
	movq	%r8, %r9
	movl	%ecx, %r8d
	movq	%rax, %rdx
	movq	-32(%rbp), %rcx
.LEHB39:
	call	_ZN11wxStaticBox6CreateEP8wxWindowiRK8wxStringRK7wxPointRK6wxSizelS4_
.LEHE39:
.LBE72:
	.loc 35 28 5
	jmp	.L375
.L374:
	movq	%rax, %rbx
.LBB73:
	.loc 35 26 5
	movq	-32(%rbp), %rax
	movq	%rax, %rcx
	call	_ZN15wxStaticBoxBaseD2Ev
	movq	%rbx, %rax
	movq	%rax, %rcx
.LEHB40:
	call	_Unwind_Resume
	nop
.LEHE40:
.L375:
.LBE73:
	.loc 35 28 5
	addq	$72, %rsp
	popq	%rbx
	.cfi_restore 3
	popq	%rbp
	.cfi_restore 6
	.cfi_def_cfa 7, -56
	ret
	.cfi_endproc
.LFE17632:
	.seh_handler	__gxx_personality_seh0, @unwind, @except
	.seh_handlerdata
.LLSDA17632:
	.byte	0xff
	.byte	0xff
	.byte	0x1
	.uleb128 .LLSDACSE17632-.LLSDACSB17632
.LLSDACSB17632:
	.uleb128 .LEHB38-.LFB17632
	.uleb128 .LEHE38-.LEHB38
	.uleb128 0
	.uleb128 0
	.uleb128 .LEHB39-.LFB17632
	.uleb128 .LEHE39-.LEHB39
	.uleb128 .L374-.LFB17632
	.uleb128 0
	.uleb128 .LEHB40-.LFB17632
	.uleb128 .LEHE40-.LEHB40
	.uleb128 0
	.uleb128 0
.LLSDACSE17632:
	.section	.text$_ZN11wxStaticBoxC1EP8wxWindowiRK8wxStringRK7wxPointRK6wxSizelS4_,"x"
	.linkonce discard
	.seh_endproc
	.section	.text$_ZN16wxStaticTextBaseC2Ev,"x"
	.linkonce discard
	.align 2
	.globl	_ZN16wxStaticTextBaseC2Ev
	.def	_ZN16wxStaticTextBaseC2Ev;	.scl	2;	.type	32;	.endef
	.seh_proc	_ZN16wxStaticTextBaseC2Ev
_ZN16wxStaticTextBaseC2Ev:
.LFB17635:
	.file 36 "../wxMSW-3.0.5_gcc810_x64_Dev/include/wx/stattext.h"
	.loc 36 34 5
	.cfi_startproc
	pushq	%rbp
	.seh_pushreg	%rbp
	.cfi_def_cfa_offset 16
	.cfi_offset 6, -16
	movq	%rsp, %rbp
	.seh_setframe	%rbp, 0
	.cfi_def_cfa_register 6
	subq	$32, %rsp
	.seh_stackalloc	32
	.seh_endprologue
	movq	%rcx, 16(%rbp)
.LBB74:
	.loc 36 34 24
	movq	16(%rbp), %rax
	movq	%rax, %rcx
	call	_ZN9wxControlC2Ev
	movq	.refptr._ZTV16wxStaticTextBase(%rip), %rax
	leaq	16(%rax), %rdx
	movq	16(%rbp), %rax
	movq	%rdx, (%rax)
.LBE74:
	.loc 36 34 26
	nop
	addq	$32, %rsp
	popq	%rbp
	.cfi_restore 6
	.cfi_def_cfa 7, 8
	ret
	.cfi_endproc
.LFE17635:
	.seh_endproc
	.section	.text$_ZN16wxStaticTextBaseD2Ev,"x"
	.linkonce discard
	.align 2
	.globl	_ZN16wxStaticTextBaseD2Ev
	.def	_ZN16wxStaticTextBaseD2Ev;	.scl	2;	.type	32;	.endef
	.seh_proc	_ZN16wxStaticTextBaseD2Ev
_ZN16wxStaticTextBaseD2Ev:
.LFB17645:
	.loc 36 31 7
	.cfi_startproc
	pushq	%rbp
	.seh_pushreg	%rbp
	.cfi_def_cfa_offset 16
	.cfi_offset 6, -16
	movq	%rsp, %rbp
	.seh_setframe	%rbp, 0
	.cfi_def_cfa_register 6
	subq	$32, %rsp
	.seh_stackalloc	32
	.seh_endprologue
	movq	%rcx, 16(%rbp)
.LBB75:
	.loc 36 31 7
	movq	.refptr._ZTV16wxStaticTextBase(%rip), %rax
	leaq	16(%rax), %rdx
	movq	16(%rbp), %rax
	movq	%rdx, (%rax)
	movq	16(%rbp), %rax
	movq	%rax, %rcx
	call	_ZN9wxControlD2Ev
.LBE75:
	nop
	addq	$32, %rsp
	popq	%rbp
	.cfi_restore 6
	.cfi_def_cfa 7, 8
	ret
	.cfi_endproc
.LFE17645:
	.seh_endproc
	.section	.text$_ZN12wxStaticTextC1EP8wxWindowiRK8wxStringRK7wxPointRK6wxSizelS4_,"x"
	.linkonce discard
	.align 2
	.globl	_ZN12wxStaticTextC1EP8wxWindowiRK8wxStringRK7wxPointRK6wxSizelS4_
	.def	_ZN12wxStaticTextC1EP8wxWindowiRK8wxStringRK7wxPointRK6wxSizelS4_;	.scl	2;	.type	32;	.endef
	.seh_proc	_ZN12wxStaticTextC1EP8wxWindowiRK8wxStringRK7wxPointRK6wxSizelS4_
_ZN12wxStaticTextC1EP8wxWindowiRK8wxStringRK7wxPointRK6wxSizelS4_:
.LFB17652:
	.file 37 "../wxMSW-3.0.5_gcc810_x64_Dev/include/wx/msw/stattext.h"
	.loc 37 19 5
	.cfi_startproc
	pushq	%rbp
	.seh_pushreg	%rbp
	.cfi_def_cfa_offset 16
	.cfi_offset 6, -16
	pushq	%rbx
	.seh_pushreg	%rbx
	.cfi_def_cfa_offset 24
	.cfi_offset 3, -24
	subq	$72, %rsp
	.seh_stackalloc	72
	.cfi_def_cfa_offset 96
	leaq	128(%rsp), %rbp
	.seh_setframe	%rbp, 128
	.cfi_def_cfa 6, -32
	.seh_endprologue
	movq	%rcx, -32(%rbp)
	movq	%rdx, -24(%rbp)
	movl	%r8d, -16(%rbp)
	movq	%r9, -8(%rbp)
.LBB76:
	.loc 37 26 5
	movq	-32(%rbp), %rax
	movq	%rax, %rcx
.LEHB41:
	call	_ZN16wxStaticTextBaseC2Ev
.LEHE41:
	movq	.refptr._ZTV12wxStaticText(%rip), %rax
	leaq	16(%rax), %rdx
	movq	-32(%rbp), %rax
	movq	%rdx, (%rax)
	.loc 37 27 15
	movq	-8(%rbp), %r8
	movl	-16(%rbp), %ecx
	movq	-24(%rbp), %rax
	movq	24(%rbp), %rdx
	movq	%rdx, 56(%rsp)
	movl	16(%rbp), %edx
	movl	%edx, 48(%rsp)
	movq	8(%rbp), %rdx
	movq	%rdx, 40(%rsp)
	movq	0(%rbp), %rdx
	movq	%rdx, 32(%rsp)
	movq	%r8, %r9
	movl	%ecx, %r8d
	movq	%rax, %rdx
	movq	-32(%rbp), %rcx
.LEHB42:
	call	_ZN12wxStaticText6CreateEP8wxWindowiRK8wxStringRK7wxPointRK6wxSizelS4_
.LEHE42:
.LBE76:
	.loc 37 28 5
	jmp	.L381
.L380:
	movq	%rax, %rbx
.LBB77:
	.loc 37 26 5
	movq	-32(%rbp), %rax
	movq	%rax, %rcx
	call	_ZN16wxStaticTextBaseD2Ev
	movq	%rbx, %rax
	movq	%rax, %rcx
.LEHB43:
	call	_Unwind_Resume
	nop
.LEHE43:
.L381:
.LBE77:
	.loc 37 28 5
	addq	$72, %rsp
	popq	%rbx
	.cfi_restore 3
	popq	%rbp
	.cfi_restore 6
	.cfi_def_cfa 7, -56
	ret
	.cfi_endproc
.LFE17652:
	.seh_handler	__gxx_personality_seh0, @unwind, @except
	.seh_handlerdata
.LLSDA17652:
	.byte	0xff
	.byte	0xff
	.byte	0x1
	.uleb128 .LLSDACSE17652-.LLSDACSB17652
.LLSDACSB17652:
	.uleb128 .LEHB41-.LFB17652
	.uleb128 .LEHE41-.LEHB41
	.uleb128 0
	.uleb128 0
	.uleb128 .LEHB42-.LFB17652
	.uleb128 .LEHE42-.LEHB42
	.uleb128 .L380-.LFB17652
	.uleb128 0
	.uleb128 .LEHB43-.LFB17652
	.uleb128 .LEHE43-.LEHB43
	.uleb128 0
	.uleb128 0
.LLSDACSE17652:
	.section	.text$_ZN12wxStaticTextC1EP8wxWindowiRK8wxStringRK7wxPointRK6wxSizelS4_,"x"
	.linkonce discard
	.seh_endproc
	.section	.text$_ZN10BaseObjectD2Ev,"x"
	.linkonce discard
	.align 2
	.globl	_ZN10BaseObjectD2Ev
	.def	_ZN10BaseObjectD2Ev;	.scl	2;	.type	32;	.endef
	.seh_proc	_ZN10BaseObjectD2Ev
_ZN10BaseObjectD2Ev:
.LFB17654:
	.file 38 "../../CalculadorNumerico/projetil/../padroes/baseobject.h"
	.loc 38 8 17
	.cfi_startproc
	pushq	%rbp
	.seh_pushreg	%rbp
	.cfi_def_cfa_offset 16
	.cfi_offset 6, -16
	movq	%rsp, %rbp
	.seh_setframe	%rbp, 0
	.cfi_def_cfa_register 6
	.seh_endprologue
	movq	%rcx, 16(%rbp)
.LBB78:
	.loc 38 8 31
	leaq	16+_ZTV10BaseObject(%rip), %rdx
	movq	16(%rbp), %rax
	movq	%rdx, (%rax)
.LBE78:
	.loc 38 8 32
	nop
	popq	%rbp
	.cfi_restore 6
	.cfi_def_cfa 7, 8
	ret
	.cfi_endproc
.LFE17654:
	.seh_endproc
	.section	.text$_ZN10BaseObjectD1Ev,"x"
	.linkonce discard
	.align 2
	.globl	_ZN10BaseObjectD1Ev
	.def	_ZN10BaseObjectD1Ev;	.scl	2;	.type	32;	.endef
	.seh_proc	_ZN10BaseObjectD1Ev
_ZN10BaseObjectD1Ev:
.LFB17655:
	.loc 38 8 17
	.cfi_startproc
	pushq	%rbp
	.seh_pushreg	%rbp
	.cfi_def_cfa_offset 16
	.cfi_offset 6, -16
	movq	%rsp, %rbp
	.seh_setframe	%rbp, 0
	.cfi_def_cfa_register 6
	.seh_endprologue
	movq	%rcx, 16(%rbp)
.LBB79:
	.loc 38 8 31
	leaq	16+_ZTV10BaseObject(%rip), %rdx
	movq	16(%rbp), %rax
	movq	%rdx, (%rax)
.LBE79:
	.loc 38 8 32
	nop
	popq	%rbp
	.cfi_restore 6
	.cfi_def_cfa 7, 8
	ret
	.cfi_endproc
.LFE17655:
	.seh_endproc
	.section	.text$_ZN10BaseObjectD0Ev,"x"
	.linkonce discard
	.align 2
	.globl	_ZN10BaseObjectD0Ev
	.def	_ZN10BaseObjectD0Ev;	.scl	2;	.type	32;	.endef
	.seh_proc	_ZN10BaseObjectD0Ev
_ZN10BaseObjectD0Ev:
.LFB17656:
	.loc 38 8 17
	.cfi_startproc
	pushq	%rbp
	.seh_pushreg	%rbp
	.cfi_def_cfa_offset 16
	.cfi_offset 6, -16
	movq	%rsp, %rbp
	.seh_setframe	%rbp, 0
	.cfi_def_cfa_register 6
	subq	$32, %rsp
	.seh_stackalloc	32
	.seh_endprologue
	movq	%rcx, 16(%rbp)
	.loc 38 8 32
	movq	16(%rbp), %rcx
	call	_ZN10BaseObjectD1Ev
	movq	16(%rbp), %rcx
	call	_ZdlPv
	nop
	addq	$32, %rsp
	popq	%rbp
	.cfi_restore 6
	.cfi_def_cfa 7, 8
	ret
	.cfi_endproc
.LFE17656:
	.seh_endproc
	.section	.text$_ZN8Projetil13getTipoForcasEv,"x"
	.linkonce discard
	.align 2
	.globl	_ZN8Projetil13getTipoForcasEv
	.def	_ZN8Projetil13getTipoForcasEv;	.scl	2;	.type	32;	.endef
	.seh_proc	_ZN8Projetil13getTipoForcasEv
_ZN8Projetil13getTipoForcasEv:
.LFB17673:
	.file 39 "../../CalculadorNumerico/projetil/projetil.h"
	.loc 39 25 21
	.cfi_startproc
	pushq	%rbp
	.seh_pushreg	%rbp
	.cfi_def_cfa_offset 16
	.cfi_offset 6, -16
	movq	%rsp, %rbp
	.seh_setframe	%rbp, 0
	.cfi_def_cfa_register 6
	.seh_endprologue
	movq	%rcx, 16(%rbp)
	.loc 39 25 44
	movq	16(%rbp), %rax
	movl	12(%rax), %eax
	.loc 39 25 55
	popq	%rbp
	.cfi_restore 6
	.cfi_def_cfa 7, 8
	ret
	.cfi_endproc
.LFE17673:
	.seh_endproc
	.section	.text$_ZN10BaseObjectC2ERKS_,"x"
	.linkonce discard
	.align 2
	.globl	_ZN10BaseObjectC2ERKS_
	.def	_ZN10BaseObjectC2ERKS_;	.scl	2;	.type	32;	.endef
	.seh_proc	_ZN10BaseObjectC2ERKS_
_ZN10BaseObjectC2ERKS_:
.LFB17705:
	.loc 38 5 7
	.cfi_startproc
	pushq	%rbp
	.seh_pushreg	%rbp
	.cfi_def_cfa_offset 16
	.cfi_offset 6, -16
	movq	%rsp, %rbp
	.seh_setframe	%rbp, 0
	.cfi_def_cfa_register 6
	.seh_endprologue
	movq	%rcx, 16(%rbp)
	movq	%rdx, 24(%rbp)
.LBB80:
	.loc 38 5 7
	leaq	16+_ZTV10BaseObject(%rip), %rdx
	movq	16(%rbp), %rax
	movq	%rdx, (%rax)
.LBE80:
	nop
	popq	%rbp
	.cfi_restore 6
	.cfi_def_cfa 7, 8
	ret
	.cfi_endproc
.LFE17705:
	.seh_endproc
	.section	.text$_ZN8ProjetilC1ERKS_,"x"
	.linkonce discard
	.align 2
	.globl	_ZN8ProjetilC1ERKS_
	.def	_ZN8ProjetilC1ERKS_;	.scl	2;	.type	32;	.endef
	.seh_proc	_ZN8ProjetilC1ERKS_
_ZN8ProjetilC1ERKS_:
.LFB17708:
	.loc 39 8 7
	.cfi_startproc
	pushq	%rbp
	.seh_pushreg	%rbp
	.cfi_def_cfa_offset 16
	.cfi_offset 6, -16
	pushq	%rbx
	.seh_pushreg	%rbx
	.cfi_def_cfa_offset 24
	.cfi_offset 3, -24
	subq	$40, %rsp
	.seh_stackalloc	40
	.cfi_def_cfa_offset 64
	leaq	128(%rsp), %rbp
	.seh_setframe	%rbp, 128
	.cfi_def_cfa 6, -64
	.seh_endprologue
	movq	%rcx, -64(%rbp)
	movq	%rdx, -56(%rbp)
.LBB81:
	.loc 39 8 7
	movq	-64(%rbp), %rax
	movq	-56(%rbp), %rdx
	movq	%rax, %rcx
	call	_ZN10BaseObjectC2ERKS_
	leaq	16+_ZTV8Projetil(%rip), %rdx
	movq	-64(%rbp), %rax
	movq	%rdx, (%rax)
	movq	-56(%rbp), %rax
	movl	8(%rax), %edx
	movq	-64(%rbp), %rax
	movl	%edx, 8(%rax)
	movq	-56(%rbp), %rax
	movl	12(%rax), %edx
	movq	-64(%rbp), %rax
	movl	%edx, 12(%rax)
	movq	-64(%rbp), %rax
	addq	$16, %rax
	movq	-56(%rbp), %rdx
	addq	$16, %rdx
	movq	%rax, %rcx
.LEHB44:
	call	_ZNSt7__cxx1112basic_stringIcSt11char_traitsIcESaIcEEC1ERKS4_
.LEHE44:
	.loc 39 8 7 is_stmt 0 discriminator 2
	movq	-64(%rbp), %rax
	addq	$48, %rax
	movq	-56(%rbp), %rdx
	addq	$48, %rdx
	movq	%rax, %rcx
.LEHB45:
	call	_ZNSt7__cxx1112basic_stringIcSt11char_traitsIcESaIcEEC1ERKS4_
.LEHE45:
	.loc 39 8 7 discriminator 4
	movq	-56(%rbp), %rax
	movsd	80(%rax), %xmm0
	movq	-64(%rbp), %rax
	movsd	%xmm0, 80(%rax)
	movq	-56(%rbp), %rax
	movsd	88(%rax), %xmm0
	movq	-64(%rbp), %rax
	movsd	%xmm0, 88(%rax)
	movq	-56(%rbp), %rax
	movsd	96(%rax), %xmm0
	movq	-64(%rbp), %rax
	movsd	%xmm0, 96(%rax)
	movq	-56(%rbp), %rax
	movsd	104(%rax), %xmm0
	movq	-64(%rbp), %rax
	movsd	%xmm0, 104(%rax)
	movq	-56(%rbp), %rax
	movsd	112(%rax), %xmm0
	movq	-64(%rbp), %rax
	movsd	%xmm0, 112(%rax)
	movq	-56(%rbp), %rax
	movsd	120(%rax), %xmm0
	movq	-64(%rbp), %rax
	movsd	%xmm0, 120(%rax)
.LBE81:
	jmp	.L393
.L392:
	movq	%rax, %rbx
.LBB82:
	.loc 39 8 7
	movq	-64(%rbp), %rax
	addq	$16, %rax
	movq	%rax, %rcx
	call	_ZNSt7__cxx1112basic_stringIcSt11char_traitsIcESaIcEED1Ev
	jmp	.L390
.L391:
	movq	%rax, %rbx
.L390:
	.loc 39 8 7 discriminator 1
	movq	-64(%rbp), %rax
	movq	%rax, %rcx
	call	_ZN10BaseObjectD2Ev
	movq	%rbx, %rax
	movq	%rax, %rcx
.LEHB46:
	call	_Unwind_Resume
	nop
.LEHE46:
.L393:
.LBE82:
	.loc 39 8 7
	addq	$40, %rsp
	popq	%rbx
	.cfi_restore 3
	popq	%rbp
	.cfi_restore 6
	.cfi_def_cfa 7, -24
	ret
	.cfi_endproc
.LFE17708:
	.seh_handler	__gxx_personality_seh0, @unwind, @except
	.seh_handlerdata
.LLSDA17708:
	.byte	0xff
	.byte	0xff
	.byte	0x1
	.uleb128 .LLSDACSE17708-.LLSDACSB17708
.LLSDACSB17708:
	.uleb128 .LEHB44-.LFB17708
	.uleb128 .LEHE44-.LEHB44
	.uleb128 .L391-.LFB17708
	.uleb128 0
	.uleb128 .LEHB45-.LFB17708
	.uleb128 .LEHE45-.LEHB45
	.uleb128 .L392-.LFB17708
	.uleb128 0
	.uleb128 .LEHB46-.LFB17708
	.uleb128 .LEHE46-.LEHB46
	.uleb128 0
	.uleb128 0
.LLSDACSE17708:
	.section	.text$_ZN8ProjetilC1ERKS_,"x"
	.linkonce discard
	.seh_endproc
.lcomm _ZStL8__ioinit,1,1
	.section .rdata,"dr"
_ZStL13allocator_arg:
	.space 1
_ZStL6ignore:
	.space 1
	.globl	_ZN26ProjetilCoeficientesDialog25ID_STATICBOX_COEFICIENTESE
	.bss
	.align 4
_ZN26ProjetilCoeficientesDialog25ID_STATICBOX_COEFICIENTESE:
	.space 4
	.globl	_ZN26ProjetilCoeficientesDialog21ID_INFO_PROJETIL_TEXTE
	.align 4
_ZN26ProjetilCoeficientesDialog21ID_INFO_PROJETIL_TEXTE:
	.space 4
	.globl	_ZN26ProjetilCoeficientesDialog16ID_MATHPLOT_DRAGE
	.align 4
_ZN26ProjetilCoeficientesDialog16ID_MATHPLOT_DRAGE:
	.space 4
	.globl	_ZN26ProjetilCoeficientesDialog18ID_MATHPLOT_DRAG_2E
	.align 4
_ZN26ProjetilCoeficientesDialog18ID_MATHPLOT_DRAG_2E:
	.space 4
	.globl	_ZN26ProjetilCoeficientesDialog16ID_MATHPLOT_LIFTE
	.align 4
_ZN26ProjetilCoeficientesDialog16ID_MATHPLOT_LIFTE:
	.space 4
	.globl	_ZN26ProjetilCoeficientesDialog18ID_MATHPLOT_MAGNUSE
	.align 4
_ZN26ProjetilCoeficientesDialog18ID_MATHPLOT_MAGNUSE:
	.space 4
	.globl	_ZN26ProjetilCoeficientesDialog30ID_MATHPLOT_OVERTURNING_MOMENTE
	.align 4
_ZN26ProjetilCoeficientesDialog30ID_MATHPLOT_OVERTURNING_MOMENTE:
	.space 4
	.globl	_ZN26ProjetilCoeficientesDialog24ID_MATHPLOT_SPIN_DAMPINGE
	.align 4
_ZN26ProjetilCoeficientesDialog24ID_MATHPLOT_SPIN_DAMPINGE:
	.space 4
	.globl	_ZN26ProjetilCoeficientesDialog24ID_NOTEBOOK_COEFICIENTESE
	.align 4
_ZN26ProjetilCoeficientesDialog24ID_NOTEBOOK_COEFICIENTESE:
	.space 4
	.globl	_ZN26ProjetilCoeficientesDialog44ID_FECHAR_BUTTON_PROJETIL_COEFICIENTESDIALOGE
	.align 4
_ZN26ProjetilCoeficientesDialog44ID_FECHAR_BUTTON_PROJETIL_COEFICIENTESDIALOGE:
	.space 4
	.globl	_ZN26ProjetilCoeficientesDialog13sm_eventTableE
	.section .rdata,"dr"
	.align 16
_ZN26ProjetilCoeficientesDialog13sm_eventTableE:
	.quad	_ZN12wxDialogBase13sm_eventTableE
	.quad	_ZN26ProjetilCoeficientesDialog20sm_eventTableEntriesE
	.text
	.align 2
	.globl	_ZNK26ProjetilCoeficientesDialog13GetEventTableEv
	.def	_ZNK26ProjetilCoeficientesDialog13GetEventTableEv;	.scl	2;	.type	32;	.endef
	.seh_proc	_ZNK26ProjetilCoeficientesDialog13GetEventTableEv
_ZNK26ProjetilCoeficientesDialog13GetEventTableEv:
.LFB18256:
	.file 40 "C:/temp/ballisticKernelCpp/interfaceGrafica/calculadorBalisiticaGraficoWindows/projetilCoeficientesDialog.cpp"
	.loc 40 24 218 is_stmt 1
	.cfi_startproc
	pushq	%rbp
	.seh_pushreg	%rbp
	.cfi_def_cfa_offset 16
	.cfi_offset 6, -16
	movq	%rsp, %rbp
	.seh_setframe	%rbp, 0
	.cfi_def_cfa_register 6
	.seh_endprologue
	movq	%rcx, 16(%rbp)
	.loc 40 24 256
	leaq	_ZN26ProjetilCoeficientesDialog13sm_eventTableE(%rip), %rax
	.loc 40 24 271
	popq	%rbp
	.cfi_restore 6
	.cfi_def_cfa 7, 8
	ret
	.cfi_endproc
.LFE18256:
	.seh_endproc
	.globl	_ZN26ProjetilCoeficientesDialog17sm_eventHashTableE
	.bss
	.align 32
_ZN26ProjetilCoeficientesDialog17sm_eventHashTableE:
	.space 48
	.text
	.align 2
	.globl	_ZNK26ProjetilCoeficientesDialog17GetEventHashTableEv
	.def	_ZNK26ProjetilCoeficientesDialog17GetEventHashTableEv;	.scl	2;	.type	32;	.endef
	.seh_proc	_ZNK26ProjetilCoeficientesDialog17GetEventHashTableEv
_ZNK26ProjetilCoeficientesDialog17GetEventHashTableEv:
.LFB18257:
	.loc 40 24 452
	.cfi_startproc
	pushq	%rbp
	.seh_pushreg	%rbp
	.cfi_def_cfa_offset 16
	.cfi_offset 6, -16
	movq	%rsp, %rbp
	.seh_setframe	%rbp, 0
	.cfi_def_cfa_register 6
	.seh_endprologue
	movq	%rcx, 16(%rbp)
	.loc 40 24 489
	leaq	_ZN26ProjetilCoeficientesDialog17sm_eventHashTableE(%rip), %rax
	.loc 40 24 508
	popq	%rbp
	.cfi_restore 6
	.cfi_def_cfa 7, 8
	ret
	.cfi_endproc
.LFE18257:
	.seh_endproc
	.section	.text$_ZN17wxEventTableEntryD1Ev,"x"
	.linkonce discard
	.align 2
	.globl	_ZN17wxEventTableEntryD1Ev
	.def	_ZN17wxEventTableEntryD1Ev;	.scl	2;	.type	32;	.endef
	.seh_proc	_ZN17wxEventTableEntryD1Ev
_ZN17wxEventTableEntryD1Ev:
.LFB18260:
	.loc 12 3217 8
	.cfi_startproc
	pushq	%rbp
	.seh_pushreg	%rbp
	.cfi_def_cfa_offset 16
	.cfi_offset 6, -16
	movq	%rsp, %rbp
	.seh_setframe	%rbp, 0
	.cfi_def_cfa_register 6
	subq	$32, %rsp
	.seh_stackalloc	32
	.seh_endprologue
	movq	%rcx, 16(%rbp)
.LBB83:
	.loc 12 3217 8
	movq	16(%rbp), %rax
	movq	%rax, %rcx
	call	_ZN21wxEventTableEntryBaseD2Ev
.LBE83:
	nop
	addq	$32, %rsp
	popq	%rbp
	.cfi_restore 6
	.cfi_def_cfa 7, 8
	ret
	.cfi_endproc
.LFE18260:
	.seh_endproc
	.globl	_ZN26ProjetilCoeficientesDialog20sm_eventTableEntriesE
	.bss
	.align 32
_ZN26ProjetilCoeficientesDialog20sm_eventTableEntriesE:
	.space 32
	.section	.text$_ZN15MathplotHandlerD1Ev,"x"
	.linkonce discard
	.align 2
	.globl	_ZN15MathplotHandlerD1Ev
	.def	_ZN15MathplotHandlerD1Ev;	.scl	2;	.type	32;	.endef
	.seh_proc	_ZN15MathplotHandlerD1Ev
_ZN15MathplotHandlerD1Ev:
.LFB18267:
	.file 41 "C:/temp/ballisticKernelCpp/interfaceGrafica/calculadorBalisiticaGraficoWindows/mathplotHandler.h"
	.loc 41 14 7
	.cfi_startproc
	pushq	%rbp
	.seh_pushreg	%rbp
	.cfi_def_cfa_offset 16
	.cfi_offset 6, -16
	movq	%rsp, %rbp
	.seh_setframe	%rbp, 0
	.cfi_def_cfa_register 6
	subq	$32, %rsp
	.seh_stackalloc	32
	.seh_endprologue
	movq	%rcx, 16(%rbp)
.LBB84:
	.loc 41 14 7
	movq	16(%rbp), %rax
	addq	$168, %rax
	movq	%rax, %rcx
	call	_ZNSt6vectorIdSaIdEED1Ev
	movq	16(%rbp), %rax
	addq	$144, %rax
	movq	%rax, %rcx
	call	_ZNSt6vectorIdSaIdEED1Ev
	movq	16(%rbp), %rax
	addq	$120, %rax
	movq	%rax, %rcx
	call	_ZNSt6vectorIdSaIdEED1Ev
	movq	16(%rbp), %rax
	addq	$96, %rax
	movq	%rax, %rcx
	call	_ZNSt6vectorIdSaIdEED1Ev
	movq	16(%rbp), %rax
	addq	$72, %rax
	movq	%rax, %rcx
	call	_ZNSt6vectorIdSaIdEED1Ev
	movq	16(%rbp), %rax
	addq	$48, %rax
	movq	%rax, %rcx
	call	_ZNSt6vectorIdSaIdEED1Ev
	movq	16(%rbp), %rax
	addq	$24, %rax
	movq	%rax, %rcx
	call	_ZNSt6vectorIdSaIdEED1Ev
	movq	16(%rbp), %rax
	movq	%rax, %rcx
	call	_ZNSt6vectorIdSaIdEED1Ev
.LBE84:
	nop
	addq	$32, %rsp
	popq	%rbp
	.cfi_restore 6
	.cfi_def_cfa 7, 8
	ret
	.cfi_endproc
.LFE18267:
	.seh_endproc
	.section .rdata,"dr"
	.align 2
.LC5:
	.ascii "w\0x\0I\0D\0_\0A\0N\0Y\0\0\0"
.LC6:
	.ascii "Dados Projetil\0"
.LC7:
	.ascii "Coeficientes Aerodinamicos\0"
	.align 8
.LC8:
	.ascii "I\0D\0_\0S\0T\0A\0T\0I\0C\0B\0O\0X\0_\0C\0O\0E\0F\0I\0C\0I\0E\0N\0T\0E\0S\0\0\0"
.LC9:
	.ascii "Label\0"
	.align 8
.LC10:
	.ascii "I\0D\0_\0I\0N\0F\0O\0_\0P\0R\0O\0J\0E\0T\0I\0L\0_\0T\0E\0X\0T\0\0\0"
	.align 2
.LC11:
	.ascii "A\0r\0i\0a\0l\0\0\0"
	.align 8
.LC12:
	.ascii "I\0D\0_\0N\0O\0T\0E\0B\0O\0O\0K\0_\0C\0O\0E\0F\0I\0C\0I\0E\0N\0T\0E\0S\0\0\0"
.LC13:
	.ascii "Drag\0"
.LC14:
	.ascii "Drag2\0"
.LC15:
	.ascii "Lift\0"
.LC16:
	.ascii "Magnus\0"
.LC17:
	.ascii "Overturning\0"
.LC18:
	.ascii "Spin\0"
.LC19:
	.ascii "Fechar\0"
	.align 8
.LC20:
	.ascii "I\0D\0_\0F\0E\0C\0H\0A\0R\0_\0B\0U\0T\0T\0O\0N\0_\0P\0R\0O\0J\0E\0T\0I\0L\0_\0C\0O\0E\0F\0I\0C\0I\0E\0N\0T\0E\0S\0D\0I\0A\0L\0O\0G\0\0\0"
.LC21:
	.ascii "Selecionado \0"
.LC22:
	.ascii "Coeficientes Aerodin\342nicos\0"
.LC23:
	.ascii "Axial\0"
.LC24:
	.ascii "Axial2\0"
.LC25:
	.ascii "Normal\0"
	.text
	.align 2
	.globl	_ZN26ProjetilCoeficientesDialogC2EP8wxWindow8Projetili
	.def	_ZN26ProjetilCoeficientesDialogC2EP8wxWindow8Projetili;	.scl	2;	.type	32;	.endef
	.seh_proc	_ZN26ProjetilCoeficientesDialogC2EP8wxWindow8Projetili
_ZN26ProjetilCoeficientesDialogC2EP8wxWindow8Projetili:
.LFB18268:
	.loc 40 29 1
	.cfi_startproc
	pushq	%rbp
	.seh_pushreg	%rbp
	.cfi_def_cfa_offset 16
	.cfi_offset 6, -16
	pushq	%r15
	.seh_pushreg	%r15
	.cfi_def_cfa_offset 24
	.cfi_offset 15, -24
	pushq	%r14
	.seh_pushreg	%r14
	.cfi_def_cfa_offset 32
	.cfi_offset 14, -32
	pushq	%r13
	.seh_pushreg	%r13
	.cfi_def_cfa_offset 40
	.cfi_offset 13, -40
	pushq	%r12
	.seh_pushreg	%r12
	.cfi_def_cfa_offset 48
	.cfi_offset 12, -48
	pushq	%rdi
	.seh_pushreg	%rdi
	.cfi_def_cfa_offset 56
	.cfi_offset 5, -56
	pushq	%rsi
	.seh_pushreg	%rsi
	.cfi_def_cfa_offset 64
	.cfi_offset 4, -64
	pushq	%rbx
	.seh_pushreg	%rbx
	.cfi_def_cfa_offset 72
	.cfi_offset 3, -72
	subq	$2344, %rsp
	.seh_stackalloc	2344
	.cfi_def_cfa_offset 2416
	leaq	128(%rsp), %rbp
	.seh_setframe	%rbp, 128
	.cfi_def_cfa 6, 2288
	.seh_endprologue
	movq	%rcx, 2288(%rbp)
	movq	%rdx, 2296(%rbp)
	movq	%r8, 2304(%rbp)
	movl	%r9d, 2312(%rbp)
.LBB85:
	.loc 40 29 105
	movq	2288(%rbp), %rax
	movq	%rax, %rcx
.LEHB47:
	call	_ZN8wxDialogC2Ev
.LEHE47:
	leaq	16+_ZTV26ProjetilCoeficientesDialog(%rip), %rdx
	movq	2288(%rbp), %rax
	movq	%rdx, (%rax)
.LBB86:
	.loc 40 32 8
	movq	2288(%rbp), %rdi
	leaq	256(%rbp), %rax
	leaq	.LC5(%rip), %rdx
	movq	%rax, %rcx
.LEHB48:
	call	_ZN8wxStringC1EPKw
.LEHE48:
	.loc 40 32 8 is_stmt 0 discriminator 1
	leaq	304(%rbp), %rax
	movq	%rax, %rcx
	call	_ZN8wxStringC1Ev
	leaq	352(%rbp), %rax
	leaq	.LC6(%rip), %rdx
	movq	%rax, %rcx
.LEHB49:
	call	_ZN8wxStringC1EPKc
.LEHE49:
	.loc 40 32 8 discriminator 5
	leaq	304(%rbp), %rdx
	leaq	352(%rbp), %rax
	movq	%rax, %rcx
.LEHB50:
	call	_Z16wxGetTranslationRK8wxStringS1_
	movq	%rax, %rcx
	movq	2296(%rbp), %rdx
	leaq	256(%rbp), %rax
	movq	%rax, 56(%rsp)
	movl	$536877056, 48(%rsp)
	movq	.refptr.wxDefaultSize(%rip), %rax
	movq	%rax, 40(%rsp)
	movq	.refptr.wxDefaultPosition(%rip), %rax
	movq	%rax, 32(%rsp)
	movq	%rcx, %r9
	movl	$-1, %r8d
	movq	%rdi, %rcx
	call	_ZN8wxDialog6CreateEP8wxWindowiRK8wxStringRK7wxPointRK6wxSizelS4_
.LEHE50:
	.loc 40 32 8 discriminator 9
	leaq	352(%rbp), %rax
	movq	%rax, %rcx
	call	_ZN8wxStringD1Ev
	leaq	304(%rbp), %rax
	movq	%rax, %rcx
	call	_ZN8wxStringD1Ev
	leaq	256(%rbp), %rax
	movq	%rax, %rcx
	call	_ZN8wxStringD1Ev
	.loc 40 33 15 is_stmt 1 discriminator 9
	movq	2288(%rbp), %rdi
	.loc 40 33 16 discriminator 9
	leaq	408(%rbp), %rax
	movl	$445, %r8d
	movl	$646, %edx
	movq	%rax, %rcx
	call	_ZN6wxSizeC1Eii
	.loc 40 33 15 discriminator 9
	leaq	408(%rbp), %rax
	movq	%rax, %rdx
	movq	%rdi, %rcx
.LEHB51:
	call	_ZN12wxWindowBase13SetClientSizeERK6wxSize
.LEHE51:
	.loc 40 34 122 discriminator 2
	leaq	416(%rbp), %rax
	movq	%rax, %rcx
	call	_ZN8wxStringC1Ev
	leaq	464(%rbp), %rax
	leaq	.LC7(%rip), %rdx
	movq	%rax, %rcx
.LEHB52:
	call	_ZN8wxStringC1EPKc
.LEHE52:
	.loc 40 34 122 is_stmt 0 discriminator 3
	leaq	416(%rbp), %rdx
	leaq	464(%rbp), %rax
	movq	%rax, %rcx
.LEHB53:
	call	_Z16wxGetTranslationRK8wxStringS1_
.LEHE53:
	movq	%rax, %r15
	.loc 40 34 125 is_stmt 1 discriminator 3
	leaq	512(%rbp), %rax
	movl	$96, %r8d
	movl	$8, %edx
	movq	%rax, %rcx
	call	_ZN7wxPointC1Eii
	leaq	512(%rbp), %r12
	.loc 40 34 140 discriminator 3
	leaq	520(%rbp), %rax
	movl	$288, %r8d
	movl	$632, %edx
	movq	%rax, %rcx
	call	_ZN6wxSizeC1Eii
	leaq	520(%rbp), %r13
	.loc 40 34 24 discriminator 3
	leaq	528(%rbp), %rax
	leaq	.LC8(%rip), %rdx
	movq	%rax, %rcx
.LEHB54:
	call	_ZN8wxStringC1EPKw
.LEHE54:
	.loc 40 34 24 is_stmt 0 discriminator 7
	leaq	528(%rbp), %r14
	.loc 40 34 173 is_stmt 1 discriminator 7
	movl	$680, %ecx
.LEHB55:
	call	_Znwy
.LEHE55:
	movq	%rax, %rdi
	movl	_ZN26ProjetilCoeficientesDialog25ID_STATICBOX_COEFICIENTESE(%rip), %edx
	movq	2288(%rbp), %rax
	movq	%r14, 56(%rsp)
	movl	$0, 48(%rsp)
	movq	%r13, 40(%rsp)
	movq	%r12, 32(%rsp)
	movq	%r15, %r9
	movl	%edx, %r8d
	movq	%rax, %rdx
	movq	%rdi, %rcx
.LEHB56:
	call	_ZN11wxStaticBoxC1EP8wxWindowiRK8wxStringRK7wxPointRK6wxSizelS4_
.LEHE56:
	.loc 40 34 24 discriminator 11
	movq	2288(%rbp), %rax
	movq	%rdi, 856(%rax)
	leaq	528(%rbp), %rax
	movq	%rax, %rcx
	call	_ZN8wxStringD1Ev
	.loc 40 34 122 discriminator 11
	leaq	464(%rbp), %rax
	movq	%rax, %rcx
	call	_ZN8wxStringD1Ev
	leaq	416(%rbp), %rax
	movq	%rax, %rcx
	call	_ZN8wxStringD1Ev
	.loc 40 35 138 discriminator 11
	movq	.refptr.wxEmptyString(%rip), %rax
	movq	(%rax), %rdx
	leaq	576(%rbp), %rax
	movq	%rax, %rcx
.LEHB57:
	call	_ZN8wxStringC1EPKw
.LEHE57:
	.loc 40 35 138 is_stmt 0 discriminator 1
	leaq	240(%rbp), %rax
	movl	$0, 56(%rsp)
	leaq	576(%rbp), %rdx
	movq	%rdx, 48(%rsp)
	movl	$0, 40(%rsp)
	movl	$90, 32(%rsp)
	movl	$90, %r9d
	movl	$74, %r8d
	movl	$12, %edx
	movq	%rax, %rcx
.LEHB58:
	call	_ZN6wxFontC1Ei12wxFontFamily11wxFontStyle12wxFontWeightbRK8wxString14wxFontEncoding
.LEHE58:
	leaq	576(%rbp), %rax
	movq	%rax, %rcx
	call	_ZN8wxStringD1Ev
	.loc 40 36 2 is_stmt 1
	movq	2288(%rbp), %rax
	movq	856(%rax), %rax
	.loc 40 36 32
	movq	%rax, %rcx
	.loc 40 36 2
	movq	2288(%rbp), %rax
	movq	856(%rax), %rax
	.loc 40 36 58
	movq	(%rax), %rax
	addq	$848, %rax
	movq	(%rax), %r8
	.loc 40 36 32
	leaq	240(%rbp), %rax
	movq	%rax, %rdx
.LEHB59:
	call	*%r8
.LVL26:
.LEHE59:
	.loc 40 37 93
	leaq	624(%rbp), %rax
	movq	%rax, %rcx
	call	_ZN8wxStringC1Ev
	leaq	672(%rbp), %rax
	leaq	.LC9(%rip), %rdx
	movq	%rax, %rcx
.LEHB60:
	call	_ZN8wxStringC1EPKc
.LEHE60:
	.loc 40 37 93 is_stmt 0 discriminator 3
	leaq	624(%rbp), %rdx
	leaq	672(%rbp), %rax
	movq	%rax, %rcx
.LEHB61:
	call	_Z16wxGetTranslationRK8wxStringS1_
.LEHE61:
	movq	%rax, %r15
	.loc 40 37 96 is_stmt 1 discriminator 3
	leaq	720(%rbp), %rax
	movl	$10, %r8d
	movl	$150, %edx
	movq	%rax, %rcx
	call	_ZN7wxPointC1Eii
	leaq	720(%rbp), %r12
	.loc 40 37 113 discriminator 3
	leaq	728(%rbp), %rax
	movl	$80, %r8d
	movl	$350, %edx
	movq	%rax, %rcx
	call	_ZN6wxSizeC1Eii
	leaq	728(%rbp), %r13
	.loc 40 37 19 discriminator 3
	leaq	736(%rbp), %rax
	leaq	.LC10(%rip), %rdx
	movq	%rax, %rcx
.LEHB62:
	call	_ZN8wxStringC1EPKw
.LEHE62:
	.loc 40 37 19 is_stmt 0 discriminator 7
	leaq	736(%rbp), %r14
	.loc 40 37 141 is_stmt 1 discriminator 7
	movl	$648, %ecx
.LEHB63:
	call	_Znwy
.LEHE63:
	movq	%rax, %rdi
	movl	_ZN26ProjetilCoeficientesDialog21ID_INFO_PROJETIL_TEXTE(%rip), %edx
	movq	2288(%rbp), %rax
	movq	%r14, 56(%rsp)
	movl	$0, 48(%rsp)
	movq	%r13, 40(%rsp)
	movq	%r12, 32(%rsp)
	movq	%r15, %r9
	movl	%edx, %r8d
	movq	%rax, %rdx
	movq	%rdi, %rcx
.LEHB64:
	call	_ZN12wxStaticTextC1EP8wxWindowiRK8wxStringRK7wxPointRK6wxSizelS4_
.LEHE64:
	.loc 40 37 19 discriminator 11
	movq	2288(%rbp), %rax
	movq	%rdi, 864(%rax)
	leaq	736(%rbp), %rax
	movq	%rax, %rcx
	call	_ZN8wxStringD1Ev
	.loc 40 37 93 discriminator 11
	leaq	672(%rbp), %rax
	movq	%rax, %rcx
	call	_ZN8wxStringD1Ev
	leaq	624(%rbp), %rax
	movq	%rax, %rcx
	call	_ZN8wxStringD1Ev
	.loc 40 38 2 discriminator 11
	movq	2288(%rbp), %rax
	movq	864(%rax), %rax
	.loc 40 38 39 discriminator 11
	movq	%rax, %r12
	.loc 40 38 2 discriminator 11
	movq	2288(%rbp), %rax
	movq	864(%rax), %rax
	.loc 40 38 61 discriminator 11
	movq	(%rax), %rax
	addq	$808, %rax
	movq	(%rax), %rdi
	.loc 40 38 40 discriminator 11
	leaq	784(%rbp), %rax
	movl	$255, 32(%rsp)
	movl	$255, %r9d
	movl	$255, %r8d
	movl	$255, %edx
	movq	%rax, %rcx
.LEHB65:
	call	_ZN8wxColourC1Ehhhh
.LEHE65:
	.loc 40 38 39 discriminator 1
	leaq	784(%rbp), %rax
	movq	%rax, %rdx
	movq	%r12, %rcx
.LEHB66:
	call	*%rdi
.LVL27:
.LEHE66:
	.loc 40 38 40 discriminator 3
	leaq	784(%rbp), %rax
	movq	%rax, %rcx
	call	_ZN8wxColourD1Ev
	.loc 40 39 130 discriminator 3
	leaq	816(%rbp), %rax
	leaq	.LC11(%rip), %rdx
	movq	%rax, %rcx
.LEHB67:
	call	_ZN8wxStringC1EPKw
.LEHE67:
	.loc 40 39 130 is_stmt 0 discriminator 1
	leaq	224(%rbp), %rax
	movl	$0, 56(%rsp)
	leaq	816(%rbp), %rdx
	movq	%rdx, 48(%rsp)
	movl	$0, 40(%rsp)
	movl	$90, 32(%rsp)
	movl	$90, %r9d
	movl	$74, %r8d
	movl	$12, %edx
	movq	%rax, %rcx
.LEHB68:
	call	_ZN6wxFontC1Ei12wxFontFamily11wxFontStyle12wxFontWeightbRK8wxString14wxFontEncoding
.LEHE68:
	leaq	816(%rbp), %rax
	movq	%rax, %rcx
	call	_ZN8wxStringD1Ev
	.loc 40 40 2 is_stmt 1
	movq	2288(%rbp), %rax
	movq	864(%rax), %rcx
	movq	2288(%rbp), %rax
	movq	864(%rax), %rax
	.loc 40 40 48
	movq	(%rax), %rax
	addq	$848, %rax
	movq	(%rax), %r8
	.loc 40 40 27
	leaq	224(%rbp), %rax
	movq	%rax, %rdx
.LEHB69:
	call	*%r8
.LVL28:
.LEHE69:
	.loc 40 41 72
	leaq	864(%rbp), %rax
	movl	$120, %r8d
	movl	$16, %edx
	movq	%rax, %rcx
	call	_ZN7wxPointC1Eii
	leaq	864(%rbp), %r14
	.loc 40 41 89
	leaq	872(%rbp), %rax
	movl	$264, %r8d
	movl	$616, %edx
	movq	%rax, %rcx
	call	_ZN6wxSizeC1Eii
	leaq	872(%rbp), %r12
	.loc 40 41 23
	leaq	880(%rbp), %rax
	leaq	.LC12(%rip), %rdx
	movq	%rax, %rcx
.LEHB70:
	call	_ZN8wxStringC1EPKw
.LEHE70:
	.loc 40 41 23 is_stmt 0 discriminator 2
	leaq	880(%rbp), %r13
	.loc 40 41 138 is_stmt 1 discriminator 2
	movl	$744, %ecx
.LEHB71:
	call	_Znwy
.LEHE71:
	movq	%rax, %rdi
	movl	_ZN26ProjetilCoeficientesDialog24ID_NOTEBOOK_COEFICIENTESE(%rip), %edx
	movq	2288(%rbp), %rax
	movq	%r13, 48(%rsp)
	movl	$0, 40(%rsp)
	movq	%r12, 32(%rsp)
	movq	%r14, %r9
	movl	%edx, %r8d
	movq	%rax, %rdx
	movq	%rdi, %rcx
.LEHB72:
	call	_ZN10wxNotebookC1EP8wxWindowiRK7wxPointRK6wxSizelRK8wxString
.LEHE72:
	.loc 40 41 23 discriminator 6
	movq	2288(%rbp), %rax
	movq	%rdi, 848(%rax)
	leaq	880(%rbp), %rax
	movq	%rax, %rcx
	call	_ZN8wxStringD1Ev
	.loc 40 42 70 discriminator 6
	leaq	936(%rbp), %rax
	movl	$-34, %r8d
	movl	$-147, %edx
	movq	%rax, %rcx
	call	_ZN7wxPointC1Eii
	leaq	936(%rbp), %r13
	.loc 40 42 89 discriminator 6
	leaq	944(%rbp), %rax
	movl	$238, %r8d
	movl	$616, %edx
	movq	%rax, %rcx
	call	_ZN6wxSizeC1Eii
	leaq	944(%rbp), %r12
	.loc 40 42 132 discriminator 6
	movl	$1288, %ecx
.LEHB73:
	call	_Znwy
.LEHE73:
	movq	%rax, %rdi
	movl	_ZN26ProjetilCoeficientesDialog16ID_MATHPLOT_DRAGE(%rip), %edx
	.loc 40 42 30 discriminator 6
	movq	2288(%rbp), %rax
	movq	848(%rax), %rax
	.loc 40 42 132 discriminator 6
	movl	$67633152, 40(%rsp)
	movq	%r12, 32(%rsp)
	movq	%r13, %r9
	movl	%edx, %r8d
	movq	%rax, %rdx
	movq	%rdi, %rcx
.LEHB74:
	call	_ZN8mpWindowC1EP8wxWindowiRK7wxPointRK6wxSizel
.LEHE74:
	.loc 40 42 15 discriminator 4
	movq	2288(%rbp), %rax
	movq	%rdi, 800(%rax)
	.loc 40 43 2 discriminator 4
	movq	2288(%rbp), %rax
	movq	800(%rax), %rax
	.loc 40 43 25 discriminator 4
	movq	%rax, %rcx
.LEHB75:
	call	_ZN8mpWindow9UpdateAllEv
	.loc 40 44 2
	movq	2288(%rbp), %rax
	movq	800(%rax), %rdx
	movq	2288(%rbp), %rax
	movq	800(%rax), %rax
	.loc 40 44 20
	movq	(%rax), %rax
	addq	$280, %rax
	movq	(%rax), %rax
	.loc 40 44 19
	movq	%rdx, %rcx
	call	*%rax
.LVL29:
	.loc 40 45 73
	leaq	952(%rbp), %rax
	movl	$8, %r8d
	movl	$314, %edx
	movq	%rax, %rcx
	call	_ZN7wxPointC1Eii
	leaq	952(%rbp), %r12
	.loc 40 45 130
	movl	$1288, %ecx
	call	_Znwy
.LEHE75:
	movq	%rax, %rdi
	movl	_ZN26ProjetilCoeficientesDialog18ID_MATHPLOT_DRAG_2E(%rip), %ecx
	.loc 40 45 31
	movq	2288(%rbp), %rax
	movq	848(%rax), %rax
	.loc 40 45 130
	movl	$67633152, 40(%rsp)
	movq	.refptr.wxDefaultSize(%rip), %rdx
	movq	%rdx, 32(%rsp)
	movq	%r12, %r9
	movl	%ecx, %r8d
	movq	%rax, %rdx
	movq	%rdi, %rcx
.LEHB76:
	call	_ZN8mpWindowC1EP8wxWindowiRK7wxPointRK6wxSizel
.LEHE76:
	.loc 40 45 16 discriminator 4
	movq	2288(%rbp), %rax
	movq	%rdi, 792(%rax)
	.loc 40 46 2 discriminator 4
	movq	2288(%rbp), %rax
	movq	792(%rax), %rax
	.loc 40 46 26 discriminator 4
	movq	%rax, %rcx
.LEHB77:
	call	_ZN8mpWindow9UpdateAllEv
	.loc 40 47 2
	movq	2288(%rbp), %rax
	movq	792(%rax), %rdx
	movq	2288(%rbp), %rax
	movq	792(%rax), %rax
	.loc 40 47 21
	movq	(%rax), %rax
	addq	$280, %rax
	movq	(%rax), %rax
	.loc 40 47 20
	movq	%rdx, %rcx
	call	*%rax
.LVL30:
	.loc 40 48 70
	leaq	960(%rbp), %rax
	movl	$12, %r8d
	movl	$256, %edx
	movq	%rax, %rcx
	call	_ZN7wxPointC1Eii
	leaq	960(%rbp), %r12
	.loc 40 48 128
	movl	$1288, %ecx
	call	_Znwy
.LEHE77:
	movq	%rax, %rdi
	movl	_ZN26ProjetilCoeficientesDialog16ID_MATHPLOT_LIFTE(%rip), %ecx
	.loc 40 48 30
	movq	2288(%rbp), %rax
	movq	848(%rax), %rax
	.loc 40 48 128
	movl	$67633152, 40(%rsp)
	movq	.refptr.wxDefaultSize(%rip), %rdx
	movq	%rdx, 32(%rsp)
	movq	%r12, %r9
	movl	%ecx, %r8d
	movq	%rax, %rdx
	movq	%rdi, %rcx
.LEHB78:
	call	_ZN8mpWindowC1EP8wxWindowiRK7wxPointRK6wxSizel
.LEHE78:
	.loc 40 48 15 discriminator 4
	movq	2288(%rbp), %rax
	movq	%rdi, 808(%rax)
	.loc 40 49 2 discriminator 4
	movq	2288(%rbp), %rax
	movq	808(%rax), %rax
	.loc 40 49 25 discriminator 4
	movq	%rax, %rcx
.LEHB79:
	call	_ZN8mpWindow9UpdateAllEv
	.loc 40 50 2
	movq	2288(%rbp), %rax
	movq	808(%rax), %rdx
	movq	2288(%rbp), %rax
	movq	808(%rax), %rax
	.loc 40 50 20
	movq	(%rax), %rax
	addq	$280, %rax
	movq	(%rax), %rax
	.loc 40 50 19
	movq	%rdx, %rcx
	call	*%rax
.LVL31:
	.loc 40 51 74
	leaq	968(%rbp), %rax
	movl	$16, %r8d
	movl	$213, %edx
	movq	%rax, %rcx
	call	_ZN7wxPointC1Eii
	leaq	968(%rbp), %r12
	.loc 40 51 132
	movl	$1288, %ecx
	call	_Znwy
.LEHE79:
	movq	%rax, %rdi
	movl	_ZN26ProjetilCoeficientesDialog18ID_MATHPLOT_MAGNUSE(%rip), %ecx
	.loc 40 51 32
	movq	2288(%rbp), %rax
	movq	848(%rax), %rax
	.loc 40 51 132
	movl	$67633152, 40(%rsp)
	movq	.refptr.wxDefaultSize(%rip), %rdx
	movq	%rdx, 32(%rsp)
	movq	%r12, %r9
	movl	%ecx, %r8d
	movq	%rax, %rdx
	movq	%rdi, %rcx
.LEHB80:
	call	_ZN8mpWindowC1EP8wxWindowiRK7wxPointRK6wxSizel
.LEHE80:
	.loc 40 51 17 discriminator 4
	movq	2288(%rbp), %rax
	movq	%rdi, 816(%rax)
	.loc 40 52 2 discriminator 4
	movq	2288(%rbp), %rax
	movq	816(%rax), %rax
	.loc 40 52 27 discriminator 4
	movq	%rax, %rcx
.LEHB81:
	call	_ZN8mpWindow9UpdateAllEv
	.loc 40 53 2
	movq	2288(%rbp), %rax
	movq	816(%rax), %rdx
	movq	2288(%rbp), %rax
	movq	816(%rax), %rax
	.loc 40 53 22
	movq	(%rax), %rax
	addq	$280, %rax
	movq	(%rax), %rax
	.loc 40 53 21
	movq	%rdx, %rcx
	call	*%rax
.LVL32:
	.loc 40 54 97
	leaq	976(%rbp), %rax
	movl	$7, %r8d
	movl	$231, %edx
	movq	%rax, %rcx
	call	_ZN7wxPointC1Eii
	leaq	976(%rbp), %r12
	.loc 40 54 154
	movl	$1288, %ecx
	call	_Znwy
.LEHE81:
	movq	%rax, %rdi
	movl	_ZN26ProjetilCoeficientesDialog30ID_MATHPLOT_OVERTURNING_MOMENTE(%rip), %ecx
	.loc 40 54 43
	movq	2288(%rbp), %rax
	movq	848(%rax), %rax
	.loc 40 54 154
	movl	$67633152, 40(%rsp)
	movq	.refptr.wxDefaultSize(%rip), %rdx
	movq	%rdx, 32(%rsp)
	movq	%r12, %r9
	movl	%ecx, %r8d
	movq	%rax, %rdx
	movq	%rdi, %rcx
.LEHB82:
	call	_ZN8mpWindowC1EP8wxWindowiRK7wxPointRK6wxSizel
.LEHE82:
	.loc 40 54 28 discriminator 4
	movq	2288(%rbp), %rax
	movq	%rdi, 832(%rax)
	.loc 40 55 2 discriminator 4
	movq	2288(%rbp), %rax
	movq	832(%rax), %rax
	.loc 40 55 38 discriminator 4
	movq	%rax, %rcx
.LEHB83:
	call	_ZN8mpWindow9UpdateAllEv
	.loc 40 56 2
	movq	2288(%rbp), %rax
	movq	832(%rax), %rdx
	movq	2288(%rbp), %rax
	movq	832(%rax), %rax
	.loc 40 56 33
	movq	(%rax), %rax
	addq	$280, %rax
	movq	(%rax), %rax
	.loc 40 56 32
	movq	%rdx, %rcx
	call	*%rax
.LVL33:
	.loc 40 57 85
	leaq	984(%rbp), %rax
	movl	$5, %r8d
	movl	$265, %edx
	movq	%rax, %rcx
	call	_ZN7wxPointC1Eii
	leaq	984(%rbp), %r12
	.loc 40 57 142
	movl	$1288, %ecx
	call	_Znwy
.LEHE83:
	movq	%rax, %rdi
	movl	_ZN26ProjetilCoeficientesDialog24ID_MATHPLOT_SPIN_DAMPINGE(%rip), %ecx
	.loc 40 57 37
	movq	2288(%rbp), %rax
	movq	848(%rax), %rax
	.loc 40 57 142
	movl	$67633152, 40(%rsp)
	movq	.refptr.wxDefaultSize(%rip), %rdx
	movq	%rdx, 32(%rsp)
	movq	%r12, %r9
	movl	%ecx, %r8d
	movq	%rax, %rdx
	movq	%rdi, %rcx
.LEHB84:
	call	_ZN8mpWindowC1EP8wxWindowiRK7wxPointRK6wxSizel
.LEHE84:
	.loc 40 57 22 discriminator 4
	movq	2288(%rbp), %rax
	movq	%rdi, 824(%rax)
	.loc 40 58 2 discriminator 4
	movq	2288(%rbp), %rax
	movq	824(%rax), %rax
	.loc 40 58 32 discriminator 4
	movq	%rax, %rcx
.LEHB85:
	call	_ZN8mpWindow9UpdateAllEv
	.loc 40 59 2
	movq	2288(%rbp), %rax
	movq	824(%rax), %rdx
	movq	2288(%rbp), %rax
	movq	824(%rax), %rax
	.loc 40 59 27
	movq	(%rax), %rax
	addq	$280, %rax
	movq	(%rax), %rax
	.loc 40 59 26
	movq	%rdx, %rcx
	call	*%rax
.LVL34:
.LEHE85:
	.loc 40 60 2
	movq	2288(%rbp), %rax
	movq	848(%rax), %rax
	.loc 40 60 31
	movq	%rax, %r12
	.loc 40 60 2
	movq	2288(%rbp), %rax
	movq	848(%rax), %rax
	.loc 40 60 79
	movq	(%rax), %rax
	addq	$1904, %rax
	movq	(%rax), %rdi
	.loc 40 60 31
	leaq	992(%rbp), %rax
	movq	%rax, %rcx
	call	_ZN8wxStringC1Ev
	leaq	1040(%rbp), %rax
	leaq	.LC13(%rip), %rdx
	movq	%rax, %rcx
.LEHB86:
	call	_ZN8wxStringC1EPKc
.LEHE86:
	.loc 40 60 31 is_stmt 0 discriminator 3
	leaq	992(%rbp), %rdx
	leaq	1040(%rbp), %rax
	movq	%rax, %rcx
.LEHB87:
	call	_Z16wxGetTranslationRK8wxStringS1_
	movq	%rax, %rdx
	.loc 40 60 32 is_stmt 1 discriminator 3
	movq	2288(%rbp), %rax
	movq	800(%rax), %rax
	.loc 40 60 31 discriminator 3
	movl	$-1, 32(%rsp)
	movl	$0, %r9d
	movq	%rdx, %r8
	movq	%rax, %rdx
	movq	%r12, %rcx
	call	*%rdi
.LVL35:
.LEHE87:
	.loc 40 60 31 is_stmt 0 discriminator 7
	leaq	1040(%rbp), %rax
	movq	%rax, %rcx
	call	_ZN8wxStringD1Ev
	leaq	992(%rbp), %rax
	movq	%rax, %rcx
	call	_ZN8wxStringD1Ev
	.loc 40 61 2 is_stmt 1 discriminator 7
	movq	2288(%rbp), %rax
	movq	848(%rax), %rax
	.loc 40 61 31 discriminator 7
	movq	%rax, %r12
	.loc 40 61 2 discriminator 7
	movq	2288(%rbp), %rax
	movq	848(%rax), %rax
	.loc 40 61 81 discriminator 7
	movq	(%rax), %rax
	addq	$1904, %rax
	movq	(%rax), %rdi
	.loc 40 61 31 discriminator 7
	leaq	1088(%rbp), %rax
	movq	%rax, %rcx
	call	_ZN8wxStringC1Ev
	leaq	1136(%rbp), %rax
	leaq	.LC14(%rip), %rdx
	movq	%rax, %rcx
.LEHB88:
	call	_ZN8wxStringC1EPKc
.LEHE88:
	.loc 40 61 31 is_stmt 0 discriminator 3
	leaq	1088(%rbp), %rdx
	leaq	1136(%rbp), %rax
	movq	%rax, %rcx
.LEHB89:
	call	_Z16wxGetTranslationRK8wxStringS1_
	movq	%rax, %rdx
	.loc 40 61 32 is_stmt 1 discriminator 3
	movq	2288(%rbp), %rax
	movq	792(%rax), %rax
	.loc 40 61 31 discriminator 3
	movl	$-1, 32(%rsp)
	movl	$0, %r9d
	movq	%rdx, %r8
	movq	%rax, %rdx
	movq	%r12, %rcx
	call	*%rdi
.LVL36:
.LEHE89:
	.loc 40 61 31 is_stmt 0 discriminator 7
	leaq	1136(%rbp), %rax
	movq	%rax, %rcx
	call	_ZN8wxStringD1Ev
	leaq	1088(%rbp), %rax
	movq	%rax, %rcx
	call	_ZN8wxStringD1Ev
	.loc 40 62 2 is_stmt 1 discriminator 7
	movq	2288(%rbp), %rax
	movq	848(%rax), %rax
	.loc 40 62 31 discriminator 7
	movq	%rax, %r12
	.loc 40 62 2 discriminator 7
	movq	2288(%rbp), %rax
	movq	848(%rax), %rax
	.loc 40 62 79 discriminator 7
	movq	(%rax), %rax
	addq	$1904, %rax
	movq	(%rax), %rdi
	.loc 40 62 31 discriminator 7
	leaq	1184(%rbp), %rax
	movq	%rax, %rcx
	call	_ZN8wxStringC1Ev
	leaq	1232(%rbp), %rax
	leaq	.LC15(%rip), %rdx
	movq	%rax, %rcx
.LEHB90:
	call	_ZN8wxStringC1EPKc
.LEHE90:
	.loc 40 62 31 is_stmt 0 discriminator 3
	leaq	1184(%rbp), %rdx
	leaq	1232(%rbp), %rax
	movq	%rax, %rcx
.LEHB91:
	call	_Z16wxGetTranslationRK8wxStringS1_
	movq	%rax, %rdx
	.loc 40 62 32 is_stmt 1 discriminator 3
	movq	2288(%rbp), %rax
	movq	808(%rax), %rax
	.loc 40 62 31 discriminator 3
	movl	$-1, 32(%rsp)
	movl	$0, %r9d
	movq	%rdx, %r8
	movq	%rax, %rdx
	movq	%r12, %rcx
	call	*%rdi
.LVL37:
.LEHE91:
	.loc 40 62 31 is_stmt 0 discriminator 7
	leaq	1232(%rbp), %rax
	movq	%rax, %rcx
	call	_ZN8wxStringD1Ev
	leaq	1184(%rbp), %rax
	movq	%rax, %rcx
	call	_ZN8wxStringD1Ev
	.loc 40 63 2 is_stmt 1 discriminator 7
	movq	2288(%rbp), %rax
	movq	848(%rax), %rax
	.loc 40 63 31 discriminator 7
	movq	%rax, %r12
	.loc 40 63 2 discriminator 7
	movq	2288(%rbp), %rax
	movq	848(%rax), %rax
	.loc 40 63 83 discriminator 7
	movq	(%rax), %rax
	addq	$1904, %rax
	movq	(%rax), %rdi
	.loc 40 63 31 discriminator 7
	leaq	1280(%rbp), %rax
	movq	%rax, %rcx
	call	_ZN8wxStringC1Ev
	leaq	1328(%rbp), %rax
	leaq	.LC16(%rip), %rdx
	movq	%rax, %rcx
.LEHB92:
	call	_ZN8wxStringC1EPKc
.LEHE92:
	.loc 40 63 31 is_stmt 0 discriminator 3
	leaq	1280(%rbp), %rdx
	leaq	1328(%rbp), %rax
	movq	%rax, %rcx
.LEHB93:
	call	_Z16wxGetTranslationRK8wxStringS1_
	movq	%rax, %rdx
	.loc 40 63 32 is_stmt 1 discriminator 3
	movq	2288(%rbp), %rax
	movq	816(%rax), %rax
	.loc 40 63 31 discriminator 3
	movl	$-1, 32(%rsp)
	movl	$0, %r9d
	movq	%rdx, %r8
	movq	%rax, %rdx
	movq	%r12, %rcx
	call	*%rdi
.LVL38:
.LEHE93:
	.loc 40 63 31 is_stmt 0 discriminator 7
	leaq	1328(%rbp), %rax
	movq	%rax, %rcx
	call	_ZN8wxStringD1Ev
	leaq	1280(%rbp), %rax
	movq	%rax, %rcx
	call	_ZN8wxStringD1Ev
	.loc 40 64 2 is_stmt 1 discriminator 7
	movq	2288(%rbp), %rax
	movq	848(%rax), %rax
	.loc 40 64 31 discriminator 7
	movq	%rax, %r12
	.loc 40 64 2 discriminator 7
	movq	2288(%rbp), %rax
	movq	848(%rax), %rax
	.loc 40 64 99 discriminator 7
	movq	(%rax), %rax
	addq	$1904, %rax
	movq	(%rax), %rdi
	.loc 40 64 31 discriminator 7
	leaq	1376(%rbp), %rax
	movq	%rax, %rcx
	call	_ZN8wxStringC1Ev
	leaq	1424(%rbp), %rax
	leaq	.LC17(%rip), %rdx
	movq	%rax, %rcx
.LEHB94:
	call	_ZN8wxStringC1EPKc
.LEHE94:
	.loc 40 64 31 is_stmt 0 discriminator 3
	leaq	1376(%rbp), %rdx
	leaq	1424(%rbp), %rax
	movq	%rax, %rcx
.LEHB95:
	call	_Z16wxGetTranslationRK8wxStringS1_
	movq	%rax, %rdx
	.loc 40 64 32 is_stmt 1 discriminator 3
	movq	2288(%rbp), %rax
	movq	832(%rax), %rax
	.loc 40 64 31 discriminator 3
	movl	$-1, 32(%rsp)
	movl	$0, %r9d
	movq	%rdx, %r8
	movq	%rax, %rdx
	movq	%r12, %rcx
	call	*%rdi
.LVL39:
.LEHE95:
	.loc 40 64 31 is_stmt 0 discriminator 7
	leaq	1424(%rbp), %rax
	movq	%rax, %rcx
	call	_ZN8wxStringD1Ev
	leaq	1376(%rbp), %rax
	movq	%rax, %rcx
	call	_ZN8wxStringD1Ev
	.loc 40 65 2 is_stmt 1 discriminator 7
	movq	2288(%rbp), %rax
	movq	848(%rax), %rax
	.loc 40 65 31 discriminator 7
	movq	%rax, %r12
	.loc 40 65 2 discriminator 7
	movq	2288(%rbp), %rax
	movq	848(%rax), %rax
	.loc 40 65 86 discriminator 7
	movq	(%rax), %rax
	addq	$1904, %rax
	movq	(%rax), %rdi
	.loc 40 65 31 discriminator 7
	leaq	1472(%rbp), %rax
	movq	%rax, %rcx
	call	_ZN8wxStringC1Ev
	leaq	1520(%rbp), %rax
	leaq	.LC18(%rip), %rdx
	movq	%rax, %rcx
.LEHB96:
	call	_ZN8wxStringC1EPKc
.LEHE96:
	.loc 40 65 31 is_stmt 0 discriminator 3
	leaq	1472(%rbp), %rdx
	leaq	1520(%rbp), %rax
	movq	%rax, %rcx
.LEHB97:
	call	_Z16wxGetTranslationRK8wxStringS1_
	movq	%rax, %rdx
	.loc 40 65 32 is_stmt 1 discriminator 3
	movq	2288(%rbp), %rax
	movq	824(%rax), %rax
	.loc 40 65 31 discriminator 3
	movl	$-1, 32(%rsp)
	movl	$0, %r9d
	movq	%rdx, %r8
	movq	%rax, %rdx
	movq	%r12, %rcx
	call	*%rdi
.LVL40:
.LEHE97:
	.loc 40 65 31 is_stmt 0 discriminator 7
	leaq	1520(%rbp), %rax
	movq	%rax, %rcx
	call	_ZN8wxStringD1Ev
	leaq	1472(%rbp), %rax
	movq	%rax, %rcx
	call	_ZN8wxStringD1Ev
	.loc 40 66 109 is_stmt 1 discriminator 7
	leaq	1568(%rbp), %rax
	movq	%rax, %rcx
	call	_ZN8wxStringC1Ev
	leaq	1616(%rbp), %rax
	leaq	.LC19(%rip), %rdx
	movq	%rax, %rcx
.LEHB98:
	call	_ZN8wxStringC1EPKc
.LEHE98:
	.loc 40 66 109 is_stmt 0 discriminator 3
	leaq	1568(%rbp), %rdx
	leaq	1616(%rbp), %rax
	movq	%rax, %rcx
.LEHB99:
	call	_Z16wxGetTranslationRK8wxStringS1_
.LEHE99:
	movq	%rax, %r15
	.loc 40 66 112 is_stmt 1 discriminator 3
	leaq	1664(%rbp), %rax
	movl	$392, %r8d
	movl	$272, %edx
	movq	%rax, %rcx
	call	_ZN7wxPointC1Eii
	leaq	1664(%rbp), %r12
	.loc 40 66 130 discriminator 3
	leaq	1672(%rbp), %rax
	movl	$40, %r8d
	movl	$107, %edx
	movq	%rax, %rcx
	call	_ZN6wxSizeC1Eii
	leaq	1672(%rbp), %r13
	.loc 40 66 15 discriminator 3
	leaq	1680(%rbp), %rax
	leaq	.LC20(%rip), %rdx
	movq	%rax, %rcx
.LEHB100:
	call	_ZN8wxStringC1EPKw
.LEHE100:
	.loc 40 66 15 is_stmt 0 discriminator 7
	leaq	1680(%rbp), %r14
	.loc 40 66 201 is_stmt 1 discriminator 7
	movl	$672, %ecx
.LEHB101:
	call	_Znwy
.LEHE101:
	movq	%rax, %rdi
	movl	_ZN26ProjetilCoeficientesDialog44ID_FECHAR_BUTTON_PROJETIL_COEFICIENTESDIALOGE(%rip), %ecx
	movq	2288(%rbp), %rax
	movq	%r14, 64(%rsp)
	movq	.refptr.wxDefaultValidator(%rip), %rdx
	movq	%rdx, 56(%rsp)
	movl	$0, 48(%rsp)
	movq	%r13, 40(%rsp)
	movq	%r12, 32(%rsp)
	movq	%r15, %r9
	movl	%ecx, %r8d
	movq	%rax, %rdx
	movq	%rdi, %rcx
.LEHB102:
	call	_ZN8wxButtonC1EP8wxWindowiRK8wxStringRK7wxPointRK6wxSizelRK11wxValidatorS4_
.LEHE102:
	.loc 40 66 15 discriminator 11
	movq	2288(%rbp), %rax
	movq	%rdi, 840(%rax)
	leaq	1680(%rbp), %rax
	movq	%rax, %rcx
	call	_ZN8wxStringD1Ev
	.loc 40 66 109 discriminator 11
	leaq	1616(%rbp), %rax
	movq	%rax, %rcx
	call	_ZN8wxStringD1Ev
	leaq	1568(%rbp), %rax
	movq	%rax, %rcx
	call	_ZN8wxStringD1Ev
	.loc 40 67 129 discriminator 11
	movq	.refptr.wxEmptyString(%rip), %rax
	movq	(%rax), %rdx
	leaq	1728(%rbp), %rax
	movq	%rax, %rcx
.LEHB103:
	call	_ZN8wxStringC1EPKw
.LEHE103:
	.loc 40 67 129 is_stmt 0 discriminator 1
	leaq	208(%rbp), %rax
	movl	$0, 56(%rsp)
	leaq	1728(%rbp), %rdx
	movq	%rdx, 48(%rsp)
	movl	$0, 40(%rsp)
	movl	$90, 32(%rsp)
	movl	$90, %r9d
	movl	$74, %r8d
	movl	$16, %edx
	movq	%rax, %rcx
.LEHB104:
	call	_ZN6wxFontC1Ei12wxFontFamily11wxFontStyle12wxFontWeightbRK8wxString14wxFontEncoding
.LEHE104:
	leaq	1728(%rbp), %rax
	movq	%rax, %rcx
	call	_ZN8wxStringD1Ev
	.loc 40 68 2 is_stmt 1
	movq	2288(%rbp), %rax
	movq	840(%rax), %rax
	.loc 40 68 23
	movq	%rax, %rcx
	.loc 40 68 2
	movq	2288(%rbp), %rax
	movq	840(%rax), %rax
	.loc 40 68 40
	movq	(%rax), %rax
	addq	$848, %rax
	movq	(%rax), %r8
	.loc 40 68 23
	leaq	208(%rbp), %rax
	movq	%rax, %rdx
.LEHB105:
	call	*%r8
.LVL41:
	.loc 40 70 9
	movq	2288(%rbp), %rdi
	leaq	_ZN26ProjetilCoeficientesDialog19OnbuttonFecharClickER14wxCommandEvent(%rip), %rbx
	movl	$0, %esi
	.loc 40 70 139
	movq	.refptr.wxEVT_BUTTON(%rip), %rcx
	call	_ZNK14wxEventTypeTagI14wxCommandEventEcvRKiEv
	.loc 40 70 9
	movl	(%rax), %ecx
	movl	_ZN26ProjetilCoeficientesDialog44ID_FECHAR_BUTTON_PROJETIL_COEFICIENTESDIALOGE(%rip), %eax
	movq	%rbx, -48(%rbp)
	movq	%rsi, -40(%rbp)
	leaq	-48(%rbp), %rdx
	movq	$0, 40(%rsp)
	movq	$0, 32(%rsp)
	movq	%rdx, %r9
	movl	%ecx, %r8d
	movl	%eax, %edx
	movq	%rdi, %rcx
	call	_ZN12wxEvtHandler7ConnectEiiMS_FvR7wxEventEP8wxObjectPS_
	.loc 40 73 109
	movq	.refptr._ZN8wxString4nposE(%rip), %rax
	movq	(%rax), %rbx
	.loc 40 73 90
	movq	2304(%rbp), %rdx
	leaq	1840(%rbp), %rax
	movq	%rax, %rcx
	call	_ZN8ProjetilC1ERKS_
.LEHE105:
	.loc 40 73 90 is_stmt 0 discriminator 1
	leaq	1808(%rbp), %rax
	leaq	1840(%rbp), %rdx
	movq	%rax, %rcx
.LEHB106:
	call	_Z15getPjtDescricaoB5cxx118Projetil
.LEHE106:
	.loc 40 73 50 is_stmt 1 discriminator 2
	leaq	2015(%rbp), %rax
	movq	%rax, %rcx
	call	_ZNSaIcEC1Ev
	leaq	2015(%rbp), %rdx
	leaq	1968(%rbp), %rax
	movq	%rdx, %r8
	leaq	.LC21(%rip), %rdx
	movq	%rax, %rcx
.LEHB107:
	call	_ZNSt7__cxx1112basic_stringIcSt11char_traitsIcESaIcEEC1EPKcRKS3_
.LEHE107:
	.loc 40 73 73 discriminator 3
	leaq	1776(%rbp), %rax
	leaq	1808(%rbp), %rcx
	leaq	1968(%rbp), %rdx
	movq	%rcx, %r8
	movq	%rax, %rcx
.LEHB108:
	call	_ZStplIcSt11char_traitsIcESaIcEENSt7__cxx1112basic_stringIT_T0_T1_EEOS8_S9_
.LEHE108:
	.loc 40 73 109 discriminator 4
	leaq	1776(%rbp), %rax
	movq	%rax, %rcx
	call	_ZNKSt7__cxx1112basic_stringIcSt11char_traitsIcESaIcEE5c_strEv
	movq	%rax, %rdx
	leaq	-32(%rbp), %rax
	movq	%rbx, %r8
	movq	%rax, %rcx
.LEHB109:
	call	_ZN8wxString8FromUTF8EPKcy
.LEHE109:
	leaq	1776(%rbp), %rax
	movq	%rax, %rcx
	call	_ZNSt7__cxx1112basic_stringIcSt11char_traitsIcESaIcEED1Ev
	leaq	1968(%rbp), %rax
	movq	%rax, %rcx
	call	_ZNSt7__cxx1112basic_stringIcSt11char_traitsIcESaIcEED1Ev
	leaq	2015(%rbp), %rax
	movq	%rax, %rcx
	call	_ZNSaIcED1Ev
	leaq	1808(%rbp), %rax
	movq	%rax, %rcx
	call	_ZNSt7__cxx1112basic_stringIcSt11char_traitsIcESaIcEED1Ev
	leaq	1840(%rbp), %rax
	movq	%rax, %rcx
	call	_ZN8ProjetilD1Ev
	.loc 40 74 3
	movq	2288(%rbp), %rax
	movq	864(%rax), %rcx
	movq	2288(%rbp), %rax
	movq	864(%rax), %rax
	.loc 40 74 39
	movq	(%rax), %rax
	addq	$176, %rax
	movq	(%rax), %r8
	.loc 40 74 29
	leaq	-32(%rbp), %rax
	movq	%rax, %rdx
.LEHB110:
	call	*%r8
.LVL42:
	.loc 40 75 3
	movq	2288(%rbp), %rax
	movq	856(%rax), %rax
	.loc 40 75 34
	movq	%rax, %rsi
	.loc 40 75 3
	movq	2288(%rbp), %rax
	movq	856(%rax), %rax
	.loc 40 75 73
	movq	(%rax), %rax
	addq	$176, %rax
	movq	(%rax), %rbx
	.loc 40 75 35
	leaq	2016(%rbp), %rax
	leaq	.LC22(%rip), %rdx
	movq	%rax, %rcx
	call	_ZN8wxStringC1EPKc
.LEHE110:
	.loc 40 75 34 discriminator 1
	leaq	2016(%rbp), %rax
	movq	%rax, %rdx
	movq	%rsi, %rcx
.LEHB111:
	call	*%rbx
.LVL43:
.LEHE111:
	.loc 40 75 35 discriminator 3
	leaq	2016(%rbp), %rax
	movq	%rax, %rcx
	call	_ZN8wxStringD1Ev
	.loc 40 76 28 discriminator 3
	movq	2304(%rbp), %rax
	movq	%rax, %rcx
	call	_ZN8Projetil13getTipoForcasEv
	.loc 40 76 31 discriminator 3
	cmpl	$1, %eax
	sete	%al
	.loc 40 76 3 discriminator 3
	testb	%al, %al
	je	.L401
	.loc 40 78 9
	movq	2288(%rbp), %rax
	movq	848(%rax), %rsi
	movq	2288(%rbp), %rax
	movq	848(%rax), %rax
	.loc 40 78 53
	movq	(%rax), %rax
	addq	$1832, %rax
	movq	(%rax), %rbx
	.loc 40 78 42
	leaq	2064(%rbp), %rax
	leaq	.LC23(%rip), %rdx
	movq	%rax, %rcx
.LEHB112:
	call	_ZN8wxStringC1EPKc
.LEHE112:
	.loc 40 78 42 is_stmt 0 discriminator 1
	leaq	2064(%rbp), %rax
	movq	%rax, %r8
	movl	$0, %edx
	movq	%rsi, %rcx
.LEHB113:
	call	*%rbx
.LVL44:
.LEHE113:
	.loc 40 78 42 discriminator 3
	leaq	2064(%rbp), %rax
	movq	%rax, %rcx
	call	_ZN8wxStringD1Ev
	.loc 40 79 9 is_stmt 1 discriminator 3
	movq	2288(%rbp), %rax
	movq	848(%rax), %rsi
	movq	2288(%rbp), %rax
	movq	848(%rax), %rax
	.loc 40 79 54 discriminator 3
	movq	(%rax), %rax
	addq	$1832, %rax
	movq	(%rax), %rbx
	.loc 40 79 42 discriminator 3
	leaq	2112(%rbp), %rax
	leaq	.LC24(%rip), %rdx
	movq	%rax, %rcx
.LEHB114:
	call	_ZN8wxStringC1EPKc
.LEHE114:
	.loc 40 79 42 is_stmt 0 discriminator 1
	leaq	2112(%rbp), %rax
	movq	%rax, %r8
	movl	$1, %edx
	movq	%rsi, %rcx
.LEHB115:
	call	*%rbx
.LVL45:
.LEHE115:
	.loc 40 79 42 discriminator 3
	leaq	2112(%rbp), %rax
	movq	%rax, %rcx
	call	_ZN8wxStringD1Ev
	.loc 40 80 9 is_stmt 1 discriminator 3
	movq	2288(%rbp), %rax
	movq	848(%rax), %rsi
	movq	2288(%rbp), %rax
	movq	848(%rax), %rax
	.loc 40 80 54 discriminator 3
	movq	(%rax), %rax
	addq	$1832, %rax
	movq	(%rax), %rbx
	.loc 40 80 42 discriminator 3
	leaq	2160(%rbp), %rax
	leaq	.LC25(%rip), %rdx
	movq	%rax, %rcx
.LEHB116:
	call	_ZN8wxStringC1EPKc
.LEHE116:
	.loc 40 80 42 is_stmt 0 discriminator 1
	leaq	2160(%rbp), %rax
	movq	%rax, %r8
	movl	$2, %edx
	movq	%rsi, %rcx
.LEHB117:
	call	*%rbx
.LVL46:
.LEHE117:
	.loc 40 80 42 discriminator 3
	leaq	2160(%rbp), %rax
	movq	%rax, %rcx
	call	_ZN8wxStringD1Ev
.L401:
	.loc 40 83 19 is_stmt 1
	leaq	16(%rbp), %rax
	movq	%rax, %rcx
.LEHB118:
	call	_ZN15MathplotHandlerC1Ev
.LEHE118:
	.loc 40 84 27
	movq	2288(%rbp), %rax
	movq	800(%rax), %rdx
	leaq	16(%rbp), %rax
	movl	$0, %r8d
	movq	%rax, %rcx
.LEHB119:
	call	_ZN15MathplotHandler8plotMapaEP8mpWindow24Tipo_GRAFICO_COEFICIENTE
	.loc 40 85 27
	movq	2288(%rbp), %rax
	movq	792(%rax), %rdx
	leaq	16(%rbp), %rax
	movl	$1, %r8d
	movq	%rax, %rcx
	call	_ZN15MathplotHandler8plotMapaEP8mpWindow24Tipo_GRAFICO_COEFICIENTE
	.loc 40 86 27
	movq	2288(%rbp), %rax
	movq	808(%rax), %rdx
	leaq	16(%rbp), %rax
	movl	$2, %r8d
	movq	%rax, %rcx
	call	_ZN15MathplotHandler8plotMapaEP8mpWindow24Tipo_GRAFICO_COEFICIENTE
	.loc 40 87 27
	movq	2288(%rbp), %rax
	movq	816(%rax), %rdx
	leaq	16(%rbp), %rax
	movl	$3, %r8d
	movq	%rax, %rcx
	call	_ZN15MathplotHandler8plotMapaEP8mpWindow24Tipo_GRAFICO_COEFICIENTE
	.loc 40 88 27
	movq	2288(%rbp), %rax
	movq	832(%rax), %rdx
	leaq	16(%rbp), %rax
	movl	$4, %r8d
	movq	%rax, %rcx
	call	_ZN15MathplotHandler8plotMapaEP8mpWindow24Tipo_GRAFICO_COEFICIENTE
	.loc 40 89 27
	movq	2288(%rbp), %rax
	movq	824(%rax), %rdx
	leaq	16(%rbp), %rax
	movl	$5, %r8d
	movq	%rax, %rcx
	call	_ZN15MathplotHandler8plotMapaEP8mpWindow24Tipo_GRAFICO_COEFICIENTE
.LEHE119:
	.loc 40 83 19
	leaq	16(%rbp), %rax
	movq	%rax, %rcx
	call	_ZN15MathplotHandlerD1Ev
	.loc 40 73 109
	leaq	-32(%rbp), %rax
	movq	%rax, %rcx
	call	_ZN8wxStringD1Ev
	.loc 40 67 129
	leaq	208(%rbp), %rax
	movq	%rax, %rcx
	call	_ZN6wxFontD1Ev
	.loc 40 39 130
	leaq	224(%rbp), %rax
	movq	%rax, %rcx
	call	_ZN6wxFontD1Ev
	.loc 40 35 138
	leaq	240(%rbp), %rax
	movq	%rax, %rcx
	call	_ZN6wxFontD1Ev
.LBE86:
.LBE85:
	.loc 40 92 1
	jmp	.L516
.L461:
	movq	%rax, %rbx
.LBB88:
.LBB87:
	.loc 40 32 8
	leaq	352(%rbp), %rax
	movq	%rax, %rcx
	call	_ZN8wxStringD1Ev
	jmp	.L403
.L460:
	movq	%rax, %rbx
.L403:
	.loc 40 32 8 is_stmt 0 discriminator 4
	leaq	304(%rbp), %rax
	movq	%rax, %rcx
	call	_ZN8wxStringD1Ev
	leaq	256(%rbp), %rax
	movq	%rax, %rcx
	call	_ZN8wxStringD1Ev
	jmp	.L404
.L466:
	movq	%rax, %rbx
	.loc 40 34 173 is_stmt 1
	movq	%rdi, %rcx
	call	_ZdlPv
	jmp	.L406
.L465:
	movq	%rax, %rbx
.L406:
	.loc 40 34 24 discriminator 8
	leaq	528(%rbp), %rax
	movq	%rax, %rcx
	call	_ZN8wxStringD1Ev
	movq	%rbx, %rax
	jmp	.L407
.L464:
.L407:
	movq	%rax, %rbx
	jmp	.L408
.L463:
	movq	%rax, %rbx
.L408:
	.loc 40 34 122 discriminator 4
	leaq	464(%rbp), %rax
	movq	%rax, %rcx
	call	_ZN8wxStringD1Ev
	jmp	.L409
.L462:
	movq	%rax, %rbx
.L409:
	.loc 40 34 122 is_stmt 0 discriminator 2
	leaq	416(%rbp), %rax
	movq	%rax, %rcx
	call	_ZN8wxStringD1Ev
	jmp	.L404
.L467:
	movq	%rax, %rbx
	leaq	576(%rbp), %rax
	movq	%rax, %rcx
	call	_ZN8wxStringD1Ev
	jmp	.L404
.L473:
	movq	%rax, %rbx
	.loc 40 37 141 is_stmt 1
	movq	%rdi, %rcx
	call	_ZdlPv
	jmp	.L412
.L472:
	movq	%rax, %rbx
.L412:
	.loc 40 37 19 discriminator 8
	leaq	736(%rbp), %rax
	movq	%rax, %rcx
	call	_ZN8wxStringD1Ev
	movq	%rbx, %rax
	jmp	.L413
.L471:
.L413:
	movq	%rax, %rbx
	jmp	.L414
.L470:
	movq	%rax, %rbx
.L414:
	.loc 40 37 93 discriminator 4
	leaq	672(%rbp), %rax
	movq	%rax, %rcx
	call	_ZN8wxStringD1Ev
	jmp	.L415
.L469:
	movq	%rax, %rbx
.L415:
	.loc 40 37 93 is_stmt 0 discriminator 2
	leaq	624(%rbp), %rax
	movq	%rax, %rcx
	call	_ZN8wxStringD1Ev
	jmp	.L416
.L474:
	movq	%rax, %rbx
	.loc 40 38 40 is_stmt 1
	leaq	784(%rbp), %rax
	movq	%rax, %rcx
	call	_ZN8wxColourD1Ev
	jmp	.L416
.L475:
	movq	%rax, %rbx
	leaq	816(%rbp), %rax
	movq	%rax, %rcx
	call	_ZN8wxStringD1Ev
	jmp	.L416
.L479:
	movq	%rax, %rbx
	.loc 40 41 138
	movq	%rdi, %rcx
	call	_ZdlPv
	jmp	.L420
.L478:
	movq	%rax, %rbx
.L420:
	.loc 40 41 23 discriminator 3
	leaq	880(%rbp), %rax
	movq	%rax, %rcx
	call	_ZN8wxStringD1Ev
	movq	%rbx, %rax
	jmp	.L421
.L477:
.L421:
	movq	%rax, %rbx
	jmp	.L422
.L481:
	movq	%rax, %rbx
	.loc 40 42 132
	movq	%rdi, %rcx
	call	_ZdlPv
	movq	%rbx, %rax
	jmp	.L424
.L480:
.L424:
	movq	%rax, %rbx
	jmp	.L422
.L482:
	movq	%rax, %rbx
	.loc 40 45 130
	movq	%rdi, %rcx
	call	_ZdlPv
	jmp	.L422
.L483:
	movq	%rax, %rbx
	.loc 40 48 128
	movq	%rdi, %rcx
	call	_ZdlPv
	jmp	.L422
.L484:
	movq	%rax, %rbx
	.loc 40 51 132
	movq	%rdi, %rcx
	call	_ZdlPv
	jmp	.L422
.L485:
	movq	%rax, %rbx
	.loc 40 54 154
	movq	%rdi, %rcx
	call	_ZdlPv
	jmp	.L422
.L486:
	movq	%rax, %rbx
	.loc 40 57 142
	movq	%rdi, %rcx
	call	_ZdlPv
	jmp	.L422
.L488:
	movq	%rax, %rbx
	.loc 40 60 31
	leaq	1040(%rbp), %rax
	movq	%rax, %rcx
	call	_ZN8wxStringD1Ev
	jmp	.L431
.L487:
	movq	%rax, %rbx
.L431:
	.loc 40 60 31 is_stmt 0 discriminator 2
	leaq	992(%rbp), %rax
	movq	%rax, %rcx
	call	_ZN8wxStringD1Ev
	jmp	.L422
.L490:
	movq	%rax, %rbx
	.loc 40 61 31 is_stmt 1
	leaq	1136(%rbp), %rax
	movq	%rax, %rcx
	call	_ZN8wxStringD1Ev
	jmp	.L433
.L489:
	movq	%rax, %rbx
.L433:
	.loc 40 61 31 is_stmt 0 discriminator 2
	leaq	1088(%rbp), %rax
	movq	%rax, %rcx
	call	_ZN8wxStringD1Ev
	jmp	.L422
.L492:
	movq	%rax, %rbx
	.loc 40 62 31 is_stmt 1
	leaq	1232(%rbp), %rax
	movq	%rax, %rcx
	call	_ZN8wxStringD1Ev
	jmp	.L435
.L491:
	movq	%rax, %rbx
.L435:
	.loc 40 62 31 is_stmt 0 discriminator 2
	leaq	1184(%rbp), %rax
	movq	%rax, %rcx
	call	_ZN8wxStringD1Ev
	jmp	.L422
.L494:
	movq	%rax, %rbx
	.loc 40 63 31 is_stmt 1
	leaq	1328(%rbp), %rax
	movq	%rax, %rcx
	call	_ZN8wxStringD1Ev
	jmp	.L437
.L493:
	movq	%rax, %rbx
.L437:
	.loc 40 63 31 is_stmt 0 discriminator 2
	leaq	1280(%rbp), %rax
	movq	%rax, %rcx
	call	_ZN8wxStringD1Ev
	jmp	.L422
.L496:
	movq	%rax, %rbx
	.loc 40 64 31 is_stmt 1
	leaq	1424(%rbp), %rax
	movq	%rax, %rcx
	call	_ZN8wxStringD1Ev
	jmp	.L439
.L495:
	movq	%rax, %rbx
.L439:
	.loc 40 64 31 is_stmt 0 discriminator 2
	leaq	1376(%rbp), %rax
	movq	%rax, %rcx
	call	_ZN8wxStringD1Ev
	jmp	.L422
.L498:
	movq	%rax, %rbx
	.loc 40 65 31 is_stmt 1
	leaq	1520(%rbp), %rax
	movq	%rax, %rcx
	call	_ZN8wxStringD1Ev
	jmp	.L441
.L497:
	movq	%rax, %rbx
.L441:
	.loc 40 65 31 is_stmt 0 discriminator 2
	leaq	1472(%rbp), %rax
	movq	%rax, %rcx
	call	_ZN8wxStringD1Ev
	jmp	.L422
.L503:
	movq	%rax, %rbx
	.loc 40 66 201 is_stmt 1
	movq	%rdi, %rcx
	call	_ZdlPv
	jmp	.L443
.L502:
	movq	%rax, %rbx
.L443:
	.loc 40 66 15 discriminator 8
	leaq	1680(%rbp), %rax
	movq	%rax, %rcx
	call	_ZN8wxStringD1Ev
	movq	%rbx, %rax
	jmp	.L444
.L501:
.L444:
	movq	%rax, %rbx
	jmp	.L445
.L500:
	movq	%rax, %rbx
.L445:
	.loc 40 66 109 discriminator 4
	leaq	1616(%rbp), %rax
	movq	%rax, %rcx
	call	_ZN8wxStringD1Ev
	jmp	.L446
.L499:
	movq	%rax, %rbx
.L446:
	.loc 40 66 109 is_stmt 0 discriminator 2
	leaq	1568(%rbp), %rax
	movq	%rax, %rcx
	call	_ZN8wxStringD1Ev
	jmp	.L422
.L504:
	movq	%rax, %rbx
	leaq	1728(%rbp), %rax
	movq	%rax, %rcx
	call	_ZN8wxStringD1Ev
	jmp	.L422
.L509:
	movq	%rax, %rbx
	leaq	1776(%rbp), %rax
	movq	%rax, %rcx
	call	_ZNSt7__cxx1112basic_stringIcSt11char_traitsIcESaIcEED1Ev
	jmp	.L449
.L508:
	movq	%rax, %rbx
.L449:
	leaq	1968(%rbp), %rax
	movq	%rax, %rcx
	call	_ZNSt7__cxx1112basic_stringIcSt11char_traitsIcESaIcEED1Ev
	jmp	.L450
.L507:
	movq	%rax, %rbx
.L450:
	leaq	2015(%rbp), %rax
	movq	%rax, %rcx
	call	_ZNSaIcED1Ev
	leaq	1808(%rbp), %rax
	movq	%rax, %rcx
	call	_ZNSt7__cxx1112basic_stringIcSt11char_traitsIcESaIcEED1Ev
	jmp	.L451
.L506:
	movq	%rax, %rbx
.L451:
	leaq	1840(%rbp), %rax
	movq	%rax, %rcx
	call	_ZN8ProjetilD1Ev
	jmp	.L452
.L511:
	movq	%rax, %rbx
	.loc 40 75 35 is_stmt 1
	leaq	2016(%rbp), %rax
	movq	%rax, %rcx
	call	_ZN8wxStringD1Ev
	jmp	.L454
.L512:
	movq	%rax, %rbx
	.loc 40 78 42
	leaq	2064(%rbp), %rax
	movq	%rax, %rcx
	call	_ZN8wxStringD1Ev
	jmp	.L454
.L513:
	movq	%rax, %rbx
	.loc 40 79 42
	leaq	2112(%rbp), %rax
	movq	%rax, %rcx
	call	_ZN8wxStringD1Ev
	jmp	.L454
.L514:
	movq	%rax, %rbx
	.loc 40 80 42
	leaq	2160(%rbp), %rax
	movq	%rax, %rcx
	call	_ZN8wxStringD1Ev
	jmp	.L454
.L515:
	movq	%rax, %rbx
	.loc 40 83 19
	leaq	16(%rbp), %rax
	movq	%rax, %rcx
	call	_ZN15MathplotHandlerD1Ev
	jmp	.L454
.L510:
	movq	%rax, %rbx
.L454:
	.loc 40 73 109
	leaq	-32(%rbp), %rax
	movq	%rax, %rcx
	call	_ZN8wxStringD1Ev
	jmp	.L452
.L505:
	movq	%rax, %rbx
.L452:
	.loc 40 67 129
	leaq	208(%rbp), %rax
	movq	%rax, %rcx
	call	_ZN6wxFontD1Ev
	jmp	.L422
.L476:
	movq	%rax, %rbx
.L422:
	.loc 40 39 130
	leaq	224(%rbp), %rax
	movq	%rax, %rcx
	call	_ZN6wxFontD1Ev
	jmp	.L416
.L468:
	movq	%rax, %rbx
.L416:
	.loc 40 35 138
	leaq	240(%rbp), %rax
	movq	%rax, %rcx
	call	_ZN6wxFontD1Ev
	jmp	.L404
.L459:
	movq	%rax, %rbx
.L404:
.LBE87:
	.loc 40 29 105
	movq	2288(%rbp), %rax
	movq	%rax, %rcx
	call	_ZN8wxDialogD2Ev
	movq	%rbx, %rax
	movq	%rax, %rcx
.LEHB120:
	call	_Unwind_Resume
	nop
.LEHE120:
.L516:
.LBE88:
	.loc 40 92 1
	addq	$2344, %rsp
	popq	%rbx
	.cfi_restore 3
	popq	%rsi
	.cfi_restore 4
	popq	%rdi
	.cfi_restore 5
	popq	%r12
	.cfi_restore 12
	popq	%r13
	.cfi_restore 13
	popq	%r14
	.cfi_restore 14
	popq	%r15
	.cfi_restore 15
	popq	%rbp
	.cfi_restore 6
	.cfi_def_cfa 7, -2280
	ret
	.cfi_endproc
.LFE18268:
	.seh_handler	__gxx_personality_seh0, @unwind, @except
	.seh_handlerdata
.LLSDA18268:
	.byte	0xff
	.byte	0xff
	.byte	0x1
	.uleb128 .LLSDACSE18268-.LLSDACSB18268
.LLSDACSB18268:
	.uleb128 .LEHB47-.LFB18268
	.uleb128 .LEHE47-.LEHB47
	.uleb128 0
	.uleb128 0
	.uleb128 .LEHB48-.LFB18268
	.uleb128 .LEHE48-.LEHB48
	.uleb128 .L459-.LFB18268
	.uleb128 0
	.uleb128 .LEHB49-.LFB18268
	.uleb128 .LEHE49-.LEHB49
	.uleb128 .L460-.LFB18268
	.uleb128 0
	.uleb128 .LEHB50-.LFB18268
	.uleb128 .LEHE50-.LEHB50
	.uleb128 .L461-.LFB18268
	.uleb128 0
	.uleb128 .LEHB51-.LFB18268
	.uleb128 .LEHE51-.LEHB51
	.uleb128 .L459-.LFB18268
	.uleb128 0
	.uleb128 .LEHB52-.LFB18268
	.uleb128 .LEHE52-.LEHB52
	.uleb128 .L462-.LFB18268
	.uleb128 0
	.uleb128 .LEHB53-.LFB18268
	.uleb128 .LEHE53-.LEHB53
	.uleb128 .L463-.LFB18268
	.uleb128 0
	.uleb128 .LEHB54-.LFB18268
	.uleb128 .LEHE54-.LEHB54
	.uleb128 .L464-.LFB18268
	.uleb128 0
	.uleb128 .LEHB55-.LFB18268
	.uleb128 .LEHE55-.LEHB55
	.uleb128 .L465-.LFB18268
	.uleb128 0
	.uleb128 .LEHB56-.LFB18268
	.uleb128 .LEHE56-.LEHB56
	.uleb128 .L466-.LFB18268
	.uleb128 0
	.uleb128 .LEHB57-.LFB18268
	.uleb128 .LEHE57-.LEHB57
	.uleb128 .L459-.LFB18268
	.uleb128 0
	.uleb128 .LEHB58-.LFB18268
	.uleb128 .LEHE58-.LEHB58
	.uleb128 .L467-.LFB18268
	.uleb128 0
	.uleb128 .LEHB59-.LFB18268
	.uleb128 .LEHE59-.LEHB59
	.uleb128 .L468-.LFB18268
	.uleb128 0
	.uleb128 .LEHB60-.LFB18268
	.uleb128 .LEHE60-.LEHB60
	.uleb128 .L469-.LFB18268
	.uleb128 0
	.uleb128 .LEHB61-.LFB18268
	.uleb128 .LEHE61-.LEHB61
	.uleb128 .L470-.LFB18268
	.uleb128 0
	.uleb128 .LEHB62-.LFB18268
	.uleb128 .LEHE62-.LEHB62
	.uleb128 .L471-.LFB18268
	.uleb128 0
	.uleb128 .LEHB63-.LFB18268
	.uleb128 .LEHE63-.LEHB63
	.uleb128 .L472-.LFB18268
	.uleb128 0
	.uleb128 .LEHB64-.LFB18268
	.uleb128 .LEHE64-.LEHB64
	.uleb128 .L473-.LFB18268
	.uleb128 0
	.uleb128 .LEHB65-.LFB18268
	.uleb128 .LEHE65-.LEHB65
	.uleb128 .L468-.LFB18268
	.uleb128 0
	.uleb128 .LEHB66-.LFB18268
	.uleb128 .LEHE66-.LEHB66
	.uleb128 .L474-.LFB18268
	.uleb128 0
	.uleb128 .LEHB67-.LFB18268
	.uleb128 .LEHE67-.LEHB67
	.uleb128 .L468-.LFB18268
	.uleb128 0
	.uleb128 .LEHB68-.LFB18268
	.uleb128 .LEHE68-.LEHB68
	.uleb128 .L475-.LFB18268
	.uleb128 0
	.uleb128 .LEHB69-.LFB18268
	.uleb128 .LEHE69-.LEHB69
	.uleb128 .L476-.LFB18268
	.uleb128 0
	.uleb128 .LEHB70-.LFB18268
	.uleb128 .LEHE70-.LEHB70
	.uleb128 .L477-.LFB18268
	.uleb128 0
	.uleb128 .LEHB71-.LFB18268
	.uleb128 .LEHE71-.LEHB71
	.uleb128 .L478-.LFB18268
	.uleb128 0
	.uleb128 .LEHB72-.LFB18268
	.uleb128 .LEHE72-.LEHB72
	.uleb128 .L479-.LFB18268
	.uleb128 0
	.uleb128 .LEHB73-.LFB18268
	.uleb128 .LEHE73-.LEHB73
	.uleb128 .L480-.LFB18268
	.uleb128 0
	.uleb128 .LEHB74-.LFB18268
	.uleb128 .LEHE74-.LEHB74
	.uleb128 .L481-.LFB18268
	.uleb128 0
	.uleb128 .LEHB75-.LFB18268
	.uleb128 .LEHE75-.LEHB75
	.uleb128 .L476-.LFB18268
	.uleb128 0
	.uleb128 .LEHB76-.LFB18268
	.uleb128 .LEHE76-.LEHB76
	.uleb128 .L482-.LFB18268
	.uleb128 0
	.uleb128 .LEHB77-.LFB18268
	.uleb128 .LEHE77-.LEHB77
	.uleb128 .L476-.LFB18268
	.uleb128 0
	.uleb128 .LEHB78-.LFB18268
	.uleb128 .LEHE78-.LEHB78
	.uleb128 .L483-.LFB18268
	.uleb128 0
	.uleb128 .LEHB79-.LFB18268
	.uleb128 .LEHE79-.LEHB79
	.uleb128 .L476-.LFB18268
	.uleb128 0
	.uleb128 .LEHB80-.LFB18268
	.uleb128 .LEHE80-.LEHB80
	.uleb128 .L484-.LFB18268
	.uleb128 0
	.uleb128 .LEHB81-.LFB18268
	.uleb128 .LEHE81-.LEHB81
	.uleb128 .L476-.LFB18268
	.uleb128 0
	.uleb128 .LEHB82-.LFB18268
	.uleb128 .LEHE82-.LEHB82
	.uleb128 .L485-.LFB18268
	.uleb128 0
	.uleb128 .LEHB83-.LFB18268
	.uleb128 .LEHE83-.LEHB83
	.uleb128 .L476-.LFB18268
	.uleb128 0
	.uleb128 .LEHB84-.LFB18268
	.uleb128 .LEHE84-.LEHB84
	.uleb128 .L486-.LFB18268
	.uleb128 0
	.uleb128 .LEHB85-.LFB18268
	.uleb128 .LEHE85-.LEHB85
	.uleb128 .L476-.LFB18268
	.uleb128 0
	.uleb128 .LEHB86-.LFB18268
	.uleb128 .LEHE86-.LEHB86
	.uleb128 .L487-.LFB18268
	.uleb128 0
	.uleb128 .LEHB87-.LFB18268
	.uleb128 .LEHE87-.LEHB87
	.uleb128 .L488-.LFB18268
	.uleb128 0
	.uleb128 .LEHB88-.LFB18268
	.uleb128 .LEHE88-.LEHB88
	.uleb128 .L489-.LFB18268
	.uleb128 0
	.uleb128 .LEHB89-.LFB18268
	.uleb128 .LEHE89-.LEHB89
	.uleb128 .L490-.LFB18268
	.uleb128 0
	.uleb128 .LEHB90-.LFB18268
	.uleb128 .LEHE90-.LEHB90
	.uleb128 .L491-.LFB18268
	.uleb128 0
	.uleb128 .LEHB91-.LFB18268
	.uleb128 .LEHE91-.LEHB91
	.uleb128 .L492-.LFB18268
	.uleb128 0
	.uleb128 .LEHB92-.LFB18268
	.uleb128 .LEHE92-.LEHB92
	.uleb128 .L493-.LFB18268
	.uleb128 0
	.uleb128 .LEHB93-.LFB18268
	.uleb128 .LEHE93-.LEHB93
	.uleb128 .L494-.LFB18268
	.uleb128 0
	.uleb128 .LEHB94-.LFB18268
	.uleb128 .LEHE94-.LEHB94
	.uleb128 .L495-.LFB18268
	.uleb128 0
	.uleb128 .LEHB95-.LFB18268
	.uleb128 .LEHE95-.LEHB95
	.uleb128 .L496-.LFB18268
	.uleb128 0
	.uleb128 .LEHB96-.LFB18268
	.uleb128 .LEHE96-.LEHB96
	.uleb128 .L497-.LFB18268
	.uleb128 0
	.uleb128 .LEHB97-.LFB18268
	.uleb128 .LEHE97-.LEHB97
	.uleb128 .L498-.LFB18268
	.uleb128 0
	.uleb128 .LEHB98-.LFB18268
	.uleb128 .LEHE98-.LEHB98
	.uleb128 .L499-.LFB18268
	.uleb128 0
	.uleb128 .LEHB99-.LFB18268
	.uleb128 .LEHE99-.LEHB99
	.uleb128 .L500-.LFB18268
	.uleb128 0
	.uleb128 .LEHB100-.LFB18268
	.uleb128 .LEHE100-.LEHB100
	.uleb128 .L501-.LFB18268
	.uleb128 0
	.uleb128 .LEHB101-.LFB18268
	.uleb128 .LEHE101-.LEHB101
	.uleb128 .L502-.LFB18268
	.uleb128 0
	.uleb128 .LEHB102-.LFB18268
	.uleb128 .LEHE102-.LEHB102
	.uleb128 .L503-.LFB18268
	.uleb128 0
	.uleb128 .LEHB103-.LFB18268
	.uleb128 .LEHE103-.LEHB103
	.uleb128 .L476-.LFB18268
	.uleb128 0
	.uleb128 .LEHB104-.LFB18268
	.uleb128 .LEHE104-.LEHB104
	.uleb128 .L504-.LFB18268
	.uleb128 0
	.uleb128 .LEHB105-.LFB18268
	.uleb128 .LEHE105-.LEHB105
	.uleb128 .L505-.LFB18268
	.uleb128 0
	.uleb128 .LEHB106-.LFB18268
	.uleb128 .LEHE106-.LEHB106
	.uleb128 .L506-.LFB18268
	.uleb128 0
	.uleb128 .LEHB107-.LFB18268
	.uleb128 .LEHE107-.LEHB107
	.uleb128 .L507-.LFB18268
	.uleb128 0
	.uleb128 .LEHB108-.LFB18268
	.uleb128 .LEHE108-.LEHB108
	.uleb128 .L508-.LFB18268
	.uleb128 0
	.uleb128 .LEHB109-.LFB18268
	.uleb128 .LEHE109-.LEHB109
	.uleb128 .L509-.LFB18268
	.uleb128 0
	.uleb128 .LEHB110-.LFB18268
	.uleb128 .LEHE110-.LEHB110
	.uleb128 .L510-.LFB18268
	.uleb128 0
	.uleb128 .LEHB111-.LFB18268
	.uleb128 .LEHE111-.LEHB111
	.uleb128 .L511-.LFB18268
	.uleb128 0
	.uleb128 .LEHB112-.LFB18268
	.uleb128 .LEHE112-.LEHB112
	.uleb128 .L510-.LFB18268
	.uleb128 0
	.uleb128 .LEHB113-.LFB18268
	.uleb128 .LEHE113-.LEHB113
	.uleb128 .L512-.LFB18268
	.uleb128 0
	.uleb128 .LEHB114-.LFB18268
	.uleb128 .LEHE114-.LEHB114
	.uleb128 .L510-.LFB18268
	.uleb128 0
	.uleb128 .LEHB115-.LFB18268
	.uleb128 .LEHE115-.LEHB115
	.uleb128 .L513-.LFB18268
	.uleb128 0
	.uleb128 .LEHB116-.LFB18268
	.uleb128 .LEHE116-.LEHB116
	.uleb128 .L510-.LFB18268
	.uleb128 0
	.uleb128 .LEHB117-.LFB18268
	.uleb128 .LEHE117-.LEHB117
	.uleb128 .L514-.LFB18268
	.uleb128 0
	.uleb128 .LEHB118-.LFB18268
	.uleb128 .LEHE118-.LEHB118
	.uleb128 .L510-.LFB18268
	.uleb128 0
	.uleb128 .LEHB119-.LFB18268
	.uleb128 .LEHE119-.LEHB119
	.uleb128 .L515-.LFB18268
	.uleb128 0
	.uleb128 .LEHB120-.LFB18268
	.uleb128 .LEHE120-.LEHB120
	.uleb128 0
	.uleb128 0
.LLSDACSE18268:
	.text
	.seh_endproc
	.globl	_ZN26ProjetilCoeficientesDialogC1EP8wxWindow8Projetili
